
C:\Users\mateu\AppData\Local\Temp\arduino-sketch-898121D04CB05048718EA45BFF5947C1/cdc_arduino.ino.elf:     file format elf32-avr


Disassembly of section .text:

00000000 <__vectors>:
__vectors():
../../../../crt1/gcrt1.S:65
       0:	0c 94 18 01 	jmp	0x230	; 0x230 <__dtors_end>
../../../../crt1/gcrt1.S:67
       4:	0c 94 40 01 	jmp	0x280	; 0x280 <__bad_interrupt>
../../../../crt1/gcrt1.S:68
       8:	0c 94 40 01 	jmp	0x280	; 0x280 <__bad_interrupt>
../../../../crt1/gcrt1.S:69
       c:	0c 94 72 0f 	jmp	0x1ee4	; 0x1ee4 <__vector_27>
../../../../crt1/gcrt1.S:70
      10:	0c 94 72 0f 	jmp	0x1ee4	; 0x1ee4 <__vector_27>
../../../../crt1/gcrt1.S:71
      14:	0c 94 72 0f 	jmp	0x1ee4	; 0x1ee4 <__vector_27>
../../../../crt1/gcrt1.S:72
      18:	0c 94 40 01 	jmp	0x280	; 0x280 <__bad_interrupt>
../../../../crt1/gcrt1.S:73
      1c:	0c 94 56 0a 	jmp	0x14ac	; 0x14ac <__vector_7>
../../../../crt1/gcrt1.S:74
      20:	0c 94 40 01 	jmp	0x280	; 0x280 <__bad_interrupt>
../../../../crt1/gcrt1.S:75
      24:	0c 94 40 01 	jmp	0x280	; 0x280 <__bad_interrupt>
../../../../crt1/gcrt1.S:76
      28:	0c 94 07 0b 	jmp	0x160e	; 0x160e <__vector_10>
../../../../crt1/gcrt1.S:77
      2c:	0c 94 40 01 	jmp	0x280	; 0x280 <__bad_interrupt>
../../../../crt1/gcrt1.S:78
      30:	0c 94 40 01 	jmp	0x280	; 0x280 <__bad_interrupt>
../../../../crt1/gcrt1.S:79
      34:	0c 94 c4 0a 	jmp	0x1588	; 0x1588 <__vector_13>
../../../../crt1/gcrt1.S:80
      38:	0c 94 a0 0a 	jmp	0x1540	; 0x1540 <__vector_14>
../../../../crt1/gcrt1.S:81
      3c:	0c 94 40 01 	jmp	0x280	; 0x280 <__bad_interrupt>
../../../../crt1/gcrt1.S:82
      40:	0c 94 0d 16 	jmp	0x2c1a	; 0x2c1a <__vector_16>
../../../../crt1/gcrt1.S:83
      44:	0c 94 40 01 	jmp	0x280	; 0x280 <__bad_interrupt>
../../../../crt1/gcrt1.S:84
      48:	0c 94 3c 12 	jmp	0x2478	; 0x2478 <__vector_18>
../../../../crt1/gcrt1.S:85
      4c:	0c 94 6e 12 	jmp	0x24dc	; 0x24dc <__vector_19>
../../../../crt1/gcrt1.S:86
      50:	0c 94 40 01 	jmp	0x280	; 0x280 <__bad_interrupt>
../../../../crt1/gcrt1.S:87
      54:	0c 94 40 01 	jmp	0x280	; 0x280 <__bad_interrupt>
../../../../crt1/gcrt1.S:88
      58:	0c 94 40 01 	jmp	0x280	; 0x280 <__bad_interrupt>
../../../../crt1/gcrt1.S:89
      5c:	0c 94 40 01 	jmp	0x280	; 0x280 <__bad_interrupt>
../../../../crt1/gcrt1.S:90
      60:	0c 94 40 01 	jmp	0x280	; 0x280 <__bad_interrupt>
../../../../crt1/gcrt1.S:91
      64:	0c 94 40 01 	jmp	0x280	; 0x280 <__bad_interrupt>
../../../../crt1/gcrt1.S:92
      68:	0c 94 40 01 	jmp	0x280	; 0x280 <__bad_interrupt>
../../../../crt1/gcrt1.S:93
      6c:	0c 94 72 0f 	jmp	0x1ee4	; 0x1ee4 <__vector_27>
../../../../crt1/gcrt1.S:94
      70:	0c 94 40 01 	jmp	0x280	; 0x280 <__bad_interrupt>
../../../../crt1/gcrt1.S:95
      74:	0c 94 40 01 	jmp	0x280	; 0x280 <__bad_interrupt>
../../../../crt1/gcrt1.S:96
      78:	0c 94 40 01 	jmp	0x280	; 0x280 <__bad_interrupt>
../../../../crt1/gcrt1.S:97
      7c:	0c 94 40 01 	jmp	0x280	; 0x280 <__bad_interrupt>
../../../../crt1/gcrt1.S:98
      80:	0c 94 40 01 	jmp	0x280	; 0x280 <__bad_interrupt>
../../../../crt1/gcrt1.S:99
      84:	0c 94 40 01 	jmp	0x280	; 0x280 <__bad_interrupt>
../../../../crt1/gcrt1.S:100
      88:	0c 94 40 01 	jmp	0x280	; 0x280 <__bad_interrupt>
../../../../crt1/gcrt1.S:101
      8c:	0c 94 40 01 	jmp	0x280	; 0x280 <__bad_interrupt>
../../../../crt1/gcrt1.S:102
      90:	0c 94 40 01 	jmp	0x280	; 0x280 <__bad_interrupt>
../../../../crt1/gcrt1.S:103
      94:	0c 94 40 01 	jmp	0x280	; 0x280 <__bad_interrupt>
../../../../crt1/gcrt1.S:104
      98:	0c 94 40 01 	jmp	0x280	; 0x280 <__bad_interrupt>
../../../../crt1/gcrt1.S:105
      9c:	0c 94 40 01 	jmp	0x280	; 0x280 <__bad_interrupt>
../../../../crt1/gcrt1.S:106
      a0:	0c 94 40 01 	jmp	0x280	; 0x280 <__bad_interrupt>
../../../../crt1/gcrt1.S:107
      a4:	0c 94 40 01 	jmp	0x280	; 0x280 <__bad_interrupt>
../../../../crt1/gcrt1.S:108
      a8:	0c 94 40 01 	jmp	0x280	; 0x280 <__bad_interrupt>
../../../../crt1/gcrt1.S:109
      ac:	0c 94 40 01 	jmp	0x280	; 0x280 <__bad_interrupt>
../../../../crt1/gcrt1.S:110
      b0:	0c 94 40 01 	jmp	0x280	; 0x280 <__bad_interrupt>

000000b4 <__trampolines_end>:
__trampolines_start():
      b4:	31 2e       	mov	r3, r17
      b6:	30 61       	ori	r19, 0x10	; 16
	...

000000b9 <sHEX>:
      b9:	30 00 31 00 32 00 33 00 34 00 35 00 36 00 37 00     0.1.2.3.4.5.6.7.
      c9:	38 00 39 00 41 00 42 00 43 00 44 00 45 00 46 00     8.9.A.B.C.D.E.F.

000000d9 <sDASH>:
      d9:	5f 00                                               _.

000000db <sNEWLINE>:
      db:	0d 0a 00                                            ...

000000de <sIDENTIFY>:
      de:	41 75 64 69 20 43 6f 6e 63 65 72 74 20 49 20 4d     Audi Concert I M
      ee:	75 6c 74 69 6d 65 64 69 61 20 47 61 74 65 77 61     ultimedia Gatewa
      fe:	79 20 56 65 72 2e 00                                y Ver..

00000105 <sRING>:
     105:	52 49 4e 47 0d 0a 00                                RING...

0000010c <sPREVIOUS>:
     10c:	50 52 45 56 49 4f 55 53 0d 0a 00                    PREVIOUS...

00000117 <sNEXT>:
     117:	4e 45 58 54 0d 0a 00                                NEXT...

0000011e <sSCAN>:
     11e:	53 43 41 4e 0d 0a 00                                SCAN...

00000125 <sPLAY>:
     125:	50 4c 41 59 0d 0a 00                                PLAY...

0000012c <sRANDOM>:
     12c:	52 41 4e 44 4f 4d 0d 0a 00                          RANDOM...

00000135 <sLIST6>:
     135:	4c 49 53 54 36 0d 0a 00                             LIST6...

0000013d <sLIST5>:
     13d:	4c 49 53 54 35 0d 0a 00                             LIST5...

00000145 <sLIST4>:
     145:	4c 49 53 54 34 0d 0a 00                             LIST4...

0000014d <sLIST3>:
     14d:	4c 49 53 54 33 0d 0a 00                             LIST3...

00000155 <sLIST2>:
     155:	4c 49 53 54 32 0d 0a 00                             LIST2...

0000015d <sLIST1>:
     15d:	4c 49 53 54 31 0d 0a 00                             LIST1...

00000165 <sNXT_LIST>:
     165:	4e 58 54 5f 4c 49 53 54 0d 0a 00                    NXT_LIST...

00000170 <sPRV_LIST>:
     170:	50 52 56 5f 4c 49 53 54 0d 0a 00                    PRV_LIST...

0000017b <sMINQUIRY>:
     17b:	4d 49 4e 51 55 49 52 59 0d 0a 00                    MINQUIRY...

00000186 <sMENABLE>:
     186:	4d 45 4e 41 42 4c 45 0d 0a 00                       MENABLE...

00000190 <sMDISABLE>:
     190:	4d 44 49 53 41 42 4c 45 0d 0a 00                    MDISABLE...

0000019b <sOVERFLOW>:
     19b:	6f 76 65 72 66 6c 6f 77 0d 0a 00                    overflow...

000001a6 <sDATAERR>:
     1a6:	64 61 74 61 65 72 72 0d 0a 00                       dataerr...

000001b0 <digital_pin_to_timer_PGM>:
     1b0:	0a 0d 0e 09 00 03 02 00 00 04 05 08 00 00 00 00     ................
	...

000001cb <digital_pin_to_bit_mask_PGM>:
     1cb:	01 02 04 08 10 20 40 80 01 02 04 08 10 20 01 02     ..... @...... ..
     1db:	04 08 10 20 40 80 40 01 02 04 08                    ... @.@....

000001e6 <digital_pin_to_port_PGM>:
     1e6:	04 04 04 04 04 04 04 04 02 02 02 02 02 02 03 03     ................
     1f6:	03 03 03 03 02 02 03 05 05 05 05                    ...........

00000201 <port_to_input_PGM>:
     201:	00 00 00 00 23 00 26 00 29 00 2c 00                 ....#.&.).,.

0000020d <port_to_output_PGM>:
     20d:	00 00 00 00 25 00 28 00 2b 00 2e 00                 ....%.(.+...

00000219 <port_to_mode_PGM>:
     219:	00 00 00 00 24 00 27 00 2a 00 2d 00 00              ....$.'.*.-..

00000226 <__ctors_start>:
__ctors_start():
     226:	1b 07       	cpc	r17, r27
     228:	8d 07       	cpc	r24, r29
     22a:	9e 12       	cpse	r9, r30

0000022c <__ctors_end>:
__dtors_start():
     22c:	29 07       	cpc	r18, r25
     22e:	91 07       	cpc	r25, r17

00000230 <__dtors_end>:
__dtors_end():
../../../../crt1/gcrt1.S:230
     230:	11 24       	eor	r1, r1
../../../../crt1/gcrt1.S:231
     232:	1f be       	out	0x3f, r1	; 63
../../../../crt1/gcrt1.S:232
     234:	cf ef       	ldi	r28, 0xFF	; 255
../../../../crt1/gcrt1.S:241
     236:	d8 e0       	ldi	r29, 0x08	; 8
../../../../crt1/gcrt1.S:242
     238:	de bf       	out	0x3e, r29	; 62
../../../../crt1/gcrt1.S:244
     23a:	cd bf       	out	0x3d, r28	; 61

0000023c <__do_copy_data>:
__do_copy_data():
/home/jenkins-mingw32/workspace/avr-gcc-staging/label/Ubuntu14.04x64-mingw32/gcc-build/avr/avr5/libgcc/../../../../gcc/libgcc/config/avr/lib1funcs.S:2409
     23c:	12 e0       	ldi	r17, 0x02	; 2
/home/jenkins-mingw32/workspace/avr-gcc-staging/label/Ubuntu14.04x64-mingw32/gcc-build/avr/avr5/libgcc/../../../../gcc/libgcc/config/avr/lib1funcs.S:2410
     23e:	a0 e0       	ldi	r26, 0x00	; 0
/home/jenkins-mingw32/workspace/avr-gcc-staging/label/Ubuntu14.04x64-mingw32/gcc-build/avr/avr5/libgcc/../../../../gcc/libgcc/config/avr/lib1funcs.S:2411
     240:	b1 e0       	ldi	r27, 0x01	; 1
/home/jenkins-mingw32/workspace/avr-gcc-staging/label/Ubuntu14.04x64-mingw32/gcc-build/avr/avr5/libgcc/../../../../gcc/libgcc/config/avr/lib1funcs.S:2412
     242:	e2 e3       	ldi	r30, 0x32	; 50
/home/jenkins-mingw32/workspace/avr-gcc-staging/label/Ubuntu14.04x64-mingw32/gcc-build/avr/avr5/libgcc/../../../../gcc/libgcc/config/avr/lib1funcs.S:2413
     244:	f5 e3       	ldi	r31, 0x35	; 53
/home/jenkins-mingw32/workspace/avr-gcc-staging/label/Ubuntu14.04x64-mingw32/gcc-build/avr/avr5/libgcc/../../../../gcc/libgcc/config/avr/lib1funcs.S:2414
     246:	02 c0       	rjmp	.+4      	; 0x24c <__do_copy_data+0x10>
/home/jenkins-mingw32/workspace/avr-gcc-staging/label/Ubuntu14.04x64-mingw32/gcc-build/avr/avr5/libgcc/../../../../gcc/libgcc/config/avr/lib1funcs.S:2417
     248:	05 90       	lpm	r0, Z+
/home/jenkins-mingw32/workspace/avr-gcc-staging/label/Ubuntu14.04x64-mingw32/gcc-build/avr/avr5/libgcc/../../../../gcc/libgcc/config/avr/lib1funcs.S:2422
     24a:	0d 92       	st	X+, r0
/home/jenkins-mingw32/workspace/avr-gcc-staging/label/Ubuntu14.04x64-mingw32/gcc-build/avr/avr5/libgcc/../../../../gcc/libgcc/config/avr/lib1funcs.S:2424
     24c:	a2 3c       	cpi	r26, 0xC2	; 194
/home/jenkins-mingw32/workspace/avr-gcc-staging/label/Ubuntu14.04x64-mingw32/gcc-build/avr/avr5/libgcc/../../../../gcc/libgcc/config/avr/lib1funcs.S:2425
     24e:	b1 07       	cpc	r27, r17
/home/jenkins-mingw32/workspace/avr-gcc-staging/label/Ubuntu14.04x64-mingw32/gcc-build/avr/avr5/libgcc/../../../../gcc/libgcc/config/avr/lib1funcs.S:2426
     250:	d9 f7       	brne	.-10     	; 0x248 <__do_copy_data+0xc>

00000252 <__do_clear_bss>:
__do_clear_bss():
/home/jenkins-mingw32/workspace/avr-gcc-staging/label/Ubuntu14.04x64-mingw32/gcc-build/avr/avr5/libgcc/../../../../gcc/libgcc/config/avr/lib1funcs.S:2441
     252:	24 e0       	ldi	r18, 0x04	; 4
/home/jenkins-mingw32/workspace/avr-gcc-staging/label/Ubuntu14.04x64-mingw32/gcc-build/avr/avr5/libgcc/../../../../gcc/libgcc/config/avr/lib1funcs.S:2442
     254:	a2 ec       	ldi	r26, 0xC2	; 194
/home/jenkins-mingw32/workspace/avr-gcc-staging/label/Ubuntu14.04x64-mingw32/gcc-build/avr/avr5/libgcc/../../../../gcc/libgcc/config/avr/lib1funcs.S:2443
     256:	b2 e0       	ldi	r27, 0x02	; 2
/home/jenkins-mingw32/workspace/avr-gcc-staging/label/Ubuntu14.04x64-mingw32/gcc-build/avr/avr5/libgcc/../../../../gcc/libgcc/config/avr/lib1funcs.S:2444
     258:	01 c0       	rjmp	.+2      	; 0x25c <.do_clear_bss_start>

0000025a <.do_clear_bss_loop>:
/home/jenkins-mingw32/workspace/avr-gcc-staging/label/Ubuntu14.04x64-mingw32/gcc-build/avr/avr5/libgcc/../../../../gcc/libgcc/config/avr/lib1funcs.S:2446
     25a:	1d 92       	st	X+, r1

0000025c <.do_clear_bss_start>:
/home/jenkins-mingw32/workspace/avr-gcc-staging/label/Ubuntu14.04x64-mingw32/gcc-build/avr/avr5/libgcc/../../../../gcc/libgcc/config/avr/lib1funcs.S:2448
     25c:	ab 36       	cpi	r26, 0x6B	; 107
/home/jenkins-mingw32/workspace/avr-gcc-staging/label/Ubuntu14.04x64-mingw32/gcc-build/avr/avr5/libgcc/../../../../gcc/libgcc/config/avr/lib1funcs.S:2449
     25e:	b2 07       	cpc	r27, r18
/home/jenkins-mingw32/workspace/avr-gcc-staging/label/Ubuntu14.04x64-mingw32/gcc-build/avr/avr5/libgcc/../../../../gcc/libgcc/config/avr/lib1funcs.S:2450
     260:	e1 f7       	brne	.-8      	; 0x25a <.do_clear_bss_loop>

00000262 <__do_global_ctors>:
__do_global_ctors():
/home/jenkins-mingw32/workspace/avr-gcc-staging/label/Ubuntu14.04x64-mingw32/gcc-build/avr/avr5/libgcc/../../../../gcc/libgcc/config/avr/lib1funcs.S:2466
     262:	11 e0       	ldi	r17, 0x01	; 1
/home/jenkins-mingw32/workspace/avr-gcc-staging/label/Ubuntu14.04x64-mingw32/gcc-build/avr/avr5/libgcc/../../../../gcc/libgcc/config/avr/lib1funcs.S:2467
     264:	c6 e1       	ldi	r28, 0x16	; 22
/home/jenkins-mingw32/workspace/avr-gcc-staging/label/Ubuntu14.04x64-mingw32/gcc-build/avr/avr5/libgcc/../../../../gcc/libgcc/config/avr/lib1funcs.S:2468
     266:	d1 e0       	ldi	r29, 0x01	; 1
/home/jenkins-mingw32/workspace/avr-gcc-staging/label/Ubuntu14.04x64-mingw32/gcc-build/avr/avr5/libgcc/../../../../gcc/libgcc/config/avr/lib1funcs.S:2472
     268:	04 c0       	rjmp	.+8      	; 0x272 <__do_global_ctors+0x10>
/home/jenkins-mingw32/workspace/avr-gcc-staging/label/Ubuntu14.04x64-mingw32/gcc-build/avr/avr5/libgcc/../../../../gcc/libgcc/config/avr/lib1funcs.S:2474
     26a:	21 97       	sbiw	r28, 0x01	; 1
/home/jenkins-mingw32/workspace/avr-gcc-staging/label/Ubuntu14.04x64-mingw32/gcc-build/avr/avr5/libgcc/../../../../gcc/libgcc/config/avr/lib1funcs.S:2480
     26c:	fe 01       	movw	r30, r28
/home/jenkins-mingw32/workspace/avr-gcc-staging/label/Ubuntu14.04x64-mingw32/gcc-build/avr/avr5/libgcc/../../../../gcc/libgcc/config/avr/lib1funcs.S:2481
     26e:	0e 94 f7 17 	call	0x2fee	; 0x2fee <__tablejump2__>
/home/jenkins-mingw32/workspace/avr-gcc-staging/label/Ubuntu14.04x64-mingw32/gcc-build/avr/avr5/libgcc/../../../../gcc/libgcc/config/avr/lib1funcs.S:2483
     272:	c3 31       	cpi	r28, 0x13	; 19
/home/jenkins-mingw32/workspace/avr-gcc-staging/label/Ubuntu14.04x64-mingw32/gcc-build/avr/avr5/libgcc/../../../../gcc/libgcc/config/avr/lib1funcs.S:2484
     274:	d1 07       	cpc	r29, r17
/home/jenkins-mingw32/workspace/avr-gcc-staging/label/Ubuntu14.04x64-mingw32/gcc-build/avr/avr5/libgcc/../../../../gcc/libgcc/config/avr/lib1funcs.S:2489
     276:	c9 f7       	brne	.-14     	; 0x26a <__do_global_ctors+0x8>
../../../../crt1/gcrt1.S:314
     278:	0e 94 fe 15 	call	0x2bfc	; 0x2bfc <main>
../../../../crt1/gcrt1.S:315
     27c:	0c 94 8c 1a 	jmp	0x3518	; 0x3518 <__do_global_dtors>

00000280 <__bad_interrupt>:
__vector_38():
../../../../crt1/gcrt1.S:209
     280:	0c 94 00 00 	jmp	0	; 0x0 <__vectors>

00000284 <String::substring(unsigned int) const>:
_ZNK6String9substringEj():
C:\Users\mateu\Documents\GitHub\Audi-CDC-Emulator\Software\archive\cdc_arduino/BK3254.cpp:1066
String BK3254::decodePlayMode(playmode pl){
	switch(pl){
        case RepeatAll:                 return F("RepeatAll");
        case RepeatOne:                 return F("RepeatOne");
        case RepeatNone:                return F("RepeatNone");
        case Shuffle:			return F("Shuffle");
     284:	cf 93       	push	r28
     286:	df 93       	push	r29
     288:	ec 01       	movw	r28, r24
     28a:	fb 01       	movw	r30, r22
     28c:	24 81       	ldd	r18, Z+4	; 0x04
     28e:	35 81       	ldd	r19, Z+5	; 0x05
     290:	0e 94 ac 15 	call	0x2b58	; 0x2b58 <String::substring(unsigned int, unsigned int) const>
     294:	ce 01       	movw	r24, r28
     296:	df 91       	pop	r29
     298:	cf 91       	pop	r28
     29a:	08 95       	ret

0000029c <BK3254::BK3254(SoftwareSerial*, unsigned char)>:
_ZN6BK3254C2EP14SoftwareSerialh():
     29c:	ef 92       	push	r14
     29e:	ff 92       	push	r15
     2a0:	1f 93       	push	r17
     2a2:	cf 93       	push	r28
     2a4:	df 93       	push	r29
     2a6:	ec 01       	movw	r28, r24
     2a8:	7b 01       	movw	r14, r22
     2aa:	14 2f       	mov	r17, r20
     2ac:	81 e0       	ldi	r24, 0x01	; 1
     2ae:	88 83       	st	Y, r24
     2b0:	93 e0       	ldi	r25, 0x03	; 3
     2b2:	99 83       	std	Y+1, r25	; 0x01
     2b4:	8a 83       	std	Y+2, r24	; 0x02
     2b6:	8b 83       	std	Y+3, r24	; 0x03
     2b8:	1c 82       	std	Y+4, r1	; 0x04
     2ba:	8d 83       	std	Y+5, r24	; 0x05
     2bc:	88 e0       	ldi	r24, 0x08	; 8
     2be:	8e 83       	std	Y+6, r24	; 0x06
     2c0:	18 86       	std	Y+8, r1	; 0x08
     2c2:	1f 82       	std	Y+7, r1	; 0x07
     2c4:	1c 86       	std	Y+12, r1	; 0x0c
     2c6:	1b 86       	std	Y+11, r1	; 0x0b
     2c8:	1d 86       	std	Y+13, r1	; 0x0d
     2ca:	6c e1       	ldi	r22, 0x1C	; 28
     2cc:	72 e0       	ldi	r23, 0x02	; 2
     2ce:	ce 01       	movw	r24, r28
     2d0:	0e 96       	adiw	r24, 0x0e	; 14
     2d2:	0e 94 7a 14 	call	0x28f4	; 0x28f4 <String::String(char const*)>
     2d6:	6c e1       	ldi	r22, 0x1C	; 28
     2d8:	72 e0       	ldi	r23, 0x02	; 2
     2da:	ce 01       	movw	r24, r28
     2dc:	44 96       	adiw	r24, 0x14	; 20
     2de:	0e 94 7a 14 	call	0x28f4	; 0x28f4 <String::String(char const*)>
     2e2:	6c e1       	ldi	r22, 0x1C	; 28
     2e4:	72 e0       	ldi	r23, 0x02	; 2
     2e6:	ce 01       	movw	r24, r28
     2e8:	4a 96       	adiw	r24, 0x1a	; 26
     2ea:	0e 94 7a 14 	call	0x28f4	; 0x28f4 <String::String(char const*)>
     2ee:	6c e1       	ldi	r22, 0x1C	; 28
     2f0:	72 e0       	ldi	r23, 0x02	; 2
     2f2:	ce 01       	movw	r24, r28
     2f4:	80 96       	adiw	r24, 0x20	; 32
     2f6:	0e 94 7a 14 	call	0x28f4	; 0x28f4 <String::String(char const*)>
     2fa:	f8 a6       	std	Y+40, r15	; 0x28
     2fc:	ef a2       	std	Y+39, r14	; 0x27
     2fe:	1e a3       	std	Y+38, r17	; 0x26
     300:	df 91       	pop	r29
     302:	cf 91       	pop	r28
     304:	1f 91       	pop	r17
     306:	ff 90       	pop	r15
     308:	ef 90       	pop	r14
     30a:	08 95       	ret

0000030c <BK3254::~BK3254()>:
_ZN6BK3254D2Ev():
     30c:	cf 93       	push	r28
     30e:	df 93       	push	r29
     310:	ec 01       	movw	r28, r24
     312:	8f a1       	ldd	r24, Y+39	; 0x27
     314:	98 a5       	ldd	r25, Y+40	; 0x28
     316:	0e 94 02 11 	call	0x2204	; 0x2204 <SoftwareSerial::end()>
     31a:	ce 01       	movw	r24, r28
     31c:	80 96       	adiw	r24, 0x20	; 32
     31e:	0e 94 0b 14 	call	0x2816	; 0x2816 <String::~String()>
     322:	ce 01       	movw	r24, r28
     324:	4a 96       	adiw	r24, 0x1a	; 26
     326:	0e 94 0b 14 	call	0x2816	; 0x2816 <String::~String()>
     32a:	ce 01       	movw	r24, r28
     32c:	44 96       	adiw	r24, 0x14	; 20
     32e:	0e 94 0b 14 	call	0x2816	; 0x2816 <String::~String()>
     332:	ce 01       	movw	r24, r28
     334:	0e 96       	adiw	r24, 0x0e	; 14
     336:	df 91       	pop	r29
     338:	cf 91       	pop	r28
     33a:	0c 94 0b 14 	jmp	0x2816	; 0x2816 <String::~String()>

0000033e <BK3254::begin(unsigned long)>:
_ZN6BK32545beginEm():
     33e:	fc 01       	movw	r30, r24
     340:	87 a1       	ldd	r24, Z+39	; 0x27
     342:	90 a5       	ldd	r25, Z+40	; 0x28
     344:	0c 94 70 10 	jmp	0x20e0	; 0x20e0 <SoftwareSerial::begin(long)>

00000348 <BK3254::returnCallerID(String)>:
_ZN6BK325414returnCallerIDE6String():
     348:	cf 93       	push	r28
     34a:	df 93       	push	r29
     34c:	ec 01       	movw	r28, r24
     34e:	ba 01       	movw	r22, r20
     350:	fa 01       	movw	r30, r20
     352:	24 81       	ldd	r18, Z+4	; 0x04
     354:	35 81       	ldd	r19, Z+5	; 0x05
     356:	22 50       	subi	r18, 0x02	; 2
     358:	31 09       	sbc	r19, r1
     35a:	44 e0       	ldi	r20, 0x04	; 4
     35c:	50 e0       	ldi	r21, 0x00	; 0
     35e:	0e 94 ac 15 	call	0x2b58	; 0x2b58 <String::substring(unsigned int, unsigned int) const>
     362:	ce 01       	movw	r24, r28
     364:	df 91       	pop	r29
     366:	cf 91       	pop	r28
     368:	08 95       	ret

0000036a <BK3254::decodeReceivedString(String)>:
_ZN6BK325420decodeReceivedStringE6String():
     36a:	ef 92       	push	r14
     36c:	ff 92       	push	r15
     36e:	0f 93       	push	r16
     370:	1f 93       	push	r17
     372:	cf 93       	push	r28
     374:	df 93       	push	r29
     376:	cd b7       	in	r28, 0x3d	; 61
     378:	de b7       	in	r29, 0x3e	; 62
     37a:	2c 97       	sbiw	r28, 0x0c	; 12
     37c:	0f b6       	in	r0, 0x3f	; 63
     37e:	f8 94       	cli
     380:	de bf       	out	0x3e, r29	; 62
     382:	0f be       	out	0x3f, r0	; 63
     384:	cd bf       	out	0x3d, r28	; 61
     386:	8c 01       	movw	r16, r24
     388:	7b 01       	movw	r14, r22
     38a:	70 e0       	ldi	r23, 0x00	; 0
     38c:	60 e0       	ldi	r22, 0x00	; 0
     38e:	c7 01       	movw	r24, r14
     390:	0e 94 9a 15 	call	0x2b34	; 0x2b34 <String::operator[](unsigned int)>
     394:	45 e0       	ldi	r20, 0x05	; 5
     396:	50 e0       	ldi	r21, 0x00	; 0
     398:	68 e0       	ldi	r22, 0x08	; 8
     39a:	71 e0       	ldi	r23, 0x01	; 1
     39c:	0e 94 1a 1a 	call	0x3434	; 0x3434 <memcmp>
     3a0:	89 2b       	or	r24, r25
     3a2:	61 f4       	brne	.+24     	; 0x3bc <BK3254::decodeReceivedString(String)+0x52>
     3a4:	81 e0       	ldi	r24, 0x01	; 1
     3a6:	f8 01       	movw	r30, r16
     3a8:	84 83       	std	Z+4, r24	; 0x04
     3aa:	12 82       	std	Z+2, r1	; 0x02
     3ac:	13 82       	std	Z+3, r1	; 0x03
     3ae:	6c e1       	ldi	r22, 0x1C	; 28
     3b0:	72 e0       	ldi	r23, 0x02	; 2
     3b2:	c7 01       	movw	r24, r14
     3b4:	0e 94 02 15 	call	0x2a04	; 0x2a04 <String::operator=(char const*)>
     3b8:	81 e0       	ldi	r24, 0x01	; 1
     3ba:	b8 c0       	rjmp	.+368    	; 0x52c <__EEPROM_REGION_LENGTH__+0x12c>
     3bc:	70 e0       	ldi	r23, 0x00	; 0
     3be:	60 e0       	ldi	r22, 0x00	; 0
     3c0:	c7 01       	movw	r24, r14
     3c2:	0e 94 9a 15 	call	0x2b34	; 0x2b34 <String::operator[](unsigned int)>
     3c6:	45 e0       	ldi	r20, 0x05	; 5
     3c8:	50 e0       	ldi	r21, 0x00	; 0
     3ca:	6e e0       	ldi	r22, 0x0E	; 14
     3cc:	71 e0       	ldi	r23, 0x01	; 1
     3ce:	0e 94 1a 1a 	call	0x3434	; 0x3434 <memcmp>
     3d2:	89 2b       	or	r24, r25
     3d4:	29 f4       	brne	.+10     	; 0x3e0 <BK3254::decodeReceivedString(String)+0x76>
     3d6:	81 e0       	ldi	r24, 0x01	; 1
     3d8:	f8 01       	movw	r30, r16
     3da:	84 83       	std	Z+4, r24	; 0x04
     3dc:	82 83       	std	Z+2, r24	; 0x02
     3de:	e6 cf       	rjmp	.-52     	; 0x3ac <BK3254::decodeReceivedString(String)+0x42>
     3e0:	70 e0       	ldi	r23, 0x00	; 0
     3e2:	60 e0       	ldi	r22, 0x00	; 0
     3e4:	c7 01       	movw	r24, r14
     3e6:	0e 94 9a 15 	call	0x2b34	; 0x2b34 <String::operator[](unsigned int)>
     3ea:	45 e0       	ldi	r20, 0x05	; 5
     3ec:	50 e0       	ldi	r21, 0x00	; 0
     3ee:	64 e1       	ldi	r22, 0x14	; 20
     3f0:	71 e0       	ldi	r23, 0x01	; 1
     3f2:	0e 94 1a 1a 	call	0x3434	; 0x3434 <memcmp>
     3f6:	89 2b       	or	r24, r25
     3f8:	19 f4       	brne	.+6      	; 0x400 <__EEPROM_REGION_LENGTH__>
     3fa:	f8 01       	movw	r30, r16
     3fc:	14 82       	std	Z+4, r1	; 0x04
     3fe:	d6 cf       	rjmp	.-84     	; 0x3ac <BK3254::decodeReceivedString(String)+0x42>
     400:	70 e0       	ldi	r23, 0x00	; 0
     402:	60 e0       	ldi	r22, 0x00	; 0
     404:	c7 01       	movw	r24, r14
     406:	0e 94 9a 15 	call	0x2b34	; 0x2b34 <String::operator[](unsigned int)>
     40a:	45 e0       	ldi	r20, 0x05	; 5
     40c:	50 e0       	ldi	r21, 0x00	; 0
     40e:	6a e1       	ldi	r22, 0x1A	; 26
     410:	71 e0       	ldi	r23, 0x01	; 1
     412:	0e 94 1a 1a 	call	0x3434	; 0x3434 <memcmp>
     416:	89 2b       	or	r24, r25
     418:	39 f4       	brne	.+14     	; 0x428 <__EEPROM_REGION_LENGTH__+0x28>
     41a:	f8 01       	movw	r30, r16
     41c:	14 82       	std	Z+4, r1	; 0x04
     41e:	10 82       	st	Z, r1
     420:	13 82       	std	Z+3, r1	; 0x03
     422:	83 e0       	ldi	r24, 0x03	; 3
     424:	81 83       	std	Z+1, r24	; 0x01
     426:	c3 cf       	rjmp	.-122    	; 0x3ae <BK3254::decodeReceivedString(String)+0x44>
     428:	70 e0       	ldi	r23, 0x00	; 0
     42a:	60 e0       	ldi	r22, 0x00	; 0
     42c:	c7 01       	movw	r24, r14
     42e:	0e 94 9a 15 	call	0x2b34	; 0x2b34 <String::operator[](unsigned int)>
     432:	45 e0       	ldi	r20, 0x05	; 5
     434:	50 e0       	ldi	r21, 0x00	; 0
     436:	60 e2       	ldi	r22, 0x20	; 32
     438:	71 e0       	ldi	r23, 0x01	; 1
     43a:	0e 94 1a 1a 	call	0x3434	; 0x3434 <memcmp>
     43e:	89 2b       	or	r24, r25
     440:	29 f4       	brne	.+10     	; 0x44c <__EEPROM_REGION_LENGTH__+0x4c>
     442:	f8 01       	movw	r30, r16
     444:	14 82       	std	Z+4, r1	; 0x04
     446:	82 e0       	ldi	r24, 0x02	; 2
     448:	81 83       	std	Z+1, r24	; 0x01
     44a:	b0 cf       	rjmp	.-160    	; 0x3ac <BK3254::decodeReceivedString(String)+0x42>
     44c:	70 e0       	ldi	r23, 0x00	; 0
     44e:	60 e0       	ldi	r22, 0x00	; 0
     450:	c7 01       	movw	r24, r14
     452:	0e 94 9a 15 	call	0x2b34	; 0x2b34 <String::operator[](unsigned int)>
     456:	45 e0       	ldi	r20, 0x05	; 5
     458:	50 e0       	ldi	r21, 0x00	; 0
     45a:	66 e2       	ldi	r22, 0x26	; 38
     45c:	71 e0       	ldi	r23, 0x01	; 1
     45e:	0e 94 1a 1a 	call	0x3434	; 0x3434 <memcmp>
     462:	89 2b       	or	r24, r25
     464:	21 f4       	brne	.+8      	; 0x46e <__EEPROM_REGION_LENGTH__+0x6e>
     466:	f8 01       	movw	r30, r16
     468:	14 82       	std	Z+4, r1	; 0x04
     46a:	11 82       	std	Z+1, r1	; 0x01
     46c:	9f cf       	rjmp	.-194    	; 0x3ac <BK3254::decodeReceivedString(String)+0x42>
     46e:	70 e0       	ldi	r23, 0x00	; 0
     470:	60 e0       	ldi	r22, 0x00	; 0
     472:	c7 01       	movw	r24, r14
     474:	0e 94 9a 15 	call	0x2b34	; 0x2b34 <String::operator[](unsigned int)>
     478:	45 e0       	ldi	r20, 0x05	; 5
     47a:	50 e0       	ldi	r21, 0x00	; 0
     47c:	6c e2       	ldi	r22, 0x2C	; 44
     47e:	71 e0       	ldi	r23, 0x01	; 1
     480:	0e 94 1a 1a 	call	0x3434	; 0x3434 <memcmp>
     484:	89 2b       	or	r24, r25
     486:	29 f4       	brne	.+10     	; 0x492 <__EEPROM_REGION_LENGTH__+0x92>
     488:	f8 01       	movw	r30, r16
     48a:	14 82       	std	Z+4, r1	; 0x04
     48c:	82 e0       	ldi	r24, 0x02	; 2
     48e:	80 83       	st	Z, r24
     490:	c7 cf       	rjmp	.-114    	; 0x420 <__EEPROM_REGION_LENGTH__+0x20>
     492:	70 e0       	ldi	r23, 0x00	; 0
     494:	60 e0       	ldi	r22, 0x00	; 0
     496:	c7 01       	movw	r24, r14
     498:	0e 94 9a 15 	call	0x2b34	; 0x2b34 <String::operator[](unsigned int)>
     49c:	45 e0       	ldi	r20, 0x05	; 5
     49e:	50 e0       	ldi	r21, 0x00	; 0
     4a0:	62 e3       	ldi	r22, 0x32	; 50
     4a2:	71 e0       	ldi	r23, 0x01	; 1
     4a4:	0e 94 1a 1a 	call	0x3434	; 0x3434 <memcmp>
     4a8:	89 2b       	or	r24, r25
     4aa:	31 f4       	brne	.+12     	; 0x4b8 <__EEPROM_REGION_LENGTH__+0xb8>
     4ac:	f8 01       	movw	r30, r16
     4ae:	14 82       	std	Z+4, r1	; 0x04
     4b0:	83 e0       	ldi	r24, 0x03	; 3
     4b2:	80 83       	st	Z, r24
     4b4:	13 82       	std	Z+3, r1	; 0x03
     4b6:	b6 cf       	rjmp	.-148    	; 0x424 <__EEPROM_REGION_LENGTH__+0x24>
     4b8:	70 e0       	ldi	r23, 0x00	; 0
     4ba:	60 e0       	ldi	r22, 0x00	; 0
     4bc:	c7 01       	movw	r24, r14
     4be:	0e 94 9a 15 	call	0x2b34	; 0x2b34 <String::operator[](unsigned int)>
     4c2:	45 e0       	ldi	r20, 0x05	; 5
     4c4:	50 e0       	ldi	r21, 0x00	; 0
     4c6:	68 e3       	ldi	r22, 0x38	; 56
     4c8:	71 e0       	ldi	r23, 0x01	; 1
     4ca:	0e 94 1a 1a 	call	0x3434	; 0x3434 <memcmp>
     4ce:	89 2b       	or	r24, r25
     4d0:	21 f4       	brne	.+8      	; 0x4da <__EEPROM_REGION_LENGTH__+0xda>
     4d2:	f8 01       	movw	r30, r16
     4d4:	14 82       	std	Z+4, r1	; 0x04
     4d6:	81 e0       	ldi	r24, 0x01	; 1
     4d8:	b7 cf       	rjmp	.-146    	; 0x448 <__EEPROM_REGION_LENGTH__+0x48>
     4da:	70 e0       	ldi	r23, 0x00	; 0
     4dc:	60 e0       	ldi	r22, 0x00	; 0
     4de:	c7 01       	movw	r24, r14
     4e0:	0e 94 9a 15 	call	0x2b34	; 0x2b34 <String::operator[](unsigned int)>
     4e4:	45 e0       	ldi	r20, 0x05	; 5
     4e6:	50 e0       	ldi	r21, 0x00	; 0
     4e8:	6e e3       	ldi	r22, 0x3E	; 62
     4ea:	71 e0       	ldi	r23, 0x01	; 1
     4ec:	0e 94 1a 1a 	call	0x3434	; 0x3434 <memcmp>
     4f0:	89 2b       	or	r24, r25
     4f2:	39 f4       	brne	.+14     	; 0x502 <__EEPROM_REGION_LENGTH__+0x102>
     4f4:	f8 01       	movw	r30, r16
     4f6:	14 82       	std	Z+4, r1	; 0x04
     4f8:	83 e0       	ldi	r24, 0x03	; 3
     4fa:	81 83       	std	Z+1, r24	; 0x01
     4fc:	12 82       	std	Z+2, r1	; 0x02
     4fe:	10 82       	st	Z, r1
     500:	55 cf       	rjmp	.-342    	; 0x3ac <BK3254::decodeReceivedString(String)+0x42>
     502:	70 e0       	ldi	r23, 0x00	; 0
     504:	60 e0       	ldi	r22, 0x00	; 0
     506:	c7 01       	movw	r24, r14
     508:	0e 94 9a 15 	call	0x2b34	; 0x2b34 <String::operator[](unsigned int)>
     50c:	43 e0       	ldi	r20, 0x03	; 3
     50e:	50 e0       	ldi	r21, 0x00	; 0
     510:	64 e4       	ldi	r22, 0x44	; 68
     512:	71 e0       	ldi	r23, 0x01	; 1
     514:	0e 94 1a 1a 	call	0x3434	; 0x3434 <memcmp>
     518:	89 2b       	or	r24, r25
     51a:	a9 f4       	brne	.+42     	; 0x546 <__EEPROM_REGION_LENGTH__+0x146>
     51c:	f8 01       	movw	r30, r16
     51e:	13 82       	std	Z+3, r1	; 0x03
     520:	6c e1       	ldi	r22, 0x1C	; 28
     522:	72 e0       	ldi	r23, 0x02	; 2
     524:	c7 01       	movw	r24, r14
     526:	0e 94 02 15 	call	0x2a04	; 0x2a04 <String::operator=(char const*)>
     52a:	80 e0       	ldi	r24, 0x00	; 0
     52c:	2c 96       	adiw	r28, 0x0c	; 12
     52e:	0f b6       	in	r0, 0x3f	; 63
     530:	f8 94       	cli
     532:	de bf       	out	0x3e, r29	; 62
     534:	0f be       	out	0x3f, r0	; 63
     536:	cd bf       	out	0x3d, r28	; 61
     538:	df 91       	pop	r29
     53a:	cf 91       	pop	r28
     53c:	1f 91       	pop	r17
     53e:	0f 91       	pop	r16
     540:	ff 90       	pop	r15
     542:	ef 90       	pop	r14
     544:	08 95       	ret
     546:	70 e0       	ldi	r23, 0x00	; 0
     548:	60 e0       	ldi	r22, 0x00	; 0
     54a:	c7 01       	movw	r24, r14
     54c:	0e 94 9a 15 	call	0x2b34	; 0x2b34 <String::operator[](unsigned int)>
     550:	46 e0       	ldi	r20, 0x06	; 6
     552:	50 e0       	ldi	r21, 0x00	; 0
     554:	68 e4       	ldi	r22, 0x48	; 72
     556:	71 e0       	ldi	r23, 0x01	; 1
     558:	0e 94 1a 1a 	call	0x3434	; 0x3434 <memcmp>
     55c:	89 2b       	or	r24, r25
     55e:	b1 f4       	brne	.+44     	; 0x58c <__EEPROM_REGION_LENGTH__+0x18c>
     560:	46 e0       	ldi	r20, 0x06	; 6
     562:	50 e0       	ldi	r21, 0x00	; 0
     564:	b7 01       	movw	r22, r14
     566:	ce 01       	movw	r24, r28
     568:	01 96       	adiw	r24, 0x01	; 1
     56a:	0e 94 42 01 	call	0x284	; 0x284 <String::substring(unsigned int) const>
     56e:	ce 01       	movw	r24, r28
     570:	01 96       	adiw	r24, 0x01	; 1
     572:	0e 94 f2 15 	call	0x2be4	; 0x2be4 <String::toInt() const>
     576:	f8 01       	movw	r30, r16
     578:	74 87       	std	Z+12, r23	; 0x0c
     57a:	63 87       	std	Z+11, r22	; 0x0b
     57c:	ce 01       	movw	r24, r28
     57e:	01 96       	adiw	r24, 0x01	; 1
     580:	0e 94 0b 14 	call	0x2816	; 0x2816 <String::~String()>
     584:	84 e0       	ldi	r24, 0x04	; 4
     586:	f8 01       	movw	r30, r16
     588:	84 83       	std	Z+4, r24	; 0x04
     58a:	11 c0       	rjmp	.+34     	; 0x5ae <__EEPROM_REGION_LENGTH__+0x1ae>
     58c:	70 e0       	ldi	r23, 0x00	; 0
     58e:	60 e0       	ldi	r22, 0x00	; 0
     590:	c7 01       	movw	r24, r14
     592:	0e 94 9a 15 	call	0x2b34	; 0x2b34 <String::operator[](unsigned int)>
     596:	45 e0       	ldi	r20, 0x05	; 5
     598:	50 e0       	ldi	r21, 0x00	; 0
     59a:	6f e4       	ldi	r22, 0x4F	; 79
     59c:	71 e0       	ldi	r23, 0x01	; 1
     59e:	0e 94 1a 1a 	call	0x3434	; 0x3434 <memcmp>
     5a2:	89 2b       	or	r24, r25
     5a4:	31 f4       	brne	.+12     	; 0x5b2 <__EEPROM_REGION_LENGTH__+0x1b2>
     5a6:	84 e0       	ldi	r24, 0x04	; 4
     5a8:	f8 01       	movw	r30, r16
     5aa:	84 83       	std	Z+4, r24	; 0x04
     5ac:	12 82       	std	Z+2, r1	; 0x02
     5ae:	81 e0       	ldi	r24, 0x01	; 1
     5b0:	12 c0       	rjmp	.+36     	; 0x5d6 <__EEPROM_REGION_LENGTH__+0x1d6>
     5b2:	70 e0       	ldi	r23, 0x00	; 0
     5b4:	60 e0       	ldi	r22, 0x00	; 0
     5b6:	c7 01       	movw	r24, r14
     5b8:	0e 94 9a 15 	call	0x2b34	; 0x2b34 <String::operator[](unsigned int)>
     5bc:	45 e0       	ldi	r20, 0x05	; 5
     5be:	50 e0       	ldi	r21, 0x00	; 0
     5c0:	65 e5       	ldi	r22, 0x55	; 85
     5c2:	71 e0       	ldi	r23, 0x01	; 1
     5c4:	0e 94 1a 1a 	call	0x3434	; 0x3434 <memcmp>
     5c8:	89 2b       	or	r24, r25
     5ca:	39 f4       	brne	.+14     	; 0x5da <__EEPROM_REGION_LENGTH__+0x1da>
     5cc:	84 e0       	ldi	r24, 0x04	; 4
     5ce:	f8 01       	movw	r30, r16
     5d0:	84 83       	std	Z+4, r24	; 0x04
     5d2:	81 e0       	ldi	r24, 0x01	; 1
     5d4:	82 83       	std	Z+2, r24	; 0x02
     5d6:	80 83       	st	Z, r24
     5d8:	e9 ce       	rjmp	.-558    	; 0x3ac <BK3254::decodeReceivedString(String)+0x42>
     5da:	70 e0       	ldi	r23, 0x00	; 0
     5dc:	60 e0       	ldi	r22, 0x00	; 0
     5de:	c7 01       	movw	r24, r14
     5e0:	0e 94 9a 15 	call	0x2b34	; 0x2b34 <String::operator[](unsigned int)>
     5e4:	45 e0       	ldi	r20, 0x05	; 5
     5e6:	50 e0       	ldi	r21, 0x00	; 0
     5e8:	6b e5       	ldi	r22, 0x5B	; 91
     5ea:	71 e0       	ldi	r23, 0x01	; 1
     5ec:	0e 94 1a 1a 	call	0x3434	; 0x3434 <memcmp>
     5f0:	89 2b       	or	r24, r25
     5f2:	41 f2       	breq	.-112    	; 0x584 <__EEPROM_REGION_LENGTH__+0x184>
     5f4:	70 e0       	ldi	r23, 0x00	; 0
     5f6:	60 e0       	ldi	r22, 0x00	; 0
     5f8:	c7 01       	movw	r24, r14
     5fa:	0e 94 9a 15 	call	0x2b34	; 0x2b34 <String::operator[](unsigned int)>
     5fe:	42 e0       	ldi	r20, 0x02	; 2
     600:	50 e0       	ldi	r21, 0x00	; 0
     602:	61 e6       	ldi	r22, 0x61	; 97
     604:	71 e0       	ldi	r23, 0x01	; 1
     606:	0e 94 1a 1a 	call	0x3434	; 0x3434 <memcmp>
     60a:	89 2b       	or	r24, r25
     60c:	19 f4       	brne	.+6      	; 0x614 <__EEPROM_REGION_LENGTH__+0x214>
     60e:	f8 01       	movw	r30, r16
     610:	14 82       	std	Z+4, r1	; 0x04
     612:	cd cf       	rjmp	.-102    	; 0x5ae <__EEPROM_REGION_LENGTH__+0x1ae>
     614:	70 e0       	ldi	r23, 0x00	; 0
     616:	60 e0       	ldi	r22, 0x00	; 0
     618:	c7 01       	movw	r24, r14
     61a:	0e 94 9a 15 	call	0x2b34	; 0x2b34 <String::operator[](unsigned int)>
     61e:	42 e0       	ldi	r20, 0x02	; 2
     620:	50 e0       	ldi	r21, 0x00	; 0
     622:	64 e6       	ldi	r22, 0x64	; 100
     624:	71 e0       	ldi	r23, 0x01	; 1
     626:	0e 94 1a 1a 	call	0x3434	; 0x3434 <memcmp>
     62a:	89 2b       	or	r24, r25
     62c:	19 f4       	brne	.+6      	; 0x634 <__EEPROM_REGION_LENGTH__+0x234>
     62e:	f8 01       	movw	r30, r16
     630:	14 82       	std	Z+4, r1	; 0x04
     632:	65 cf       	rjmp	.-310    	; 0x4fe <__EEPROM_REGION_LENGTH__+0xfe>
     634:	70 e0       	ldi	r23, 0x00	; 0
     636:	60 e0       	ldi	r22, 0x00	; 0
     638:	c7 01       	movw	r24, r14
     63a:	0e 94 9a 15 	call	0x2b34	; 0x2b34 <String::operator[](unsigned int)>
     63e:	43 e0       	ldi	r20, 0x03	; 3
     640:	50 e0       	ldi	r21, 0x00	; 0
     642:	67 e6       	ldi	r22, 0x67	; 103
     644:	71 e0       	ldi	r23, 0x01	; 1
     646:	0e 94 1a 1a 	call	0x3434	; 0x3434 <memcmp>
     64a:	89 2b       	or	r24, r25
     64c:	01 f5       	brne	.+64     	; 0x68e <__EEPROM_REGION_LENGTH__+0x28e>
     64e:	f8 01       	movw	r30, r16
     650:	14 82       	std	Z+4, r1	; 0x04
     652:	10 82       	st	Z, r1
     654:	b7 01       	movw	r22, r14
     656:	ce 01       	movw	r24, r28
     658:	07 96       	adiw	r24, 0x07	; 7
     65a:	0e 94 ed 14 	call	0x29da	; 0x29da <String::String(String const&)>
     65e:	ae 01       	movw	r20, r28
     660:	49 5f       	subi	r20, 0xF9	; 249
     662:	5f 4f       	sbci	r21, 0xFF	; 255
     664:	b8 01       	movw	r22, r16
     666:	ce 01       	movw	r24, r28
     668:	01 96       	adiw	r24, 0x01	; 1
     66a:	0e 94 a4 01 	call	0x348	; 0x348 <BK3254::returnCallerID(String)>
     66e:	be 01       	movw	r22, r28
     670:	6f 5f       	subi	r22, 0xFF	; 255
     672:	7f 4f       	sbci	r23, 0xFF	; 255
     674:	c8 01       	movw	r24, r16
     676:	0e 96       	adiw	r24, 0x0e	; 14
     678:	0e 94 f6 14 	call	0x29ec	; 0x29ec <String::operator=(String&&)>
     67c:	ce 01       	movw	r24, r28
     67e:	01 96       	adiw	r24, 0x01	; 1
     680:	0e 94 0b 14 	call	0x2816	; 0x2816 <String::~String()>
     684:	ce 01       	movw	r24, r28
     686:	07 96       	adiw	r24, 0x07	; 7
     688:	0e 94 0b 14 	call	0x2816	; 0x2816 <String::~String()>
     68c:	0d c0       	rjmp	.+26     	; 0x6a8 <__EEPROM_REGION_LENGTH__+0x2a8>
     68e:	70 e0       	ldi	r23, 0x00	; 0
     690:	60 e0       	ldi	r22, 0x00	; 0
     692:	c7 01       	movw	r24, r14
     694:	0e 94 9a 15 	call	0x2b34	; 0x2b34 <String::operator[](unsigned int)>
     698:	42 e0       	ldi	r20, 0x02	; 2
     69a:	50 e0       	ldi	r21, 0x00	; 0
     69c:	6b e6       	ldi	r22, 0x6B	; 107
     69e:	71 e0       	ldi	r23, 0x01	; 1
     6a0:	0e 94 1a 1a 	call	0x3434	; 0x3434 <memcmp>
     6a4:	89 2b       	or	r24, r25
     6a6:	11 f4       	brne	.+4      	; 0x6ac <__EEPROM_REGION_LENGTH__+0x2ac>
     6a8:	f8 01       	movw	r30, r16
     6aa:	80 ce       	rjmp	.-768    	; 0x3ac <BK3254::decodeReceivedString(String)+0x42>
     6ac:	70 e0       	ldi	r23, 0x00	; 0
     6ae:	60 e0       	ldi	r22, 0x00	; 0
     6b0:	c7 01       	movw	r24, r14
     6b2:	0e 94 9a 15 	call	0x2b34	; 0x2b34 <String::operator[](unsigned int)>
     6b6:	43 e0       	ldi	r20, 0x03	; 3
     6b8:	50 e0       	ldi	r21, 0x00	; 0
     6ba:	6e e6       	ldi	r22, 0x6E	; 110
     6bc:	71 e0       	ldi	r23, 0x01	; 1
     6be:	0e 94 1a 1a 	call	0x3434	; 0x3434 <memcmp>
     6c2:	89 2b       	or	r24, r25
     6c4:	21 f2       	breq	.-120    	; 0x64e <__EEPROM_REGION_LENGTH__+0x24e>
     6c6:	70 e0       	ldi	r23, 0x00	; 0
     6c8:	60 e0       	ldi	r22, 0x00	; 0
     6ca:	c7 01       	movw	r24, r14
     6cc:	0e 94 9a 15 	call	0x2b34	; 0x2b34 <String::operator[](unsigned int)>
     6d0:	44 e0       	ldi	r20, 0x04	; 4
     6d2:	50 e0       	ldi	r21, 0x00	; 0
     6d4:	62 e7       	ldi	r22, 0x72	; 114
     6d6:	71 e0       	ldi	r23, 0x01	; 1
     6d8:	0e 94 1a 1a 	call	0x3434	; 0x3434 <memcmp>
     6dc:	89 2b       	or	r24, r25
     6de:	89 f4       	brne	.+34     	; 0x702 <__EEPROM_REGION_LENGTH__+0x302>
     6e0:	44 e0       	ldi	r20, 0x04	; 4
     6e2:	50 e0       	ldi	r21, 0x00	; 0
     6e4:	b7 01       	movw	r22, r14
     6e6:	ce 01       	movw	r24, r28
     6e8:	01 96       	adiw	r24, 0x01	; 1
     6ea:	0e 94 42 01 	call	0x284	; 0x284 <String::substring(unsigned int) const>
     6ee:	ce 01       	movw	r24, r28
     6f0:	01 96       	adiw	r24, 0x01	; 1
     6f2:	0e 94 f2 15 	call	0x2be4	; 0x2be4 <String::toInt() const>
     6f6:	f8 01       	movw	r30, r16
     6f8:	70 87       	std	Z+8, r23	; 0x08
     6fa:	67 83       	std	Z+7, r22	; 0x07
     6fc:	ce 01       	movw	r24, r28
     6fe:	01 96       	adiw	r24, 0x01	; 1
     700:	97 c1       	rjmp	.+814    	; 0xa30 <__stack+0x131>
     702:	70 e0       	ldi	r23, 0x00	; 0
     704:	60 e0       	ldi	r22, 0x00	; 0
     706:	c7 01       	movw	r24, r14
     708:	0e 94 9a 15 	call	0x2b34	; 0x2b34 <String::operator[](unsigned int)>
     70c:	4a e0       	ldi	r20, 0x0A	; 10
     70e:	50 e0       	ldi	r21, 0x00	; 0
     710:	67 e7       	ldi	r22, 0x77	; 119
     712:	71 e0       	ldi	r23, 0x01	; 1
     714:	0e 94 1a 1a 	call	0x3434	; 0x3434 <memcmp>
     718:	89 2b       	or	r24, r25
     71a:	79 f4       	brne	.+30     	; 0x73a <__EEPROM_REGION_LENGTH__+0x33a>
     71c:	4a e0       	ldi	r20, 0x0A	; 10
     71e:	50 e0       	ldi	r21, 0x00	; 0
     720:	b7 01       	movw	r22, r14
     722:	ce 01       	movw	r24, r28
     724:	01 96       	adiw	r24, 0x01	; 1
     726:	0e 94 42 01 	call	0x284	; 0x284 <String::substring(unsigned int) const>
     72a:	ce 01       	movw	r24, r28
     72c:	01 96       	adiw	r24, 0x01	; 1
     72e:	0e 94 f2 15 	call	0x2be4	; 0x2be4 <String::toInt() const>
     732:	f8 01       	movw	r30, r16
     734:	72 87       	std	Z+10, r23	; 0x0a
     736:	61 87       	std	Z+9, r22	; 0x09
     738:	e1 cf       	rjmp	.-62     	; 0x6fc <__EEPROM_REGION_LENGTH__+0x2fc>
     73a:	70 e0       	ldi	r23, 0x00	; 0
     73c:	60 e0       	ldi	r22, 0x00	; 0
     73e:	c7 01       	movw	r24, r14
     740:	0e 94 9a 15 	call	0x2b34	; 0x2b34 <String::operator[](unsigned int)>
     744:	42 e0       	ldi	r20, 0x02	; 2
     746:	50 e0       	ldi	r21, 0x00	; 0
     748:	62 e8       	ldi	r22, 0x82	; 130
     74a:	71 e0       	ldi	r23, 0x01	; 1
     74c:	0e 94 1a 1a 	call	0x3434	; 0x3434 <memcmp>
     750:	89 2b       	or	r24, r25
     752:	09 f4       	brne	.+2      	; 0x756 <__EEPROM_REGION_LENGTH__+0x356>
     754:	2c ce       	rjmp	.-936    	; 0x3ae <BK3254::decodeReceivedString(String)+0x44>
     756:	70 e0       	ldi	r23, 0x00	; 0
     758:	60 e0       	ldi	r22, 0x00	; 0
     75a:	c7 01       	movw	r24, r14
     75c:	0e 94 9a 15 	call	0x2b34	; 0x2b34 <String::operator[](unsigned int)>
     760:	42 e0       	ldi	r20, 0x02	; 2
     762:	50 e0       	ldi	r21, 0x00	; 0
     764:	65 e8       	ldi	r22, 0x85	; 133
     766:	71 e0       	ldi	r23, 0x01	; 1
     768:	0e 94 1a 1a 	call	0x3434	; 0x3434 <memcmp>
     76c:	89 2b       	or	r24, r25
     76e:	09 f4       	brne	.+2      	; 0x772 <__EEPROM_REGION_LENGTH__+0x372>
     770:	9b cf       	rjmp	.-202    	; 0x6a8 <__EEPROM_REGION_LENGTH__+0x2a8>
     772:	70 e0       	ldi	r23, 0x00	; 0
     774:	60 e0       	ldi	r22, 0x00	; 0
     776:	c7 01       	movw	r24, r14
     778:	0e 94 9a 15 	call	0x2b34	; 0x2b34 <String::operator[](unsigned int)>
     77c:	48 e0       	ldi	r20, 0x08	; 8
     77e:	50 e0       	ldi	r21, 0x00	; 0
     780:	68 e8       	ldi	r22, 0x88	; 136
     782:	71 e0       	ldi	r23, 0x01	; 1
     784:	0e 94 1a 1a 	call	0x3434	; 0x3434 <memcmp>
     788:	89 2b       	or	r24, r25
     78a:	19 f4       	brne	.+6      	; 0x792 <__EEPROM_REGION_LENGTH__+0x392>
     78c:	f8 01       	movw	r30, r16
     78e:	15 82       	std	Z+5, r1	; 0x05
     790:	0e ce       	rjmp	.-996    	; 0x3ae <BK3254::decodeReceivedString(String)+0x44>
     792:	70 e0       	ldi	r23, 0x00	; 0
     794:	60 e0       	ldi	r22, 0x00	; 0
     796:	c7 01       	movw	r24, r14
     798:	0e 94 9a 15 	call	0x2b34	; 0x2b34 <String::operator[](unsigned int)>
     79c:	47 e0       	ldi	r20, 0x07	; 7
     79e:	50 e0       	ldi	r21, 0x00	; 0
     7a0:	61 e9       	ldi	r22, 0x91	; 145
     7a2:	71 e0       	ldi	r23, 0x01	; 1
     7a4:	0e 94 1a 1a 	call	0x3434	; 0x3434 <memcmp>
     7a8:	89 2b       	or	r24, r25
     7aa:	81 f3       	breq	.-32     	; 0x78c <__EEPROM_REGION_LENGTH__+0x38c>
     7ac:	70 e0       	ldi	r23, 0x00	; 0
     7ae:	60 e0       	ldi	r22, 0x00	; 0
     7b0:	c7 01       	movw	r24, r14
     7b2:	0e 94 9a 15 	call	0x2b34	; 0x2b34 <String::operator[](unsigned int)>
     7b6:	48 e0       	ldi	r20, 0x08	; 8
     7b8:	50 e0       	ldi	r21, 0x00	; 0
     7ba:	69 e9       	ldi	r22, 0x99	; 153
     7bc:	71 e0       	ldi	r23, 0x01	; 1
     7be:	0e 94 1a 1a 	call	0x3434	; 0x3434 <memcmp>
     7c2:	89 2b       	or	r24, r25
     7c4:	49 f1       	breq	.+82     	; 0x818 <__DATA_REGION_LENGTH__+0x18>
     7c6:	70 e0       	ldi	r23, 0x00	; 0
     7c8:	60 e0       	ldi	r22, 0x00	; 0
     7ca:	c7 01       	movw	r24, r14
     7cc:	0e 94 9a 15 	call	0x2b34	; 0x2b34 <String::operator[](unsigned int)>
     7d0:	47 e0       	ldi	r20, 0x07	; 7
     7d2:	50 e0       	ldi	r21, 0x00	; 0
     7d4:	62 ea       	ldi	r22, 0xA2	; 162
     7d6:	71 e0       	ldi	r23, 0x01	; 1
     7d8:	0e 94 1a 1a 	call	0x3434	; 0x3434 <memcmp>
     7dc:	89 2b       	or	r24, r25
     7de:	e1 f0       	breq	.+56     	; 0x818 <__DATA_REGION_LENGTH__+0x18>
     7e0:	70 e0       	ldi	r23, 0x00	; 0
     7e2:	60 e0       	ldi	r22, 0x00	; 0
     7e4:	c7 01       	movw	r24, r14
     7e6:	0e 94 9a 15 	call	0x2b34	; 0x2b34 <String::operator[](unsigned int)>
     7ea:	47 e0       	ldi	r20, 0x07	; 7
     7ec:	50 e0       	ldi	r21, 0x00	; 0
     7ee:	6a ea       	ldi	r22, 0xAA	; 170
     7f0:	71 e0       	ldi	r23, 0x01	; 1
     7f2:	0e 94 1a 1a 	call	0x3434	; 0x3434 <memcmp>
     7f6:	89 2b       	or	r24, r25
     7f8:	99 f0       	breq	.+38     	; 0x820 <__DATA_REGION_LENGTH__+0x20>
     7fa:	70 e0       	ldi	r23, 0x00	; 0
     7fc:	60 e0       	ldi	r22, 0x00	; 0
     7fe:	c7 01       	movw	r24, r14
     800:	0e 94 9a 15 	call	0x2b34	; 0x2b34 <String::operator[](unsigned int)>
     804:	47 e0       	ldi	r20, 0x07	; 7
     806:	50 e0       	ldi	r21, 0x00	; 0
     808:	62 eb       	ldi	r22, 0xB2	; 178
     80a:	71 e0       	ldi	r23, 0x01	; 1
     80c:	0e 94 1a 1a 	call	0x3434	; 0x3434 <memcmp>
     810:	89 2b       	or	r24, r25
     812:	41 f4       	brne	.+16     	; 0x824 <__DATA_REGION_LENGTH__+0x24>
     814:	83 e0       	ldi	r24, 0x03	; 3
     816:	01 c0       	rjmp	.+2      	; 0x81a <__DATA_REGION_LENGTH__+0x1a>
     818:	81 e0       	ldi	r24, 0x01	; 1
     81a:	f8 01       	movw	r30, r16
     81c:	85 83       	std	Z+5, r24	; 0x05
     81e:	c7 cd       	rjmp	.-1138   	; 0x3ae <BK3254::decodeReceivedString(String)+0x44>
     820:	82 e0       	ldi	r24, 0x02	; 2
     822:	fb cf       	rjmp	.-10     	; 0x81a <__DATA_REGION_LENGTH__+0x1a>
     824:	70 e0       	ldi	r23, 0x00	; 0
     826:	60 e0       	ldi	r22, 0x00	; 0
     828:	c7 01       	movw	r24, r14
     82a:	0e 94 9a 15 	call	0x2b34	; 0x2b34 <String::operator[](unsigned int)>
     82e:	45 e0       	ldi	r20, 0x05	; 5
     830:	50 e0       	ldi	r21, 0x00	; 0
     832:	6a eb       	ldi	r22, 0xBA	; 186
     834:	71 e0       	ldi	r23, 0x01	; 1
     836:	0e 94 1a 1a 	call	0x3434	; 0x3434 <memcmp>
     83a:	89 2b       	or	r24, r25
     83c:	29 f4       	brne	.+10     	; 0x848 <__DATA_REGION_LENGTH__+0x48>
     83e:	83 e0       	ldi	r24, 0x03	; 3
     840:	f8 01       	movw	r30, r16
     842:	84 83       	std	Z+4, r24	; 0x04
     844:	12 82       	std	Z+2, r1	; 0x02
     846:	b3 cd       	rjmp	.-1178   	; 0x3ae <BK3254::decodeReceivedString(String)+0x44>
     848:	70 e0       	ldi	r23, 0x00	; 0
     84a:	60 e0       	ldi	r22, 0x00	; 0
     84c:	c7 01       	movw	r24, r14
     84e:	0e 94 9a 15 	call	0x2b34	; 0x2b34 <String::operator[](unsigned int)>
     852:	45 e0       	ldi	r20, 0x05	; 5
     854:	50 e0       	ldi	r21, 0x00	; 0
     856:	60 ec       	ldi	r22, 0xC0	; 192
     858:	71 e0       	ldi	r23, 0x01	; 1
     85a:	0e 94 1a 1a 	call	0x3434	; 0x3434 <memcmp>
     85e:	89 2b       	or	r24, r25
     860:	31 f4       	brne	.+12     	; 0x86e <__DATA_REGION_LENGTH__+0x6e>
     862:	83 e0       	ldi	r24, 0x03	; 3
     864:	f8 01       	movw	r30, r16
     866:	84 83       	std	Z+4, r24	; 0x04
     868:	81 e0       	ldi	r24, 0x01	; 1
     86a:	82 83       	std	Z+2, r24	; 0x02
     86c:	a0 cd       	rjmp	.-1216   	; 0x3ae <BK3254::decodeReceivedString(String)+0x44>
     86e:	70 e0       	ldi	r23, 0x00	; 0
     870:	60 e0       	ldi	r22, 0x00	; 0
     872:	c7 01       	movw	r24, r14
     874:	0e 94 9a 15 	call	0x2b34	; 0x2b34 <String::operator[](unsigned int)>
     878:	45 e0       	ldi	r20, 0x05	; 5
     87a:	50 e0       	ldi	r21, 0x00	; 0
     87c:	66 ec       	ldi	r22, 0xC6	; 198
     87e:	71 e0       	ldi	r23, 0x01	; 1
     880:	0e 94 1a 1a 	call	0x3434	; 0x3434 <memcmp>
     884:	89 2b       	or	r24, r25
     886:	21 f5       	brne	.+72     	; 0x8d0 <__DATA_REGION_LENGTH__+0xd0>
     888:	f8 01       	movw	r30, r16
     88a:	13 82       	std	Z+3, r1	; 0x03
     88c:	81 e0       	ldi	r24, 0x01	; 1
     88e:	80 83       	st	Z, r24
     890:	93 e0       	ldi	r25, 0x03	; 3
     892:	91 83       	std	Z+1, r25	; 0x01
     894:	82 83       	std	Z+2, r24	; 0x02
     896:	6c e1       	ldi	r22, 0x1C	; 28
     898:	72 e0       	ldi	r23, 0x02	; 2
     89a:	c8 01       	movw	r24, r16
     89c:	0e 96       	adiw	r24, 0x0e	; 14
     89e:	0e 94 02 15 	call	0x2a04	; 0x2a04 <String::operator=(char const*)>
     8a2:	6c e1       	ldi	r22, 0x1C	; 28
     8a4:	72 e0       	ldi	r23, 0x02	; 2
     8a6:	c8 01       	movw	r24, r16
     8a8:	44 96       	adiw	r24, 0x14	; 20
     8aa:	0e 94 02 15 	call	0x2a04	; 0x2a04 <String::operator=(char const*)>
     8ae:	6c e1       	ldi	r22, 0x1C	; 28
     8b0:	72 e0       	ldi	r23, 0x02	; 2
     8b2:	c8 01       	movw	r24, r16
     8b4:	4a 96       	adiw	r24, 0x1a	; 26
     8b6:	0e 94 02 15 	call	0x2a04	; 0x2a04 <String::operator=(char const*)>
     8ba:	6c e1       	ldi	r22, 0x1C	; 28
     8bc:	72 e0       	ldi	r23, 0x02	; 2
     8be:	c8 01       	movw	r24, r16
     8c0:	80 96       	adiw	r24, 0x20	; 32
     8c2:	0e 94 02 15 	call	0x2a04	; 0x2a04 <String::operator=(char const*)>
     8c6:	f8 01       	movw	r30, r16
     8c8:	14 86       	std	Z+12, r1	; 0x0c
     8ca:	13 86       	std	Z+11, r1	; 0x0b
     8cc:	15 86       	std	Z+13, r1	; 0x0d
     8ce:	6f cd       	rjmp	.-1314   	; 0x3ae <BK3254::decodeReceivedString(String)+0x44>
     8d0:	70 e0       	ldi	r23, 0x00	; 0
     8d2:	60 e0       	ldi	r22, 0x00	; 0
     8d4:	c7 01       	movw	r24, r14
     8d6:	0e 94 9a 15 	call	0x2b34	; 0x2b34 <String::operator[](unsigned int)>
     8da:	45 e0       	ldi	r20, 0x05	; 5
     8dc:	50 e0       	ldi	r21, 0x00	; 0
     8de:	6c ec       	ldi	r22, 0xCC	; 204
     8e0:	71 e0       	ldi	r23, 0x01	; 1
     8e2:	0e 94 1a 1a 	call	0x3434	; 0x3434 <memcmp>
     8e6:	89 2b       	or	r24, r25
     8e8:	21 f4       	brne	.+8      	; 0x8f2 <__DATA_REGION_LENGTH__+0xf2>
     8ea:	81 e0       	ldi	r24, 0x01	; 1
     8ec:	f8 01       	movw	r30, r16
     8ee:	83 83       	std	Z+3, r24	; 0x03
     8f0:	ce cf       	rjmp	.-100    	; 0x88e <__DATA_REGION_LENGTH__+0x8e>
     8f2:	70 e0       	ldi	r23, 0x00	; 0
     8f4:	60 e0       	ldi	r22, 0x00	; 0
     8f6:	c7 01       	movw	r24, r14
     8f8:	0e 94 9a 15 	call	0x2b34	; 0x2b34 <String::operator[](unsigned int)>
     8fc:	45 e0       	ldi	r20, 0x05	; 5
     8fe:	50 e0       	ldi	r21, 0x00	; 0
     900:	62 ed       	ldi	r22, 0xD2	; 210
     902:	71 e0       	ldi	r23, 0x01	; 1
     904:	0e 94 1a 1a 	call	0x3434	; 0x3434 <memcmp>
     908:	89 2b       	or	r24, r25
     90a:	31 f4       	brne	.+12     	; 0x918 <__stack+0x19>
     90c:	82 e0       	ldi	r24, 0x02	; 2
     90e:	f8 01       	movw	r30, r16
     910:	84 83       	std	Z+4, r24	; 0x04
     912:	81 e0       	ldi	r24, 0x01	; 1
     914:	80 83       	st	Z, r24
     916:	96 cf       	rjmp	.-212    	; 0x844 <__DATA_REGION_LENGTH__+0x44>
     918:	70 e0       	ldi	r23, 0x00	; 0
     91a:	60 e0       	ldi	r22, 0x00	; 0
     91c:	c7 01       	movw	r24, r14
     91e:	0e 94 9a 15 	call	0x2b34	; 0x2b34 <String::operator[](unsigned int)>
     922:	45 e0       	ldi	r20, 0x05	; 5
     924:	50 e0       	ldi	r21, 0x00	; 0
     926:	68 ed       	ldi	r22, 0xD8	; 216
     928:	71 e0       	ldi	r23, 0x01	; 1
     92a:	0e 94 1a 1a 	call	0x3434	; 0x3434 <memcmp>
     92e:	89 2b       	or	r24, r25
     930:	31 f4       	brne	.+12     	; 0x93e <__stack+0x3f>
     932:	82 e0       	ldi	r24, 0x02	; 2
     934:	f8 01       	movw	r30, r16
     936:	84 83       	std	Z+4, r24	; 0x04
     938:	81 e0       	ldi	r24, 0x01	; 1
     93a:	80 83       	st	Z, r24
     93c:	96 cf       	rjmp	.-212    	; 0x86a <__DATA_REGION_LENGTH__+0x6a>
     93e:	70 e0       	ldi	r23, 0x00	; 0
     940:	60 e0       	ldi	r22, 0x00	; 0
     942:	c7 01       	movw	r24, r14
     944:	0e 94 9a 15 	call	0x2b34	; 0x2b34 <String::operator[](unsigned int)>
     948:	43 e0       	ldi	r20, 0x03	; 3
     94a:	50 e0       	ldi	r21, 0x00	; 0
     94c:	6e ed       	ldi	r22, 0xDE	; 222
     94e:	71 e0       	ldi	r23, 0x01	; 1
     950:	0e 94 1a 1a 	call	0x3434	; 0x3434 <memcmp>
     954:	89 2b       	or	r24, r25
     956:	71 f4       	brne	.+28     	; 0x974 <__stack+0x75>
     958:	43 e0       	ldi	r20, 0x03	; 3
     95a:	50 e0       	ldi	r21, 0x00	; 0
     95c:	b7 01       	movw	r22, r14
     95e:	ce 01       	movw	r24, r28
     960:	01 96       	adiw	r24, 0x01	; 1
     962:	0e 94 42 01 	call	0x284	; 0x284 <String::substring(unsigned int) const>
     966:	ce 01       	movw	r24, r28
     968:	01 96       	adiw	r24, 0x01	; 1
     96a:	0e 94 f2 15 	call	0x2be4	; 0x2be4 <String::toInt() const>
     96e:	f8 01       	movw	r30, r16
     970:	66 83       	std	Z+6, r22	; 0x06
     972:	c4 ce       	rjmp	.-632    	; 0x6fc <__EEPROM_REGION_LENGTH__+0x2fc>
     974:	70 e0       	ldi	r23, 0x00	; 0
     976:	60 e0       	ldi	r22, 0x00	; 0
     978:	c7 01       	movw	r24, r14
     97a:	0e 94 9a 15 	call	0x2b34	; 0x2b34 <String::operator[](unsigned int)>
     97e:	43 e0       	ldi	r20, 0x03	; 3
     980:	50 e0       	ldi	r21, 0x00	; 0
     982:	62 ee       	ldi	r22, 0xE2	; 226
     984:	71 e0       	ldi	r23, 0x01	; 1
     986:	0e 94 1a 1a 	call	0x3434	; 0x3434 <memcmp>
     98a:	89 2b       	or	r24, r25
     98c:	79 f4       	brne	.+30     	; 0x9ac <__stack+0xad>
     98e:	43 e0       	ldi	r20, 0x03	; 3
     990:	50 e0       	ldi	r21, 0x00	; 0
     992:	b7 01       	movw	r22, r14
     994:	ce 01       	movw	r24, r28
     996:	01 96       	adiw	r24, 0x01	; 1
     998:	0e 94 42 01 	call	0x284	; 0x284 <String::substring(unsigned int) const>
     99c:	be 01       	movw	r22, r28
     99e:	6f 5f       	subi	r22, 0xFF	; 255
     9a0:	7f 4f       	sbci	r23, 0xFF	; 255
     9a2:	c8 01       	movw	r24, r16
     9a4:	44 96       	adiw	r24, 0x14	; 20
     9a6:	0e 94 f6 14 	call	0x29ec	; 0x29ec <String::operator=(String&&)>
     9aa:	a8 ce       	rjmp	.-688    	; 0x6fc <__EEPROM_REGION_LENGTH__+0x2fc>
     9ac:	70 e0       	ldi	r23, 0x00	; 0
     9ae:	60 e0       	ldi	r22, 0x00	; 0
     9b0:	c7 01       	movw	r24, r14
     9b2:	0e 94 9a 15 	call	0x2b34	; 0x2b34 <String::operator[](unsigned int)>
     9b6:	45 e0       	ldi	r20, 0x05	; 5
     9b8:	50 e0       	ldi	r21, 0x00	; 0
     9ba:	66 ee       	ldi	r22, 0xE6	; 230
     9bc:	71 e0       	ldi	r23, 0x01	; 1
     9be:	0e 94 1a 1a 	call	0x3434	; 0x3434 <memcmp>
     9c2:	89 2b       	or	r24, r25
     9c4:	69 f4       	brne	.+26     	; 0x9e0 <__stack+0xe1>
     9c6:	45 e0       	ldi	r20, 0x05	; 5
     9c8:	50 e0       	ldi	r21, 0x00	; 0
     9ca:	b7 01       	movw	r22, r14
     9cc:	ce 01       	movw	r24, r28
     9ce:	01 96       	adiw	r24, 0x01	; 1
     9d0:	0e 94 42 01 	call	0x284	; 0x284 <String::substring(unsigned int) const>
     9d4:	be 01       	movw	r22, r28
     9d6:	6f 5f       	subi	r22, 0xFF	; 255
     9d8:	7f 4f       	sbci	r23, 0xFF	; 255
     9da:	c8 01       	movw	r24, r16
     9dc:	80 96       	adiw	r24, 0x20	; 32
     9de:	e3 cf       	rjmp	.-58     	; 0x9a6 <__stack+0xa7>
     9e0:	70 e0       	ldi	r23, 0x00	; 0
     9e2:	60 e0       	ldi	r22, 0x00	; 0
     9e4:	c7 01       	movw	r24, r14
     9e6:	0e 94 9a 15 	call	0x2b34	; 0x2b34 <String::operator[](unsigned int)>
     9ea:	44 e0       	ldi	r20, 0x04	; 4
     9ec:	50 e0       	ldi	r21, 0x00	; 0
     9ee:	6c ee       	ldi	r22, 0xEC	; 236
     9f0:	71 e0       	ldi	r23, 0x01	; 1
     9f2:	0e 94 1a 1a 	call	0x3434	; 0x3434 <memcmp>
     9f6:	89 2b       	or	r24, r25
     9f8:	f1 f4       	brne	.+60     	; 0xa36 <__stack+0x137>
     9fa:	b7 01       	movw	r22, r14
     9fc:	ce 01       	movw	r24, r28
     9fe:	07 96       	adiw	r24, 0x07	; 7
     a00:	0e 94 ed 14 	call	0x29da	; 0x29da <String::String(String const&)>
_ZN6BK325418returnBtModuleNameE6String():
     a04:	44 e0       	ldi	r20, 0x04	; 4
     a06:	50 e0       	ldi	r21, 0x00	; 0
     a08:	be 01       	movw	r22, r28
     a0a:	69 5f       	subi	r22, 0xF9	; 249
     a0c:	7f 4f       	sbci	r23, 0xFF	; 255
     a0e:	ce 01       	movw	r24, r28
     a10:	01 96       	adiw	r24, 0x01	; 1
     a12:	0e 94 42 01 	call	0x284	; 0x284 <String::substring(unsigned int) const>
_ZN6BK325420decodeReceivedStringE6String():
     a16:	be 01       	movw	r22, r28
     a18:	6f 5f       	subi	r22, 0xFF	; 255
     a1a:	7f 4f       	sbci	r23, 0xFF	; 255
     a1c:	c8 01       	movw	r24, r16
     a1e:	4a 96       	adiw	r24, 0x1a	; 26
     a20:	0e 94 f6 14 	call	0x29ec	; 0x29ec <String::operator=(String&&)>
     a24:	ce 01       	movw	r24, r28
     a26:	01 96       	adiw	r24, 0x01	; 1
     a28:	0e 94 0b 14 	call	0x2816	; 0x2816 <String::~String()>
     a2c:	ce 01       	movw	r24, r28
     a2e:	07 96       	adiw	r24, 0x07	; 7
     a30:	0e 94 0b 14 	call	0x2816	; 0x2816 <String::~String()>
     a34:	bc cc       	rjmp	.-1672   	; 0x3ae <BK3254::decodeReceivedString(String)+0x44>
     a36:	70 e0       	ldi	r23, 0x00	; 0
     a38:	60 e0       	ldi	r22, 0x00	; 0
     a3a:	c7 01       	movw	r24, r14
     a3c:	0e 94 9a 15 	call	0x2b34	; 0x2b34 <String::operator[](unsigned int)>
     a40:	42 e0       	ldi	r20, 0x02	; 2
     a42:	50 e0       	ldi	r21, 0x00	; 0
     a44:	61 ef       	ldi	r22, 0xF1	; 241
     a46:	71 e0       	ldi	r23, 0x01	; 1
     a48:	0e 94 1a 1a 	call	0x3434	; 0x3434 <memcmp>
     a4c:	89 2b       	or	r24, r25
     a4e:	19 f4       	brne	.+6      	; 0xa56 <__stack+0x157>
     a50:	f8 01       	movw	r30, r16
     a52:	10 82       	st	Z, r1
     a54:	ac cc       	rjmp	.-1704   	; 0x3ae <BK3254::decodeReceivedString(String)+0x44>
     a56:	70 e0       	ldi	r23, 0x00	; 0
     a58:	60 e0       	ldi	r22, 0x00	; 0
     a5a:	c7 01       	movw	r24, r14
     a5c:	0e 94 9a 15 	call	0x2b34	; 0x2b34 <String::operator[](unsigned int)>
     a60:	42 e0       	ldi	r20, 0x02	; 2
     a62:	50 e0       	ldi	r21, 0x00	; 0
     a64:	64 ef       	ldi	r22, 0xF4	; 244
     a66:	71 e0       	ldi	r23, 0x01	; 1
     a68:	0e 94 1a 1a 	call	0x3434	; 0x3434 <memcmp>
     a6c:	89 2b       	or	r24, r25
     a6e:	21 f4       	brne	.+8      	; 0xa78 <__stack+0x179>
     a70:	81 e0       	ldi	r24, 0x01	; 1
     a72:	f8 01       	movw	r30, r16
     a74:	80 83       	st	Z, r24
     a76:	9b cc       	rjmp	.-1738   	; 0x3ae <BK3254::decodeReceivedString(String)+0x44>
     a78:	70 e0       	ldi	r23, 0x00	; 0
     a7a:	60 e0       	ldi	r22, 0x00	; 0
     a7c:	c7 01       	movw	r24, r14
     a7e:	0e 94 9a 15 	call	0x2b34	; 0x2b34 <String::operator[](unsigned int)>
     a82:	42 e0       	ldi	r20, 0x02	; 2
     a84:	50 e0       	ldi	r21, 0x00	; 0
     a86:	67 ef       	ldi	r22, 0xF7	; 247
     a88:	71 e0       	ldi	r23, 0x01	; 1
     a8a:	0e 94 1a 1a 	call	0x3434	; 0x3434 <memcmp>
     a8e:	89 2b       	or	r24, r25
     a90:	11 f4       	brne	.+4      	; 0xa96 <__stack+0x197>
     a92:	f8 01       	movw	r30, r16
     a94:	d7 ce       	rjmp	.-594    	; 0x844 <__DATA_REGION_LENGTH__+0x44>
     a96:	70 e0       	ldi	r23, 0x00	; 0
     a98:	60 e0       	ldi	r22, 0x00	; 0
     a9a:	c7 01       	movw	r24, r14
     a9c:	0e 94 9a 15 	call	0x2b34	; 0x2b34 <String::operator[](unsigned int)>
     aa0:	42 e0       	ldi	r20, 0x02	; 2
     aa2:	50 e0       	ldi	r21, 0x00	; 0
     aa4:	6a ef       	ldi	r22, 0xFA	; 250
     aa6:	71 e0       	ldi	r23, 0x01	; 1
     aa8:	0e 94 1a 1a 	call	0x3434	; 0x3434 <memcmp>
     aac:	89 2b       	or	r24, r25
     aae:	19 f4       	brne	.+6      	; 0xab6 <__stack+0x1b7>
     ab0:	81 e0       	ldi	r24, 0x01	; 1
     ab2:	f8 01       	movw	r30, r16
     ab4:	da ce       	rjmp	.-588    	; 0x86a <__DATA_REGION_LENGTH__+0x6a>
     ab6:	70 e0       	ldi	r23, 0x00	; 0
     ab8:	60 e0       	ldi	r22, 0x00	; 0
     aba:	c7 01       	movw	r24, r14
     abc:	0e 94 9a 15 	call	0x2b34	; 0x2b34 <String::operator[](unsigned int)>
     ac0:	42 e0       	ldi	r20, 0x02	; 2
     ac2:	50 e0       	ldi	r21, 0x00	; 0
     ac4:	66 e9       	ldi	r22, 0x96	; 150
     ac6:	71 e0       	ldi	r23, 0x01	; 1
     ac8:	0e 94 1a 1a 	call	0x3434	; 0x3434 <memcmp>
     acc:	89 2b       	or	r24, r25
     ace:	81 f2       	breq	.-96     	; 0xa70 <__stack+0x171>
     ad0:	70 e0       	ldi	r23, 0x00	; 0
     ad2:	60 e0       	ldi	r22, 0x00	; 0
     ad4:	c7 01       	movw	r24, r14
     ad6:	0e 94 9a 15 	call	0x2b34	; 0x2b34 <String::operator[](unsigned int)>
     ada:	42 e0       	ldi	r20, 0x02	; 2
     adc:	50 e0       	ldi	r21, 0x00	; 0
     ade:	67 ea       	ldi	r22, 0xA7	; 167
     ae0:	71 e0       	ldi	r23, 0x01	; 1
     ae2:	0e 94 1a 1a 	call	0x3434	; 0x3434 <memcmp>
     ae6:	89 2b       	or	r24, r25
     ae8:	09 f4       	brne	.+2      	; 0xaec <__stack+0x1ed>
     aea:	b2 cf       	rjmp	.-156    	; 0xa50 <__stack+0x151>
     aec:	70 e0       	ldi	r23, 0x00	; 0
     aee:	60 e0       	ldi	r22, 0x00	; 0
     af0:	c7 01       	movw	r24, r14
     af2:	0e 94 9a 15 	call	0x2b34	; 0x2b34 <String::operator[](unsigned int)>
     af6:	42 e0       	ldi	r20, 0x02	; 2
     af8:	50 e0       	ldi	r21, 0x00	; 0
     afa:	6f ea       	ldi	r22, 0xAF	; 175
     afc:	71 e0       	ldi	r23, 0x01	; 1
     afe:	0e 94 1a 1a 	call	0x3434	; 0x3434 <memcmp>
     b02:	89 2b       	or	r24, r25
     b04:	19 f4       	brne	.+6      	; 0xb0c <__stack+0x20d>
     b06:	82 e0       	ldi	r24, 0x02	; 2
     b08:	f8 01       	movw	r30, r16
     b0a:	8c cc       	rjmp	.-1768   	; 0x424 <__EEPROM_REGION_LENGTH__+0x24>
     b0c:	70 e0       	ldi	r23, 0x00	; 0
     b0e:	60 e0       	ldi	r22, 0x00	; 0
     b10:	c7 01       	movw	r24, r14
     b12:	0e 94 9a 15 	call	0x2b34	; 0x2b34 <String::operator[](unsigned int)>
     b16:	42 e0       	ldi	r20, 0x02	; 2
     b18:	50 e0       	ldi	r21, 0x00	; 0
     b1a:	6d ef       	ldi	r22, 0xFD	; 253
     b1c:	71 e0       	ldi	r23, 0x01	; 1
     b1e:	0e 94 1a 1a 	call	0x3434	; 0x3434 <memcmp>
     b22:	89 2b       	or	r24, r25
     b24:	11 f4       	brne	.+4      	; 0xb2a <__stack+0x22b>
     b26:	81 e0       	ldi	r24, 0x01	; 1
     b28:	ef cf       	rjmp	.-34     	; 0xb08 <__stack+0x209>
     b2a:	70 e0       	ldi	r23, 0x00	; 0
     b2c:	60 e0       	ldi	r22, 0x00	; 0
     b2e:	c7 01       	movw	r24, r14
     b30:	0e 94 9a 15 	call	0x2b34	; 0x2b34 <String::operator[](unsigned int)>
     b34:	42 e0       	ldi	r20, 0x02	; 2
     b36:	50 e0       	ldi	r21, 0x00	; 0
     b38:	60 e0       	ldi	r22, 0x00	; 0
     b3a:	72 e0       	ldi	r23, 0x02	; 2
     b3c:	0e 94 1a 1a 	call	0x3434	; 0x3434 <memcmp>
     b40:	89 2b       	or	r24, r25
     b42:	19 f4       	brne	.+6      	; 0xb4a <__stack+0x24b>
     b44:	f8 01       	movw	r30, r16
     b46:	11 82       	std	Z+1, r1	; 0x01
     b48:	32 cc       	rjmp	.-1948   	; 0x3ae <BK3254::decodeReceivedString(String)+0x44>
     b4a:	70 e0       	ldi	r23, 0x00	; 0
     b4c:	60 e0       	ldi	r22, 0x00	; 0
     b4e:	c7 01       	movw	r24, r14
     b50:	0e 94 9a 15 	call	0x2b34	; 0x2b34 <String::operator[](unsigned int)>
     b54:	43 e0       	ldi	r20, 0x03	; 3
     b56:	50 e0       	ldi	r21, 0x00	; 0
     b58:	63 e0       	ldi	r22, 0x03	; 3
     b5a:	72 e0       	ldi	r23, 0x02	; 2
     b5c:	0e 94 1a 1a 	call	0x3434	; 0x3434 <memcmp>
     b60:	89 2b       	or	r24, r25
     b62:	71 f4       	brne	.+28     	; 0xb80 <__stack+0x281>
     b64:	43 e0       	ldi	r20, 0x03	; 3
     b66:	50 e0       	ldi	r21, 0x00	; 0
     b68:	b7 01       	movw	r22, r14
     b6a:	ce 01       	movw	r24, r28
     b6c:	01 96       	adiw	r24, 0x01	; 1
     b6e:	0e 94 42 01 	call	0x284	; 0x284 <String::substring(unsigned int) const>
     b72:	ce 01       	movw	r24, r28
     b74:	01 96       	adiw	r24, 0x01	; 1
     b76:	0e 94 f2 15 	call	0x2be4	; 0x2be4 <String::toInt() const>
     b7a:	f8 01       	movw	r30, r16
     b7c:	65 87       	std	Z+13, r22	; 0x0d
     b7e:	be cd       	rjmp	.-1156   	; 0x6fc <__EEPROM_REGION_LENGTH__+0x2fc>
     b80:	70 e0       	ldi	r23, 0x00	; 0
     b82:	60 e0       	ldi	r22, 0x00	; 0
     b84:	c7 01       	movw	r24, r14
     b86:	0e 94 9a 15 	call	0x2b34	; 0x2b34 <String::operator[](unsigned int)>
     b8a:	4e e0       	ldi	r20, 0x0E	; 14
     b8c:	50 e0       	ldi	r21, 0x00	; 0
     b8e:	67 e0       	ldi	r22, 0x07	; 7
     b90:	72 e0       	ldi	r23, 0x02	; 2
     b92:	0e 94 1a 1a 	call	0x3434	; 0x3434 <memcmp>
     b96:	89 2b       	or	r24, r25
     b98:	09 f4       	brne	.+2      	; 0xb9c <__stack+0x29d>
     b9a:	8a cf       	rjmp	.-236    	; 0xab0 <__stack+0x1b1>
     b9c:	08 cc       	rjmp	.-2032   	; 0x3ae <BK3254::decodeReceivedString(String)+0x44>

00000b9e <BK3254::getNextEventFromBT()>:
_ZN6BK325418getNextEventFromBTEv():
     b9e:	0f 93       	push	r16
     ba0:	1f 93       	push	r17
     ba2:	cf 93       	push	r28
     ba4:	df 93       	push	r29
     ba6:	cd b7       	in	r28, 0x3d	; 61
     ba8:	de b7       	in	r29, 0x3e	; 62
     baa:	2c 97       	sbiw	r28, 0x0c	; 12
     bac:	0f b6       	in	r0, 0x3f	; 63
     bae:	f8 94       	cli
     bb0:	de bf       	out	0x3e, r29	; 62
     bb2:	0f be       	out	0x3f, r0	; 63
     bb4:	cd bf       	out	0x3d, r28	; 61
     bb6:	8c 01       	movw	r16, r24
     bb8:	6c e1       	ldi	r22, 0x1C	; 28
     bba:	72 e0       	ldi	r23, 0x02	; 2
     bbc:	ce 01       	movw	r24, r28
     bbe:	07 96       	adiw	r24, 0x07	; 7
     bc0:	0e 94 7a 14 	call	0x28f4	; 0x28f4 <String::String(char const*)>
     bc4:	d8 01       	movw	r26, r16
     bc6:	97 96       	adiw	r26, 0x27	; 39
     bc8:	8d 91       	ld	r24, X+
     bca:	9c 91       	ld	r25, X
     bcc:	dc 01       	movw	r26, r24
     bce:	ed 91       	ld	r30, X+
     bd0:	fc 91       	ld	r31, X
     bd2:	00 84       	ldd	r0, Z+8	; 0x08
     bd4:	f1 85       	ldd	r31, Z+9	; 0x09
     bd6:	e0 2d       	mov	r30, r0
     bd8:	09 95       	icall
     bda:	18 16       	cp	r1, r24
     bdc:	19 06       	cpc	r1, r25
     bde:	0c f0       	brlt	.+2      	; 0xbe2 <BK3254::getNextEventFromBT()+0x44>
     be0:	4a c0       	rjmp	.+148    	; 0xc76 <BK3254::getNextEventFromBT()+0xd8>
     be2:	f8 01       	movw	r30, r16
     be4:	87 a1       	ldd	r24, Z+39	; 0x27
     be6:	90 a5       	ldd	r25, Z+40	; 0x28
     be8:	dc 01       	movw	r26, r24
     bea:	ed 91       	ld	r30, X+
     bec:	fc 91       	ld	r31, X
     bee:	02 84       	ldd	r0, Z+10	; 0x0a
     bf0:	f3 85       	ldd	r31, Z+11	; 0x0b
     bf2:	e0 2d       	mov	r30, r0
     bf4:	09 95       	icall
     bf6:	8a 30       	cpi	r24, 0x0A	; 10
     bf8:	a9 f5       	brne	.+106    	; 0xc64 <BK3254::getNextEventFromBT()+0xc6>
_ZNK6StringeqEPKc():
     bfa:	6c e1       	ldi	r22, 0x1C	; 28
     bfc:	72 e0       	ldi	r23, 0x02	; 2
     bfe:	ce 01       	movw	r24, r28
     c00:	07 96       	adiw	r24, 0x07	; 7
     c02:	0e 94 7d 15 	call	0x2afa	; 0x2afa <String::equals(char const*) const>
_ZN6BK325418getNextEventFromBTEv():
     c06:	88 23       	and	r24, r24
     c08:	a1 f0       	breq	.+40     	; 0xc32 <BK3254::getNextEventFromBT()+0x94>
     c0a:	c8 01       	movw	r24, r16
     c0c:	0e 94 cf 05 	call	0xb9e	; 0xb9e <BK3254::getNextEventFromBT()>
     c10:	18 2f       	mov	r17, r24
     c12:	ce 01       	movw	r24, r28
     c14:	07 96       	adiw	r24, 0x07	; 7
     c16:	0e 94 0b 14 	call	0x2816	; 0x2816 <String::~String()>
     c1a:	81 2f       	mov	r24, r17
     c1c:	2c 96       	adiw	r28, 0x0c	; 12
     c1e:	0f b6       	in	r0, 0x3f	; 63
     c20:	f8 94       	cli
     c22:	de bf       	out	0x3e, r29	; 62
     c24:	0f be       	out	0x3f, r0	; 63
     c26:	cd bf       	out	0x3d, r28	; 61
     c28:	df 91       	pop	r29
     c2a:	cf 91       	pop	r28
     c2c:	1f 91       	pop	r17
     c2e:	0f 91       	pop	r16
     c30:	08 95       	ret
     c32:	be 01       	movw	r22, r28
     c34:	69 5f       	subi	r22, 0xF9	; 249
     c36:	7f 4f       	sbci	r23, 0xFF	; 255
     c38:	ce 01       	movw	r24, r28
     c3a:	01 96       	adiw	r24, 0x01	; 1
     c3c:	0e 94 ed 14 	call	0x29da	; 0x29da <String::String(String const&)>
     c40:	be 01       	movw	r22, r28
     c42:	6f 5f       	subi	r22, 0xFF	; 255
     c44:	7f 4f       	sbci	r23, 0xFF	; 255
     c46:	c8 01       	movw	r24, r16
     c48:	0e 94 b5 01 	call	0x36a	; 0x36a <BK3254::decodeReceivedString(String)>
     c4c:	18 2f       	mov	r17, r24
     c4e:	ce 01       	movw	r24, r28
     c50:	01 96       	adiw	r24, 0x01	; 1
     c52:	0e 94 0b 14 	call	0x2816	; 0x2816 <String::~String()>
     c56:	6c e1       	ldi	r22, 0x1C	; 28
     c58:	72 e0       	ldi	r23, 0x02	; 2
     c5a:	ce 01       	movw	r24, r28
     c5c:	07 96       	adiw	r24, 0x07	; 7
     c5e:	0e 94 02 15 	call	0x2a04	; 0x2a04 <String::operator=(char const*)>
     c62:	d7 cf       	rjmp	.-82     	; 0xc12 <BK3254::getNextEventFromBT()+0x74>
     c64:	8d 30       	cpi	r24, 0x0D	; 13
     c66:	09 f4       	brne	.+2      	; 0xc6a <BK3254::getNextEventFromBT()+0xcc>
     c68:	ad cf       	rjmp	.-166    	; 0xbc4 <BK3254::getNextEventFromBT()+0x26>
_ZN6StringpLEc():
     c6a:	68 2f       	mov	r22, r24
     c6c:	ce 01       	movw	r24, r28
     c6e:	07 96       	adiw	r24, 0x07	; 7
     c70:	0e 94 3d 15 	call	0x2a7a	; 0x2a7a <String::concat(char)>
     c74:	a7 cf       	rjmp	.-178    	; 0xbc4 <BK3254::getNextEventFromBT()+0x26>
_ZN6BK325418getNextEventFromBTEv():
     c76:	10 e0       	ldi	r17, 0x00	; 0
     c78:	cc cf       	rjmp	.-104    	; 0xc12 <BK3254::getNextEventFromBT()+0x74>

00000c7a <BK3254::checkState()>:
_ZN6BK325410checkStateEv():
     c7a:	0c 94 cf 05 	jmp	0xb9e	; 0xb9e <BK3254::getNextEventFromBT()>

00000c7e <BK3254::checkResponce()>:
_ZN6BK325413checkResponceEv():
     c7e:	0f 93       	push	r16
     c80:	1f 93       	push	r17
     c82:	cf 93       	push	r28
     c84:	df 93       	push	r29
     c86:	8c 01       	movw	r16, r24
     c88:	c4 ef       	ldi	r28, 0xF4	; 244
     c8a:	d1 e0       	ldi	r29, 0x01	; 1
     c8c:	c8 01       	movw	r24, r16
     c8e:	0e 94 cf 05 	call	0xb9e	; 0xb9e <BK3254::getNextEventFromBT()>
     c92:	81 11       	cpse	r24, r1
     c94:	0a c0       	rjmp	.+20     	; 0xcaa <BK3254::checkResponce()+0x2c>
     c96:	20 97       	sbiw	r28, 0x00	; 0
     c98:	61 f0       	breq	.+24     	; 0xcb2 <BK3254::checkResponce()+0x34>
     c9a:	21 97       	sbiw	r28, 0x01	; 1
     c9c:	61 e0       	ldi	r22, 0x01	; 1
     c9e:	70 e0       	ldi	r23, 0x00	; 0
     ca0:	80 e0       	ldi	r24, 0x00	; 0
     ca2:	90 e0       	ldi	r25, 0x00	; 0
     ca4:	0e 94 7c 16 	call	0x2cf8	; 0x2cf8 <delay>
     ca8:	f1 cf       	rjmp	.-30     	; 0xc8c <BK3254::checkResponce()+0xe>
     caa:	81 e0       	ldi	r24, 0x01	; 1
     cac:	cd 2b       	or	r28, r29
     cae:	09 f4       	brne	.+2      	; 0xcb2 <BK3254::checkResponce()+0x34>
     cb0:	80 e0       	ldi	r24, 0x00	; 0
     cb2:	df 91       	pop	r29
     cb4:	cf 91       	pop	r28
     cb6:	1f 91       	pop	r17
     cb8:	0f 91       	pop	r16
     cba:	08 95       	ret

00000cbc <BK3254::sendBTData(String)>:
_ZN6BK325410sendBTDataE6String():
     cbc:	ef 92       	push	r14
     cbe:	ff 92       	push	r15
     cc0:	0f 93       	push	r16
     cc2:	1f 93       	push	r17
     cc4:	cf 93       	push	r28
     cc6:	df 93       	push	r29
     cc8:	cd b7       	in	r28, 0x3d	; 61
     cca:	de b7       	in	r29, 0x3e	; 62
     ccc:	2c 97       	sbiw	r28, 0x0c	; 12
     cce:	0f b6       	in	r0, 0x3f	; 63
     cd0:	f8 94       	cli
     cd2:	de bf       	out	0x3e, r29	; 62
     cd4:	0f be       	out	0x3f, r0	; 63
     cd6:	cd bf       	out	0x3d, r28	; 61
     cd8:	8c 01       	movw	r16, r24
     cda:	7b 01       	movw	r14, r22
     cdc:	0e 94 cf 05 	call	0xb9e	; 0xb9e <BK3254::getNextEventFromBT()>
_ZN15StringSumHelperC4EPKc():
     ce0:	6d e1       	ldi	r22, 0x1D	; 29
     ce2:	72 e0       	ldi	r23, 0x02	; 2
     ce4:	ce 01       	movw	r24, r28
     ce6:	01 96       	adiw	r24, 0x01	; 1
     ce8:	0e 94 7a 14 	call	0x28f4	; 0x28f4 <String::String(char const*)>
_ZN6BK325410sendBTDataE6String():
     cec:	b7 01       	movw	r22, r14
     cee:	ce 01       	movw	r24, r28
     cf0:	01 96       	adiw	r24, 0x01	; 1
     cf2:	0e 94 50 15 	call	0x2aa0	; 0x2aa0 <operator+(StringSumHelper const&, String const&)>
     cf6:	6a e1       	ldi	r22, 0x1A	; 26
     cf8:	72 e0       	ldi	r23, 0x02	; 2
     cfa:	0e 94 63 15 	call	0x2ac6	; 0x2ac6 <operator+(StringSumHelper const&, char const*)>
     cfe:	bc 01       	movw	r22, r24
     d00:	ce 01       	movw	r24, r28
     d02:	07 96       	adiw	r24, 0x07	; 7
     d04:	0e 94 ed 14 	call	0x29da	; 0x29da <String::String(String const&)>
     d08:	ce 01       	movw	r24, r28
     d0a:	01 96       	adiw	r24, 0x01	; 1
     d0c:	0e 94 0b 14 	call	0x2816	; 0x2816 <String::~String()>
     d10:	be 01       	movw	r22, r28
     d12:	69 5f       	subi	r22, 0xF9	; 249
     d14:	7f 4f       	sbci	r23, 0xFF	; 255
     d16:	f8 01       	movw	r30, r16
     d18:	87 a1       	ldd	r24, Z+39	; 0x27
     d1a:	90 a5       	ldd	r25, Z+40	; 0x28
     d1c:	0e 94 07 13 	call	0x260e	; 0x260e <Print::print(String const&)>
     d20:	c8 01       	movw	r24, r16
     d22:	0e 94 3f 06 	call	0xc7e	; 0xc7e <BK3254::checkResponce()>
     d26:	18 2f       	mov	r17, r24
     d28:	ce 01       	movw	r24, r28
     d2a:	07 96       	adiw	r24, 0x07	; 7
     d2c:	0e 94 0b 14 	call	0x2816	; 0x2816 <String::~String()>
     d30:	81 2f       	mov	r24, r17
     d32:	2c 96       	adiw	r28, 0x0c	; 12
     d34:	0f b6       	in	r0, 0x3f	; 63
     d36:	f8 94       	cli
     d38:	de bf       	out	0x3e, r29	; 62
     d3a:	0f be       	out	0x3f, r0	; 63
     d3c:	cd bf       	out	0x3d, r28	; 61
     d3e:	df 91       	pop	r29
     d40:	cf 91       	pop	r28
     d42:	1f 91       	pop	r17
     d44:	0f 91       	pop	r16
     d46:	ff 90       	pop	r15
     d48:	ef 90       	pop	r14
     d4a:	08 95       	ret

00000d4c <BK3254::callAnsware()>:
_ZN6BK325411callAnswareEv():
     d4c:	0f 93       	push	r16
     d4e:	1f 93       	push	r17
     d50:	cf 93       	push	r28
     d52:	df 93       	push	r29
     d54:	00 d0       	rcall	.+0      	; 0xd56 <BK3254::callAnsware()+0xa>
     d56:	00 d0       	rcall	.+0      	; 0xd58 <BK3254::callAnsware()+0xc>
     d58:	00 d0       	rcall	.+0      	; 0xd5a <BK3254::callAnsware()+0xe>
     d5a:	cd b7       	in	r28, 0x3d	; 61
     d5c:	de b7       	in	r29, 0x3e	; 62
     d5e:	8c 01       	movw	r16, r24
     d60:	61 e2       	ldi	r22, 0x21	; 33
     d62:	72 e0       	ldi	r23, 0x02	; 2
     d64:	ce 01       	movw	r24, r28
     d66:	01 96       	adiw	r24, 0x01	; 1
     d68:	0e 94 7a 14 	call	0x28f4	; 0x28f4 <String::String(char const*)>
     d6c:	be 01       	movw	r22, r28
     d6e:	6f 5f       	subi	r22, 0xFF	; 255
     d70:	7f 4f       	sbci	r23, 0xFF	; 255
     d72:	c8 01       	movw	r24, r16
     d74:	0e 94 5e 06 	call	0xcbc	; 0xcbc <BK3254::sendBTData(String)>
     d78:	18 2f       	mov	r17, r24
     d7a:	ce 01       	movw	r24, r28
     d7c:	01 96       	adiw	r24, 0x01	; 1
     d7e:	0e 94 0b 14 	call	0x2816	; 0x2816 <String::~String()>
     d82:	81 2f       	mov	r24, r17
     d84:	26 96       	adiw	r28, 0x06	; 6
     d86:	0f b6       	in	r0, 0x3f	; 63
     d88:	f8 94       	cli
     d8a:	de bf       	out	0x3e, r29	; 62
     d8c:	0f be       	out	0x3f, r0	; 63
     d8e:	cd bf       	out	0x3d, r28	; 61
     d90:	df 91       	pop	r29
     d92:	cf 91       	pop	r28
     d94:	1f 91       	pop	r17
     d96:	0f 91       	pop	r16
     d98:	08 95       	ret

00000d9a <BK3254::callHangUp()>:
_ZN6BK325410callHangUpEv():
     d9a:	0f 93       	push	r16
     d9c:	1f 93       	push	r17
     d9e:	cf 93       	push	r28
     da0:	df 93       	push	r29
     da2:	00 d0       	rcall	.+0      	; 0xda4 <BK3254::callHangUp()+0xa>
     da4:	00 d0       	rcall	.+0      	; 0xda6 <BK3254::callHangUp()+0xc>
     da6:	00 d0       	rcall	.+0      	; 0xda8 <BK3254::callHangUp()+0xe>
     da8:	cd b7       	in	r28, 0x3d	; 61
     daa:	de b7       	in	r29, 0x3e	; 62
     dac:	8c 01       	movw	r16, r24
     dae:	64 e2       	ldi	r22, 0x24	; 36
     db0:	72 e0       	ldi	r23, 0x02	; 2
     db2:	ce 01       	movw	r24, r28
     db4:	01 96       	adiw	r24, 0x01	; 1
     db6:	0e 94 7a 14 	call	0x28f4	; 0x28f4 <String::String(char const*)>
     dba:	be 01       	movw	r22, r28
     dbc:	6f 5f       	subi	r22, 0xFF	; 255
     dbe:	7f 4f       	sbci	r23, 0xFF	; 255
     dc0:	c8 01       	movw	r24, r16
     dc2:	0e 94 5e 06 	call	0xcbc	; 0xcbc <BK3254::sendBTData(String)>
     dc6:	18 2f       	mov	r17, r24
     dc8:	ce 01       	movw	r24, r28
     dca:	01 96       	adiw	r24, 0x01	; 1
     dcc:	0e 94 0b 14 	call	0x2816	; 0x2816 <String::~String()>
     dd0:	81 2f       	mov	r24, r17
     dd2:	26 96       	adiw	r28, 0x06	; 6
     dd4:	0f b6       	in	r0, 0x3f	; 63
     dd6:	f8 94       	cli
     dd8:	de bf       	out	0x3e, r29	; 62
     dda:	0f be       	out	0x3f, r0	; 63
     ddc:	cd bf       	out	0x3d, r28	; 61
     dde:	df 91       	pop	r29
     de0:	cf 91       	pop	r28
     de2:	1f 91       	pop	r17
     de4:	0f 91       	pop	r16
     de6:	08 95       	ret

00000de8 <BK3254::callRedial()>:
_ZN6BK325410callRedialEv():
     de8:	0f 93       	push	r16
     dea:	1f 93       	push	r17
     dec:	cf 93       	push	r28
     dee:	df 93       	push	r29
     df0:	00 d0       	rcall	.+0      	; 0xdf2 <BK3254::callRedial()+0xa>
     df2:	00 d0       	rcall	.+0      	; 0xdf4 <BK3254::callRedial()+0xc>
     df4:	00 d0       	rcall	.+0      	; 0xdf6 <BK3254::callRedial()+0xe>
     df6:	cd b7       	in	r28, 0x3d	; 61
     df8:	de b7       	in	r29, 0x3e	; 62
     dfa:	8c 01       	movw	r16, r24
     dfc:	67 e2       	ldi	r22, 0x27	; 39
     dfe:	72 e0       	ldi	r23, 0x02	; 2
     e00:	ce 01       	movw	r24, r28
     e02:	01 96       	adiw	r24, 0x01	; 1
     e04:	0e 94 7a 14 	call	0x28f4	; 0x28f4 <String::String(char const*)>
     e08:	be 01       	movw	r22, r28
     e0a:	6f 5f       	subi	r22, 0xFF	; 255
     e0c:	7f 4f       	sbci	r23, 0xFF	; 255
     e0e:	c8 01       	movw	r24, r16
     e10:	0e 94 5e 06 	call	0xcbc	; 0xcbc <BK3254::sendBTData(String)>
     e14:	18 2f       	mov	r17, r24
     e16:	ce 01       	movw	r24, r28
     e18:	01 96       	adiw	r24, 0x01	; 1
     e1a:	0e 94 0b 14 	call	0x2816	; 0x2816 <String::~String()>
     e1e:	81 2f       	mov	r24, r17
     e20:	26 96       	adiw	r28, 0x06	; 6
     e22:	0f b6       	in	r0, 0x3f	; 63
     e24:	f8 94       	cli
     e26:	de bf       	out	0x3e, r29	; 62
     e28:	0f be       	out	0x3f, r0	; 63
     e2a:	cd bf       	out	0x3d, r28	; 61
     e2c:	df 91       	pop	r29
     e2e:	cf 91       	pop	r28
     e30:	1f 91       	pop	r17
     e32:	0f 91       	pop	r16
     e34:	08 95       	ret

00000e36 <_GLOBAL__sub_I_BtSerial>:
_GLOBAL__sub_I_BtSerial():
C:\Users\mateu\Documents\GitHub\Audi-CDC-Emulator\Software\archive\cdc_arduino/BK3254.cpp:12
*/

#include "BK3254.h"
#include <Arduino.h>

SoftwareSerial BtSerial(3, 4); // RX, TX
     e36:	20 e0       	ldi	r18, 0x00	; 0
     e38:	44 e0       	ldi	r20, 0x04	; 4
     e3a:	63 e0       	ldi	r22, 0x03	; 3
     e3c:	8b ee       	ldi	r24, 0xEB	; 235
     e3e:	92 e0       	ldi	r25, 0x02	; 2
     e40:	0e 94 45 10 	call	0x208a	; 0x208a <SoftwareSerial::SoftwareSerial(signed char, signed char, bool)>
C:\Users\mateu\Documents\GitHub\Audi-CDC-Emulator\Software\archive\cdc_arduino/BK3254.cpp:13
BK3254 BT(&BtSerial, resetBTpin);
     e44:	42 e0       	ldi	r20, 0x02	; 2
     e46:	6b ee       	ldi	r22, 0xEB	; 235
     e48:	72 e0       	ldi	r23, 0x02	; 2
     e4a:	82 ec       	ldi	r24, 0xC2	; 194
     e4c:	92 e0       	ldi	r25, 0x02	; 2
     e4e:	0c 94 4e 01 	jmp	0x29c	; 0x29c <BK3254::BK3254(SoftwareSerial*, unsigned char)>

00000e52 <_GLOBAL__sub_D_BtSerial>:
_GLOBAL__sub_D_BtSerial():
     e52:	82 ec       	ldi	r24, 0xC2	; 194
     e54:	92 e0       	ldi	r25, 0x02	; 2
     e56:	0e 94 86 01 	call	0x30c	; 0x30c <BK3254::~BK3254()>
C:\Users\mateu\Documents\GitHub\Audi-CDC-Emulator\Software\archive\cdc_arduino/BK3254.cpp:12
*/

#include "BK3254.h"
#include <Arduino.h>

SoftwareSerial BtSerial(3, 4); // RX, TX
     e5a:	8b ee       	ldi	r24, 0xEB	; 235
     e5c:	92 e0       	ldi	r25, 0x02	; 2
     e5e:	0c 94 ea 0f 	jmp	0x1fd4	; 0x1fd4 <SoftwareSerial::~SoftwareSerial()>

00000e62 <Remote::Remote()>:
_ZN6RemoteC2Ev():
C:\Users\mateu\Documents\GitHub\Audi-CDC-Emulator\Software\archive\cdc_arduino/Remote.cpp:95
  }
}

void Remote::setNewCode() {
  CorrectNewCode = true;  //set flag
}
     e62:	0f 93       	push	r16
     e64:	1f 93       	push	r17
     e66:	cf 93       	push	r28
     e68:	df 93       	push	r29
     e6a:	ec 01       	movw	r28, r24
     e6c:	8c 01       	movw	r16, r24
     e6e:	0e 5f       	subi	r16, 0xFE	; 254
     e70:	1f 4f       	sbci	r17, 0xFF	; 255
     e72:	6c e1       	ldi	r22, 0x1C	; 28
     e74:	72 e0       	ldi	r23, 0x02	; 2
     e76:	c8 01       	movw	r24, r16
     e78:	0e 94 7a 14 	call	0x28f4	; 0x28f4 <String::String(char const*)>
     e7c:	6c e1       	ldi	r22, 0x1C	; 28
     e7e:	72 e0       	ldi	r23, 0x02	; 2
     e80:	ce 01       	movw	r24, r28
     e82:	08 96       	adiw	r24, 0x08	; 8
     e84:	0e 94 7a 14 	call	0x28f4	; 0x28f4 <String::String(char const*)>
     e88:	18 82       	st	Y, r1
     e8a:	19 82       	std	Y+1, r1	; 0x01
     e8c:	6c e1       	ldi	r22, 0x1C	; 28
     e8e:	72 e0       	ldi	r23, 0x02	; 2
     e90:	c8 01       	movw	r24, r16
     e92:	0e 94 02 15 	call	0x2a04	; 0x2a04 <String::operator=(char const*)>
     e96:	85 e0       	ldi	r24, 0x05	; 5
     e98:	8f 87       	std	Y+15, r24	; 0x0f
     e9a:	df 91       	pop	r29
     e9c:	cf 91       	pop	r28
     e9e:	1f 91       	pop	r17
     ea0:	0f 91       	pop	r16
     ea2:	08 95       	ret

00000ea4 <Remote::initRemote()>:
_ZN6Remote10initRemoteEv():
     ea4:	cf 93       	push	r28
     ea6:	df 93       	push	r29
     ea8:	ec 01       	movw	r28, r24
     eaa:	61 e0       	ldi	r22, 0x01	; 1
     eac:	8f 85       	ldd	r24, Y+15	; 0x0f
     eae:	0e 94 37 17 	call	0x2e6e	; 0x2e6e <pinMode>
     eb2:	60 e0       	ldi	r22, 0x00	; 0
     eb4:	8f 85       	ldd	r24, Y+15	; 0x0f
     eb6:	df 91       	pop	r29
     eb8:	cf 91       	pop	r28
     eba:	0c 94 73 17 	jmp	0x2ee6	; 0x2ee6 <digitalWrite>

00000ebe <Remote::checkRemoteCommand()>:
_ZN6Remote18checkRemoteCommandEv():
     ebe:	0f 93       	push	r16
     ec0:	1f 93       	push	r17
     ec2:	cf 93       	push	r28
     ec4:	df 93       	push	r29
     ec6:	fc 01       	movw	r30, r24
     ec8:	20 81       	ld	r18, Z
     eca:	22 23       	and	r18, r18
     ecc:	a1 f0       	breq	.+40     	; 0xef6 <Remote::checkRemoteCommand()+0x38>
     ece:	ec 01       	movw	r28, r24
     ed0:	8c 01       	movw	r16, r24
     ed2:	0e 5f       	subi	r16, 0xFE	; 254
     ed4:	1f 4f       	sbci	r17, 0xFF	; 255
_ZNK6StringeqEPKc():
     ed6:	6a e2       	ldi	r22, 0x2A	; 42
     ed8:	72 e0       	ldi	r23, 0x02	; 2
     eda:	c8 01       	movw	r24, r16
     edc:	0e 94 7d 15 	call	0x2afa	; 0x2afa <String::equals(char const*) const>
_ZN6Remote18checkRemoteCommandEv():
     ee0:	88 23       	and	r24, r24
     ee2:	71 f0       	breq	.+28     	; 0xf00 <Remote::checkRemoteCommand()+0x42>
     ee4:	81 e0       	ldi	r24, 0x01	; 1
     ee6:	89 83       	std	Y+1, r24	; 0x01
     ee8:	1e 86       	std	Y+14, r1	; 0x0e
     eea:	6c e1       	ldi	r22, 0x1C	; 28
     eec:	72 e0       	ldi	r23, 0x02	; 2
     eee:	c8 01       	movw	r24, r16
     ef0:	0e 94 02 15 	call	0x2a04	; 0x2a04 <String::operator=(char const*)>
     ef4:	18 82       	st	Y, r1
     ef6:	df 91       	pop	r29
     ef8:	cf 91       	pop	r28
     efa:	1f 91       	pop	r17
     efc:	0f 91       	pop	r16
     efe:	08 95       	ret
_ZNK6StringeqEPKc():
     f00:	67 e3       	ldi	r22, 0x37	; 55
     f02:	72 e0       	ldi	r23, 0x02	; 2
     f04:	c8 01       	movw	r24, r16
     f06:	0e 94 7d 15 	call	0x2afa	; 0x2afa <String::equals(char const*) const>
_ZN6Remote18checkRemoteCommandEv():
     f0a:	88 23       	and	r24, r24
     f0c:	21 f0       	breq	.+8      	; 0xf16 <Remote::checkRemoteCommand()+0x58>
     f0e:	81 e0       	ldi	r24, 0x01	; 1
     f10:	89 83       	std	Y+1, r24	; 0x01
     f12:	8e 87       	std	Y+14, r24	; 0x0e
     f14:	ea cf       	rjmp	.-44     	; 0xeea <Remote::checkRemoteCommand()+0x2c>
     f16:	19 82       	std	Y+1, r1	; 0x01
     f18:	e8 cf       	rjmp	.-48     	; 0xeea <Remote::checkRemoteCommand()+0x2c>

00000f1a <_GLOBAL__sub_I_remote>:
_GLOBAL__sub_I_remote():
C:\Users\mateu\Documents\GitHub\Audi-CDC-Emulator\Software\archive\cdc_arduino/Remote.cpp:11



extern SoftwareSerial swSerial;
extern BK3254 BT;
Remote remote;
     f1a:	8a e0       	ldi	r24, 0x0A	; 10
     f1c:	93 e0       	ldi	r25, 0x03	; 3
     f1e:	0c 94 31 07 	jmp	0xe62	; 0xe62 <Remote::Remote()>

00000f22 <_GLOBAL__sub_D_remote>:
_ZN6RemoteD4Ev():
C:\Users\mateu\Documents\GitHub\Audi-CDC-Emulator\Software\archive\cdc_arduino/Remote.h:17

//#define DEBUG



class Remote {
     f22:	82 e1       	ldi	r24, 0x12	; 18
     f24:	93 e0       	ldi	r25, 0x03	; 3
     f26:	0e 94 0b 14 	call	0x2816	; 0x2816 <String::~String()>
     f2a:	8c e0       	ldi	r24, 0x0C	; 12
     f2c:	93 e0       	ldi	r25, 0x03	; 3
     f2e:	0c 94 0b 14 	jmp	0x2816	; 0x2816 <String::~String()>

00000f32 <Remote::checkSerial()>:
_ZN6Remote11checkSerialEv():
C:\Users\mateu\Documents\GitHub\Audi-CDC-Emulator\Software\archive\cdc_arduino/Remote.cpp:52
    Serial.println("No remote control");
    #endif
  #endif
}

void Remote::checkSerial(void)  {
     f32:	ef 92       	push	r14
     f34:	ff 92       	push	r15
     f36:	0f 93       	push	r16
     f38:	1f 93       	push	r17
     f3a:	cf 93       	push	r28
     f3c:	df 93       	push	r29
     f3e:	ec 01       	movw	r28, r24
C:\Users\mateu\Documents\GitHub\Audi-CDC-Emulator\Software\archive\cdc_arduino/Remote.cpp:53
  if (Serial.available() > 0) { // if we have something
     f40:	80 ec       	ldi	r24, 0xC0	; 192
     f42:	93 e0       	ldi	r25, 0x03	; 3
     f44:	0e 94 04 11 	call	0x2208	; 0x2208 <HardwareSerial::available()>
     f48:	18 16       	cp	r1, r24
     f4a:	19 06       	cpc	r1, r25
     f4c:	c4 f4       	brge	.+48     	; 0xf7e <Remote::checkSerial()+0x4c>
C:\Users\mateu\Documents\GitHub\Audi-CDC-Emulator\Software\archive\cdc_arduino/Remote.cpp:56
    while (Serial.available())  {
      char sign = (char)Serial.read();
      RemoteNewCode += sign;
     f4e:	7e 01       	movw	r14, r28
     f50:	82 e0       	ldi	r24, 0x02	; 2
     f52:	e8 0e       	add	r14, r24
     f54:	f1 1c       	adc	r15, r1
C:\Users\mateu\Documents\GitHub\Audi-CDC-Emulator\Software\archive\cdc_arduino/Remote.cpp:58
      if(sign == '\n')  {
        GotNewCode = true;
     f56:	01 e0       	ldi	r16, 0x01	; 1
C:\Users\mateu\Documents\GitHub\Audi-CDC-Emulator\Software\archive\cdc_arduino/Remote.cpp:54
  #endif
}

void Remote::checkSerial(void)  {
  if (Serial.available() > 0) { // if we have something
    while (Serial.available())  {
     f58:	80 ec       	ldi	r24, 0xC0	; 192
     f5a:	93 e0       	ldi	r25, 0x03	; 3
     f5c:	0e 94 04 11 	call	0x2208	; 0x2208 <HardwareSerial::available()>
     f60:	89 2b       	or	r24, r25
     f62:	69 f0       	breq	.+26     	; 0xf7e <Remote::checkSerial()+0x4c>
C:\Users\mateu\Documents\GitHub\Audi-CDC-Emulator\Software\archive\cdc_arduino/Remote.cpp:55
      char sign = (char)Serial.read();
     f64:	80 ec       	ldi	r24, 0xC0	; 192
     f66:	93 e0       	ldi	r25, 0x03	; 3
     f68:	0e 94 1e 11 	call	0x223c	; 0x223c <HardwareSerial::read()>
     f6c:	18 2f       	mov	r17, r24
_ZN6StringpLEc():
C:\Users\mateu\AppData\Local\Arduino15\packages\MiniCore\hardware\avr\2.0.9\cores\MCUdude_corefiles/WString.h:115

  // if there's not enough memory for the concatenated value, the string
  // will be left unchanged (but this isn't signalled in any way)
  String & operator += (const String &rhs)  {concat(rhs); return (*this);}
  String & operator += (const char *cstr)   {concat(cstr); return (*this);}
  String & operator += (char c)     {concat(c); return (*this);}
     f6e:	68 2f       	mov	r22, r24
     f70:	c7 01       	movw	r24, r14
     f72:	0e 94 3d 15 	call	0x2a7a	; 0x2a7a <String::concat(char)>
_ZN6Remote11checkSerialEv():
C:\Users\mateu\Documents\GitHub\Audi-CDC-Emulator\Software\archive\cdc_arduino/Remote.cpp:57
      RemoteNewCode += sign;
      if(sign == '\n')  {
     f76:	1a 30       	cpi	r17, 0x0A	; 10
     f78:	79 f7       	brne	.-34     	; 0xf58 <Remote::checkSerial()+0x26>
C:\Users\mateu\Documents\GitHub\Audi-CDC-Emulator\Software\archive\cdc_arduino/Remote.cpp:58
        GotNewCode = true;
     f7a:	08 83       	st	Y, r16
     f7c:	ed cf       	rjmp	.-38     	; 0xf58 <Remote::checkSerial()+0x26>
C:\Users\mateu\Documents\GitHub\Audi-CDC-Emulator\Software\archive\cdc_arduino/Remote.cpp:65
          Serial.println(RemoteNewCode);
        #endif
      }
    }
  }
}
     f7e:	df 91       	pop	r29
     f80:	cf 91       	pop	r28
     f82:	1f 91       	pop	r17
     f84:	0f 91       	pop	r16
     f86:	ff 90       	pop	r15
     f88:	ef 90       	pop	r14
     f8a:	08 95       	ret

00000f8c <Remote::protocol()>:
_ZN6Remote8protocolEv():
C:\Users\mateu\Documents\GitHub\Audi-CDC-Emulator\Software\archive\cdc_arduino/Remote.cpp:97

void Remote::setNewCode() {
  CorrectNewCode = true;  //set flag
}

void Remote::protocol(void) {
     f8c:	cf 93       	push	r28
     f8e:	df 93       	push	r29
     f90:	ec 01       	movw	r28, r24
C:\Users\mateu\Documents\GitHub\Audi-CDC-Emulator\Software\archive\cdc_arduino/Remote.cpp:100
  
  #ifdef SteringWheelRemote
  checkSerial();  //check serial buffer, was sth recived?
     f92:	0e 94 99 07 	call	0xf32	; 0xf32 <Remote::checkSerial()>
C:\Users\mateu\Documents\GitHub\Audi-CDC-Emulator\Software\archive\cdc_arduino/Remote.cpp:101
  checkRemoteCommand();
     f96:	ce 01       	movw	r24, r28
     f98:	0e 94 5f 07 	call	0xebe	; 0xebe <Remote::checkRemoteCommand()>
C:\Users\mateu\Documents\GitHub\Audi-CDC-Emulator\Software\archive\cdc_arduino/Remote.cpp:104
  #endif

  if (CorrectNewCode) {
     f9c:	89 81       	ldd	r24, Y+1	; 0x01
     f9e:	88 23       	and	r24, r24
     fa0:	69 f0       	breq	.+26     	; 0xfbc <Remote::protocol()+0x30>
C:\Users\mateu\Documents\GitHub\Audi-CDC-Emulator\Software\archive\cdc_arduino/Remote.cpp:105
    if(longpress == true) {
     fa2:	8e 85       	ldd	r24, Y+14	; 0x0e
     fa4:	88 23       	and	r24, r24
     fa6:	41 f0       	breq	.+16     	; 0xfb8 <Remote::protocol()+0x2c>
     fa8:	80 91 c3 02 	lds	r24, 0x02C3	; 0x8002c3 <__data_end+0x1>
C:\Users\mateu\Documents\GitHub\Audi-CDC-Emulator\Software\archive\cdc_arduino/Remote.cpp:106
      if(BT.CallState == IncomingCall) {
     fac:	81 11       	cpse	r24, r1
     fae:	16 c0       	rjmp	.+44     	; 0xfdc <Remote::protocol()+0x50>
C:\Users\mateu\Documents\GitHub\Audi-CDC-Emulator\Software\archive\cdc_arduino/Remote.cpp:107
        BT.callAnsware();  //Answare the call
     fb0:	82 ec       	ldi	r24, 0xC2	; 194
     fb2:	92 e0       	ldi	r25, 0x02	; 2
     fb4:	0e 94 a6 06 	call	0xd4c	; 0xd4c <BK3254::callAnsware()>
C:\Users\mateu\Documents\GitHub\Audi-CDC-Emulator\Software\archive\cdc_arduino/Remote.cpp:119
      }
      else  if(BT.CallState == Idle) {
        BT.callRedial();  //Last number redial
      }
    }
    CorrectNewCode = false;  //reset flag
     fb8:	19 82       	std	Y+1, r1	; 0x01
C:\Users\mateu\Documents\GitHub\Audi-CDC-Emulator\Software\archive\cdc_arduino/Remote.cpp:120
    longpress = false;
     fba:	1e 86       	std	Y+14, r1	; 0x0e
     fbc:	8f 85       	ldd	r24, Y+15	; 0x0f
C:\Users\mateu\Documents\GitHub\Audi-CDC-Emulator\Software\archive\cdc_arduino/Remote.cpp:123
  }

  if ((BT.CallState == IncomingCall) || (BT.CallState == CallInProgress) || (BT.CallState == OutgoingCall)) {
     fbe:	90 91 c3 02 	lds	r25, 0x02C3	; 0x8002c3 <__data_end+0x1>
C:\Users\mateu\Documents\GitHub\Audi-CDC-Emulator\Software\archive\cdc_arduino/Remote.cpp:124
    digitalWrite(pinMute, HIGH);
     fc2:	61 e0       	ldi	r22, 0x01	; 1
C:\Users\mateu\Documents\GitHub\Audi-CDC-Emulator\Software\archive\cdc_arduino/Remote.cpp:123
    }
    CorrectNewCode = false;  //reset flag
    longpress = false;
  }

  if ((BT.CallState == IncomingCall) || (BT.CallState == CallInProgress) || (BT.CallState == OutgoingCall)) {
     fc4:	93 30       	cpi	r25, 0x03	; 3
     fc6:	08 f0       	brcs	.+2      	; 0xfca <Remote::protocol()+0x3e>
C:\Users\mateu\Documents\GitHub\Audi-CDC-Emulator\Software\archive\cdc_arduino/Remote.cpp:127
    digitalWrite(pinMute, HIGH);
  }
  else {
    digitalWrite(pinMute, LOW);
     fc8:	60 e0       	ldi	r22, 0x00	; 0
C:\Users\mateu\Documents\GitHub\Audi-CDC-Emulator\Software\archive\cdc_arduino/Remote.cpp:129
  } 
}
     fca:	df 91       	pop	r29
     fcc:	cf 91       	pop	r28
C:\Users\mateu\Documents\GitHub\Audi-CDC-Emulator\Software\archive\cdc_arduino/Remote.cpp:127

  if ((BT.CallState == IncomingCall) || (BT.CallState == CallInProgress) || (BT.CallState == OutgoingCall)) {
    digitalWrite(pinMute, HIGH);
  }
  else {
    digitalWrite(pinMute, LOW);
     fce:	0c 94 73 17 	jmp	0x2ee6	; 0x2ee6 <digitalWrite>
C:\Users\mateu\Documents\GitHub\Audi-CDC-Emulator\Software\archive\cdc_arduino/Remote.cpp:110
    if(longpress == true) {
      if(BT.CallState == IncomingCall) {
        BT.callAnsware();  //Answare the call
      }
      else if(BT.CallState == CallInProgress) {
        BT.callHangUp();  //Hang up the phone
     fd2:	82 ec       	ldi	r24, 0xC2	; 194
     fd4:	92 e0       	ldi	r25, 0x02	; 2
     fd6:	0e 94 cd 06 	call	0xd9a	; 0xd9a <BK3254::callHangUp()>
     fda:	ee cf       	rjmp	.-36     	; 0xfb8 <Remote::protocol()+0x2c>
C:\Users\mateu\Documents\GitHub\Audi-CDC-Emulator\Software\archive\cdc_arduino/Remote.cpp:112
      }
      else  if(BT.CallState == OutgoingCall){
     fdc:	9f ef       	ldi	r25, 0xFF	; 255
     fde:	98 0f       	add	r25, r24
     fe0:	92 30       	cpi	r25, 0x02	; 2
     fe2:	b8 f3       	brcs	.-18     	; 0xfd2 <Remote::protocol()+0x46>
C:\Users\mateu\Documents\GitHub\Audi-CDC-Emulator\Software\archive\cdc_arduino/Remote.cpp:115
        BT.callHangUp();  //Hang up the phone 
      }
      else  if(BT.CallState == Idle) {
     fe4:	83 30       	cpi	r24, 0x03	; 3
     fe6:	41 f7       	brne	.-48     	; 0xfb8 <Remote::protocol()+0x2c>
C:\Users\mateu\Documents\GitHub\Audi-CDC-Emulator\Software\archive\cdc_arduino/Remote.cpp:116
        BT.callRedial();  //Last number redial
     fe8:	82 ec       	ldi	r24, 0xC2	; 194
     fea:	92 e0       	ldi	r25, 0x02	; 2
     fec:	0e 94 f4 06 	call	0xde8	; 0xde8 <BK3254::callRedial()>
     ff0:	e3 cf       	rjmp	.-58     	; 0xfb8 <Remote::protocol()+0x2c>

00000ff2 <setup>:
_ZN14HardwareSerial5beginEm():
C:\Users\mateu\AppData\Local\Arduino15\packages\MiniCore\hardware\avr\2.0.9\cores\MCUdude_corefiles/HardwareSerial.h:121
  public:
    inline HardwareSerial(
      volatile uint8_t *ubrrh, volatile uint8_t *ubrrl,
      volatile uint8_t *ucsra, volatile uint8_t *ucsrb,
      volatile uint8_t *ucsrc, volatile uint8_t *udr);
    void begin(unsigned long baud) { begin(baud, SERIAL_8N1); }
     ff2:	26 e0       	ldi	r18, 0x06	; 6
     ff4:	40 e8       	ldi	r20, 0x80	; 128
     ff6:	55 e2       	ldi	r21, 0x25	; 37
     ff8:	60 e0       	ldi	r22, 0x00	; 0
     ffa:	70 e0       	ldi	r23, 0x00	; 0
     ffc:	80 ec       	ldi	r24, 0xC0	; 192
     ffe:	93 e0       	ldi	r25, 0x03	; 3
    1000:	0e 94 e4 11 	call	0x23c8	; 0x23c8 <HardwareSerial::begin(unsigned long, unsigned char)>
setup():
C:\Users\mateu\Documents\GitHub\Audi-CDC-Emulator\Software\archive\cdc_arduino/cdc_arduino.ino:68
extern int counter_10ms_u8;

void setup()
{
  Serial.begin(9600);
  Serial.println("Hello world!");
    1004:	68 e4       	ldi	r22, 0x48	; 72
    1006:	72 e0       	ldi	r23, 0x02	; 2
    1008:	80 ec       	ldi	r24, 0xC0	; 192
    100a:	93 e0       	ldi	r25, 0x03	; 3
    100c:	0e 94 20 13 	call	0x2640	; 0x2640 <Print::println(char const*)>
C:\Users\mateu\Documents\GitHub\Audi-CDC-Emulator\Software\archive\cdc_arduino/cdc_arduino.ino:69
  Init_VWCDC();
    1010:	0e 94 e5 09 	call	0x13ca	; 0x13ca <Init_VWCDC()>
C:\Users\mateu\Documents\GitHub\Audi-CDC-Emulator\Software\archive\cdc_arduino/cdc_arduino.ino:70
  Serial.println("Finish init CDC");
    1014:	65 e5       	ldi	r22, 0x55	; 85
    1016:	72 e0       	ldi	r23, 0x02	; 2
    1018:	80 ec       	ldi	r24, 0xC0	; 192
    101a:	93 e0       	ldi	r25, 0x03	; 3
    101c:	0e 94 20 13 	call	0x2640	; 0x2640 <Print::println(char const*)>
C:\Users\mateu\Documents\GitHub\Audi-CDC-Emulator\Software\archive\cdc_arduino/cdc_arduino.ino:71
  BT.begin(9600);
    1020:	40 e8       	ldi	r20, 0x80	; 128
    1022:	55 e2       	ldi	r21, 0x25	; 37
    1024:	60 e0       	ldi	r22, 0x00	; 0
    1026:	70 e0       	ldi	r23, 0x00	; 0
    1028:	82 ec       	ldi	r24, 0xC2	; 194
    102a:	92 e0       	ldi	r25, 0x02	; 2
    102c:	0e 94 9f 01 	call	0x33e	; 0x33e <BK3254::begin(unsigned long)>
C:\Users\mateu\Documents\GitHub\Audi-CDC-Emulator\Software\archive\cdc_arduino/cdc_arduino.ino:72
  Serial.println("Finish init Bluetooth");
    1030:	65 e6       	ldi	r22, 0x65	; 101
    1032:	72 e0       	ldi	r23, 0x02	; 2
    1034:	80 ec       	ldi	r24, 0xC0	; 192
    1036:	93 e0       	ldi	r25, 0x03	; 3
    1038:	0e 94 20 13 	call	0x2640	; 0x2640 <Print::println(char const*)>
C:\Users\mateu\Documents\GitHub\Audi-CDC-Emulator\Software\archive\cdc_arduino/cdc_arduino.ino:73
  remote.initRemote();
    103c:	8a e0       	ldi	r24, 0x0A	; 10
    103e:	93 e0       	ldi	r25, 0x03	; 3
    1040:	0e 94 52 07 	call	0xea4	; 0xea4 <Remote::initRemote()>
C:\Users\mateu\Documents\GitHub\Audi-CDC-Emulator\Software\archive\cdc_arduino/cdc_arduino.ino:74
  Serial.println("Finish init remote");
    1044:	6b e7       	ldi	r22, 0x7B	; 123
    1046:	72 e0       	ldi	r23, 0x02	; 2
    1048:	80 ec       	ldi	r24, 0xC0	; 192
    104a:	93 e0       	ldi	r25, 0x03	; 3
    104c:	0e 94 20 13 	call	0x2640	; 0x2640 <Print::println(char const*)>
C:\Users\mateu\Documents\GitHub\Audi-CDC-Emulator\Software\archive\cdc_arduino/cdc_arduino.ino:77

  //BT.getInitStates();
  Serial.println("Finish setup()");
    1050:	6e e8       	ldi	r22, 0x8E	; 142
    1052:	72 e0       	ldi	r23, 0x02	; 2
    1054:	80 ec       	ldi	r24, 0xC0	; 192
    1056:	93 e0       	ldi	r25, 0x03	; 3
    1058:	0c 94 20 13 	jmp	0x2640	; 0x2640 <Print::println(char const*)>

0000105c <loop>:
loop():
C:\Users\mateu\Documents\GitHub\Audi-CDC-Emulator\Software\archive\cdc_arduino/cdc_arduino.ino:81
}
void loop() 
{
  Serial.println(test2);
    105c:	60 91 22 03 	lds	r22, 0x0322	; 0x800322 <test2>
    1060:	70 91 23 03 	lds	r23, 0x0323	; 0x800323 <test2+0x1>
    1064:	4a e0       	ldi	r20, 0x0A	; 10
    1066:	50 e0       	ldi	r21, 0x00	; 0
    1068:	80 ec       	ldi	r24, 0xC0	; 192
    106a:	93 e0       	ldi	r25, 0x03	; 3
    106c:	0e 94 d2 13 	call	0x27a4	; 0x27a4 <Print::println(int, int)>
C:\Users\mateu\Documents\GitHub\Audi-CDC-Emulator\Software\archive\cdc_arduino/cdc_arduino.ino:82
  Serial.println(counter_10ms_u8);
    1070:	60 91 25 03 	lds	r22, 0x0325	; 0x800325 <counter_10ms_u8>
    1074:	70 91 26 03 	lds	r23, 0x0326	; 0x800326 <capbuffer>
    1078:	4a e0       	ldi	r20, 0x0A	; 10
    107a:	50 e0       	ldi	r21, 0x00	; 0
    107c:	80 ec       	ldi	r24, 0xC0	; 192
    107e:	93 e0       	ldi	r25, 0x03	; 3
    1080:	0e 94 d2 13 	call	0x27a4	; 0x27a4 <Print::println(int, int)>
C:\Users\mateu\Documents\GitHub\Audi-CDC-Emulator\Software\archive\cdc_arduino/cdc_arduino.ino:83
  CDC_Protocol();
    1084:	0e 94 ac 0b 	call	0x1758	; 0x1758 <CDC_Protocol()>
C:\Users\mateu\Documents\GitHub\Audi-CDC-Emulator\Software\archive\cdc_arduino/cdc_arduino.ino:84
  BT.checkState();
    1088:	82 ec       	ldi	r24, 0xC2	; 194
    108a:	92 e0       	ldi	r25, 0x02	; 2
    108c:	0e 94 3d 06 	call	0xc7a	; 0xc7a <BK3254::checkState()>
C:\Users\mateu\Documents\GitHub\Audi-CDC-Emulator\Software\archive\cdc_arduino/cdc_arduino.ino:85
  remote.protocol();
    1090:	8a e0       	ldi	r24, 0x0A	; 10
    1092:	93 e0       	ldi	r25, 0x03	; 3
    1094:	0c 94 c6 07 	jmp	0xf8c	; 0xf8c <Remote::protocol()>

00001098 <GetCaptureByte()>:
_ZL14GetCaptureBytev():
C:\Users\mateu\Documents\GitHub\Audi-CDC-Emulator\Software\archive\cdc_arduino/cdc_function.cpp:1253

  uint8_t return_u8 = FALSE;

  // have we already caught up with capturer?

  if (fsr != capptr)
    1098:	80 91 76 03 	lds	r24, 0x0376	; 0x800376 <fsr>
    109c:	90 91 67 03 	lds	r25, 0x0367	; 0x800367 <capptr>
    10a0:	89 17       	cp	r24, r25
    10a2:	89 f0       	breq	.+34     	; 0x10c6 <GetCaptureByte()+0x2e>
C:\Users\mateu\Documents\GitHub\Audi-CDC-Emulator\Software\archive\cdc_arduino/cdc_function.cpp:1257

  {

    scanbyte = capbuffer[fsr]; // get a byte from the capture buffer
    10a4:	e8 2f       	mov	r30, r24
    10a6:	f0 e0       	ldi	r31, 0x00	; 0
    10a8:	ea 5d       	subi	r30, 0xDA	; 218
    10aa:	fc 4f       	sbci	r31, 0xFC	; 252
    10ac:	90 81       	ld	r25, Z
    10ae:	90 93 75 03 	sts	0x0375, r25	; 0x800375 <scanbyte>
C:\Users\mateu\Documents\GitHub\Audi-CDC-Emulator\Software\archive\cdc_arduino/cdc_function.cpp:1259

    fsr++;
    10b2:	8f 5f       	subi	r24, 0xFF	; 255
C:\Users\mateu\Documents\GitHub\Audi-CDC-Emulator\Software\archive\cdc_arduino/cdc_function.cpp:1261

    if (fsr == CAP_BUFFER_END) // have we overflowed the
    10b4:	88 31       	cpi	r24, 0x18	; 24
    10b6:	21 f0       	breq	.+8      	; 0x10c0 <GetCaptureByte()+0x28>
C:\Users\mateu\Documents\GitHub\Audi-CDC-Emulator\Software\archive\cdc_arduino/cdc_function.cpp:1259

  {

    scanbyte = capbuffer[fsr]; // get a byte from the capture buffer

    fsr++;
    10b8:	80 93 76 03 	sts	0x0376, r24	; 0x800376 <fsr>
C:\Users\mateu\Documents\GitHub\Audi-CDC-Emulator\Software\archive\cdc_arduino/cdc_function.cpp:1269

      fsr = 0;

    } // yes, roll over to beginning

    return_u8 = TRUE;
    10bc:	81 e0       	ldi	r24, 0x01	; 1
    10be:	08 95       	ret
C:\Users\mateu\Documents\GitHub\Audi-CDC-Emulator\Software\archive\cdc_arduino/cdc_function.cpp:1265

    if (fsr == CAP_BUFFER_END) // have we overflowed the

    { // capture buffer?

      fsr = 0;
    10c0:	10 92 76 03 	sts	0x0376, r1	; 0x800376 <fsr>
    10c4:	fb cf       	rjmp	.-10     	; 0x10bc <GetCaptureByte()+0x24>
C:\Users\mateu\Documents\GitHub\Audi-CDC-Emulator\Software\archive\cdc_arduino/cdc_function.cpp:1249

static uint8_t GetCaptureByte(void)

{

  uint8_t return_u8 = FALSE;
    10c6:	80 e0       	ldi	r24, 0x00	; 0
C:\Users\mateu\Documents\GitHub\Audi-CDC-Emulator\Software\archive\cdc_arduino/cdc_function.cpp:1275

  }

  return return_u8;

}
    10c8:	08 95       	ret

000010ca <SetStateInitPlay()>:
_ZL16SetStateInitPlayv():
C:\Users\mateu\Documents\GitHub\Audi-CDC-Emulator\Software\archive\cdc_arduino/cdc_function.cpp:1374

static void SetStateInitPlay(void)

{

  playing = TRUE;
    10ca:	81 e0       	ldi	r24, 0x01	; 1
    10cc:	80 93 70 03 	sts	0x0370, r24	; 0x800370 <playing>
C:\Users\mateu\Documents\GitHub\Audi-CDC-Emulator\Software\archive\cdc_arduino/cdc_function.cpp:1376

  BIDIstate = StateInitPlay;
    10d0:	82 e0       	ldi	r24, 0x02	; 2
    10d2:	80 93 66 03 	sts	0x0366, r24	; 0x800366 <BIDIstate>
C:\Users\mateu\Documents\GitHub\Audi-CDC-Emulator\Software\archive\cdc_arduino/cdc_function.cpp:1378

  discload = 0xD1; //0xFF - 0x2E
    10d6:	81 ed       	ldi	r24, 0xD1	; 209
    10d8:	80 93 63 03 	sts	0x0363, r24	; 0x800363 <discload>
C:\Users\mateu\Documents\GitHub\Audi-CDC-Emulator\Software\archive\cdc_arduino/cdc_function.cpp:1380

  BIDIcount = -24;
    10dc:	88 ee       	ldi	r24, 0xE8	; 232
    10de:	80 93 65 03 	sts	0x0365, r24	; 0x800365 <BIDIcount>
C:\Users\mateu\Documents\GitHub\Audi-CDC-Emulator\Software\archive\cdc_arduino/cdc_function.cpp:1382

}
    10e2:	08 95       	ret

000010e4 <EnqueueString(unsigned char const*)>:
_ZL13EnqueueStringPKh():
C:\Users\mateu\Documents\GitHub\Audi-CDC-Emulator\Software\archive\cdc_arduino/cdc_function.cpp:1678

{

#ifndef JUST_HEX_TO_SERIAL

  txbuffer[txinptr] = addr;
    10e4:	20 91 5f 03 	lds	r18, 0x035F	; 0x80035f <txinptr>
    10e8:	e2 2f       	mov	r30, r18
    10ea:	f0 e0       	ldi	r31, 0x00	; 0
    10ec:	ee 0f       	add	r30, r30
    10ee:	ff 1f       	adc	r31, r31
    10f0:	e2 5c       	subi	r30, 0xC2	; 194
    10f2:	fc 4f       	sbci	r31, 0xFC	; 252
    10f4:	91 83       	std	Z+1, r25	; 0x01
    10f6:	80 83       	st	Z, r24
C:\Users\mateu\Documents\GitHub\Audi-CDC-Emulator\Software\archive\cdc_arduino/cdc_function.cpp:1680

  txinptr++;
    10f8:	2f 5f       	subi	r18, 0xFF	; 255
C:\Users\mateu\Documents\GitHub\Audi-CDC-Emulator\Software\archive\cdc_arduino/cdc_function.cpp:1682

  if (txinptr == TX_BUFFER_END)
    10fa:	2c 30       	cpi	r18, 0x0C	; 12
    10fc:	19 f0       	breq	.+6      	; 0x1104 <EnqueueString(unsigned char const*)+0x20>
C:\Users\mateu\Documents\GitHub\Audi-CDC-Emulator\Software\archive\cdc_arduino/cdc_function.cpp:1680

#ifndef JUST_HEX_TO_SERIAL

  txbuffer[txinptr] = addr;

  txinptr++;
    10fe:	20 93 5f 03 	sts	0x035F, r18	; 0x80035f <txinptr>
    1102:	08 95       	ret
C:\Users\mateu\Documents\GitHub\Audi-CDC-Emulator\Software\archive\cdc_arduino/cdc_function.cpp:1686

  if (txinptr == TX_BUFFER_END)

  {

    txinptr = 0;
    1104:	10 92 5f 03 	sts	0x035F, r1	; 0x80035f <txinptr>
C:\Users\mateu\Documents\GitHub\Audi-CDC-Emulator\Software\archive\cdc_arduino/cdc_function.cpp:1692

  }

#endif

}
    1108:	08 95       	ret

0000110a <EnqueueHex(unsigned char)>:
_ZL10EnqueueHexh():
C:\Users\mateu\Documents\GitHub\Audi-CDC-Emulator\Software\archive\cdc_arduino/cdc_function.cpp:1708
*/
//-----------------------------------------------------------------------------

static void EnqueueHex(uint8_t hexbyte_u8)

{
    110a:	cf 93       	push	r28
    110c:	c8 2f       	mov	r28, r24
C:\Users\mateu\Documents\GitHub\Audi-CDC-Emulator\Software\archive\cdc_arduino/cdc_function.cpp:1714

  uint8_t nibble_u8;



  nibble_u8 = hexbyte_u8 >> 4; // send high nibble first
    110e:	86 95       	lsr	r24
    1110:	86 95       	lsr	r24
    1112:	86 95       	lsr	r24
C:\Users\mateu\Documents\GitHub\Audi-CDC-Emulator\Software\archive\cdc_arduino/cdc_function.cpp:1716

  nibble_u8 <<= 1; // multiply high nibble by 2
    1114:	8e 71       	andi	r24, 0x1E	; 30
C:\Users\mateu\Documents\GitHub\Audi-CDC-Emulator\Software\archive\cdc_arduino/cdc_function.cpp:1718

  EnqueueString(&sHEX[nibble_u8]);
    1116:	90 e0       	ldi	r25, 0x00	; 0
    1118:	87 54       	subi	r24, 0x47	; 71
    111a:	9f 4f       	sbci	r25, 0xFF	; 255
    111c:	0e 94 72 08 	call	0x10e4	; 0x10e4 <EnqueueString(unsigned char const*)>
C:\Users\mateu\Documents\GitHub\Audi-CDC-Emulator\Software\archive\cdc_arduino/cdc_function.cpp:1724



  nibble_u8 = hexbyte_u8 & 0x0F; // prepare low nibble

  nibble_u8 <<= 1; // multiply low nibble by 2
    1120:	cc 0f       	add	r28, r28
    1122:	ce 71       	andi	r28, 0x1E	; 30
C:\Users\mateu\Documents\GitHub\Audi-CDC-Emulator\Software\archive\cdc_arduino/cdc_function.cpp:1726

  EnqueueString(&sHEX[nibble_u8]);
    1124:	8c 2f       	mov	r24, r28
    1126:	90 e0       	ldi	r25, 0x00	; 0
    1128:	87 54       	subi	r24, 0x47	; 71
    112a:	9f 4f       	sbci	r25, 0xFF	; 255
C:\Users\mateu\Documents\GitHub\Audi-CDC-Emulator\Software\archive\cdc_arduino/cdc_function.cpp:1728

}
    112c:	cf 91       	pop	r28
C:\Users\mateu\Documents\GitHub\Audi-CDC-Emulator\Software\archive\cdc_arduino/cdc_function.cpp:1726

  nibble_u8 = hexbyte_u8 & 0x0F; // prepare low nibble

  nibble_u8 <<= 1; // multiply low nibble by 2

  EnqueueString(&sHEX[nibble_u8]);
    112e:	0c 94 72 08 	jmp	0x10e4	; 0x10e4 <EnqueueString(unsigned char const*)>

00001132 <DumpFullCommand()>:
_ZL15DumpFullCommandv():
C:\Users\mateu\Documents\GitHub\Audi-CDC-Emulator\Software\archive\cdc_arduino/cdc_function.cpp:1192

static void DumpFullCommand(void)

{

  fsr = scanptr; // restart back at the beginning of the packet
    1132:	80 91 77 03 	lds	r24, 0x0377	; 0x800377 <scanptr>
    1136:	80 93 76 03 	sts	0x0376, r24	; 0x800376 <fsr>
C:\Users\mateu\Documents\GitHub\Audi-CDC-Emulator\Software\archive\cdc_arduino/cdc_function.cpp:1194

  if (GetCaptureByte() == TRUE) // send byte 1
    113a:	0e 94 4c 08 	call	0x1098	; 0x1098 <GetCaptureByte()>
    113e:	81 30       	cpi	r24, 0x01	; 1
    1140:	21 f4       	brne	.+8      	; 0x114a <DumpFullCommand()+0x18>
C:\Users\mateu\Documents\GitHub\Audi-CDC-Emulator\Software\archive\cdc_arduino/cdc_function.cpp:1198

  {

    EnqueueHex(scanbyte);
    1142:	80 91 75 03 	lds	r24, 0x0375	; 0x800375 <scanbyte>
    1146:	0e 94 85 08 	call	0x110a	; 0x110a <EnqueueHex(unsigned char)>
C:\Users\mateu\Documents\GitHub\Audi-CDC-Emulator\Software\archive\cdc_arduino/cdc_function.cpp:1202

  }

  if (GetCaptureByte() == TRUE) // send byte 2
    114a:	0e 94 4c 08 	call	0x1098	; 0x1098 <GetCaptureByte()>
    114e:	81 30       	cpi	r24, 0x01	; 1
    1150:	21 f4       	brne	.+8      	; 0x115a <DumpFullCommand()+0x28>
C:\Users\mateu\Documents\GitHub\Audi-CDC-Emulator\Software\archive\cdc_arduino/cdc_function.cpp:1206

  {

    EnqueueHex(scanbyte);
    1152:	80 91 75 03 	lds	r24, 0x0375	; 0x800375 <scanbyte>
    1156:	0e 94 85 08 	call	0x110a	; 0x110a <EnqueueHex(unsigned char)>
C:\Users\mateu\Documents\GitHub\Audi-CDC-Emulator\Software\archive\cdc_arduino/cdc_function.cpp:1210

  }

  if (GetCaptureByte() == TRUE) // send byte 3
    115a:	0e 94 4c 08 	call	0x1098	; 0x1098 <GetCaptureByte()>
    115e:	81 30       	cpi	r24, 0x01	; 1
    1160:	21 f4       	brne	.+8      	; 0x116a <DumpFullCommand()+0x38>
C:\Users\mateu\Documents\GitHub\Audi-CDC-Emulator\Software\archive\cdc_arduino/cdc_function.cpp:1214

  {

    EnqueueHex(scanbyte);
    1162:	80 91 75 03 	lds	r24, 0x0375	; 0x800375 <scanbyte>
    1166:	0e 94 85 08 	call	0x110a	; 0x110a <EnqueueHex(unsigned char)>
C:\Users\mateu\Documents\GitHub\Audi-CDC-Emulator\Software\archive\cdc_arduino/cdc_function.cpp:1218

  }

  if (GetCaptureByte() == TRUE) // send byte 4
    116a:	0e 94 4c 08 	call	0x1098	; 0x1098 <GetCaptureByte()>
    116e:	81 30       	cpi	r24, 0x01	; 1
    1170:	21 f4       	brne	.+8      	; 0x117a <DumpFullCommand()+0x48>
C:\Users\mateu\Documents\GitHub\Audi-CDC-Emulator\Software\archive\cdc_arduino/cdc_function.cpp:1222

  {

    EnqueueHex(scanbyte);
    1172:	80 91 75 03 	lds	r24, 0x0375	; 0x800375 <scanbyte>
    1176:	0e 94 85 08 	call	0x110a	; 0x110a <EnqueueHex(unsigned char)>
C:\Users\mateu\Documents\GitHub\Audi-CDC-Emulator\Software\archive\cdc_arduino/cdc_function.cpp:1226

  }

  EnqueueString(sNEWLINE);
    117a:	8b ed       	ldi	r24, 0xDB	; 219
    117c:	90 e0       	ldi	r25, 0x00	; 0
    117e:	0e 94 72 08 	call	0x10e4	; 0x10e4 <EnqueueString(unsigned char const*)>
C:\Users\mateu\Documents\GitHub\Audi-CDC-Emulator\Software\archive\cdc_arduino/cdc_function.cpp:1228

  scanptr = fsr; // save scanptr, won't look at this byte again
    1182:	80 91 76 03 	lds	r24, 0x0376	; 0x800376 <fsr>
    1186:	80 93 77 03 	sts	0x0377, r24	; 0x800377 <scanptr>
C:\Users\mateu\Documents\GitHub\Audi-CDC-Emulator\Software\archive\cdc_arduino/cdc_function.cpp:1230

}
    118a:	08 95       	ret

0000118c <ResetTime()>:
_ZL9ResetTimev():
C:\Users\mateu\Documents\GitHub\Audi-CDC-Emulator\Software\archive\cdc_arduino/cdc_function.cpp:1746

static void ResetTime(void)

{

  secondcount = SECONDWAIT;
    118c:	8c ee       	ldi	r24, 0xEC	; 236
    118e:	80 93 61 03 	sts	0x0361, r24	; 0x800361 <secondcount>
C:\Users\mateu\Documents\GitHub\Audi-CDC-Emulator\Software\archive\cdc_arduino/cdc_function.cpp:1748

  second = 0;
    1192:	10 92 79 03 	sts	0x0379, r1	; 0x800379 <second>
C:\Users\mateu\Documents\GitHub\Audi-CDC-Emulator\Software\archive\cdc_arduino/cdc_function.cpp:1750

  minute = 0;
    1196:	10 92 7a 03 	sts	0x037A, r1	; 0x80037a <minute>
C:\Users\mateu\Documents\GitHub\Audi-CDC-Emulator\Software\archive\cdc_arduino/cdc_function.cpp:1752

}
    119a:	08 95       	ret

0000119c <SendByte(unsigned char)>:
_ZL8SendByteh():
C:\Users\mateu\Documents\GitHub\Audi-CDC-Emulator\Software\archive\cdc_arduino/cdc_function.cpp:1643

  // 335us didn't work so good on late 2003 wolfsburg double din,

  // so we now wait 700us instead.

  display_byte_buffer_mau8[display_byte_counter_u8] = byte_u8;
    119c:	90 91 20 03 	lds	r25, 0x0320	; 0x800320 <SendByte(unsigned char)::display_byte_counter_u8>
    11a0:	e9 2f       	mov	r30, r25
    11a2:	f0 e0       	ldi	r31, 0x00	; 0
    11a4:	ea 5a       	subi	r30, 0xAA	; 170
    11a6:	fc 4f       	sbci	r31, 0xFC	; 252
    11a8:	80 83       	st	Z, r24
C:\Users\mateu\Documents\GitHub\Audi-CDC-Emulator\Software\archive\cdc_arduino/cdc_function.cpp:1645

  display_byte_counter_u8++;
    11aa:	9f 5f       	subi	r25, 0xFF	; 255
C:\Users\mateu\Documents\GitHub\Audi-CDC-Emulator\Software\archive\cdc_arduino/cdc_function.cpp:1647

  if (display_byte_counter_u8 == 8)
    11ac:	98 30       	cpi	r25, 0x08	; 8
    11ae:	19 f0       	breq	.+6      	; 0x11b6 <SendByte(unsigned char)+0x1a>
C:\Users\mateu\Documents\GitHub\Audi-CDC-Emulator\Software\archive\cdc_arduino/cdc_function.cpp:1645

  // so we now wait 700us instead.

  display_byte_buffer_mau8[display_byte_counter_u8] = byte_u8;

  display_byte_counter_u8++;
    11b0:	90 93 20 03 	sts	0x0320, r25	; 0x800320 <SendByte(unsigned char)::display_byte_counter_u8>
    11b4:	08 95       	ret
C:\Users\mateu\Documents\GitHub\Audi-CDC-Emulator\Software\archive\cdc_arduino/cdc_function.cpp:1651

  if (display_byte_counter_u8 == 8)

  {

    display_byte_counter_u8 = 0;
    11b6:	10 92 20 03 	sts	0x0320, r1	; 0x800320 <SendByte(unsigned char)::display_byte_counter_u8>
C:\Users\mateu\Documents\GitHub\Audi-CDC-Emulator\Software\archive\cdc_arduino/cdc_function.cpp:1652
    TCCR2B |= _BV(CS22); // prescaler = 64 -> 1 timer clock tick is 4us long
    11ba:	80 91 b1 00 	lds	r24, 0x00B1	; 0x8000b1 <__TEXT_REGION_LENGTH__+0x7f80b1>
    11be:	84 60       	ori	r24, 0x04	; 4
    11c0:	80 93 b1 00 	sts	0x00B1, r24	; 0x8000b1 <__TEXT_REGION_LENGTH__+0x7f80b1>
C:\Users\mateu\Documents\GitHub\Audi-CDC-Emulator\Software\archive\cdc_arduino/cdc_function.cpp:1657
    //TIMSK2 |= _BV(OCIE2A); // enable output compare interrupt on timer2

  }

}
    11c4:	08 95       	ret

000011c6 <SendDisplayBytesInitCD()>:
_ZL22SendDisplayBytesInitCDv():
C:\Users\mateu\Documents\GitHub\Audi-CDC-Emulator\Software\archive\cdc_arduino/cdc_function.cpp:1567

static void SendDisplayBytesInitCD(void)

{

  SendByte(0x99); // number of tracks total (99)?
    11c6:	89 e9       	ldi	r24, 0x99	; 153
    11c8:	0e 94 ce 08 	call	0x119c	; 0x119c <SendByte(unsigned char)>
C:\Users\mateu\Documents\GitHub\Audi-CDC-Emulator\Software\archive\cdc_arduino/cdc_function.cpp:1569

  SendByte(0x99); // total minutes?
    11cc:	89 e9       	ldi	r24, 0x99	; 153
    11ce:	0e 94 ce 08 	call	0x119c	; 0x119c <SendByte(unsigned char)>
C:\Users\mateu\Documents\GitHub\Audi-CDC-Emulator\Software\archive\cdc_arduino/cdc_function.cpp:1571

  SendByte(0x59); // total seconds?
    11d2:	89 e5       	ldi	r24, 0x59	; 89
    11d4:	0e 94 ce 08 	call	0x119c	; 0x119c <SendByte(unsigned char)>
C:\Users\mateu\Documents\GitHub\Audi-CDC-Emulator\Software\archive\cdc_arduino/cdc_function.cpp:1573

  SendByte(0x49);//0xFF - 0xB7 = 48, 53, 31, 25, and 37 seen from real CDC,
    11d8:	89 e4       	ldi	r24, 0x49	; 73
    11da:	0c 94 ce 08 	jmp	0x119c	; 0x119c <SendByte(unsigned char)>

000011de <SendDisplayBytes()>:
_ZL16SendDisplayBytesv():
C:\Users\mateu\Documents\GitHub\Audi-CDC-Emulator\Software\archive\cdc_arduino/cdc_function.cpp:1486

static void SendDisplayBytes(void)

{

  SendByte(disc); // disc display value
    11de:	80 91 07 01 	lds	r24, 0x0107	; 0x800107 <disc>
    11e2:	0e 94 ce 08 	call	0x119c	; 0x119c <SendByte(unsigned char)>
SendDisplayBytesNoCD():
C:\Users\mateu\Documents\GitHub\Audi-CDC-Emulator\Software\archive\cdc_arduino/cdc_function.cpp:1511

  uint8_t send_byte_u8 = 0;



  SendByte(track);
    11e6:	80 91 06 01 	lds	r24, 0x0106	; 0x800106 <track>
    11ea:	0e 94 ce 08 	call	0x119c	; 0x119c <SendByte(unsigned char)>
C:\Users\mateu\Documents\GitHub\Audi-CDC-Emulator\Software\archive\cdc_arduino/cdc_function.cpp:1513

  SendByte(minute);
    11ee:	80 91 7a 03 	lds	r24, 0x037A	; 0x80037a <minute>
    11f2:	0e 94 ce 08 	call	0x119c	; 0x119c <SendByte(unsigned char)>
C:\Users\mateu\Documents\GitHub\Audi-CDC-Emulator\Software\archive\cdc_arduino/cdc_function.cpp:1515

  SendByte(second);
    11f6:	80 91 79 03 	lds	r24, 0x0379	; 0x800379 <second>
    11fa:	0e 94 ce 08 	call	0x119c	; 0x119c <SendByte(unsigned char)>
C:\Users\mateu\Documents\GitHub\Audi-CDC-Emulator\Software\archive\cdc_arduino/cdc_function.cpp:1529

  // 00 - scan off, mix off



  if (mix == TRUE) // mode (scan/mix)
    11fe:	80 91 72 03 	lds	r24, 0x0372	; 0x800372 <mix>
    1202:	81 30       	cpi	r24, 0x01	; 1
    1204:	41 f4       	brne	.+16     	; 0x1216 <SendDisplayBytes()+0x38>
C:\Users\mateu\Documents\GitHub\Audi-CDC-Emulator\Software\archive\cdc_arduino/cdc_function.cpp:1533

  {

    send_byte_u8 |= 0x20; // turn on mix light
    1206:	80 e2       	ldi	r24, 0x20	; 32
C:\Users\mateu\Documents\GitHub\Audi-CDC-Emulator\Software\archive\cdc_arduino/cdc_function.cpp:1537

  }

  if (scan == TRUE)
    1208:	90 91 71 03 	lds	r25, 0x0371	; 0x800371 <scan>
    120c:	91 30       	cpi	r25, 0x01	; 1
    120e:	09 f4       	brne	.+2      	; 0x1212 <SendDisplayBytes()+0x34>
C:\Users\mateu\Documents\GitHub\Audi-CDC-Emulator\Software\archive\cdc_arduino/cdc_function.cpp:1541

  {

    send_byte_u8 |= 0x10; // turn on scan display //this probably cose mute for few microsec.
    1210:	80 61       	ori	r24, 0x10	; 16
C:\Users\mateu\Documents\GitHub\Audi-CDC-Emulator\Software\archive\cdc_arduino/cdc_function.cpp:1545

  }

  SendByte(send_byte_u8);
    1212:	0c 94 ce 08 	jmp	0x119c	; 0x119c <SendByte(unsigned char)>
C:\Users\mateu\Documents\GitHub\Audi-CDC-Emulator\Software\archive\cdc_arduino/cdc_function.cpp:1507

static void SendDisplayBytesNoCD(void)

{

  uint8_t send_byte_u8 = 0;
    1216:	80 e0       	ldi	r24, 0x00	; 0
    1218:	f7 cf       	rjmp	.-18     	; 0x1208 <SendDisplayBytes()+0x2a>

0000121a <SendFrameByte(unsigned char)>:
_ZL13SendFrameByteh():
C:\Users\mateu\Documents\GitHub\Audi-CDC-Emulator\Software\archive\cdc_arduino/cdc_function.cpp:1597

static void SendFrameByte(uint8_t byte_u8)

{

  if (ACKcount == 0)
    121a:	90 91 64 03 	lds	r25, 0x0364	; 0x800364 <ACKcount>
    121e:	91 11       	cpse	r25, r1
    1220:	02 c0       	rjmp	.+4      	; 0x1226 <SendFrameByte(unsigned char)+0xc>
C:\Users\mateu\Documents\GitHub\Audi-CDC-Emulator\Software\archive\cdc_arduino/cdc_function.cpp:1613

    byte_u8 |= 0x20; // flag acknowledgement

    ACKcount++;

    SendByte(byte_u8);
    1222:	0c 94 ce 08 	jmp	0x119c	; 0x119c <SendByte(unsigned char)>
C:\Users\mateu\Documents\GitHub\Audi-CDC-Emulator\Software\archive\cdc_arduino/cdc_function.cpp:1611

  {

    byte_u8 |= 0x20; // flag acknowledgement

    ACKcount++;
    1226:	9f 5f       	subi	r25, 0xFF	; 255
    1228:	90 93 64 03 	sts	0x0364, r25	; 0x800364 <ACKcount>
C:\Users\mateu\Documents\GitHub\Audi-CDC-Emulator\Software\archive\cdc_arduino/cdc_function.cpp:1613

    SendByte(byte_u8);
    122c:	80 62       	ori	r24, 0x20	; 32
    122e:	f9 cf       	rjmp	.-14     	; 0x1222 <SendFrameByte(unsigned char)+0x8>

00001230 <SendStateInitPlayEnd()>:
_ZL20SendStateInitPlayEndv():
C:\Users\mateu\Documents\GitHub\Audi-CDC-Emulator\Software\archive\cdc_arduino/cdc_function.cpp:1837

static void SendStateInitPlayEnd(void)

{

  SendFrameByte(0xC3);//FF - 0x3C
    1230:	83 ec       	ldi	r24, 0xC3	; 195
    1232:	0e 94 0d 09 	call	0x121a	; 0x121a <SendFrameByte(unsigned char)>
C:\Users\mateu\Documents\GitHub\Audi-CDC-Emulator\Software\archive\cdc_arduino/cdc_function.cpp:1839

  BIDIcount++;
    1236:	80 91 65 03 	lds	r24, 0x0365	; 0x800365 <BIDIcount>
    123a:	8f 5f       	subi	r24, 0xFF	; 255
    123c:	80 93 65 03 	sts	0x0365, r24	; 0x800365 <BIDIcount>
C:\Users\mateu\Documents\GitHub\Audi-CDC-Emulator\Software\archive\cdc_arduino/cdc_function.cpp:1841

  if (BIDIcount == 0)
    1240:	81 11       	cpse	r24, r1
    1242:	09 c0       	rjmp	.+18     	; 0x1256 <SendStateInitPlayEnd()+0x26>
SetStatePlayLeadIn():
C:\Users\mateu\Documents\GitHub\Audi-CDC-Emulator\Software\archive\cdc_arduino/cdc_function.cpp:1408

static void SetStatePlayLeadIn(void)

{

  playing = TRUE;
    1244:	81 e0       	ldi	r24, 0x01	; 1
    1246:	80 93 70 03 	sts	0x0370, r24	; 0x800370 <playing>
C:\Users\mateu\Documents\GitHub\Audi-CDC-Emulator\Software\archive\cdc_arduino/cdc_function.cpp:1410

  BIDIstate = StatePlayLeadIn;
    124a:	85 e0       	ldi	r24, 0x05	; 5
    124c:	80 93 66 03 	sts	0x0366, r24	; 0x800366 <BIDIstate>
C:\Users\mateu\Documents\GitHub\Audi-CDC-Emulator\Software\archive\cdc_arduino/cdc_function.cpp:1412

  BIDIcount = -10;
    1250:	86 ef       	ldi	r24, 0xF6	; 246
    1252:	80 93 65 03 	sts	0x0365, r24	; 0x800365 <BIDIcount>
_ZL20SendStateInitPlayEndv():
C:\Users\mateu\Documents\GitHub\Audi-CDC-Emulator\Software\archive\cdc_arduino/cdc_function.cpp:1849

    SetStatePlayLeadIn();

  }

}
    1256:	08 95       	ret

00001258 <SendStateIdle()>:
_ZL13SendStateIdlev():
C:\Users\mateu\Documents\GitHub\Audi-CDC-Emulator\Software\archive\cdc_arduino/cdc_function.cpp:1770

static void SendStateIdle(void)

{

  secondcount = SECONDWAIT; // stop display from ticking time
    1258:	8c ee       	ldi	r24, 0xEC	; 236
    125a:	80 93 61 03 	sts	0x0361, r24	; 0x800361 <secondcount>
C:\Users\mateu\Documents\GitHub\Audi-CDC-Emulator\Software\archive\cdc_arduino/cdc_function.cpp:1772

  SendFrameByte(0x8B);//FF - 0x74
    125e:	8b e8       	ldi	r24, 0x8B	; 139
    1260:	0e 94 0d 09 	call	0x121a	; 0x121a <SendFrameByte(unsigned char)>
C:\Users\mateu\Documents\GitHub\Audi-CDC-Emulator\Software\archive\cdc_arduino/cdc_function.cpp:1774

  SendDisplayBytes();
    1264:	0e 94 ef 08 	call	0x11de	; 0x11de <SendDisplayBytes()>
C:\Users\mateu\Documents\GitHub\Audi-CDC-Emulator\Software\archive\cdc_arduino/cdc_function.cpp:1776

  SendByte(0x70);//FF - 0x8F, mutes audio on Monsoon head units
    1268:	80 e7       	ldi	r24, 0x70	; 112
    126a:	0e 94 ce 08 	call	0x119c	; 0x119c <SendByte(unsigned char)>
C:\Users\mateu\Documents\GitHub\Audi-CDC-Emulator\Software\archive\cdc_arduino/cdc_function.cpp:1778

  SendFrameByte(0x83);//FF - 0x7C
    126e:	83 e8       	ldi	r24, 0x83	; 131
    1270:	0c 94 0d 09 	jmp	0x121a	; 0x121a <SendFrameByte(unsigned char)>

00001274 <SendStateInitPlayAnnounceCD()>:
_ZL27SendStateInitPlayAnnounceCDv():
C:\Users\mateu\Documents\GitHub\Audi-CDC-Emulator\Software\archive\cdc_arduino/cdc_function.cpp:1877

  // 0x86..0x80: Slot Empty (made up)

  // 0xD6..0xD0: AUDIO CD Loaded. (seen on changer)

  SendByte(discload);
    1274:	80 91 63 03 	lds	r24, 0x0363	; 0x800363 <discload>
    1278:	0e 94 ce 08 	call	0x119c	; 0x119c <SendByte(unsigned char)>
C:\Users\mateu\Documents\GitHub\Audi-CDC-Emulator\Software\archive\cdc_arduino/cdc_function.cpp:1879

  if (discload == 0xD6)
    127c:	80 91 63 03 	lds	r24, 0x0363	; 0x800363 <discload>
    1280:	86 3d       	cpi	r24, 0xD6	; 214
    1282:	51 f4       	brne	.+20     	; 0x1298 <SendStateInitPlayAnnounceCD()+0x24>
C:\Users\mateu\Documents\GitHub\Audi-CDC-Emulator\Software\archive\cdc_arduino/cdc_function.cpp:1883

  {

    discload = 0xD1;
    1284:	81 ed       	ldi	r24, 0xD1	; 209
C:\Users\mateu\Documents\GitHub\Audi-CDC-Emulator\Software\archive\cdc_arduino/cdc_function.cpp:1891

  else

  {

    discload++;
    1286:	80 93 63 03 	sts	0x0363, r24	; 0x800363 <discload>
C:\Users\mateu\Documents\GitHub\Audi-CDC-Emulator\Software\archive\cdc_arduino/cdc_function.cpp:1895

  }

  SendDisplayBytesInitCD();
    128a:	0e 94 e3 08 	call	0x11c6	; 0x11c6 <SendDisplayBytesInitCD()>
C:\Users\mateu\Documents\GitHub\Audi-CDC-Emulator\Software\archive\cdc_arduino/cdc_function.cpp:1897

  SendByte(0x00);//0xFF - 0xFF
    128e:	80 e0       	ldi	r24, 0x00	; 0
    1290:	0e 94 ce 08 	call	0x119c	; 0x119c <SendByte(unsigned char)>
C:\Users\mateu\Documents\GitHub\Audi-CDC-Emulator\Software\archive\cdc_arduino/cdc_function.cpp:1899

  SendStateInitPlayEnd();
    1294:	0c 94 18 09 	jmp	0x1230	; 0x1230 <SendStateInitPlayEnd()>
C:\Users\mateu\Documents\GitHub\Audi-CDC-Emulator\Software\archive\cdc_arduino/cdc_function.cpp:1891

  else

  {

    discload++;
    1298:	8f 5f       	subi	r24, 0xFF	; 255
    129a:	f5 cf       	rjmp	.-22     	; 0x1286 <SendStateInitPlayAnnounceCD()+0x12>

0000129c <SendStatePlayLeadInEnd()>:
_ZL22SendStatePlayLeadInEndv():
C:\Users\mateu\Documents\GitHub\Audi-CDC-Emulator\Software\archive\cdc_arduino/cdc_function.cpp:1807

static void SendStatePlayLeadInEnd(void)

{

  SendFrameByte(0xC3);//FF - 0x3C
    129c:	83 ec       	ldi	r24, 0xC3	; 195
    129e:	0e 94 0d 09 	call	0x121a	; 0x121a <SendFrameByte(unsigned char)>
C:\Users\mateu\Documents\GitHub\Audi-CDC-Emulator\Software\archive\cdc_arduino/cdc_function.cpp:1809

  BIDIcount++;
    12a2:	80 91 65 03 	lds	r24, 0x0365	; 0x800365 <BIDIcount>
    12a6:	8f 5f       	subi	r24, 0xFF	; 255
    12a8:	80 93 65 03 	sts	0x0365, r24	; 0x800365 <BIDIcount>
C:\Users\mateu\Documents\GitHub\Audi-CDC-Emulator\Software\archive\cdc_arduino/cdc_function.cpp:1811

  if (BIDIcount == 0)
    12ac:	81 11       	cpse	r24, r1
    12ae:	06 c0       	rjmp	.+12     	; 0x12bc <SendStatePlayLeadInEnd()+0x20>
SetStatePlay():
C:\Users\mateu\Documents\GitHub\Audi-CDC-Emulator\Software\archive\cdc_arduino/cdc_function.cpp:1352

static void SetStatePlay(void)

{

  playing = TRUE;
    12b0:	81 e0       	ldi	r24, 0x01	; 1
    12b2:	80 93 70 03 	sts	0x0370, r24	; 0x800370 <playing>
C:\Users\mateu\Documents\GitHub\Audi-CDC-Emulator\Software\archive\cdc_arduino/cdc_function.cpp:1354

  BIDIstate = StatePlay;
    12b6:	89 e0       	ldi	r24, 0x09	; 9
    12b8:	80 93 66 03 	sts	0x0366, r24	; 0x800366 <BIDIstate>
_ZL22SendStatePlayLeadInEndv():
C:\Users\mateu\Documents\GitHub\Audi-CDC-Emulator\Software\archive\cdc_arduino/cdc_function.cpp:1819

    SetStatePlay();

  }

}
    12bc:	08 95       	ret

000012be <SendStatePlayLeadInAnnounceCD()>:
_ZL29SendStatePlayLeadInAnnounceCDv():
C:\Users\mateu\Documents\GitHub\Audi-CDC-Emulator\Software\archive\cdc_arduino/cdc_function.cpp:1919

static void SendStatePlayLeadInAnnounceCD(void)

{

  SendByte((disc & 0x0F) | 0xD0);
    12be:	80 91 07 01 	lds	r24, 0x0107	; 0x800107 <disc>
    12c2:	8f 70       	andi	r24, 0x0F	; 15
    12c4:	80 6d       	ori	r24, 0xD0	; 208
    12c6:	0e 94 ce 08 	call	0x119c	; 0x119c <SendByte(unsigned char)>
C:\Users\mateu\Documents\GitHub\Audi-CDC-Emulator\Software\archive\cdc_arduino/cdc_function.cpp:1921

  SendDisplayBytesInitCD();
    12ca:	0e 94 e3 08 	call	0x11c6	; 0x11c6 <SendDisplayBytesInitCD()>
C:\Users\mateu\Documents\GitHub\Audi-CDC-Emulator\Software\archive\cdc_arduino/cdc_function.cpp:1923

  SendByte(0x00);//0xFF - 0xFF
    12ce:	80 e0       	ldi	r24, 0x00	; 0
    12d0:	0e 94 ce 08 	call	0x119c	; 0x119c <SendByte(unsigned char)>
C:\Users\mateu\Documents\GitHub\Audi-CDC-Emulator\Software\archive\cdc_arduino/cdc_function.cpp:1925

  SendStatePlayLeadInEnd();
    12d4:	0c 94 4e 09 	jmp	0x129c	; 0x129c <SendStatePlayLeadInEnd()>

000012d8 <SendPacket()>:
_ZL10SendPacketv():
C:\Users\mateu\Documents\GitHub\Audi-CDC-Emulator\Software\archive\cdc_arduino/cdc_function.cpp:1945

static void SendPacket(void)

{

  switch (BIDIstate) {
    12d8:	e0 91 66 03 	lds	r30, 0x0366	; 0x800366 <BIDIstate>
    12dc:	eb 30       	cpi	r30, 0x0B	; 11
    12de:	08 f0       	brcs	.+2      	; 0x12e2 <SendPacket()+0xa>
    12e0:	73 c0       	rjmp	.+230    	; 0x13c8 <SendPacket()+0xf0>
    12e2:	f0 e0       	ldi	r31, 0x00	; 0
    12e4:	ea 58       	subi	r30, 0x8A	; 138
    12e6:	f6 4f       	sbci	r31, 0xF6	; 246
    12e8:	0c 94 f7 17 	jmp	0x2fee	; 0x2fee <__tablejump2__>
    12ec:	98 09       	sbc	r25, r8
    12ee:	8f 09       	sbc	r24, r15
    12f0:	9a 09       	sbc	r25, r10
    12f2:	aa 09       	sbc	r26, r10
    12f4:	a3 09       	sbc	r26, r3
    12f6:	ac 09       	sbc	r26, r12
    12f8:	bc 09       	sbc	r27, r12
    12fa:	b5 09       	sbc	r27, r5
    12fc:	be 09       	sbc	r27, r14
    12fe:	da 09       	sbc	r29, r10
    1300:	81 09       	sbc	r24, r1
SendStateTP():
C:\Users\mateu\Documents\GitHub\Audi-CDC-Emulator\Software\archive\cdc_arduino/cdc_function.cpp:1784

}

static void SendStateTP(void)
{ //B4 BE EF FE DB FF DF BC
  secondcount = SECONDWAIT; // stop display from ticking time
    1302:	8c ee       	ldi	r24, 0xEC	; 236
    1304:	80 93 61 03 	sts	0x0361, r24	; 0x800361 <secondcount>
C:\Users\mateu\Documents\GitHub\Audi-CDC-Emulator\Software\archive\cdc_arduino/cdc_function.cpp:1785
  SendFrameByte(0x4B);//FF - 0x4b
    1308:	8b e4       	ldi	r24, 0x4B	; 75
    130a:	0e 94 0d 09 	call	0x121a	; 0x121a <SendFrameByte(unsigned char)>
C:\Users\mateu\Documents\GitHub\Audi-CDC-Emulator\Software\archive\cdc_arduino/cdc_function.cpp:1786
  SendDisplayBytes();
    130e:	0e 94 ef 08 	call	0x11de	; 0x11de <SendDisplayBytes()>
C:\Users\mateu\Documents\GitHub\Audi-CDC-Emulator\Software\archive\cdc_arduino/cdc_function.cpp:1787
  SendByte(0x20);
    1312:	80 e2       	ldi	r24, 0x20	; 32
    1314:	0e 94 ce 08 	call	0x119c	; 0x119c <SendByte(unsigned char)>
C:\Users\mateu\Documents\GitHub\Audi-CDC-Emulator\Software\archive\cdc_arduino/cdc_function.cpp:1788
  SendFrameByte(0x43);//FF - 0x7C
    1318:	83 e4       	ldi	r24, 0x43	; 67
_ZL10SendPacketv():
C:\Users\mateu\Documents\GitHub\Audi-CDC-Emulator\Software\archive\cdc_arduino/cdc_function.cpp:2049

    case StatePlay:
      SendFrameByte(0xCB);//0xFF - 0x34
      SendDisplayBytes();
      SendByte(0x30);//0xFF - 0xCF
      SendFrameByte(0xC3);//FF - 0x3C
    131a:	0c 94 0d 09 	jmp	0x121a	; 0x121a <SendFrameByte(unsigned char)>
C:\Users\mateu\Documents\GitHub\Audi-CDC-Emulator\Software\archive\cdc_arduino/cdc_function.cpp:1955
    case StateIdle:
      SendStateIdle();
      break;

    case StateIdleThenPlay:
      BIDIcount++;
    131e:	80 91 65 03 	lds	r24, 0x0365	; 0x800365 <BIDIcount>
    1322:	8f 5f       	subi	r24, 0xFF	; 255
    1324:	80 93 65 03 	sts	0x0365, r24	; 0x800365 <BIDIcount>
C:\Users\mateu\Documents\GitHub\Audi-CDC-Emulator\Software\archive\cdc_arduino/cdc_function.cpp:1957

      if (BIDIcount == 0)
    1328:	81 11       	cpse	r24, r1
    132a:	02 c0       	rjmp	.+4      	; 0x1330 <SendPacket()+0x58>
C:\Users\mateu\Documents\GitHub\Audi-CDC-Emulator\Software\archive\cdc_arduino/cdc_function.cpp:1959
      {
        SetStateInitPlay();
    132c:	0e 94 65 08 	call	0x10ca	; 0x10ca <SetStateInitPlay()>
C:\Users\mateu\Documents\GitHub\Audi-CDC-Emulator\Software\archive\cdc_arduino/cdc_function.cpp:1960
        SendStateIdle();
    1330:	0c 94 2c 09 	jmp	0x1258	; 0x1258 <SendStateIdle()>
C:\Users\mateu\Documents\GitHub\Audi-CDC-Emulator\Software\archive\cdc_arduino/cdc_function.cpp:1982
    // 34 BE FE FF FF FF EF 3C
    // 34 69 00 FF FF FF FF 3C
    // 34 BE FE FF FF FF EF 3C

    case StateInitPlay:
      secondcount = SECONDWAIT; // stop display from ticking time
    1334:	8c ee       	ldi	r24, 0xEC	; 236
    1336:	80 93 61 03 	sts	0x0361, r24	; 0x800361 <secondcount>
C:\Users\mateu\Documents\GitHub\Audi-CDC-Emulator\Software\archive\cdc_arduino/cdc_function.cpp:1983
      SendFrameByte(0xCB);//0xFF - 0x34
    133a:	8b ec       	ldi	r24, 0xCB	; 203
    133c:	0e 94 0d 09 	call	0x121a	; 0x121a <SendFrameByte(unsigned char)>
C:\Users\mateu\Documents\GitHub\Audi-CDC-Emulator\Software\archive\cdc_arduino/cdc_function.cpp:1985

      if ((BIDIcount & 0x01) == 0)
    1340:	80 91 65 03 	lds	r24, 0x0365	; 0x800365 <BIDIcount>
    1344:	80 ff       	sbrs	r24, 0
C:\Users\mateu\Documents\GitHub\Audi-CDC-Emulator\Software\archive\cdc_arduino/cdc_function.cpp:1998
    case StateInitPlayEnd:
      SendStateInitPlayEnd();
      break;

    case StateInitPlayAnnounceCD:
      SendStateInitPlayAnnounceCD();
    1346:	0c 94 3a 09 	jmp	0x1274	; 0x1274 <SendStateInitPlayAnnounceCD()>
C:\Users\mateu\Documents\GitHub\Audi-CDC-Emulator\Software\archive\cdc_arduino/cdc_function.cpp:1990
      if ((BIDIcount & 0x01) == 0)
      {
        SendStateInitPlayAnnounceCD();
        break;
      }
      SendDisplayBytes();
    134a:	0e 94 ef 08 	call	0x11de	; 0x11de <SendDisplayBytes()>
C:\Users\mateu\Documents\GitHub\Audi-CDC-Emulator\Software\archive\cdc_arduino/cdc_function.cpp:1991
      SendByte(0x10);//0xFF - 0xEF
    134e:	80 e1       	ldi	r24, 0x10	; 16
    1350:	0e 94 ce 08 	call	0x119c	; 0x119c <SendByte(unsigned char)>
C:\Users\mateu\Documents\GitHub\Audi-CDC-Emulator\Software\archive\cdc_arduino/cdc_function.cpp:1994

    case StateInitPlayEnd:
      SendStateInitPlayEnd();
    1354:	0c 94 18 09 	jmp	0x1230	; 0x1230 <SendStateInitPlayEnd()>
C:\Users\mateu\Documents\GitHub\Audi-CDC-Emulator\Software\archive\cdc_arduino/cdc_function.cpp:2011
      // 34 BE FE FF FF FF AE 3C
      // 34 2E ED DE AF B7 FF 3C
      // 34 BE FE FF FF FF AE 3C
      // 34 2E ED DE AF B7 FF 3C
      // 34 BE FE FF FF FF AE 3C
      secondcount = SECONDWAIT; // stop display from ticking time
    1358:	8c ee       	ldi	r24, 0xEC	; 236
    135a:	80 93 61 03 	sts	0x0361, r24	; 0x800361 <secondcount>
C:\Users\mateu\Documents\GitHub\Audi-CDC-Emulator\Software\archive\cdc_arduino/cdc_function.cpp:2012
      SendFrameByte(0xCB);//0xFF - 0x34
    135e:	8b ec       	ldi	r24, 0xCB	; 203
    1360:	0e 94 0d 09 	call	0x121a	; 0x121a <SendFrameByte(unsigned char)>
C:\Users\mateu\Documents\GitHub\Audi-CDC-Emulator\Software\archive\cdc_arduino/cdc_function.cpp:2014

      if ((BIDIcount & 0x01) == 0)
    1364:	80 91 65 03 	lds	r24, 0x0365	; 0x800365 <BIDIcount>
    1368:	80 ff       	sbrs	r24, 0
C:\Users\mateu\Documents\GitHub\Audi-CDC-Emulator\Software\archive\cdc_arduino/cdc_function.cpp:2028
    case StatePlayLeadInEnd:
      SendStatePlayLeadInEnd();
      break;

    case StatePlayLeadInAnnounceCD:
      SendStatePlayLeadInAnnounceCD();
    136a:	0c 94 5f 09 	jmp	0x12be	; 0x12be <SendStatePlayLeadInAnnounceCD()>
C:\Users\mateu\Documents\GitHub\Audi-CDC-Emulator\Software\archive\cdc_arduino/cdc_function.cpp:2020
      {
        SendStatePlayLeadInAnnounceCD();
        break;
      }

      SendDisplayBytes();
    136e:	0e 94 ef 08 	call	0x11de	; 0x11de <SendDisplayBytes()>
C:\Users\mateu\Documents\GitHub\Audi-CDC-Emulator\Software\archive\cdc_arduino/cdc_function.cpp:2021
      SendByte(0x51);//0xFF - 0xAE
    1372:	81 e5       	ldi	r24, 0x51	; 81
    1374:	0e 94 ce 08 	call	0x119c	; 0x119c <SendByte(unsigned char)>
C:\Users\mateu\Documents\GitHub\Audi-CDC-Emulator\Software\archive\cdc_arduino/cdc_function.cpp:2024

    case StatePlayLeadInEnd:
      SendStatePlayLeadInEnd();
    1378:	0c 94 4e 09 	jmp	0x129c	; 0x129c <SendStatePlayLeadInEnd()>
C:\Users\mateu\Documents\GitHub\Audi-CDC-Emulator\Software\archive\cdc_arduino/cdc_function.cpp:2032
    case StatePlayLeadInAnnounceCD:
      SendStatePlayLeadInAnnounceCD();
      break;

    case StateTrackLeadIn:
      secondcount = SECONDWAIT; // stop display from ticking time
    137c:	8c ee       	ldi	r24, 0xEC	; 236
    137e:	80 93 61 03 	sts	0x0361, r24	; 0x800361 <secondcount>
C:\Users\mateu\Documents\GitHub\Audi-CDC-Emulator\Software\archive\cdc_arduino/cdc_function.cpp:2033
      SendFrameByte(0xCB);//0xFF - 0x34
    1382:	8b ec       	ldi	r24, 0xCB	; 203
    1384:	0e 94 0d 09 	call	0x121a	; 0x121a <SendFrameByte(unsigned char)>
C:\Users\mateu\Documents\GitHub\Audi-CDC-Emulator\Software\archive\cdc_arduino/cdc_function.cpp:2034
      SendDisplayBytes();
    1388:	0e 94 ef 08 	call	0x11de	; 0x11de <SendDisplayBytes()>
C:\Users\mateu\Documents\GitHub\Audi-CDC-Emulator\Software\archive\cdc_arduino/cdc_function.cpp:2035
      SendByte(0x51);//0xFF - 0xAE
    138c:	81 e5       	ldi	r24, 0x51	; 81
    138e:	0e 94 ce 08 	call	0x119c	; 0x119c <SendByte(unsigned char)>
C:\Users\mateu\Documents\GitHub\Audi-CDC-Emulator\Software\archive\cdc_arduino/cdc_function.cpp:2036
      SendFrameByte(0xC3);//0xFF - 0x3C
    1392:	83 ec       	ldi	r24, 0xC3	; 195
    1394:	0e 94 0d 09 	call	0x121a	; 0x121a <SendFrameByte(unsigned char)>
C:\Users\mateu\Documents\GitHub\Audi-CDC-Emulator\Software\archive\cdc_arduino/cdc_function.cpp:2037
      BIDIcount++;
    1398:	80 91 65 03 	lds	r24, 0x0365	; 0x800365 <BIDIcount>
    139c:	8f 5f       	subi	r24, 0xFF	; 255
    139e:	80 93 65 03 	sts	0x0365, r24	; 0x800365 <BIDIcount>
C:\Users\mateu\Documents\GitHub\Audi-CDC-Emulator\Software\archive\cdc_arduino/cdc_function.cpp:2038
      if (BIDIcount == 0)
    13a2:	88 23       	and	r24, r24
    13a4:	89 f0       	breq	.+34     	; 0x13c8 <SendPacket()+0xf0>
SetStatePlay():
C:\Users\mateu\Documents\GitHub\Audi-CDC-Emulator\Software\archive\cdc_arduino/cdc_function.cpp:1352

static void SetStatePlay(void)

{

  playing = TRUE;
    13a6:	81 e0       	ldi	r24, 0x01	; 1
    13a8:	80 93 70 03 	sts	0x0370, r24	; 0x800370 <playing>
C:\Users\mateu\Documents\GitHub\Audi-CDC-Emulator\Software\archive\cdc_arduino/cdc_function.cpp:1354

  BIDIstate = StatePlay;
    13ac:	89 e0       	ldi	r24, 0x09	; 9
    13ae:	80 93 66 03 	sts	0x0366, r24	; 0x800366 <BIDIstate>
    13b2:	08 95       	ret
_ZL10SendPacketv():
C:\Users\mateu\Documents\GitHub\Audi-CDC-Emulator\Software\archive\cdc_arduino/cdc_function.cpp:2046
      }
      SetStatePlay();
      break;

    case StatePlay:
      SendFrameByte(0xCB);//0xFF - 0x34
    13b4:	8b ec       	ldi	r24, 0xCB	; 203
    13b6:	0e 94 0d 09 	call	0x121a	; 0x121a <SendFrameByte(unsigned char)>
C:\Users\mateu\Documents\GitHub\Audi-CDC-Emulator\Software\archive\cdc_arduino/cdc_function.cpp:2047
      SendDisplayBytes();
    13ba:	0e 94 ef 08 	call	0x11de	; 0x11de <SendDisplayBytes()>
C:\Users\mateu\Documents\GitHub\Audi-CDC-Emulator\Software\archive\cdc_arduino/cdc_function.cpp:2048
      SendByte(0x30);//0xFF - 0xCF
    13be:	80 e3       	ldi	r24, 0x30	; 48
    13c0:	0e 94 ce 08 	call	0x119c	; 0x119c <SendByte(unsigned char)>
C:\Users\mateu\Documents\GitHub\Audi-CDC-Emulator\Software\archive\cdc_arduino/cdc_function.cpp:2049
      SendFrameByte(0xC3);//FF - 0x3C
    13c4:	83 ec       	ldi	r24, 0xC3	; 195
    13c6:	a9 cf       	rjmp	.-174    	; 0x131a <SendPacket()+0x42>
C:\Users\mateu\Documents\GitHub\Audi-CDC-Emulator\Software\archive\cdc_arduino/cdc_function.cpp:2054
      break;
    default:
      break;
  }
}
    13c8:	08 95       	ret

000013ca <Init_VWCDC()>:
_Z10Init_VWCDCv():
C:\Users\mateu\Documents\GitHub\Audi-CDC-Emulator\Software\archive\cdc_arduino/cdc_function.cpp:205
  \return     void
*/
//-----------------------------------------------------------------------------

void Init_VWCDC(void)
{
    13ca:	cf 93       	push	r28
    13cc:	df 93       	push	r29
C:\Users\mateu\Documents\GitHub\Audi-CDC-Emulator\Software\archive\cdc_arduino/cdc_function.cpp:206
  cli();  
    13ce:	f8 94       	cli
C:\Users\mateu\Documents\GitHub\Audi-CDC-Emulator\Software\archive\cdc_arduino/cdc_function.cpp:208

  TIMSK0 = 0x00; //on arduino timer0 is used for millis(), we change prescaler, but also need to disable overflow interrupt
    13d0:	ce e6       	ldi	r28, 0x6E	; 110
    13d2:	d0 e0       	ldi	r29, 0x00	; 0
    13d4:	18 82       	st	Y, r1
C:\Users\mateu\Documents\GitHub\Audi-CDC-Emulator\Software\archive\cdc_arduino/cdc_function.cpp:209
  RADIO_CLOCK_DDR |= _BV(RADIO_CLOCK);
    13d6:	25 9a       	sbi	0x04, 5	; 4
C:\Users\mateu\Documents\GitHub\Audi-CDC-Emulator\Software\archive\cdc_arduino/cdc_function.cpp:210
  RADIO_DATA_DDR  |= _BV(RADIO_DATA);
    13d8:	23 9a       	sbi	0x04, 3	; 4
C:\Users\mateu\Documents\GitHub\Audi-CDC-Emulator\Software\archive\cdc_arduino/cdc_function.cpp:211
  RADIO_COMMAND_DDR &= ~_BV(RADIO_COMMAND); // input capture as input
    13da:	20 98       	cbi	0x04, 0	; 4
C:\Users\mateu\Documents\GitHub\Audi-CDC-Emulator\Software\archive\cdc_arduino/cdc_function.cpp:212
  RADIO_COMMAND_PORT |= _BV(RADIO_COMMAND); // enable pull up
    13dc:	28 9a       	sbi	0x05, 0	; 5
C:\Users\mateu\Documents\GitHub\Audi-CDC-Emulator\Software\archive\cdc_arduino/cdc_function.cpp:216

  //Timer1 init
  //Used for timing the incoming commands from headunit
  TCCR1A = 0x00; // Normal port operation, OC1A/OC1B/OC1C disconnected
    13de:	10 92 80 00 	sts	0x0080, r1	; 0x800080 <__TEXT_REGION_LENGTH__+0x7f8080>
C:\Users\mateu\Documents\GitHub\Audi-CDC-Emulator\Software\archive\cdc_arduino/cdc_function.cpp:217
  TCCR1B = _BV(ICNC1); // noise canceler, int on falling edge
    13e2:	e1 e8       	ldi	r30, 0x81	; 129
    13e4:	f0 e0       	ldi	r31, 0x00	; 0
    13e6:	80 e8       	ldi	r24, 0x80	; 128
    13e8:	80 83       	st	Z, r24
C:\Users\mateu\Documents\GitHub\Audi-CDC-Emulator\Software\archive\cdc_arduino/cdc_function.cpp:218
  TCCR1B |= _BV(CS11); // prescaler = 8 -> 1 timer clock tick is 0.5µs long
    13ea:	80 81       	ld	r24, Z
    13ec:	82 60       	ori	r24, 0x02	; 2
    13ee:	80 83       	st	Z, r24
C:\Users\mateu\Documents\GitHub\Audi-CDC-Emulator\Software\archive\cdc_arduino/cdc_function.cpp:219
  TIFR1 |= _BV(ICF1); // clear pending interrupt
    13f0:	b5 9a       	sbi	0x16, 5	; 22
C:\Users\mateu\Documents\GitHub\Audi-CDC-Emulator\Software\archive\cdc_arduino/cdc_function.cpp:220
  TIMSK1 |= _BV(ICIE1); // enable input capture interrupt on timer1
    13f2:	ef e6       	ldi	r30, 0x6F	; 111
    13f4:	f0 e0       	ldi	r31, 0x00	; 0
    13f6:	80 81       	ld	r24, Z
    13f8:	80 62       	ori	r24, 0x20	; 32
    13fa:	80 83       	st	Z, r24
C:\Users\mateu\Documents\GitHub\Audi-CDC-Emulator\Software\archive\cdc_arduino/cdc_function.cpp:224

  //Timer 2 Init
  //Timer 2 used to time the intervals between package bytes
  OCR2A = 175; // 4µs x 175 = 700µs
    13fc:	8f ea       	ldi	r24, 0xAF	; 175
    13fe:	80 93 b3 00 	sts	0x00B3, r24	; 0x8000b3 <__TEXT_REGION_LENGTH__+0x7f80b3>
C:\Users\mateu\Documents\GitHub\Audi-CDC-Emulator\Software\archive\cdc_arduino/cdc_function.cpp:225
  TCCR2A = _BV(WGM21); // Timer2 in CTC Mode
    1402:	82 e0       	ldi	r24, 0x02	; 2
    1404:	80 93 b0 00 	sts	0x00B0, r24	; 0x8000b0 <__TEXT_REGION_LENGTH__+0x7f80b0>
C:\Users\mateu\Documents\GitHub\Audi-CDC-Emulator\Software\archive\cdc_arduino/cdc_function.cpp:226
  TCCR2B = _BV(CS22); // prescaler = 64 -> 1 timer clock tick is 4us long
    1408:	84 e0       	ldi	r24, 0x04	; 4
    140a:	80 93 b1 00 	sts	0x00B1, r24	; 0x8000b1 <__TEXT_REGION_LENGTH__+0x7f80b1>
C:\Users\mateu\Documents\GitHub\Audi-CDC-Emulator\Software\archive\cdc_arduino/cdc_function.cpp:227
  TIMSK2 |= _BV(OCIE2A);
    140e:	e0 e7       	ldi	r30, 0x70	; 112
    1410:	f0 e0       	ldi	r31, 0x00	; 0
    1412:	80 81       	ld	r24, Z
    1414:	82 60       	ori	r24, 0x02	; 2
    1416:	80 83       	st	Z, r24
C:\Users\mateu\Documents\GitHub\Audi-CDC-Emulator\Software\archive\cdc_arduino/cdc_function.cpp:229
  
  capptr = 0; // indirect pointer to capture buffer
    1418:	10 92 67 03 	sts	0x0367, r1	; 0x800367 <capptr>
C:\Users\mateu\Documents\GitHub\Audi-CDC-Emulator\Software\archive\cdc_arduino/cdc_function.cpp:230
  scanptr = 0;
    141c:	10 92 77 03 	sts	0x0377, r1	; 0x800377 <scanptr>
C:\Users\mateu\Documents\GitHub\Audi-CDC-Emulator\Software\archive\cdc_arduino/cdc_function.cpp:231
  capbit = -8;
    1420:	88 ef       	ldi	r24, 0xF8	; 248
    1422:	80 93 69 03 	sts	0x0369, r24	; 0x800369 <capbit>
C:\Users\mateu\Documents\GitHub\Audi-CDC-Emulator\Software\archive\cdc_arduino/cdc_function.cpp:232
  txinptr = 0; // queue pointers
    1426:	10 92 5f 03 	sts	0x035F, r1	; 0x80035f <txinptr>
C:\Users\mateu\Documents\GitHub\Audi-CDC-Emulator\Software\archive\cdc_arduino/cdc_function.cpp:233
  txoutptr = 0;
    142a:	10 92 5e 03 	sts	0x035E, r1	; 0x80035e <txoutptr>
C:\Users\mateu\Documents\GitHub\Audi-CDC-Emulator\Software\archive\cdc_arduino/cdc_function.cpp:235

  capbusy = FALSE; // reset flags
    142e:	10 92 73 03 	sts	0x0373, r1	; 0x800373 <capbusy>
C:\Users\mateu\Documents\GitHub\Audi-CDC-Emulator\Software\archive\cdc_arduino/cdc_function.cpp:236
  mix = FALSE;
    1432:	10 92 72 03 	sts	0x0372, r1	; 0x800372 <mix>
C:\Users\mateu\Documents\GitHub\Audi-CDC-Emulator\Software\archive\cdc_arduino/cdc_function.cpp:237
  scan = FALSE;
    1436:	10 92 71 03 	sts	0x0371, r1	; 0x800371 <scan>
C:\Users\mateu\Documents\GitHub\Audi-CDC-Emulator\Software\archive\cdc_arduino/cdc_function.cpp:238
  playing = FALSE;
    143a:	10 92 70 03 	sts	0x0370, r1	; 0x800370 <playing>
C:\Users\mateu\Documents\GitHub\Audi-CDC-Emulator\Software\archive\cdc_arduino/cdc_function.cpp:239
  overflow = FALSE;
    143e:	10 92 6d 03 	sts	0x036D, r1	; 0x80036d <overflow>
C:\Users\mateu\Documents\GitHub\Audi-CDC-Emulator\Software\archive\cdc_arduino/cdc_function.cpp:240
  dataerr = FALSE;
    1442:	10 92 6c 03 	sts	0x036C, r1	; 0x80036c <dataerr>
C:\Users\mateu\Documents\GitHub\Audi-CDC-Emulator\Software\archive\cdc_arduino/cdc_function.cpp:245

#ifdef DUMPMODE
  startbit = FALSE;
#endif
  ACKcount = 0;
    1446:	10 92 64 03 	sts	0x0364, r1	; 0x800364 <ACKcount>
C:\Users\mateu\Documents\GitHub\Audi-CDC-Emulator\Software\archive\cdc_arduino/cdc_function.cpp:249

  // these values can be set depending on the state of mp3
  // it has to be evaluated wether CD number can be grater than 6
  disc = 0x41; // CD 1
    144a:	81 e4       	ldi	r24, 0x41	; 65
    144c:	80 93 07 01 	sts	0x0107, r24	; 0x800107 <disc>
C:\Users\mateu\Documents\GitHub\Audi-CDC-Emulator\Software\archive\cdc_arduino/cdc_function.cpp:250
  track = 0x01; // track 1
    1450:	81 e0       	ldi	r24, 0x01	; 1
    1452:	80 93 06 01 	sts	0x0106, r24	; 0x800106 <track>
C:\Users\mateu\Documents\GitHub\Audi-CDC-Emulator\Software\archive\cdc_arduino/cdc_function.cpp:252

  poweridentcount = POWERIDENTWAIT;
    1456:	86 ef       	ldi	r24, 0xF6	; 246
    1458:	80 93 62 03 	sts	0x0362, r24	; 0x800362 <poweridentcount>
C:\Users\mateu\Documents\GitHub\Audi-CDC-Emulator\Software\archive\cdc_arduino/cdc_function.cpp:254

  ResetTime();
    145c:	0e 94 c6 08 	call	0x118c	; 0x118c <ResetTime()>
SetStateIdle():
C:\Users\mateu\Documents\GitHub\Audi-CDC-Emulator\Software\archive\cdc_arduino/cdc_function.cpp:1299

static void SetStateIdle(void)

{

  playing = FALSE;
    1460:	10 92 70 03 	sts	0x0370, r1	; 0x800370 <playing>
C:\Users\mateu\Documents\GitHub\Audi-CDC-Emulator\Software\archive\cdc_arduino/cdc_function.cpp:1301

  BIDIstate = StateIdle;
    1464:	10 92 66 03 	sts	0x0366, r1	; 0x800366 <BIDIstate>
_Z10Init_VWCDCv():
C:\Users\mateu\Documents\GitHub\Audi-CDC-Emulator\Software\archive\cdc_arduino/cdc_function.cpp:257
  poweridentcount = POWERIDENTWAIT;

  ResetTime();
  SetStateIdle(); //start at idle!!! no idle then play!!

  EnqueueString(sIDENTIFY);
    1468:	8e ed       	ldi	r24, 0xDE	; 222
    146a:	90 e0       	ldi	r25, 0x00	; 0
    146c:	0e 94 72 08 	call	0x10e4	; 0x10e4 <EnqueueString(unsigned char const*)>
C:\Users\mateu\Documents\GitHub\Audi-CDC-Emulator\Software\archive\cdc_arduino/cdc_function.cpp:258
  EnqueueString(sVERSION);
    1470:	84 eb       	ldi	r24, 0xB4	; 180
    1472:	90 e0       	ldi	r25, 0x00	; 0
    1474:	0e 94 72 08 	call	0x10e4	; 0x10e4 <EnqueueString(unsigned char const*)>
C:\Users\mateu\Documents\GitHub\Audi-CDC-Emulator\Software\archive\cdc_arduino/cdc_function.cpp:259
  EnqueueString(sNEWLINE);
    1478:	8b ed       	ldi	r24, 0xDB	; 219
    147a:	90 e0       	ldi	r25, 0x00	; 0
    147c:	0e 94 72 08 	call	0x10e4	; 0x10e4 <EnqueueString(unsigned char const*)>
C:\Users\mateu\Documents\GitHub\Audi-CDC-Emulator\Software\archive\cdc_arduino/cdc_function.cpp:260
  EnqueueString(sRING);
    1480:	85 e0       	ldi	r24, 0x05	; 5
    1482:	91 e0       	ldi	r25, 0x01	; 1
    1484:	0e 94 72 08 	call	0x10e4	; 0x10e4 <EnqueueString(unsigned char const*)>
C:\Users\mateu\Documents\GitHub\Audi-CDC-Emulator\Software\archive\cdc_arduino/cdc_function.cpp:272
  //timer0 overflow after 256counts, oveflow interup routine is fired every 1024us (4*256)
  //we need 50 overflows to count to 50ms
#define _TIMER0_OVERFLOW_COUNTS 50

#else
  OCR0A = _10MS; // 10ms Intervall
    1488:	8c e9       	ldi	r24, 0x9C	; 156
    148a:	87 bd       	out	0x27, r24	; 39
C:\Users\mateu\Documents\GitHub\Audi-CDC-Emulator\Software\archive\cdc_arduino/cdc_function.cpp:273
  TCCR0A = 0x00; // Normal port operation, OC0 disconnected
    148c:	14 bc       	out	0x24, r1	; 36
C:\Users\mateu\Documents\GitHub\Audi-CDC-Emulator\Software\archive\cdc_arduino/cdc_function.cpp:274
  TCCR0A |= _BV(WGM01); // CTC mode
    148e:	84 b5       	in	r24, 0x24	; 36
    1490:	82 60       	ori	r24, 0x02	; 2
    1492:	84 bd       	out	0x24, r24	; 36
C:\Users\mateu\Documents\GitHub\Audi-CDC-Emulator\Software\archive\cdc_arduino/cdc_function.cpp:275
  TCCR0B |= _BV(CS00) | _BV(CS02); // prescaler = 1024 -> 1 timer clock tick is 64us long
    1494:	85 b5       	in	r24, 0x25	; 37
    1496:	85 60       	ori	r24, 0x05	; 5
    1498:	85 bd       	out	0x25, r24	; 37
C:\Users\mateu\Documents\GitHub\Audi-CDC-Emulator\Software\archive\cdc_arduino/cdc_function.cpp:276
  TIMSK0 |= _BV(OCIE0A); // enable output compare interrupt on timer0
    149a:	88 81       	ld	r24, Y
    149c:	82 60       	ori	r24, 0x02	; 2
    149e:	88 83       	st	Y, r24
C:\Users\mateu\Documents\GitHub\Audi-CDC-Emulator\Software\archive\cdc_arduino/cdc_function.cpp:278
#endif
  SendPacket(); // force first display update packet
    14a0:	0e 94 6c 09 	call	0x12d8	; 0x12d8 <SendPacket()>
C:\Users\mateu\Documents\GitHub\Audi-CDC-Emulator\Software\archive\cdc_arduino/cdc_function.cpp:279
  sei();
    14a4:	78 94       	sei
C:\Users\mateu\Documents\GitHub\Audi-CDC-Emulator\Software\archive\cdc_arduino/cdc_function.cpp:281
  //    SREG |= 0x80;   // enable interrupts
}
    14a6:	df 91       	pop	r29
    14a8:	cf 91       	pop	r28
    14aa:	08 95       	ret

000014ac <__vector_7>:
__vector_7():
C:\Users\mateu\Documents\GitHub\Audi-CDC-Emulator\Software\archive\cdc_arduino/cdc_function.cpp:297
  \return     none
*/
//-----------------------------------------------------------------------------

ISR(TIMER2_COMPA_vect)
{
    14ac:	1f 92       	push	r1
    14ae:	0f 92       	push	r0
    14b0:	0f b6       	in	r0, 0x3f	; 63
    14b2:	0f 92       	push	r0
    14b4:	11 24       	eor	r1, r1
    14b6:	2f 93       	push	r18
    14b8:	8f 93       	push	r24
    14ba:	9f 93       	push	r25
    14bc:	ef 93       	push	r30
    14be:	ff 93       	push	r31
C:\Users\mateu\Documents\GitHub\Audi-CDC-Emulator\Software\archive\cdc_arduino/cdc_function.cpp:302
  static uint8_t display_byte_counter_u8 = 0;
  uint8_t byte_u8;
  //TCCR2B &= ~_BV(CS20); //set to 0 already
  //TCCR2B &= ~_BV(CS21); //set to 0 already
  TCCR2B &= ~_BV(CS22); // stop Timer2, CS22 was set, prescaler 64
    14c0:	80 91 b1 00 	lds	r24, 0x00B1	; 0x8000b1 <__TEXT_REGION_LENGTH__+0x7f80b1>
    14c4:	8b 7f       	andi	r24, 0xFB	; 251
    14c6:	80 93 b1 00 	sts	0x00B1, r24	; 0x8000b1 <__TEXT_REGION_LENGTH__+0x7f80b1>
C:\Users\mateu\Documents\GitHub\Audi-CDC-Emulator\Software\archive\cdc_arduino/cdc_function.cpp:306
  //TCNT2 = 0; // clear Timer2
  //TIFR2 |= _BV(OCF2A); //no need to do this

  if (display_byte_counter_u8 < 8)
    14ca:	e0 91 21 03 	lds	r30, 0x0321	; 0x800321 <__vector_7::display_byte_counter_u8>
    14ce:	e8 30       	cpi	r30, 0x08	; 8
    14d0:	a0 f5       	brcc	.+104    	; 0x153a <__vector_7+0x8e>
C:\Users\mateu\Documents\GitHub\Audi-CDC-Emulator\Software\archive\cdc_arduino/cdc_function.cpp:308
  {
    byte_u8 = display_byte_buffer_mau8[display_byte_counter_u8];
    14d2:	f0 e0       	ldi	r31, 0x00	; 0
    14d4:	ea 5a       	subi	r30, 0xAA	; 170
    14d6:	fc 4f       	sbci	r31, 0xFC	; 252
    14d8:	90 81       	ld	r25, Z
C:\Users\mateu\Documents\GitHub\Audi-CDC-Emulator\Software\archive\cdc_arduino/cdc_function.cpp:316
    Serial.print("|");
    Serial.print(byte_u8, HEX);
    Serial.print("|");
#endif

    for (sendbitcount = -8; sendbitcount != 0; sendbitcount++)
    14da:	88 ef       	ldi	r24, 0xF8	; 248
    14dc:	80 93 7b 03 	sts	0x037B, r24	; 0x80037b <sendbitcount>
_delay_loop_1():
c:\users\mateu\appdata\local\arduino15\packages\arduino\tools\avr-gcc\7.3.0-atmel3.6.1-arduino7\avr\include\util/delay_basic.h:88
	__asm__ volatile (
		"1: dec %0" "\n\t"
		"brne 1b"
		: "=r" (__count)
		: "0" (__count)
	);
    14e0:	25 e0       	ldi	r18, 0x05	; 5
__vector_7():
C:\Users\mateu\Documents\GitHub\Audi-CDC-Emulator\Software\archive\cdc_arduino/cdc_function.cpp:316 (discriminator 1)
    14e2:	80 91 7b 03 	lds	r24, 0x037B	; 0x80037b <sendbitcount>
    14e6:	88 23       	and	r24, r24
    14e8:	a1 f0       	breq	.+40     	; 0x1512 <__vector_7+0x66>
C:\Users\mateu\Documents\GitHub\Audi-CDC-Emulator\Software\archive\cdc_arduino/cdc_function.cpp:318
    {
      RADIO_CLOCK_PORT |= _BV(RADIO_CLOCK); // SCLK high
    14ea:	2d 9a       	sbi	0x05, 5	; 5
_delay_loop_1():
c:\users\mateu\appdata\local\arduino15\packages\arduino\tools\avr-gcc\7.3.0-atmel3.6.1-arduino7\avr\include\util/delay_basic.h:88
    14ec:	82 2f       	mov	r24, r18
    14ee:	8a 95       	dec	r24
    14f0:	f1 f7       	brne	.-4      	; 0x14ee <__vector_7+0x42>
__vector_7():
C:\Users\mateu\Documents\GitHub\Audi-CDC-Emulator\Software\archive\cdc_arduino/cdc_function.cpp:320
      _delay_loop_1(5);
      if ((byte_u8 & 0x80) == 0) // mask highest bit and test if set
    14f2:	97 fd       	sbrc	r25, 7
    14f4:	0c c0       	rjmp	.+24     	; 0x150e <__vector_7+0x62>
C:\Users\mateu\Documents\GitHub\Audi-CDC-Emulator\Software\archive\cdc_arduino/cdc_function.cpp:322
      {
        RADIO_DATA_PORT |= _BV(RADIO_DATA); // DATA high
    14f6:	2b 9a       	sbi	0x05, 3	; 5
C:\Users\mateu\Documents\GitHub\Audi-CDC-Emulator\Software\archive\cdc_arduino/cdc_function.cpp:328 (discriminator 2)
      }
      else
      {
        RADIO_DATA_PORT &= ~_BV(RADIO_DATA); // DATA low
      }
      byte_u8 <<= 1; // load the next bit
    14f8:	99 0f       	add	r25, r25
C:\Users\mateu\Documents\GitHub\Audi-CDC-Emulator\Software\archive\cdc_arduino/cdc_function.cpp:329 (discriminator 2)
      RADIO_CLOCK_PORT &= ~_BV(RADIO_CLOCK); // SCLK low
    14fa:	2d 98       	cbi	0x05, 5	; 5
_delay_loop_1():
c:\users\mateu\appdata\local\arduino15\packages\arduino\tools\avr-gcc\7.3.0-atmel3.6.1-arduino7\avr\include\util/delay_basic.h:88 (discriminator 2)
    14fc:	82 2f       	mov	r24, r18
    14fe:	8a 95       	dec	r24
    1500:	f1 f7       	brne	.-4      	; 0x14fe <__vector_7+0x52>
__vector_7():
C:\Users\mateu\Documents\GitHub\Audi-CDC-Emulator\Software\archive\cdc_arduino/cdc_function.cpp:316 (discriminator 2)
    Serial.print("|");
    Serial.print(byte_u8, HEX);
    Serial.print("|");
#endif

    for (sendbitcount = -8; sendbitcount != 0; sendbitcount++)
    1502:	80 91 7b 03 	lds	r24, 0x037B	; 0x80037b <sendbitcount>
    1506:	8f 5f       	subi	r24, 0xFF	; 255
    1508:	80 93 7b 03 	sts	0x037B, r24	; 0x80037b <sendbitcount>
    150c:	ea cf       	rjmp	.-44     	; 0x14e2 <__vector_7+0x36>
C:\Users\mateu\Documents\GitHub\Audi-CDC-Emulator\Software\archive\cdc_arduino/cdc_function.cpp:326
      {
        RADIO_DATA_PORT |= _BV(RADIO_DATA); // DATA high
      }
      else
      {
        RADIO_DATA_PORT &= ~_BV(RADIO_DATA); // DATA low
    150e:	2b 98       	cbi	0x05, 3	; 5
    1510:	f3 cf       	rjmp	.-26     	; 0x14f8 <__vector_7+0x4c>
C:\Users\mateu\Documents\GitHub\Audi-CDC-Emulator\Software\archive\cdc_arduino/cdc_function.cpp:333
      byte_u8 <<= 1; // load the next bit
      RADIO_CLOCK_PORT &= ~_BV(RADIO_CLOCK); // SCLK low
      _delay_loop_1(5);
    }

    display_byte_counter_u8++;
    1512:	80 91 21 03 	lds	r24, 0x0321	; 0x800321 <__vector_7::display_byte_counter_u8>
    1516:	8f 5f       	subi	r24, 0xFF	; 255
    1518:	80 93 21 03 	sts	0x0321, r24	; 0x800321 <__vector_7::display_byte_counter_u8>
C:\Users\mateu\Documents\GitHub\Audi-CDC-Emulator\Software\archive\cdc_arduino/cdc_function.cpp:335

    TCCR2B |= _BV(CS22); // prescaler = 64 -> 1 timer clock tick is 4us long
    151c:	80 91 b1 00 	lds	r24, 0x00B1	; 0x8000b1 <__TEXT_REGION_LENGTH__+0x7f80b1>
    1520:	84 60       	ori	r24, 0x04	; 4
    1522:	80 93 b1 00 	sts	0x00B1, r24	; 0x8000b1 <__TEXT_REGION_LENGTH__+0x7f80b1>
C:\Users\mateu\Documents\GitHub\Audi-CDC-Emulator\Software\archive\cdc_arduino/cdc_function.cpp:346
    Serial.println();
#endif
    display_byte_counter_u8 = 0;
    //TIMSK2 &= ~_BV(OCIE2A); // disable output compare interrupt on timer2
  }
}
    1526:	ff 91       	pop	r31
    1528:	ef 91       	pop	r30
    152a:	9f 91       	pop	r25
    152c:	8f 91       	pop	r24
    152e:	2f 91       	pop	r18
    1530:	0f 90       	pop	r0
    1532:	0f be       	out	0x3f, r0	; 63
    1534:	0f 90       	pop	r0
    1536:	1f 90       	pop	r1
    1538:	18 95       	reti
C:\Users\mateu\Documents\GitHub\Audi-CDC-Emulator\Software\archive\cdc_arduino/cdc_function.cpp:343
  else
  { //display_byte_counter_u8 is ==8
#ifdef DUMPMODE2
    Serial.println();
#endif
    display_byte_counter_u8 = 0;
    153a:	10 92 21 03 	sts	0x0321, r1	; 0x800321 <__vector_7::display_byte_counter_u8>
C:\Users\mateu\Documents\GitHub\Audi-CDC-Emulator\Software\archive\cdc_arduino/cdc_function.cpp:346
    //TIMSK2 &= ~_BV(OCIE2A); // disable output compare interrupt on timer2
  }
}
    153e:	f3 cf       	rjmp	.-26     	; 0x1526 <__vector_7+0x7a>

00001540 <__vector_14>:
__vector_14():
C:\Users\mateu\Documents\GitHub\Audi-CDC-Emulator\Software\archive\cdc_arduino/cdc_function.cpp:378
}

#else

ISR(TIMER0_COMPA_vect)
{
    1540:	1f 92       	push	r1
    1542:	0f 92       	push	r0
    1544:	0f b6       	in	r0, 0x3f	; 63
    1546:	0f 92       	push	r0
    1548:	11 24       	eor	r1, r1
    154a:	8f 93       	push	r24
    154c:	9f 93       	push	r25
C:\Users\mateu\Documents\GitHub\Audi-CDC-Emulator\Software\archive\cdc_arduino/cdc_function.cpp:379
  counter_10ms_u8++;
    154e:	80 91 25 03 	lds	r24, 0x0325	; 0x800325 <counter_10ms_u8>
    1552:	8f 5f       	subi	r24, 0xFF	; 255
C:\Users\mateu\Documents\GitHub\Audi-CDC-Emulator\Software\archive\cdc_arduino/cdc_function.cpp:381

  if (counter_10ms_u8 == 5)
    1554:	85 30       	cpi	r24, 0x05	; 5
    1556:	49 f0       	breq	.+18     	; 0x156a <__vector_14+0x2a>
C:\Users\mateu\Documents\GitHub\Audi-CDC-Emulator\Software\archive\cdc_arduino/cdc_function.cpp:379

#else

ISR(TIMER0_COMPA_vect)
{
  counter_10ms_u8++;
    1558:	80 93 25 03 	sts	0x0325, r24	; 0x800325 <counter_10ms_u8>
C:\Users\mateu\Documents\GitHub\Audi-CDC-Emulator\Software\archive\cdc_arduino/cdc_function.cpp:387
  {
    counter_10ms_u8 = 0;
    flag_50ms = TRUE;
    test2++;
  }
}
    155c:	9f 91       	pop	r25
    155e:	8f 91       	pop	r24
    1560:	0f 90       	pop	r0
    1562:	0f be       	out	0x3f, r0	; 63
    1564:	0f 90       	pop	r0
    1566:	1f 90       	pop	r1
    1568:	18 95       	reti
C:\Users\mateu\Documents\GitHub\Audi-CDC-Emulator\Software\archive\cdc_arduino/cdc_function.cpp:383
{
  counter_10ms_u8++;

  if (counter_10ms_u8 == 5)
  {
    counter_10ms_u8 = 0;
    156a:	10 92 25 03 	sts	0x0325, r1	; 0x800325 <counter_10ms_u8>
C:\Users\mateu\Documents\GitHub\Audi-CDC-Emulator\Software\archive\cdc_arduino/cdc_function.cpp:384
    flag_50ms = TRUE;
    156e:	81 e0       	ldi	r24, 0x01	; 1
    1570:	80 93 24 03 	sts	0x0324, r24	; 0x800324 <flag_50ms>
C:\Users\mateu\Documents\GitHub\Audi-CDC-Emulator\Software\archive\cdc_arduino/cdc_function.cpp:385
    test2++;
    1574:	80 91 22 03 	lds	r24, 0x0322	; 0x800322 <test2>
    1578:	90 91 23 03 	lds	r25, 0x0323	; 0x800323 <test2+0x1>
    157c:	01 96       	adiw	r24, 0x01	; 1
    157e:	90 93 23 03 	sts	0x0323, r25	; 0x800323 <test2+0x1>
    1582:	80 93 22 03 	sts	0x0322, r24	; 0x800322 <test2>
C:\Users\mateu\Documents\GitHub\Audi-CDC-Emulator\Software\archive\cdc_arduino/cdc_function.cpp:387
  }
}
    1586:	ea cf       	rjmp	.-44     	; 0x155c <__vector_14+0x1c>

00001588 <__vector_13>:
__vector_13():
C:\Users\mateu\Documents\GitHub\Audi-CDC-Emulator\Software\archive\cdc_arduino/cdc_function.cpp:403
  \return     void
*/
//-----------------------------------------------------------------------------

ISR(TIMER1_OVF_vect)
{
    1588:	1f 92       	push	r1
    158a:	0f 92       	push	r0
    158c:	0f b6       	in	r0, 0x3f	; 63
    158e:	0f 92       	push	r0
    1590:	11 24       	eor	r1, r1
    1592:	2f 93       	push	r18
    1594:	8f 93       	push	r24
    1596:	9f 93       	push	r25
    1598:	ef 93       	push	r30
    159a:	ff 93       	push	r31
C:\Users\mateu\Documents\GitHub\Audi-CDC-Emulator\Software\archive\cdc_arduino/cdc_function.cpp:404
  TIMSK1 &= ~_BV(TOIE1); // disable further timer 1 interrupts
    159c:	80 91 6f 00 	lds	r24, 0x006F	; 0x80006f <__TEXT_REGION_LENGTH__+0x7f806f>
    15a0:	8e 7f       	andi	r24, 0xFE	; 254
    15a2:	80 93 6f 00 	sts	0x006F, r24	; 0x80006f <__TEXT_REGION_LENGTH__+0x7f806f>
C:\Users\mateu\Documents\GitHub\Audi-CDC-Emulator\Software\archive\cdc_arduino/cdc_function.cpp:405
  capbusy = FALSE; // set flag signifying packet capture done
    15a6:	10 92 73 03 	sts	0x0373, r1	; 0x800373 <capbusy>
C:\Users\mateu\Documents\GitHub\Audi-CDC-Emulator\Software\archive\cdc_arduino/cdc_function.cpp:407

  if (capbit > -8) // are we already capturing on a blank byte?
    15aa:	90 91 69 03 	lds	r25, 0x0369	; 0x800369 <capbit>
    15ae:	99 3f       	cpi	r25, 0xF9	; 249
    15b0:	0c f1       	brlt	.+66     	; 0x15f4 <__vector_13+0x6c>
C:\Users\mateu\Documents\GitHub\Audi-CDC-Emulator\Software\archive\cdc_arduino/cdc_function.cpp:409
  {
    dataerr = TRUE;
    15b2:	81 e0       	ldi	r24, 0x01	; 1
    15b4:	80 93 6c 03 	sts	0x036C, r24	; 0x80036c <dataerr>
C:\Users\mateu\Documents\GitHub\Audi-CDC-Emulator\Software\archive\cdc_arduino/cdc_function.cpp:418
    // if the capture bits were not a complete 8 bits, we need to finish
    // rotating the bits upward so that the data is nicely formatted

    while (capbit != 0) // have we finished rotating all bits up?
    {
      capbuffer[capptr] <<= 1; // rotate in 0 bit
    15b8:	80 91 67 03 	lds	r24, 0x0367	; 0x800367 <capptr>
    15bc:	e8 2f       	mov	r30, r24
    15be:	f0 e0       	ldi	r31, 0x00	; 0
    15c0:	ea 5d       	subi	r30, 0xDA	; 218
    15c2:	fc 4f       	sbci	r31, 0xFC	; 252
C:\Users\mateu\Documents\GitHub\Audi-CDC-Emulator\Software\archive\cdc_arduino/cdc_function.cpp:416
    //        command strings with error free data.
    //
    // if the capture bits were not a complete 8 bits, we need to finish
    // rotating the bits upward so that the data is nicely formatted

    while (capbit != 0) // have we finished rotating all bits up?
    15c4:	99 23       	and	r25, r25
    15c6:	29 f0       	breq	.+10     	; 0x15d2 <__vector_13+0x4a>
C:\Users\mateu\Documents\GitHub\Audi-CDC-Emulator\Software\archive\cdc_arduino/cdc_function.cpp:418
    {
      capbuffer[capptr] <<= 1; // rotate in 0 bit
    15c8:	20 81       	ld	r18, Z
    15ca:	22 0f       	add	r18, r18
    15cc:	20 83       	st	Z, r18
    15ce:	9f 5f       	subi	r25, 0xFF	; 255
C:\Users\mateu\Documents\GitHub\Audi-CDC-Emulator\Software\archive\cdc_arduino/cdc_function.cpp:416
    //        command strings with error free data.
    //
    // if the capture bits were not a complete 8 bits, we need to finish
    // rotating the bits upward so that the data is nicely formatted

    while (capbit != 0) // have we finished rotating all bits up?
    15d0:	f9 cf       	rjmp	.-14     	; 0x15c4 <__vector_13+0x3c>
C:\Users\mateu\Documents\GitHub\Audi-CDC-Emulator\Software\archive\cdc_arduino/cdc_function.cpp:422
    {
      capbuffer[capptr] <<= 1; // rotate in 0 bit
      capbit++;
    }

    capbit = -8;
    15d2:	98 ef       	ldi	r25, 0xF8	; 248
    15d4:	90 93 69 03 	sts	0x0369, r25	; 0x800369 <capbit>
C:\Users\mateu\Documents\GitHub\Audi-CDC-Emulator\Software\archive\cdc_arduino/cdc_function.cpp:423
    capptr++; // move to new capture byte
    15d8:	8f 5f       	subi	r24, 0xFF	; 255
C:\Users\mateu\Documents\GitHub\Audi-CDC-Emulator\Software\archive\cdc_arduino/cdc_function.cpp:425

    if (capptr == CAP_BUFFER_END) // have we gone past the end of the
    15da:	88 31       	cpi	r24, 0x18	; 24
    15dc:	a9 f0       	breq	.+42     	; 0x1608 <__vector_13+0x80>
C:\Users\mateu\Documents\GitHub\Audi-CDC-Emulator\Software\archive\cdc_arduino/cdc_function.cpp:423
      capbuffer[capptr] <<= 1; // rotate in 0 bit
      capbit++;
    }

    capbit = -8;
    capptr++; // move to new capture byte
    15de:	80 93 67 03 	sts	0x0367, r24	; 0x800367 <capptr>
C:\Users\mateu\Documents\GitHub\Audi-CDC-Emulator\Software\archive\cdc_arduino/cdc_function.cpp:430
    if (capptr == CAP_BUFFER_END) // have we gone past the end of the
    { // capture buffer?
      capptr = 0; // yes, roll over to beginning
    }

    if (capptr == scanptr) // have we overflowed the capture queue?
    15e2:	90 91 67 03 	lds	r25, 0x0367	; 0x800367 <capptr>
    15e6:	80 91 77 03 	lds	r24, 0x0377	; 0x800377 <scanptr>
    15ea:	98 13       	cpse	r25, r24
    15ec:	03 c0       	rjmp	.+6      	; 0x15f4 <__vector_13+0x6c>
C:\Users\mateu\Documents\GitHub\Audi-CDC-Emulator\Software\archive\cdc_arduino/cdc_function.cpp:432
    {
      overflow = TRUE; // yes, set error flag
    15ee:	81 e0       	ldi	r24, 0x01	; 1
    15f0:	80 93 6d 03 	sts	0x036D, r24	; 0x80036d <overflow>
C:\Users\mateu\Documents\GitHub\Audi-CDC-Emulator\Software\archive\cdc_arduino/cdc_function.cpp:435
    }
  }
}
    15f4:	ff 91       	pop	r31
    15f6:	ef 91       	pop	r30
    15f8:	9f 91       	pop	r25
    15fa:	8f 91       	pop	r24
    15fc:	2f 91       	pop	r18
    15fe:	0f 90       	pop	r0
    1600:	0f be       	out	0x3f, r0	; 63
    1602:	0f 90       	pop	r0
    1604:	1f 90       	pop	r1
    1606:	18 95       	reti
C:\Users\mateu\Documents\GitHub\Audi-CDC-Emulator\Software\archive\cdc_arduino/cdc_function.cpp:427
    capbit = -8;
    capptr++; // move to new capture byte

    if (capptr == CAP_BUFFER_END) // have we gone past the end of the
    { // capture buffer?
      capptr = 0; // yes, roll over to beginning
    1608:	10 92 67 03 	sts	0x0367, r1	; 0x800367 <capptr>
    160c:	ea cf       	rjmp	.-44     	; 0x15e2 <__vector_13+0x5a>

0000160e <__vector_10>:
__vector_10():
C:\Users\mateu\Documents\GitHub\Audi-CDC-Emulator\Software\archive\cdc_arduino/cdc_function.cpp:452
  \return     void
*/
//-----------------------------------------------------------------------------

ISR(TIMER1_CAPT_vect)
{
    160e:	1f 92       	push	r1
    1610:	0f 92       	push	r0
    1612:	0f b6       	in	r0, 0x3f	; 63
    1614:	0f 92       	push	r0
    1616:	11 24       	eor	r1, r1
    1618:	2f 93       	push	r18
    161a:	3f 93       	push	r19
    161c:	4f 93       	push	r20
    161e:	8f 93       	push	r24
    1620:	9f 93       	push	r25
    1622:	ef 93       	push	r30
    1624:	ff 93       	push	r31
C:\Users\mateu\Documents\GitHub\Audi-CDC-Emulator\Software\archive\cdc_arduino/cdc_function.cpp:453
  captime = ICR1; // save a copy of current TMR1 count
    1626:	80 91 86 00 	lds	r24, 0x0086	; 0x800086 <__TEXT_REGION_LENGTH__+0x7f8086>
    162a:	90 91 87 00 	lds	r25, 0x0087	; 0x800087 <__TEXT_REGION_LENGTH__+0x7f8087>
    162e:	90 93 6b 03 	sts	0x036B, r25	; 0x80036b <captime+0x1>
    1632:	80 93 6a 03 	sts	0x036A, r24	; 0x80036a <captime>
C:\Users\mateu\Documents\GitHub\Audi-CDC-Emulator\Software\archive\cdc_arduino/cdc_function.cpp:455
  // in case PWTXCaptureBit needs it
  TCNT1 = 0; // clear timer1
    1636:	10 92 85 00 	sts	0x0085, r1	; 0x800085 <__TEXT_REGION_LENGTH__+0x7f8085>
    163a:	10 92 84 00 	sts	0x0084, r1	; 0x800084 <__TEXT_REGION_LENGTH__+0x7f8084>
C:\Users\mateu\Documents\GitHub\Audi-CDC-Emulator\Software\archive\cdc_arduino/cdc_function.cpp:457

  if ((RADIO_COMMAND_PIN & _BV(RADIO_COMMAND)) == 0)
    163e:	18 99       	sbic	0x03, 0	; 3
    1640:	18 c0       	rjmp	.+48     	; 0x1672 <__vector_10+0x64>
C:\Users\mateu\Documents\GitHub\Audi-CDC-Emulator\Software\archive\cdc_arduino/cdc_function.cpp:461
  {
    // We have interrupted at beginning of low pulse (falling edge)
    // Low pulse length must be timed to determine bit value
    TIFR1 |= _BV(TOV1); // clear timer1 overflow flag
    1642:	b0 9a       	sbi	0x16, 0	; 22
C:\Users\mateu\Documents\GitHub\Audi-CDC-Emulator\Software\archive\cdc_arduino/cdc_function.cpp:462
    TIMSK1 |= _BV(TOIE1); // enable timer1 interrupt on overflow
    1644:	80 91 6f 00 	lds	r24, 0x006F	; 0x80006f <__TEXT_REGION_LENGTH__+0x7f806f>
    1648:	81 60       	ori	r24, 0x01	; 1
    164a:	80 93 6f 00 	sts	0x006F, r24	; 0x80006f <__TEXT_REGION_LENGTH__+0x7f806f>
C:\Users\mateu\Documents\GitHub\Audi-CDC-Emulator\Software\archive\cdc_arduino/cdc_function.cpp:463
    TCCR1B |= _BV(ICES1); // change input capture to rising edge
    164e:	80 91 81 00 	lds	r24, 0x0081	; 0x800081 <__TEXT_REGION_LENGTH__+0x7f8081>
    1652:	80 64       	ori	r24, 0x40	; 64
    1654:	80 93 81 00 	sts	0x0081, r24	; 0x800081 <__TEXT_REGION_LENGTH__+0x7f8081>
C:\Users\mateu\Documents\GitHub\Audi-CDC-Emulator\Software\archive\cdc_arduino/cdc_function.cpp:464
    TIFR1 |= _BV(ICF1); // clear input capture interrupt request flag
    1658:	b5 9a       	sbi	0x16, 5	; 22
C:\Users\mateu\Documents\GitHub\Audi-CDC-Emulator\Software\archive\cdc_arduino/cdc_function.cpp:558
          }
        }
      }
    }
  }
}
    165a:	ff 91       	pop	r31
    165c:	ef 91       	pop	r30
    165e:	9f 91       	pop	r25
    1660:	8f 91       	pop	r24
    1662:	4f 91       	pop	r20
    1664:	3f 91       	pop	r19
    1666:	2f 91       	pop	r18
    1668:	0f 90       	pop	r0
    166a:	0f be       	out	0x3f, r0	; 63
    166c:	0f 90       	pop	r0
    166e:	1f 90       	pop	r1
    1670:	18 95       	reti
C:\Users\mateu\Documents\GitHub\Audi-CDC-Emulator\Software\archive\cdc_arduino/cdc_function.cpp:472
  {
    // We have interrupted at beginning of high pulse (rising edge)
    // High pulse length doesn't matter. We need to check out
    // captured low pulse width if we are capturing data at the moment

    capbusy = TRUE;
    1672:	81 e0       	ldi	r24, 0x01	; 1
    1674:	80 93 73 03 	sts	0x0373, r24	; 0x800373 <capbusy>
C:\Users\mateu\Documents\GitHub\Audi-CDC-Emulator\Software\archive\cdc_arduino/cdc_function.cpp:473
    TCCR1B &= ~_BV(ICES1); // change input capture to falling edge
    1678:	90 91 81 00 	lds	r25, 0x0081	; 0x800081 <__TEXT_REGION_LENGTH__+0x7f8081>
    167c:	9f 7b       	andi	r25, 0xBF	; 191
    167e:	90 93 81 00 	sts	0x0081, r25	; 0x800081 <__TEXT_REGION_LENGTH__+0x7f8081>
C:\Users\mateu\Documents\GitHub\Audi-CDC-Emulator\Software\archive\cdc_arduino/cdc_function.cpp:474
    TIFR1 |= _BV(ICF1); // clear input capture interrupt request flag
    1682:	b5 9a       	sbi	0x16, 5	; 22
C:\Users\mateu\Documents\GitHub\Audi-CDC-Emulator\Software\archive\cdc_arduino/cdc_function.cpp:476

    if (TIMSK1 & _BV(TOIE1)) // are we trying to capture data?
    1684:	90 91 6f 00 	lds	r25, 0x006F	; 0x80006f <__TEXT_REGION_LENGTH__+0x7f806f>
    1688:	90 ff       	sbrs	r25, 0
    168a:	e7 cf       	rjmp	.-50     	; 0x165a <__vector_10+0x4c>
C:\Users\mateu\Documents\GitHub\Audi-CDC-Emulator\Software\archive\cdc_arduino/cdc_function.cpp:478
    {
      capbusy = TRUE;
    168c:	80 93 73 03 	sts	0x0373, r24	; 0x800373 <capbusy>
C:\Users\mateu\Documents\GitHub\Audi-CDC-Emulator\Software\archive\cdc_arduino/cdc_function.cpp:479
      TIMSK1 &= ~_BV(TOIE1); // turn off capturing time for high pulse
    1690:	90 91 6f 00 	lds	r25, 0x006F	; 0x80006f <__TEXT_REGION_LENGTH__+0x7f806f>
    1694:	9e 7f       	andi	r25, 0xFE	; 254
    1696:	90 93 6f 00 	sts	0x006F, r25	; 0x80006f <__TEXT_REGION_LENGTH__+0x7f806f>
C:\Users\mateu\Documents\GitHub\Audi-CDC-Emulator\Software\archive\cdc_arduino/cdc_function.cpp:481

      if (captime > STARTTHRESHOLD)
    169a:	20 91 6a 03 	lds	r18, 0x036A	; 0x80036a <captime>
    169e:	30 91 6b 03 	lds	r19, 0x036B	; 0x80036b <captime+0x1>
    16a2:	21 30       	cpi	r18, 0x01	; 1
    16a4:	49 e1       	ldi	r20, 0x19	; 25
    16a6:	34 07       	cpc	r19, r20
    16a8:	58 f1       	brcs	.+86     	; 0x1700 <__vector_10+0xf2>
C:\Users\mateu\Documents\GitHub\Audi-CDC-Emulator\Software\archive\cdc_arduino/cdc_function.cpp:486
      { // yes, start bit
#ifdef DUMPMODE
        startbit = TRUE;
#endif
        capbitpacket = PKTSIZE;
    16aa:	90 ee       	ldi	r25, 0xE0	; 224
    16ac:	90 93 68 03 	sts	0x0368, r25	; 0x800368 <capbitpacket>
C:\Users\mateu\Documents\GitHub\Audi-CDC-Emulator\Software\archive\cdc_arduino/cdc_function.cpp:489

        // don't store start bits, just frame around them
        if (capbit > -8) // are we already capturing on a blank byte?
    16b0:	90 91 69 03 	lds	r25, 0x0369	; 0x800369 <capbit>
    16b4:	99 3f       	cpi	r25, 0xF9	; 249
    16b6:	8c f2       	brlt	.-94     	; 0x165a <__vector_10+0x4c>
C:\Users\mateu\Documents\GitHub\Audi-CDC-Emulator\Software\archive\cdc_arduino/cdc_function.cpp:491
        {
          dataerr = TRUE;
    16b8:	80 93 6c 03 	sts	0x036C, r24	; 0x80036c <dataerr>
C:\Users\mateu\Documents\GitHub\Audi-CDC-Emulator\Software\archive\cdc_arduino/cdc_function.cpp:500
          // if the capture bits were not a complete 8 bits, we need to finish
          // rotating the bits upward so that the data is nicely formatted

          while (capbit != 0) // have we finished rotating all bits up?
          {
            capbuffer[capptr] <<= 1; // rotate in 0 bit
    16bc:	80 91 67 03 	lds	r24, 0x0367	; 0x800367 <capptr>
    16c0:	e8 2f       	mov	r30, r24
    16c2:	f0 e0       	ldi	r31, 0x00	; 0
    16c4:	ea 5d       	subi	r30, 0xDA	; 218
    16c6:	fc 4f       	sbci	r31, 0xFC	; 252
C:\Users\mateu\Documents\GitHub\Audi-CDC-Emulator\Software\archive\cdc_arduino/cdc_function.cpp:498
          //       command strings with error free data.
          //
          // if the capture bits were not a complete 8 bits, we need to finish
          // rotating the bits upward so that the data is nicely formatted

          while (capbit != 0) // have we finished rotating all bits up?
    16c8:	99 23       	and	r25, r25
    16ca:	29 f0       	breq	.+10     	; 0x16d6 <__vector_10+0xc8>
C:\Users\mateu\Documents\GitHub\Audi-CDC-Emulator\Software\archive\cdc_arduino/cdc_function.cpp:500
          {
            capbuffer[capptr] <<= 1; // rotate in 0 bit
    16cc:	20 81       	ld	r18, Z
    16ce:	22 0f       	add	r18, r18
    16d0:	20 83       	st	Z, r18
    16d2:	9f 5f       	subi	r25, 0xFF	; 255
C:\Users\mateu\Documents\GitHub\Audi-CDC-Emulator\Software\archive\cdc_arduino/cdc_function.cpp:498
          //       command strings with error free data.
          //
          // if the capture bits were not a complete 8 bits, we need to finish
          // rotating the bits upward so that the data is nicely formatted

          while (capbit != 0) // have we finished rotating all bits up?
    16d4:	f9 cf       	rjmp	.-14     	; 0x16c8 <__vector_10+0xba>
C:\Users\mateu\Documents\GitHub\Audi-CDC-Emulator\Software\archive\cdc_arduino/cdc_function.cpp:503
          {
            capbuffer[capptr] <<= 1; // rotate in 0 bit
            capbit++;
          }
          capbit = -8;
    16d6:	98 ef       	ldi	r25, 0xF8	; 248
    16d8:	90 93 69 03 	sts	0x0369, r25	; 0x800369 <capbit>
C:\Users\mateu\Documents\GitHub\Audi-CDC-Emulator\Software\archive\cdc_arduino/cdc_function.cpp:504
          capptr++; // move to new capture byte
    16dc:	8f 5f       	subi	r24, 0xFF	; 255
C:\Users\mateu\Documents\GitHub\Audi-CDC-Emulator\Software\archive\cdc_arduino/cdc_function.cpp:506

          if (capptr == CAP_BUFFER_END) // have we gone past the end of the
    16de:	88 31       	cpi	r24, 0x18	; 24
    16e0:	61 f0       	breq	.+24     	; 0x16fa <__vector_10+0xec>
C:\Users\mateu\Documents\GitHub\Audi-CDC-Emulator\Software\archive\cdc_arduino/cdc_function.cpp:504
          {
            capbuffer[capptr] <<= 1; // rotate in 0 bit
            capbit++;
          }
          capbit = -8;
          capptr++; // move to new capture byte
    16e2:	80 93 67 03 	sts	0x0367, r24	; 0x800367 <capptr>
C:\Users\mateu\Documents\GitHub\Audi-CDC-Emulator\Software\archive\cdc_arduino/cdc_function.cpp:511
          if (capptr == CAP_BUFFER_END) // have we gone past the end of the
          { // capture buffer?
            capptr = 0; // yes, roll over to beginning
          }

          if (capptr == scanptr) // have we overflowed the capture queue?
    16e6:	90 91 67 03 	lds	r25, 0x0367	; 0x800367 <capptr>
    16ea:	80 91 77 03 	lds	r24, 0x0377	; 0x800377 <scanptr>
    16ee:	98 13       	cpse	r25, r24
    16f0:	b4 cf       	rjmp	.-152    	; 0x165a <__vector_10+0x4c>
C:\Users\mateu\Documents\GitHub\Audi-CDC-Emulator\Software\archive\cdc_arduino/cdc_function.cpp:513
          {
            overflow = TRUE; // yes, set error flag
    16f2:	81 e0       	ldi	r24, 0x01	; 1
    16f4:	80 93 6d 03 	sts	0x036D, r24	; 0x80036d <overflow>
    16f8:	b0 cf       	rjmp	.-160    	; 0x165a <__vector_10+0x4c>
C:\Users\mateu\Documents\GitHub\Audi-CDC-Emulator\Software\archive\cdc_arduino/cdc_function.cpp:508
          capbit = -8;
          capptr++; // move to new capture byte

          if (capptr == CAP_BUFFER_END) // have we gone past the end of the
          { // capture buffer?
            capptr = 0; // yes, roll over to beginning
    16fa:	10 92 67 03 	sts	0x0367, r1	; 0x800367 <capptr>
    16fe:	f3 cf       	rjmp	.-26     	; 0x16e6 <__vector_10+0xd8>
C:\Users\mateu\Documents\GitHub\Audi-CDC-Emulator\Software\archive\cdc_arduino/cdc_function.cpp:519
          }
        }
      }
      else
      { // no, just a regular data bit
        if (captime > LOWTHRESHOLD)
    1700:	21 30       	cpi	r18, 0x01	; 1
    1702:	82 e0       	ldi	r24, 0x02	; 2
    1704:	38 07       	cpc	r19, r24
    1706:	08 f4       	brcc	.+2      	; 0x170a <__vector_10+0xfc>
    1708:	a8 cf       	rjmp	.-176    	; 0x165a <__vector_10+0x4c>
C:\Users\mateu\Documents\GitHub\Audi-CDC-Emulator\Software\archive\cdc_arduino/cdc_function.cpp:521
        { // yes, go ahead and store this data
          capbuffer[capptr] <<= 1; // nope
    170a:	90 91 67 03 	lds	r25, 0x0367	; 0x800367 <capptr>
    170e:	e9 2f       	mov	r30, r25
    1710:	f0 e0       	ldi	r31, 0x00	; 0
    1712:	ea 5d       	subi	r30, 0xDA	; 218
    1714:	fc 4f       	sbci	r31, 0xFC	; 252
    1716:	80 81       	ld	r24, Z
    1718:	88 0f       	add	r24, r24
C:\Users\mateu\Documents\GitHub\Audi-CDC-Emulator\Software\archive\cdc_arduino/cdc_function.cpp:523

          if (captime > HIGHTHRESHOLD)
    171a:	21 3c       	cpi	r18, 0xC1	; 193
    171c:	39 40       	sbci	r19, 0x09	; 9
    171e:	88 f4       	brcc	.+34     	; 0x1742 <__vector_10+0x134>
C:\Users\mateu\Documents\GitHub\Audi-CDC-Emulator\Software\archive\cdc_arduino/cdc_function.cpp:525
          {
            capbuffer[capptr] |= 1;
    1720:	80 83       	st	Z, r24
C:\Users\mateu\Documents\GitHub\Audi-CDC-Emulator\Software\archive\cdc_arduino/cdc_function.cpp:528
          }

          capbitpacket++;
    1722:	80 91 68 03 	lds	r24, 0x0368	; 0x800368 <capbitpacket>
    1726:	8f 5f       	subi	r24, 0xFF	; 255
    1728:	80 93 68 03 	sts	0x0368, r24	; 0x800368 <capbitpacket>
C:\Users\mateu\Documents\GitHub\Audi-CDC-Emulator\Software\archive\cdc_arduino/cdc_function.cpp:530

          if (capbitpacket == 0)
    172c:	81 11       	cpse	r24, r1
    172e:	02 c0       	rjmp	.+4      	; 0x1734 <__vector_10+0x126>
C:\Users\mateu\Documents\GitHub\Audi-CDC-Emulator\Software\archive\cdc_arduino/cdc_function.cpp:534
          {
            // we've received PKTSIZE number of bits, so let's assume that we're done
            // capturing bits for now.
            capbusy = FALSE; // clear capture busy flag
    1730:	10 92 73 03 	sts	0x0373, r1	; 0x800373 <capbusy>
C:\Users\mateu\Documents\GitHub\Audi-CDC-Emulator\Software\archive\cdc_arduino/cdc_function.cpp:537
          }

          capbit++;
    1734:	80 91 69 03 	lds	r24, 0x0369	; 0x800369 <capbit>
    1738:	8f 5f       	subi	r24, 0xFF	; 255
C:\Users\mateu\Documents\GitHub\Audi-CDC-Emulator\Software\archive\cdc_arduino/cdc_function.cpp:539

          if (capbit == 0) // have we collected all 8 bits?
    173a:	29 f0       	breq	.+10     	; 0x1746 <__vector_10+0x138>
C:\Users\mateu\Documents\GitHub\Audi-CDC-Emulator\Software\archive\cdc_arduino/cdc_function.cpp:537
            // we've received PKTSIZE number of bits, so let's assume that we're done
            // capturing bits for now.
            capbusy = FALSE; // clear capture busy flag
          }

          capbit++;
    173c:	80 93 69 03 	sts	0x0369, r24	; 0x800369 <capbit>
    1740:	8c cf       	rjmp	.-232    	; 0x165a <__vector_10+0x4c>
C:\Users\mateu\Documents\GitHub\Audi-CDC-Emulator\Software\archive\cdc_arduino/cdc_function.cpp:525
        { // yes, go ahead and store this data
          capbuffer[capptr] <<= 1; // nope

          if (captime > HIGHTHRESHOLD)
          {
            capbuffer[capptr] |= 1;
    1742:	81 60       	ori	r24, 0x01	; 1
    1744:	ed cf       	rjmp	.-38     	; 0x1720 <__vector_10+0x112>
C:\Users\mateu\Documents\GitHub\Audi-CDC-Emulator\Software\archive\cdc_arduino/cdc_function.cpp:541

          capbit++;

          if (capbit == 0) // have we collected all 8 bits?
          { // yep, get ready to capture next 8 bits
            capbit = -8;
    1746:	88 ef       	ldi	r24, 0xF8	; 248
    1748:	80 93 69 03 	sts	0x0369, r24	; 0x800369 <capbit>
C:\Users\mateu\Documents\GitHub\Audi-CDC-Emulator\Software\archive\cdc_arduino/cdc_function.cpp:542
            capptr++; // move to new capture byte
    174c:	9f 5f       	subi	r25, 0xFF	; 255
C:\Users\mateu\Documents\GitHub\Audi-CDC-Emulator\Software\archive\cdc_arduino/cdc_function.cpp:544

            if (capptr == CAP_BUFFER_END) // have we gone past the end of the
    174e:	98 31       	cpi	r25, 0x18	; 24
    1750:	a1 f2       	breq	.-88     	; 0x16fa <__vector_10+0xec>
C:\Users\mateu\Documents\GitHub\Audi-CDC-Emulator\Software\archive\cdc_arduino/cdc_function.cpp:542
          capbit++;

          if (capbit == 0) // have we collected all 8 bits?
          { // yep, get ready to capture next 8 bits
            capbit = -8;
            capptr++; // move to new capture byte
    1752:	90 93 67 03 	sts	0x0367, r25	; 0x800367 <capptr>
    1756:	c7 cf       	rjmp	.-114    	; 0x16e6 <__vector_10+0xd8>

00001758 <CDC_Protocol()>:
_Z12CDC_Protocolv():
C:\Users\mateu\Documents\GitHub\Audi-CDC-Emulator\Software\archive\cdc_arduino/cdc_function.cpp:573
  \return     void
*/
//-----------------------------------------------------------------------------

void CDC_Protocol(void)
{
    1758:	0f 93       	push	r16
    175a:	1f 93       	push	r17
    175c:	cf 93       	push	r28
C:\Users\mateu\Documents\GitHub\Audi-CDC-Emulator\Software\archive\cdc_arduino/cdc_function.cpp:575
  uint8_t decimal_adjust_u8;
  Serial.println(flag_50ms);
    175e:	4a e0       	ldi	r20, 0x0A	; 10
    1760:	50 e0       	ldi	r21, 0x00	; 0
    1762:	60 91 24 03 	lds	r22, 0x0324	; 0x800324 <flag_50ms>
    1766:	80 ec       	ldi	r24, 0xC0	; 192
    1768:	93 e0       	ldi	r25, 0x03	; 3
    176a:	0e 94 f8 13 	call	0x27f0	; 0x27f0 <Print::println(unsigned char, int)>
C:\Users\mateu\Documents\GitHub\Audi-CDC-Emulator\Software\archive\cdc_arduino/cdc_function.cpp:576
  if (flag_50ms == TRUE)
    176e:	80 91 24 03 	lds	r24, 0x0324	; 0x800324 <flag_50ms>
    1772:	81 30       	cpi	r24, 0x01	; 1
    1774:	81 f4       	brne	.+32     	; 0x1796 <CDC_Protocol()+0x3e>
C:\Users\mateu\Documents\GitHub\Audi-CDC-Emulator\Software\archive\cdc_arduino/cdc_function.cpp:578
  {
    flag_50ms = FALSE;
    1776:	10 92 24 03 	sts	0x0324, r1	; 0x800324 <flag_50ms>
C:\Users\mateu\Documents\GitHub\Audi-CDC-Emulator\Software\archive\cdc_arduino/cdc_function.cpp:579
    SendPacket();
    177a:	0e 94 6c 09 	call	0x12d8	; 0x12d8 <SendPacket()>
C:\Users\mateu\Documents\GitHub\Audi-CDC-Emulator\Software\archive\cdc_arduino/cdc_function.cpp:580
    scancount++;
    177e:	80 91 60 03 	lds	r24, 0x0360	; 0x800360 <scancount>
    1782:	8f 5f       	subi	r24, 0xFF	; 255
C:\Users\mateu\Documents\GitHub\Audi-CDC-Emulator\Software\archive\cdc_arduino/cdc_function.cpp:581
    if (scancount == 0)
    1784:	89 f1       	breq	.+98     	; 0x17e8 <CDC_Protocol()+0x90>
C:\Users\mateu\Documents\GitHub\Audi-CDC-Emulator\Software\archive\cdc_arduino/cdc_function.cpp:580
  Serial.println(flag_50ms);
  if (flag_50ms == TRUE)
  {
    flag_50ms = FALSE;
    SendPacket();
    scancount++;
    1786:	80 93 60 03 	sts	0x0360, r24	; 0x800360 <scancount>
C:\Users\mateu\Documents\GitHub\Audi-CDC-Emulator\Software\archive\cdc_arduino/cdc_function.cpp:587
    {
      scancount = SCANWAIT;
      scan = FALSE; // turn off scan display
      leds &= 0xEF;
    }
    secondcount++;
    178a:	80 91 61 03 	lds	r24, 0x0361	; 0x800361 <secondcount>
    178e:	8f 5f       	subi	r24, 0xFF	; 255
C:\Users\mateu\Documents\GitHub\Audi-CDC-Emulator\Software\archive\cdc_arduino/cdc_function.cpp:588
    if (secondcount == 0)
    1790:	b1 f1       	breq	.+108    	; 0x17fe <CDC_Protocol()+0xa6>
C:\Users\mateu\Documents\GitHub\Audi-CDC-Emulator\Software\archive\cdc_arduino/cdc_function.cpp:587
    {
      scancount = SCANWAIT;
      scan = FALSE; // turn off scan display
      leds &= 0xEF;
    }
    secondcount++;
    1792:	80 93 61 03 	sts	0x0361, r24	; 0x800361 <secondcount>
C:\Users\mateu\Documents\GitHub\Audi-CDC-Emulator\Software\archive\cdc_arduino/cdc_function.cpp:626
        }
      }
    }
  }

  if (overflow == TRUE) // has the command receive code detected
    1796:	80 91 6d 03 	lds	r24, 0x036D	; 0x80036d <overflow>
    179a:	81 30       	cpi	r24, 0x01	; 1
    179c:	31 f4       	brne	.+12     	; 0x17aa <CDC_Protocol()+0x52>
C:\Users\mateu\Documents\GitHub\Audi-CDC-Emulator\Software\archive\cdc_arduino/cdc_function.cpp:628
  { // an overflow error?
    overflow = FALSE; // clear error flag
    179e:	10 92 6d 03 	sts	0x036D, r1	; 0x80036d <overflow>
C:\Users\mateu\Documents\GitHub\Audi-CDC-Emulator\Software\archive\cdc_arduino/cdc_function.cpp:629
    EnqueueString(sOVERFLOW);
    17a2:	8b e9       	ldi	r24, 0x9B	; 155
    17a4:	91 e0       	ldi	r25, 0x01	; 1
    17a6:	0e 94 72 08 	call	0x10e4	; 0x10e4 <EnqueueString(unsigned char const*)>
C:\Users\mateu\Documents\GitHub\Audi-CDC-Emulator\Software\archive\cdc_arduino/cdc_function.cpp:632
  }

  if (dataerr == TRUE) // has the command receive code detected
    17aa:	80 91 6c 03 	lds	r24, 0x036C	; 0x80036c <dataerr>
    17ae:	81 30       	cpi	r24, 0x01	; 1
    17b0:	31 f4       	brne	.+12     	; 0x17be <CDC_Protocol()+0x66>
C:\Users\mateu\Documents\GitHub\Audi-CDC-Emulator\Software\archive\cdc_arduino/cdc_function.cpp:634
  { // a framing type data error?
    dataerr = FALSE; // clear error flag
    17b2:	10 92 6c 03 	sts	0x036C, r1	; 0x80036c <dataerr>
C:\Users\mateu\Documents\GitHub\Audi-CDC-Emulator\Software\archive\cdc_arduino/cdc_function.cpp:635
    EnqueueString(sDATAERR);
    17b6:	86 ea       	ldi	r24, 0xA6	; 166
    17b8:	91 e0       	ldi	r25, 0x01	; 1
    17ba:	0e 94 72 08 	call	0x10e4	; 0x10e4 <EnqueueString(unsigned char const*)>
ScanCommandBytes():
C:\Users\mateu\Documents\GitHub\Audi-CDC-Emulator\Software\archive\cdc_arduino/cdc_function.cpp:1014

{



  fsr = scanptr;
    17be:	80 91 77 03 	lds	r24, 0x0377	; 0x800377 <scanptr>
    17c2:	80 93 76 03 	sts	0x0376, r24	; 0x800376 <fsr>
C:\Users\mateu\Documents\GitHub\Audi-CDC-Emulator\Software\archive\cdc_arduino/cdc_function.cpp:1022

FirstByteLoop:

  //printstr_p(PSTR("1"),DEBUG);

  if (GetCaptureByte() == FALSE)
    17c6:	0e 94 4c 08 	call	0x1098	; 0x1098 <GetCaptureByte()>
    17ca:	88 23       	and	r24, r24
    17cc:	09 f4       	brne	.+2      	; 0x17d0 <CDC_Protocol()+0x78>
    17ce:	8b c1       	rjmp	.+790    	; 0x1ae6 <CDC_Protocol()+0x38e>
C:\Users\mateu\Documents\GitHub\Audi-CDC-Emulator\Software\archive\cdc_arduino/cdc_function.cpp:1036

FirstByteTest:

  //printstr_p(PSTR("2"),DEBUG);

  if (scanbyte == 0x53)
    17d0:	80 91 75 03 	lds	r24, 0x0375	; 0x800375 <scanbyte>
    17d4:	83 35       	cpi	r24, 0x53	; 83
    17d6:	09 f4       	brne	.+2      	; 0x17da <CDC_Protocol()+0x82>
    17d8:	56 c0       	rjmp	.+172    	; 0x1886 <CDC_Protocol()+0x12e>
C:\Users\mateu\Documents\GitHub\Audi-CDC-Emulator\Software\archive\cdc_arduino/cdc_function.cpp:1046

  }

  // this byte doesn't match the beginning of a normal command packet,

  EnqueueHex(scanbyte);
    17da:	0e 94 85 08 	call	0x110a	; 0x110a <EnqueueHex(unsigned char)>
C:\Users\mateu\Documents\GitHub\Audi-CDC-Emulator\Software\archive\cdc_arduino/cdc_function.cpp:1048

  scanptr = fsr; // save scanptr, won't look at this byte again
    17de:	80 91 76 03 	lds	r24, 0x0376	; 0x800376 <fsr>
    17e2:	80 93 77 03 	sts	0x0377, r24	; 0x800377 <scanptr>
    17e6:	ef cf       	rjmp	.-34     	; 0x17c6 <CDC_Protocol()+0x6e>
_Z12CDC_Protocolv():
C:\Users\mateu\Documents\GitHub\Audi-CDC-Emulator\Software\archive\cdc_arduino/cdc_function.cpp:583
    flag_50ms = FALSE;
    SendPacket();
    scancount++;
    if (scancount == 0)
    {
      scancount = SCANWAIT;
    17e8:	8c e9       	ldi	r24, 0x9C	; 156
    17ea:	80 93 60 03 	sts	0x0360, r24	; 0x800360 <scancount>
C:\Users\mateu\Documents\GitHub\Audi-CDC-Emulator\Software\archive\cdc_arduino/cdc_function.cpp:584
      scan = FALSE; // turn off scan display
    17ee:	10 92 71 03 	sts	0x0371, r1	; 0x800371 <scan>
C:\Users\mateu\Documents\GitHub\Audi-CDC-Emulator\Software\archive\cdc_arduino/cdc_function.cpp:585
      leds &= 0xEF;
    17f2:	80 91 78 03 	lds	r24, 0x0378	; 0x800378 <leds>
    17f6:	8f 7e       	andi	r24, 0xEF	; 239
    17f8:	80 93 78 03 	sts	0x0378, r24	; 0x800378 <leds>
    17fc:	c6 cf       	rjmp	.-116    	; 0x178a <CDC_Protocol()+0x32>
C:\Users\mateu\Documents\GitHub\Audi-CDC-Emulator\Software\archive\cdc_arduino/cdc_function.cpp:590
    }
    secondcount++;
    if (secondcount == 0)
    {
      secondcount = SECONDWAIT;
    17fe:	8c ee       	ldi	r24, 0xEC	; 236
    1800:	80 93 61 03 	sts	0x0361, r24	; 0x800361 <secondcount>
C:\Users\mateu\Documents\GitHub\Audi-CDC-Emulator\Software\archive\cdc_arduino/cdc_function.cpp:591
      poweridentcount++;
    1804:	80 91 62 03 	lds	r24, 0x0362	; 0x800362 <poweridentcount>
    1808:	8f 5f       	subi	r24, 0xFF	; 255
C:\Users\mateu\Documents\GitHub\Audi-CDC-Emulator\Software\archive\cdc_arduino/cdc_function.cpp:593

      if (poweridentcount == 0)
    180a:	29 f1       	breq	.+74     	; 0x1856 <CDC_Protocol()+0xfe>
C:\Users\mateu\Documents\GitHub\Audi-CDC-Emulator\Software\archive\cdc_arduino/cdc_function.cpp:591
    }
    secondcount++;
    if (secondcount == 0)
    {
      secondcount = SECONDWAIT;
      poweridentcount++;
    180c:	80 93 62 03 	sts	0x0362, r24	; 0x800362 <poweridentcount>
C:\Users\mateu\Documents\GitHub\Audi-CDC-Emulator\Software\archive\cdc_arduino/cdc_function.cpp:601
        EnqueueString(sIDENTIFY);
        EnqueueString(sVERSION);
        EnqueueString(sNEWLINE);
      }

      second++; // increment the time display
    1810:	80 91 79 03 	lds	r24, 0x0379	; 0x800379 <second>
    1814:	91 e0       	ldi	r25, 0x01	; 1
    1816:	98 0f       	add	r25, r24
C:\Users\mateu\Documents\GitHub\Audi-CDC-Emulator\Software\archive\cdc_arduino/cdc_function.cpp:602
      decimal_adjust_u8 = second & 0x0F; // skip past hexidecimal codes
    1818:	29 2f       	mov	r18, r25
    181a:	2f 70       	andi	r18, 0x0F	; 15
C:\Users\mateu\Documents\GitHub\Audi-CDC-Emulator\Software\archive\cdc_arduino/cdc_function.cpp:603
      if (decimal_adjust_u8 == 0x0A) // are with at xA?
    181c:	2a 30       	cpi	r18, 0x0A	; 10
    181e:	59 f1       	breq	.+86     	; 0x1876 <CDC_Protocol()+0x11e>
C:\Users\mateu\Documents\GitHub\Audi-CDC-Emulator\Software\archive\cdc_arduino/cdc_function.cpp:601
        EnqueueString(sIDENTIFY);
        EnqueueString(sVERSION);
        EnqueueString(sNEWLINE);
      }

      second++; // increment the time display
    1820:	90 93 79 03 	sts	0x0379, r25	; 0x800379 <second>
C:\Users\mateu\Documents\GitHub\Audi-CDC-Emulator\Software\archive\cdc_arduino/cdc_function.cpp:608
      if (decimal_adjust_u8 == 0x0A) // are with at xA?
      {
        second += 6; // yes, add 6 and we'll be at x0 instead
      }

      if (second == 0x60)
    1824:	80 91 79 03 	lds	r24, 0x0379	; 0x800379 <second>
    1828:	80 36       	cpi	r24, 0x60	; 96
    182a:	09 f0       	breq	.+2      	; 0x182e <CDC_Protocol()+0xd6>
    182c:	b4 cf       	rjmp	.-152    	; 0x1796 <CDC_Protocol()+0x3e>
C:\Users\mateu\Documents\GitHub\Audi-CDC-Emulator\Software\archive\cdc_arduino/cdc_function.cpp:610
      {
        second = 0;
    182e:	10 92 79 03 	sts	0x0379, r1	; 0x800379 <second>
C:\Users\mateu\Documents\GitHub\Audi-CDC-Emulator\Software\archive\cdc_arduino/cdc_function.cpp:611
        minute++;
    1832:	80 91 7a 03 	lds	r24, 0x037A	; 0x80037a <minute>
    1836:	91 e0       	ldi	r25, 0x01	; 1
    1838:	98 0f       	add	r25, r24
C:\Users\mateu\Documents\GitHub\Audi-CDC-Emulator\Software\archive\cdc_arduino/cdc_function.cpp:612
        decimal_adjust_u8 = minute & 0x0F; // skip past hexidecimal codes
    183a:	29 2f       	mov	r18, r25
    183c:	2f 70       	andi	r18, 0x0F	; 15
C:\Users\mateu\Documents\GitHub\Audi-CDC-Emulator\Software\archive\cdc_arduino/cdc_function.cpp:613
        if (decimal_adjust_u8 == 0x0A) // are with at xA?
    183e:	2a 30       	cpi	r18, 0x0A	; 10
    1840:	f1 f0       	breq	.+60     	; 0x187e <CDC_Protocol()+0x126>
C:\Users\mateu\Documents\GitHub\Audi-CDC-Emulator\Software\archive\cdc_arduino/cdc_function.cpp:611
      }

      if (second == 0x60)
      {
        second = 0;
        minute++;
    1842:	90 93 7a 03 	sts	0x037A, r25	; 0x80037a <minute>
C:\Users\mateu\Documents\GitHub\Audi-CDC-Emulator\Software\archive\cdc_arduino/cdc_function.cpp:618
        if (decimal_adjust_u8 == 0x0A) // are with at xA?
        {
          minute += 6; // yes, add 6 and we'll be at x0 instead
        }

        if (minute == 0xA0) // have we gone beyond 99 minutes?
    1846:	80 91 7a 03 	lds	r24, 0x037A	; 0x80037a <minute>
    184a:	80 3a       	cpi	r24, 0xA0	; 160
    184c:	09 f0       	breq	.+2      	; 0x1850 <CDC_Protocol()+0xf8>
    184e:	a3 cf       	rjmp	.-186    	; 0x1796 <CDC_Protocol()+0x3e>
C:\Users\mateu\Documents\GitHub\Audi-CDC-Emulator\Software\archive\cdc_arduino/cdc_function.cpp:620
        {
          minute = 0;
    1850:	10 92 7a 03 	sts	0x037A, r1	; 0x80037a <minute>
    1854:	a0 cf       	rjmp	.-192    	; 0x1796 <CDC_Protocol()+0x3e>
C:\Users\mateu\Documents\GitHub\Audi-CDC-Emulator\Software\archive\cdc_arduino/cdc_function.cpp:595
      secondcount = SECONDWAIT;
      poweridentcount++;

      if (poweridentcount == 0)
      {
        poweridentcount = POWERIDENTWAIT;
    1856:	86 ef       	ldi	r24, 0xF6	; 246
    1858:	80 93 62 03 	sts	0x0362, r24	; 0x800362 <poweridentcount>
C:\Users\mateu\Documents\GitHub\Audi-CDC-Emulator\Software\archive\cdc_arduino/cdc_function.cpp:596
        EnqueueString(sIDENTIFY);
    185c:	8e ed       	ldi	r24, 0xDE	; 222
    185e:	90 e0       	ldi	r25, 0x00	; 0
    1860:	0e 94 72 08 	call	0x10e4	; 0x10e4 <EnqueueString(unsigned char const*)>
C:\Users\mateu\Documents\GitHub\Audi-CDC-Emulator\Software\archive\cdc_arduino/cdc_function.cpp:597
        EnqueueString(sVERSION);
    1864:	84 eb       	ldi	r24, 0xB4	; 180
    1866:	90 e0       	ldi	r25, 0x00	; 0
    1868:	0e 94 72 08 	call	0x10e4	; 0x10e4 <EnqueueString(unsigned char const*)>
C:\Users\mateu\Documents\GitHub\Audi-CDC-Emulator\Software\archive\cdc_arduino/cdc_function.cpp:598
        EnqueueString(sNEWLINE);
    186c:	8b ed       	ldi	r24, 0xDB	; 219
    186e:	90 e0       	ldi	r25, 0x00	; 0
    1870:	0e 94 72 08 	call	0x10e4	; 0x10e4 <EnqueueString(unsigned char const*)>
    1874:	cd cf       	rjmp	.-102    	; 0x1810 <CDC_Protocol()+0xb8>
C:\Users\mateu\Documents\GitHub\Audi-CDC-Emulator\Software\archive\cdc_arduino/cdc_function.cpp:605

      second++; // increment the time display
      decimal_adjust_u8 = second & 0x0F; // skip past hexidecimal codes
      if (decimal_adjust_u8 == 0x0A) // are with at xA?
      {
        second += 6; // yes, add 6 and we'll be at x0 instead
    1876:	89 5f       	subi	r24, 0xF9	; 249
    1878:	80 93 79 03 	sts	0x0379, r24	; 0x800379 <second>
    187c:	d3 cf       	rjmp	.-90     	; 0x1824 <CDC_Protocol()+0xcc>
C:\Users\mateu\Documents\GitHub\Audi-CDC-Emulator\Software\archive\cdc_arduino/cdc_function.cpp:615
        second = 0;
        minute++;
        decimal_adjust_u8 = minute & 0x0F; // skip past hexidecimal codes
        if (decimal_adjust_u8 == 0x0A) // are with at xA?
        {
          minute += 6; // yes, add 6 and we'll be at x0 instead
    187e:	89 5f       	subi	r24, 0xF9	; 249
    1880:	80 93 7a 03 	sts	0x037A, r24	; 0x80037a <minute>
    1884:	e0 cf       	rjmp	.-64     	; 0x1846 <CDC_Protocol()+0xee>
ScanCommandBytes():
C:\Users\mateu\Documents\GitHub\Audi-CDC-Emulator\Software\archive\cdc_arduino/cdc_function.cpp:1058

SecondByte:

  //printstr_p(PSTR("3"),DEBUG);

  if (GetCaptureByte() == FALSE)
    1886:	0e 94 4c 08 	call	0x1098	; 0x1098 <GetCaptureByte()>
    188a:	88 23       	and	r24, r24
    188c:	09 f4       	brne	.+2      	; 0x1890 <CDC_Protocol()+0x138>
    188e:	2b c1       	rjmp	.+598    	; 0x1ae6 <CDC_Protocol()+0x38e>
C:\Users\mateu\Documents\GitHub\Audi-CDC-Emulator\Software\archive\cdc_arduino/cdc_function.cpp:1066

    return;

  }

  if (scanbyte == 0x2C) // verify that byte 2 is 0x2C)
    1890:	80 91 75 03 	lds	r24, 0x0375	; 0x800375 <scanbyte>
    1894:	8c 32       	cpi	r24, 0x2C	; 44
    1896:	21 f0       	breq	.+8      	; 0x18a0 <CDC_Protocol()+0x148>
C:\Users\mateu\Documents\GitHub\Audi-CDC-Emulator\Software\archive\cdc_arduino/cdc_function.cpp:1078

  // the first byte was a match, but the second byte failed.

  // dump first byte and then see if this one is the real first byte.

  EnqueueHex(0x53);
    1898:	83 e5       	ldi	r24, 0x53	; 83
    189a:	0e 94 85 08 	call	0x110a	; 0x110a <EnqueueHex(unsigned char)>
    189e:	98 cf       	rjmp	.-208    	; 0x17d0 <CDC_Protocol()+0x78>
C:\Users\mateu\Documents\GitHub\Audi-CDC-Emulator\Software\archive\cdc_arduino/cdc_function.cpp:1088

ThirdByte:

  //printstr_p(PSTR("4"),DEBUG);

  if (GetCaptureByte() == FALSE)
    18a0:	0e 94 4c 08 	call	0x1098	; 0x1098 <GetCaptureByte()>
    18a4:	88 23       	and	r24, r24
    18a6:	09 f4       	brne	.+2      	; 0x18aa <CDC_Protocol()+0x152>
    18a8:	1e c1       	rjmp	.+572    	; 0x1ae6 <CDC_Protocol()+0x38e>
C:\Users\mateu\Documents\GitHub\Audi-CDC-Emulator\Software\archive\cdc_arduino/cdc_function.cpp:1096

    return;

  }

  cmdcode = scanbyte; // save command code for later use.
    18aa:	80 91 75 03 	lds	r24, 0x0375	; 0x800375 <scanbyte>
    18ae:	80 93 74 03 	sts	0x0374, r24	; 0x800374 <cmdcode>
C:\Users\mateu\Documents\GitHub\Audi-CDC-Emulator\Software\archive\cdc_arduino/cdc_function.cpp:1104

FourthByte:

  //printstr_p(PSTR("5"),DEBUG);

  if (GetCaptureByte() == FALSE)
    18b2:	0e 94 4c 08 	call	0x1098	; 0x1098 <GetCaptureByte()>
    18b6:	88 23       	and	r24, r24
    18b8:	09 f4       	brne	.+2      	; 0x18bc <CDC_Protocol()+0x164>
    18ba:	15 c1       	rjmp	.+554    	; 0x1ae6 <CDC_Protocol()+0x38e>
C:\Users\mateu\Documents\GitHub\Audi-CDC-Emulator\Software\archive\cdc_arduino/cdc_function.cpp:1120



  // verify that (Byte 3 + Byte 4) = 0xFF

  if ((cmdcode + scanbyte) == 0xFF)
    18bc:	80 91 74 03 	lds	r24, 0x0374	; 0x800374 <cmdcode>
    18c0:	20 91 75 03 	lds	r18, 0x0375	; 0x800375 <scanbyte>
    18c4:	28 0f       	add	r18, r24
    18c6:	33 27       	eor	r19, r19
    18c8:	33 1f       	adc	r19, r19
    18ca:	2f 3f       	cpi	r18, 0xFF	; 255
    18cc:	31 05       	cpc	r19, r1
    18ce:	09 f0       	breq	.+2      	; 0x18d2 <CDC_Protocol()+0x17a>
    18d0:	07 c2       	rjmp	.+1038   	; 0x1ce0 <CDC_Protocol()+0x588>
C:\Users\mateu\Documents\GitHub\Audi-CDC-Emulator\Software\archive\cdc_arduino/cdc_function.cpp:1128

    //printstr_p(PSTR("6"),DEBUG);



    if ((cmdcode & 0x03) == 0) // verify that Byte 3 is a multiple of 4
    18d2:	98 2f       	mov	r25, r24
    18d4:	93 70       	andi	r25, 0x03	; 3
    18d6:	09 f0       	breq	.+2      	; 0x18da <CDC_Protocol()+0x182>
    18d8:	03 c2       	rjmp	.+1030   	; 0x1ce0 <CDC_Protocol()+0x588>
C:\Users\mateu\Documents\GitHub\Audi-CDC-Emulator\Software\archive\cdc_arduino/cdc_function.cpp:1136

      //printstr_p(PSTR("7"),DEBUG);



      ACKcount = -4; // acknowledge command
    18da:	9c ef       	ldi	r25, 0xFC	; 252
    18dc:	90 93 64 03 	sts	0x0364, r25	; 0x800364 <ACKcount>
C:\Users\mateu\Documents\GitHub\Audi-CDC-Emulator\Software\archive\cdc_arduino/cdc_function.cpp:1138

      scanptr = fsr; // save scanptr, won't look at this byte again
    18e0:	90 91 76 03 	lds	r25, 0x0376	; 0x800376 <fsr>
    18e4:	90 93 77 03 	sts	0x0377, r25	; 0x800377 <scanptr>
DecodeCommand():
C:\Users\mateu\Documents\GitHub\Audi-CDC-Emulator\Software\archive\cdc_arduino/cdc_function.cpp:724

#ifdef JUST_HEX_TO_SERIAL
  Serial.write(cmdcode);
#endif

  switch (cmdcode) {
    18e8:	88 35       	cpi	r24, 0x58	; 88
    18ea:	09 f4       	brne	.+2      	; 0x18ee <CDC_Protocol()+0x196>
    18ec:	36 c1       	rjmp	.+620    	; 0x1b5a <CDC_Protocol()+0x402>
    18ee:	08 f0       	brcs	.+2      	; 0x18f2 <CDC_Protocol()+0x19a>
    18f0:	76 c0       	rjmp	.+236    	; 0x19de <CDC_Protocol()+0x286>
    18f2:	84 31       	cpi	r24, 0x14	; 20
    18f4:	09 f4       	brne	.+2      	; 0x18f8 <CDC_Protocol()+0x1a0>
    18f6:	f5 c0       	rjmp	.+490    	; 0x1ae2 <CDC_Protocol()+0x38a>
    18f8:	08 f5       	brcc	.+66     	; 0x193c <CDC_Protocol()+0x1e4>
    18fa:	88 30       	cpi	r24, 0x08	; 8
    18fc:	09 f4       	brne	.+2      	; 0x1900 <CDC_Protocol()+0x1a8>
    18fe:	11 c1       	rjmp	.+546    	; 0x1b22 <CDC_Protocol()+0x3ca>
    1900:	88 f4       	brcc	.+34     	; 0x1924 <CDC_Protocol()+0x1cc>
    1902:	81 30       	cpi	r24, 0x01	; 1
    1904:	09 f4       	brne	.+2      	; 0x1908 <CDC_Protocol()+0x1b0>
    1906:	1e c1       	rjmp	.+572    	; 0x1b44 <CDC_Protocol()+0x3ec>
    1908:	83 30       	cpi	r24, 0x03	; 3
    190a:	09 f4       	brne	.+2      	; 0x190e <CDC_Protocol()+0x1b6>
    190c:	52 c1       	rjmp	.+676    	; 0x1bb2 <CDC_Protocol()+0x45a>
C:\Users\mateu\Documents\GitHub\Audi-CDC-Emulator\Software\archive\cdc_arduino/cdc_function.cpp:979
         one that we understand.

         Dump the unknown command code for the user to view.
      */

      EnqueueString(sDASH);
    190e:	89 ed       	ldi	r24, 0xD9	; 217
    1910:	90 e0       	ldi	r25, 0x00	; 0
    1912:	0e 94 72 08 	call	0x10e4	; 0x10e4 <EnqueueString(unsigned char const*)>
C:\Users\mateu\Documents\GitHub\Audi-CDC-Emulator\Software\archive\cdc_arduino/cdc_function.cpp:980
      EnqueueHex(cmdcode);
    1916:	80 91 74 03 	lds	r24, 0x0374	; 0x800374 <cmdcode>
    191a:	0e 94 85 08 	call	0x110a	; 0x110a <EnqueueHex(unsigned char)>
C:\Users\mateu\Documents\GitHub\Audi-CDC-Emulator\Software\archive\cdc_arduino/cdc_function.cpp:981
      EnqueueString(sNEWLINE);
    191e:	8b ed       	ldi	r24, 0xDB	; 219
    1920:	90 e0       	ldi	r25, 0x00	; 0
    1922:	0d c1       	rjmp	.+538    	; 0x1b3e <CDC_Protocol()+0x3e6>
C:\Users\mateu\Documents\GitHub\Audi-CDC-Emulator\Software\archive\cdc_arduino/cdc_function.cpp:724

#ifdef JUST_HEX_TO_SERIAL
  Serial.write(cmdcode);
#endif

  switch (cmdcode) {
    1924:	8c 30       	cpi	r24, 0x0C	; 12
    1926:	09 f4       	brne	.+2      	; 0x192a <CDC_Protocol()+0x1d2>
    1928:	6b c1       	rjmp	.+726    	; 0x1c00 <CDC_Protocol()+0x4a8>
    192a:	80 31       	cpi	r24, 0x10	; 16
    192c:	81 f7       	brne	.-32     	; 0x190e <CDC_Protocol()+0x1b6>
SetStateIdle():
C:\Users\mateu\Documents\GitHub\Audi-CDC-Emulator\Software\archive\cdc_arduino/cdc_function.cpp:1299

static void SetStateIdle(void)

{

  playing = FALSE;
    192e:	10 92 70 03 	sts	0x0370, r1	; 0x800370 <playing>
C:\Users\mateu\Documents\GitHub\Audi-CDC-Emulator\Software\archive\cdc_arduino/cdc_function.cpp:1301

  BIDIstate = StateIdle;
    1932:	10 92 66 03 	sts	0x0366, r1	; 0x800366 <BIDIstate>
DecodeCommand():
C:\Users\mateu\Documents\GitHub\Audi-CDC-Emulator\Software\archive\cdc_arduino/cdc_function.cpp:762
    case Do_DISABLE:
      SetStateIdle(); // skip this if we're already in idle mode
#ifndef DISC_TRACK_NUMBER_FROM_MPD
      //      disc = 0x41; // set back to CD 1
#endif
      EnqueueString(sMDISABLE);
    1936:	80 e9       	ldi	r24, 0x90	; 144
    1938:	91 e0       	ldi	r25, 0x01	; 1
    193a:	01 c1       	rjmp	.+514    	; 0x1b3e <CDC_Protocol()+0x3e6>
C:\Users\mateu\Documents\GitHub\Audi-CDC-Emulator\Software\archive\cdc_arduino/cdc_function.cpp:724

#ifdef JUST_HEX_TO_SERIAL
  Serial.write(cmdcode);
#endif

  switch (cmdcode) {
    193c:	80 33       	cpi	r24, 0x30	; 48
    193e:	09 f4       	brne	.+2      	; 0x1942 <CDC_Protocol()+0x1ea>
    1940:	c2 c1       	rjmp	.+900    	; 0x1cc6 <CDC_Protocol()+0x56e>
    1942:	30 f5       	brcc	.+76     	; 0x1990 <CDC_Protocol()+0x238>
    1944:	88 31       	cpi	r24, 0x18	; 24
    1946:	09 f4       	brne	.+2      	; 0x194a <CDC_Protocol()+0x1f2>
    1948:	08 c1       	rjmp	.+528    	; 0x1b5a <CDC_Protocol()+0x402>
    194a:	8c 32       	cpi	r24, 0x2C	; 44
    194c:	01 f7       	brne	.-64     	; 0x190e <CDC_Protocol()+0x1b6>
C:\Users\mateu\Documents\GitHub\Audi-CDC-Emulator\Software\archive\cdc_arduino/cdc_function.cpp:946
      if (cdButtonPushed(4))
          EnqueueString(sLIST4);
      break;

    case Do_CD5:
      cd_button = TRUE; // mk store cd button pressed
    194e:	81 e0       	ldi	r24, 0x01	; 1
    1950:	80 93 6f 03 	sts	0x036F, r24	; 0x80036f <cd_button>
C:\Users\mateu\Documents\GitHub\Audi-CDC-Emulator\Software\archive\cdc_arduino/cdc_function.cpp:948
#ifndef DISC_TRACK_NUMBER_FROM_MPD
      disc = 0x45; // set CD 5
    1954:	85 e4       	ldi	r24, 0x45	; 69
    1956:	80 93 07 01 	sts	0x0107, r24	; 0x800107 <disc>
cdButtonPushed():
C:\Users\mateu\Documents\GitHub\Audi-CDC-Emulator\Software\archive\cdc_arduino/cdc_function.cpp:2083
        if (++cd4pushed == 6)
          cd4pushed = 0;
        return cd4pushed;

      case 5:
        cd1pushed = cd2pushed = cd3pushed = cd4pushed = cd6pushed;
    195a:	80 91 1a 03 	lds	r24, 0x031A	; 0x80031a <cdButtonPushed(unsigned char)::cd6pushed>
    195e:	80 93 1c 03 	sts	0x031C, r24	; 0x80031c <cdButtonPushed(unsigned char)::cd4pushed>
    1962:	80 93 1d 03 	sts	0x031D, r24	; 0x80031d <cdButtonPushed(unsigned char)::cd3pushed>
    1966:	80 93 1e 03 	sts	0x031E, r24	; 0x80031e <cdButtonPushed(unsigned char)::cd2pushed>
    196a:	80 93 1f 03 	sts	0x031F, r24	; 0x80031f <cdButtonPushed(unsigned char)::cd1pushed>
C:\Users\mateu\Documents\GitHub\Audi-CDC-Emulator\Software\archive\cdc_arduino/cdc_function.cpp:2084
        if (++cd5pushed == 6)
    196e:	80 91 1b 03 	lds	r24, 0x031B	; 0x80031b <cdButtonPushed(unsigned char)::cd5pushed>
    1972:	8f 5f       	subi	r24, 0xFF	; 255
    1974:	80 93 1b 03 	sts	0x031B, r24	; 0x80031b <cdButtonPushed(unsigned char)::cd5pushed>
    1978:	86 30       	cpi	r24, 0x06	; 6
    197a:	11 f4       	brne	.+4      	; 0x1980 <CDC_Protocol()+0x228>
C:\Users\mateu\Documents\GitHub\Audi-CDC-Emulator\Software\archive\cdc_arduino/cdc_function.cpp:2085
          cd5pushed = 0;
    197c:	10 92 1b 03 	sts	0x031B, r1	; 0x80031b <cdButtonPushed(unsigned char)::cd5pushed>
DecodeCommand():
C:\Users\mateu\Documents\GitHub\Audi-CDC-Emulator\Software\archive\cdc_arduino/cdc_function.cpp:950
    case Do_CD5:
      cd_button = TRUE; // mk store cd button pressed
#ifndef DISC_TRACK_NUMBER_FROM_MPD
      disc = 0x45; // set CD 5
#endif
      if (cdButtonPushed(5))
    1980:	80 91 1b 03 	lds	r24, 0x031B	; 0x80031b <cdButtonPushed(unsigned char)::cd5pushed>
    1984:	88 23       	and	r24, r24
    1986:	09 f4       	brne	.+2      	; 0x198a <CDC_Protocol()+0x232>
    1988:	ae c0       	rjmp	.+348    	; 0x1ae6 <CDC_Protocol()+0x38e>
C:\Users\mateu\Documents\GitHub\Audi-CDC-Emulator\Software\archive\cdc_arduino/cdc_function.cpp:951
          EnqueueString(sLIST5);
    198a:	8d e3       	ldi	r24, 0x3D	; 61
    198c:	91 e0       	ldi	r25, 0x01	; 1
    198e:	d7 c0       	rjmp	.+430    	; 0x1b3e <CDC_Protocol()+0x3e6>
C:\Users\mateu\Documents\GitHub\Audi-CDC-Emulator\Software\archive\cdc_arduino/cdc_function.cpp:724

#ifdef JUST_HEX_TO_SERIAL
  Serial.write(cmdcode);
#endif

  switch (cmdcode) {
    1990:	88 33       	cpi	r24, 0x38	; 56
    1992:	09 f4       	brne	.+2      	; 0x1996 <CDC_Protocol()+0x23e>
    1994:	f4 c0       	rjmp	.+488    	; 0x1b7e <CDC_Protocol()+0x426>
    1996:	8c 34       	cpi	r24, 0x4C	; 76
    1998:	09 f0       	breq	.+2      	; 0x199c <CDC_Protocol()+0x244>
    199a:	b9 cf       	rjmp	.-142    	; 0x190e <CDC_Protocol()+0x1b6>
C:\Users\mateu\Documents\GitHub\Audi-CDC-Emulator\Software\archive\cdc_arduino/cdc_function.cpp:925
        //SendBK3266("COM+MUD\r\n");
      #endif
      break;

    case Do_CD3:
      cd_button = TRUE; // mk store cd button pressed
    199c:	81 e0       	ldi	r24, 0x01	; 1
    199e:	80 93 6f 03 	sts	0x036F, r24	; 0x80036f <cd_button>
C:\Users\mateu\Documents\GitHub\Audi-CDC-Emulator\Software\archive\cdc_arduino/cdc_function.cpp:927
#ifndef DISC_TRACK_NUMBER_FROM_MPD
      disc = 0x43; // set CD 3
    19a2:	83 e4       	ldi	r24, 0x43	; 67
    19a4:	80 93 07 01 	sts	0x0107, r24	; 0x800107 <disc>
cdButtonPushed():
C:\Users\mateu\Documents\GitHub\Audi-CDC-Emulator\Software\archive\cdc_arduino/cdc_function.cpp:2071
      if (++cd2pushed == 6)
        cd2pushed = 0;
        return cd2pushed;

      case 3:
        cd1pushed = cd2pushed = cd4pushed = cd5pushed = cd6pushed;
    19a8:	80 91 1a 03 	lds	r24, 0x031A	; 0x80031a <cdButtonPushed(unsigned char)::cd6pushed>
    19ac:	80 93 1b 03 	sts	0x031B, r24	; 0x80031b <cdButtonPushed(unsigned char)::cd5pushed>
    19b0:	80 93 1c 03 	sts	0x031C, r24	; 0x80031c <cdButtonPushed(unsigned char)::cd4pushed>
    19b4:	80 93 1e 03 	sts	0x031E, r24	; 0x80031e <cdButtonPushed(unsigned char)::cd2pushed>
    19b8:	80 93 1f 03 	sts	0x031F, r24	; 0x80031f <cdButtonPushed(unsigned char)::cd1pushed>
C:\Users\mateu\Documents\GitHub\Audi-CDC-Emulator\Software\archive\cdc_arduino/cdc_function.cpp:2072
        if (++cd3pushed == 6)
    19bc:	80 91 1d 03 	lds	r24, 0x031D	; 0x80031d <cdButtonPushed(unsigned char)::cd3pushed>
    19c0:	8f 5f       	subi	r24, 0xFF	; 255
    19c2:	80 93 1d 03 	sts	0x031D, r24	; 0x80031d <cdButtonPushed(unsigned char)::cd3pushed>
    19c6:	86 30       	cpi	r24, 0x06	; 6
    19c8:	11 f4       	brne	.+4      	; 0x19ce <CDC_Protocol()+0x276>
C:\Users\mateu\Documents\GitHub\Audi-CDC-Emulator\Software\archive\cdc_arduino/cdc_function.cpp:2073
          cd3pushed = 0;
    19ca:	10 92 1d 03 	sts	0x031D, r1	; 0x80031d <cdButtonPushed(unsigned char)::cd3pushed>
DecodeCommand():
C:\Users\mateu\Documents\GitHub\Audi-CDC-Emulator\Software\archive\cdc_arduino/cdc_function.cpp:929
    case Do_CD3:
      cd_button = TRUE; // mk store cd button pressed
#ifndef DISC_TRACK_NUMBER_FROM_MPD
      disc = 0x43; // set CD 3
#endif
      if (cdButtonPushed(3))
    19ce:	80 91 1d 03 	lds	r24, 0x031D	; 0x80031d <cdButtonPushed(unsigned char)::cd3pushed>
    19d2:	88 23       	and	r24, r24
    19d4:	09 f4       	brne	.+2      	; 0x19d8 <CDC_Protocol()+0x280>
    19d6:	87 c0       	rjmp	.+270    	; 0x1ae6 <CDC_Protocol()+0x38e>
C:\Users\mateu\Documents\GitHub\Audi-CDC-Emulator\Software\archive\cdc_arduino/cdc_function.cpp:930
          EnqueueString(sLIST3);
    19d8:	8d e4       	ldi	r24, 0x4D	; 77
    19da:	91 e0       	ldi	r25, 0x01	; 1
    19dc:	b0 c0       	rjmp	.+352    	; 0x1b3e <CDC_Protocol()+0x3e6>
C:\Users\mateu\Documents\GitHub\Audi-CDC-Emulator\Software\archive\cdc_arduino/cdc_function.cpp:724

#ifdef JUST_HEX_TO_SERIAL
  Serial.write(cmdcode);
#endif

  switch (cmdcode) {
    19de:	88 3a       	cpi	r24, 0xA8	; 168
    19e0:	09 f4       	brne	.+2      	; 0x19e4 <CDC_Protocol()+0x28c>
    19e2:	ed c0       	rjmp	.+474    	; 0x1bbe <CDC_Protocol()+0x466>
    19e4:	08 f0       	brcs	.+2      	; 0x19e8 <CDC_Protocol()+0x290>
    19e6:	3f c0       	rjmp	.+126    	; 0x1a66 <CDC_Protocol()+0x30e>
    19e8:	88 37       	cpi	r24, 0x78	; 120
    19ea:	09 f4       	brne	.+2      	; 0x19ee <CDC_Protocol()+0x296>
    19ec:	e8 c0       	rjmp	.+464    	; 0x1bbe <CDC_Protocol()+0x466>
    19ee:	40 f5       	brcc	.+80     	; 0x1a40 <CDC_Protocol()+0x2e8>
    19f0:	80 36       	cpi	r24, 0x60	; 96
    19f2:	09 f4       	brne	.+2      	; 0x19f6 <CDC_Protocol()+0x29e>
    19f4:	6a c0       	rjmp	.+212    	; 0x1aca <CDC_Protocol()+0x372>
    19f6:	88 36       	cpi	r24, 0x68	; 104
    19f8:	09 f0       	breq	.+2      	; 0x19fc <CDC_Protocol()+0x2a4>
    19fa:	89 cf       	rjmp	.-238    	; 0x190e <CDC_Protocol()+0x1b6>
C:\Users\mateu\Documents\GitHub\Audi-CDC-Emulator\Software\archive\cdc_arduino/cdc_function.cpp:852
#endif
      break;

    case Do_UP:
    case Do_UP_MK3:
      if (playing == TRUE) // skip track lead-in if not in play mode
    19fc:	80 91 70 03 	lds	r24, 0x0370	; 0x800370 <playing>
    1a00:	81 30       	cpi	r24, 0x01	; 1
    1a02:	31 f4       	brne	.+12     	; 0x1a10 <CDC_Protocol()+0x2b8>
SetStateTrackLeadIn():
C:\Users\mateu\Documents\GitHub\Audi-CDC-Emulator\Software\archive\cdc_arduino/cdc_function.cpp:1454

{

  playing = TRUE;

  BIDIstate = StateTrackLeadIn;
    1a04:	88 e0       	ldi	r24, 0x08	; 8
    1a06:	80 93 66 03 	sts	0x0366, r24	; 0x800366 <BIDIstate>
C:\Users\mateu\Documents\GitHub\Audi-CDC-Emulator\Software\archive\cdc_arduino/cdc_function.cpp:1456

  BIDIcount = -12;
    1a0a:	84 ef       	ldi	r24, 0xF4	; 244
    1a0c:	80 93 65 03 	sts	0x0365, r24	; 0x800365 <BIDIcount>
DecodeCommand():
C:\Users\mateu\Documents\GitHub\Audi-CDC-Emulator\Software\archive\cdc_arduino/cdc_function.cpp:856
    case Do_UP_MK3:
      if (playing == TRUE) // skip track lead-in if not in play mode
      {
        SetStateTrackLeadIn();
      }
      ResetTime();
    1a10:	0e 94 c6 08 	call	0x118c	; 0x118c <ResetTime()>
C:\Users\mateu\Documents\GitHub\Audi-CDC-Emulator\Software\archive\cdc_arduino/cdc_function.cpp:858
#ifndef DISC_TRACK_NUMBER_FROM_MPD
      track++;
    1a14:	80 91 06 01 	lds	r24, 0x0106	; 0x800106 <track>
    1a18:	91 e0       	ldi	r25, 0x01	; 1
    1a1a:	98 0f       	add	r25, r24
    1a1c:	90 93 06 01 	sts	0x0106, r25	; 0x800106 <track>
C:\Users\mateu\Documents\GitHub\Audi-CDC-Emulator\Software\archive\cdc_arduino/cdc_function.cpp:859
      decimal_adjust_u8 = track & 0x0F; // skip past hexidecimal codes
    1a20:	9f 70       	andi	r25, 0x0F	; 15
C:\Users\mateu\Documents\GitHub\Audi-CDC-Emulator\Software\archive\cdc_arduino/cdc_function.cpp:860
      if (decimal_adjust_u8 == 0x0A) // are with at xA?
    1a22:	9a 30       	cpi	r25, 0x0A	; 10
    1a24:	19 f4       	brne	.+6      	; 0x1a2c <CDC_Protocol()+0x2d4>
C:\Users\mateu\Documents\GitHub\Audi-CDC-Emulator\Software\archive\cdc_arduino/cdc_function.cpp:862
      {
        track += 6; // yes, add 6 and we'll be at x0 instead
    1a26:	89 5f       	subi	r24, 0xF9	; 249
    1a28:	80 93 06 01 	sts	0x0106, r24	; 0x800106 <track>
C:\Users\mateu\Documents\GitHub\Audi-CDC-Emulator\Software\archive\cdc_arduino/cdc_function.cpp:864
      }
      if (track == 0xA0) // have we gone beyond Track 99?
    1a2c:	80 91 06 01 	lds	r24, 0x0106	; 0x800106 <track>
    1a30:	80 3a       	cpi	r24, 0xA0	; 160
    1a32:	19 f4       	brne	.+6      	; 0x1a3a <CDC_Protocol()+0x2e2>
C:\Users\mateu\Documents\GitHub\Audi-CDC-Emulator\Software\archive\cdc_arduino/cdc_function.cpp:866
      { // yes, rollover to Track 01 so that jog wheels
        track = 1; // can continue rolling (Audi Concert II)
    1a34:	81 e0       	ldi	r24, 0x01	; 1
    1a36:	80 93 06 01 	sts	0x0106, r24	; 0x800106 <track>
C:\Users\mateu\Documents\GitHub\Audi-CDC-Emulator\Software\archive\cdc_arduino/cdc_function.cpp:869
      }
#endif
      EnqueueString(sNEXT);
    1a3a:	87 e1       	ldi	r24, 0x17	; 23
    1a3c:	91 e0       	ldi	r25, 0x01	; 1
    1a3e:	7f c0       	rjmp	.+254    	; 0x1b3e <CDC_Protocol()+0x3e6>
C:\Users\mateu\Documents\GitHub\Audi-CDC-Emulator\Software\archive\cdc_arduino/cdc_function.cpp:724

#ifdef JUST_HEX_TO_SERIAL
  Serial.write(cmdcode);
#endif

  switch (cmdcode) {
    1a40:	8c 38       	cpi	r24, 0x8C	; 140
    1a42:	09 f4       	brne	.+2      	; 0x1a46 <CDC_Protocol()+0x2ee>
    1a44:	fe c0       	rjmp	.+508    	; 0x1c42 <CDC_Protocol()+0x4ea>
    1a46:	80 3a       	cpi	r24, 0xA0	; 160
    1a48:	09 f0       	breq	.+2      	; 0x1a4c <CDC_Protocol()+0x2f4>
    1a4a:	61 cf       	rjmp	.-318    	; 0x190e <CDC_Protocol()+0x1b6>
C:\Users\mateu\Documents\GitHub\Audi-CDC-Emulator\Software\archive\cdc_arduino/cdc_function.cpp:830
      EnqueueString(sPLAY); // this will make the PJRC play/pause
      break;

    case Do_SCAN:

      scancount = SCANWAIT;
    1a4c:	8c e9       	ldi	r24, 0x9C	; 156
    1a4e:	80 93 60 03 	sts	0x0360, r24	; 0x800360 <scancount>
C:\Users\mateu\Documents\GitHub\Audi-CDC-Emulator\Software\archive\cdc_arduino/cdc_function.cpp:832
#ifndef DISC_TRACK_NUMBER_FROM_MPD
      if (scan == FALSE)
    1a52:	80 91 71 03 	lds	r24, 0x0371	; 0x800371 <scan>
    1a56:	81 11       	cpse	r24, r1
    1a58:	af c0       	rjmp	.+350    	; 0x1bb8 <CDC_Protocol()+0x460>
C:\Users\mateu\Documents\GitHub\Audi-CDC-Emulator\Software\archive\cdc_arduino/cdc_function.cpp:834
      {
        scan = TRUE;
    1a5a:	81 e0       	ldi	r24, 0x01	; 1
    1a5c:	80 93 71 03 	sts	0x0371, r24	; 0x800371 <scan>
C:\Users\mateu\Documents\GitHub\Audi-CDC-Emulator\Software\archive\cdc_arduino/cdc_function.cpp:846
#endif

#ifdef PJRC
      EnqueueString(sPLAY); // this will make the PJRC play/pause
#else
      EnqueueString(sSCAN);
    1a60:	8e e1       	ldi	r24, 0x1E	; 30
    1a62:	91 e0       	ldi	r25, 0x01	; 1
    1a64:	6c c0       	rjmp	.+216    	; 0x1b3e <CDC_Protocol()+0x3e6>
C:\Users\mateu\Documents\GitHub\Audi-CDC-Emulator\Software\archive\cdc_arduino/cdc_function.cpp:724

#ifdef JUST_HEX_TO_SERIAL
  Serial.write(cmdcode);
#endif

  switch (cmdcode) {
    1a66:	88 3d       	cpi	r24, 0xD8	; 216
    1a68:	09 f4       	brne	.+2      	; 0x1a6c <CDC_Protocol()+0x314>
    1a6a:	89 c0       	rjmp	.+274    	; 0x1b7e <CDC_Protocol()+0x426>
    1a6c:	30 f5       	brcc	.+76     	; 0x1aba <CDC_Protocol()+0x362>
    1a6e:	8c 3a       	cpi	r24, 0xAC	; 172
    1a70:	09 f4       	brne	.+2      	; 0x1a74 <CDC_Protocol()+0x31c>
    1a72:	08 c1       	rjmp	.+528    	; 0x1c84 <CDC_Protocol()+0x52c>
    1a74:	8c 3c       	cpi	r24, 0xCC	; 204
    1a76:	09 f0       	breq	.+2      	; 0x1a7a <CDC_Protocol()+0x322>
    1a78:	4a cf       	rjmp	.-364    	; 0x190e <CDC_Protocol()+0x1b6>
C:\Users\mateu\Documents\GitHub\Audi-CDC-Emulator\Software\archive\cdc_arduino/cdc_function.cpp:937
        //SendBK3266("COM+MAX\r\n");
      #endif
      break;

    case Do_CD4:
      cd_button = TRUE; // mk store cd button pressed
    1a7a:	81 e0       	ldi	r24, 0x01	; 1
    1a7c:	80 93 6f 03 	sts	0x036F, r24	; 0x80036f <cd_button>
C:\Users\mateu\Documents\GitHub\Audi-CDC-Emulator\Software\archive\cdc_arduino/cdc_function.cpp:939
#ifndef DISC_TRACK_NUMBER_FROM_MPD
      disc = 0x44; // set CD 4
    1a80:	84 e4       	ldi	r24, 0x44	; 68
    1a82:	80 93 07 01 	sts	0x0107, r24	; 0x800107 <disc>
cdButtonPushed():
C:\Users\mateu\Documents\GitHub\Audi-CDC-Emulator\Software\archive\cdc_arduino/cdc_function.cpp:2077
        if (++cd3pushed == 6)
          cd3pushed = 0;
        return cd3pushed;

      case 4:
        cd1pushed = cd2pushed = cd3pushed = cd5pushed = cd6pushed;
    1a86:	80 91 1a 03 	lds	r24, 0x031A	; 0x80031a <cdButtonPushed(unsigned char)::cd6pushed>
    1a8a:	80 93 1b 03 	sts	0x031B, r24	; 0x80031b <cdButtonPushed(unsigned char)::cd5pushed>
    1a8e:	80 93 1d 03 	sts	0x031D, r24	; 0x80031d <cdButtonPushed(unsigned char)::cd3pushed>
    1a92:	80 93 1e 03 	sts	0x031E, r24	; 0x80031e <cdButtonPushed(unsigned char)::cd2pushed>
    1a96:	80 93 1f 03 	sts	0x031F, r24	; 0x80031f <cdButtonPushed(unsigned char)::cd1pushed>
C:\Users\mateu\Documents\GitHub\Audi-CDC-Emulator\Software\archive\cdc_arduino/cdc_function.cpp:2078
        if (++cd4pushed == 6)
    1a9a:	80 91 1c 03 	lds	r24, 0x031C	; 0x80031c <cdButtonPushed(unsigned char)::cd4pushed>
    1a9e:	8f 5f       	subi	r24, 0xFF	; 255
    1aa0:	80 93 1c 03 	sts	0x031C, r24	; 0x80031c <cdButtonPushed(unsigned char)::cd4pushed>
    1aa4:	86 30       	cpi	r24, 0x06	; 6
    1aa6:	11 f4       	brne	.+4      	; 0x1aac <CDC_Protocol()+0x354>
C:\Users\mateu\Documents\GitHub\Audi-CDC-Emulator\Software\archive\cdc_arduino/cdc_function.cpp:2079
          cd4pushed = 0;
    1aa8:	10 92 1c 03 	sts	0x031C, r1	; 0x80031c <cdButtonPushed(unsigned char)::cd4pushed>
DecodeCommand():
C:\Users\mateu\Documents\GitHub\Audi-CDC-Emulator\Software\archive\cdc_arduino/cdc_function.cpp:941
    case Do_CD4:
      cd_button = TRUE; // mk store cd button pressed
#ifndef DISC_TRACK_NUMBER_FROM_MPD
      disc = 0x44; // set CD 4
#endif
      if (cdButtonPushed(4))
    1aac:	80 91 1c 03 	lds	r24, 0x031C	; 0x80031c <cdButtonPushed(unsigned char)::cd4pushed>
    1ab0:	88 23       	and	r24, r24
    1ab2:	c9 f0       	breq	.+50     	; 0x1ae6 <CDC_Protocol()+0x38e>
C:\Users\mateu\Documents\GitHub\Audi-CDC-Emulator\Software\archive\cdc_arduino/cdc_function.cpp:942
          EnqueueString(sLIST4);
    1ab4:	85 e4       	ldi	r24, 0x45	; 69
    1ab6:	91 e0       	ldi	r25, 0x01	; 1
    1ab8:	42 c0       	rjmp	.+132    	; 0x1b3e <CDC_Protocol()+0x3e6>
C:\Users\mateu\Documents\GitHub\Audi-CDC-Emulator\Software\archive\cdc_arduino/cdc_function.cpp:724

#ifdef JUST_HEX_TO_SERIAL
  Serial.write(cmdcode);
#endif

  switch (cmdcode) {
    1aba:	84 3e       	cpi	r24, 0xE4	; 228
    1abc:	91 f1       	breq	.+100    	; 0x1b22 <CDC_Protocol()+0x3ca>
    1abe:	88 3f       	cpi	r24, 0xF8	; 248
    1ac0:	09 f4       	brne	.+2      	; 0x1ac4 <CDC_Protocol()+0x36c>
    1ac2:	9c cf       	rjmp	.-200    	; 0x19fc <CDC_Protocol()+0x2a4>
    1ac4:	80 3e       	cpi	r24, 0xE0	; 224
    1ac6:	09 f0       	breq	.+2      	; 0x1aca <CDC_Protocol()+0x372>
    1ac8:	22 cf       	rjmp	.-444    	; 0x190e <CDC_Protocol()+0x1b6>
C:\Users\mateu\Documents\GitHub\Audi-CDC-Emulator\Software\archive\cdc_arduino/cdc_function.cpp:810
      }
      break;

    case Do_MIX:
    case Do_MIX_CD:
      mix_button = 1;
    1aca:	81 e0       	ldi	r24, 0x01	; 1
    1acc:	80 93 6e 03 	sts	0x036E, r24	; 0x80036e <mix_button>
C:\Users\mateu\Documents\GitHub\Audi-CDC-Emulator\Software\archive\cdc_arduino/cdc_function.cpp:812
#ifndef DISC_TRACK_NUMBER_FROM_MPD
      if (mix == FALSE)
    1ad0:	90 91 72 03 	lds	r25, 0x0372	; 0x800372 <mix>
    1ad4:	91 11       	cpse	r25, r1
    1ad6:	6a c0       	rjmp	.+212    	; 0x1bac <CDC_Protocol()+0x454>
C:\Users\mateu\Documents\GitHub\Audi-CDC-Emulator\Software\archive\cdc_arduino/cdc_function.cpp:814
      {
        mix = TRUE;
    1ad8:	80 93 72 03 	sts	0x0372, r24	; 0x800372 <mix>
C:\Users\mateu\Documents\GitHub\Audi-CDC-Emulator\Software\archive\cdc_arduino/cdc_function.cpp:821
      else
      {
        mix = FALSE;
      }
#endif
      EnqueueString(sRANDOM);
    1adc:	8c e2       	ldi	r24, 0x2C	; 44
    1ade:	91 e0       	ldi	r25, 0x01	; 1
    1ae0:	2e c0       	rjmp	.+92     	; 0x1b3e <CDC_Protocol()+0x3e6>
C:\Users\mateu\Documents\GitHub\Audi-CDC-Emulator\Software\archive\cdc_arduino/cdc_function.cpp:728

  switch (cmdcode) {
    case Do_CHANGECD:
      // Head unit seems to send this after each CDx number change
      // but the CD Changer seems to completely ignore (doesn't even ACK it).
      ACKcount = 0; // do not ack this command
    1ae2:	10 92 64 03 	sts	0x0364, r1	; 0x800364 <ACKcount>
_Z12CDC_Protocolv():
C:\Users\mateu\Documents\GitHub\Audi-CDC-Emulator\Software\archive\cdc_arduino/cdc_function.cpp:658
    EnqueueHex(scanbyte);
  }

#endif

  while (txoutptr != txinptr)
    1ae6:	e0 91 5e 03 	lds	r30, 0x035E	; 0x80035e <txoutptr>
    1aea:	80 91 5f 03 	lds	r24, 0x035F	; 0x80035f <txinptr>
    1aee:	e8 17       	cp	r30, r24
    1af0:	09 f4       	brne	.+2      	; 0x1af4 <CDC_Protocol()+0x39c>
    1af2:	04 c1       	rjmp	.+520    	; 0x1cfc <CDC_Protocol()+0x5a4>
C:\Users\mateu\Documents\GitHub\Audi-CDC-Emulator\Software\archive\cdc_arduino/cdc_function.cpp:660
  {
    printstr_p((char*) txbuffer[txoutptr]);
    1af4:	f0 e0       	ldi	r31, 0x00	; 0
    1af6:	ee 0f       	add	r30, r30
    1af8:	ff 1f       	adc	r31, r31
    1afa:	e2 5c       	subi	r30, 0xC2	; 194
    1afc:	fc 4f       	sbci	r31, 0xFC	; 252
    1afe:	00 81       	ld	r16, Z
    1b00:	11 81       	ldd	r17, Z+1	; 0x01
printstr_p():
C:\Users\mateu\Documents\GitHub\Audi-CDC-Emulator\Software\archive\cdc_arduino/cdc_function.cpp:987
      break;
  }
}
static void printstr_p(const char *s) {
  char c;
  for (c = pgm_read_byte(s); c; ++s, c = pgm_read_byte(s))
    1b02:	f8 01       	movw	r30, r16
    1b04:	c4 91       	lpm	r28, Z
    1b06:	cc 23       	and	r28, r28
    1b08:	09 f4       	brne	.+2      	; 0x1b0c <CDC_Protocol()+0x3b4>
    1b0a:	ed c0       	rjmp	.+474    	; 0x1ce6 <CDC_Protocol()+0x58e>
C:\Users\mateu\Documents\GitHub\Audi-CDC-Emulator\Software\archive\cdc_arduino/cdc_function.cpp:989
  {
    Serial.print(c);
    1b0c:	6c 2f       	mov	r22, r28
    1b0e:	80 ec       	ldi	r24, 0xC0	; 192
    1b10:	93 e0       	ldi	r25, 0x03	; 3
    1b12:	0e 94 15 13 	call	0x262a	; 0x262a <Print::print(char)>
C:\Users\mateu\Documents\GitHub\Audi-CDC-Emulator\Software\archive\cdc_arduino/cdc_function.cpp:990
    if (c == '\n')
    1b16:	ca 30       	cpi	r28, 0x0A	; 10
    1b18:	09 f4       	brne	.+2      	; 0x1b1c <CDC_Protocol()+0x3c4>
    1b1a:	e5 c0       	rjmp	.+458    	; 0x1ce6 <CDC_Protocol()+0x58e>
C:\Users\mateu\Documents\GitHub\Audi-CDC-Emulator\Software\archive\cdc_arduino/cdc_function.cpp:987
      break;
  }
}
static void printstr_p(const char *s) {
  char c;
  for (c = pgm_read_byte(s); c; ++s, c = pgm_read_byte(s))
    1b1c:	0f 5f       	subi	r16, 0xFF	; 255
    1b1e:	1f 4f       	sbci	r17, 0xFF	; 255
    1b20:	f0 cf       	rjmp	.-32     	; 0x1b02 <CDC_Protocol()+0x3aa>
DecodeCommand():
C:\Users\mateu\Documents\GitHub\Audi-CDC-Emulator\Software\archive\cdc_arduino/cdc_function.cpp:736
#endif
      break;

    case Do_ENABLE:
    case Do_ENABLE_MK:
      mix = FALSE;
    1b22:	10 92 72 03 	sts	0x0372, r1	; 0x800372 <mix>
C:\Users\mateu\Documents\GitHub\Audi-CDC-Emulator\Software\archive\cdc_arduino/cdc_function.cpp:737
      if (playing == FALSE)
    1b26:	80 91 70 03 	lds	r24, 0x0370	; 0x800370 <playing>
    1b2a:	81 11       	cpse	r24, r1
    1b2c:	02 c0       	rjmp	.+4      	; 0x1b32 <CDC_Protocol()+0x3da>
C:\Users\mateu\Documents\GitHub\Audi-CDC-Emulator\Software\archive\cdc_arduino/cdc_function.cpp:739
      {
        SetStateInitPlay(); // skip this if already playing
    1b2e:	0e 94 65 08 	call	0x10ca	; 0x10ca <SetStateInitPlay()>
C:\Users\mateu\Documents\GitHub\Audi-CDC-Emulator\Software\archive\cdc_arduino/cdc_function.cpp:741
      }
      if (!mix_button)
    1b32:	80 91 6e 03 	lds	r24, 0x036E	; 0x80036e <mix_button>
    1b36:	81 11       	cpse	r24, r1
    1b38:	d6 cf       	rjmp	.-84     	; 0x1ae6 <CDC_Protocol()+0x38e>
C:\Users\mateu\Documents\GitHub\Audi-CDC-Emulator\Software\archive\cdc_arduino/cdc_function.cpp:742
        EnqueueString(sMENABLE);
    1b3a:	86 e8       	ldi	r24, 0x86	; 134
    1b3c:	91 e0       	ldi	r25, 0x01	; 1
C:\Users\mateu\Documents\GitHub\Audi-CDC-Emulator\Software\archive\cdc_arduino/cdc_function.cpp:981
         Dump the unknown command code for the user to view.
      */

      EnqueueString(sDASH);
      EnqueueHex(cmdcode);
      EnqueueString(sNEWLINE);
    1b3e:	0e 94 72 08 	call	0x10e4	; 0x10e4 <EnqueueString(unsigned char const*)>
    1b42:	d1 cf       	rjmp	.-94     	; 0x1ae6 <CDC_Protocol()+0x38e>
C:\Users\mateu\Documents\GitHub\Audi-CDC-Emulator\Software\archive\cdc_arduino/cdc_function.cpp:749
        //SendBK3266("COM+PA\r\n");
      #endif
      break;

    case Do_LOADCD:
      if (playing == TRUE)
    1b44:	80 91 70 03 	lds	r24, 0x0370	; 0x800370 <playing>
    1b48:	81 30       	cpi	r24, 0x01	; 1
    1b4a:	11 f4       	brne	.+4      	; 0x1b50 <CDC_Protocol()+0x3f8>
C:\Users\mateu\Documents\GitHub\Audi-CDC-Emulator\Software\archive\cdc_arduino/cdc_function.cpp:751
      {
        SetStateInitPlay(); // skip this if we're in idle mode
    1b4c:	0e 94 65 08 	call	0x10ca	; 0x10ca <SetStateInitPlay()>
C:\Users\mateu\Documents\GitHub\Audi-CDC-Emulator\Software\archive\cdc_arduino/cdc_function.cpp:753
      }
      ResetTime();
    1b50:	0e 94 c6 08 	call	0x118c	; 0x118c <ResetTime()>
C:\Users\mateu\Documents\GitHub\Audi-CDC-Emulator\Software\archive\cdc_arduino/cdc_function.cpp:754
      EnqueueString(sMINQUIRY);
    1b54:	8b e7       	ldi	r24, 0x7B	; 123
    1b56:	91 e0       	ldi	r25, 0x01	; 1
    1b58:	f2 cf       	rjmp	.-28     	; 0x1b3e <CDC_Protocol()+0x3e6>
C:\Users\mateu\Documents\GitHub\Audi-CDC-Emulator\Software\archive\cdc_arduino/cdc_function.cpp:770
      #endif
      break;

    case Do_SEEKBACK:
    case Do_PREVCD:
      ResetTime();
    1b5a:	0e 94 c6 08 	call	0x118c	; 0x118c <ResetTime()>
C:\Users\mateu\Documents\GitHub\Audi-CDC-Emulator\Software\archive\cdc_arduino/cdc_function.cpp:771
      EnqueueString(sPRV_LIST);
    1b5e:	80 e7       	ldi	r24, 0x70	; 112
    1b60:	91 e0       	ldi	r25, 0x01	; 1
    1b62:	0e 94 72 08 	call	0x10e4	; 0x10e4 <EnqueueString(unsigned char const*)>
C:\Users\mateu\Documents\GitHub\Audi-CDC-Emulator\Software\archive\cdc_arduino/cdc_function.cpp:773
#ifndef DISC_TRACK_NUMBER_FROM_MPD
      disc--;
    1b66:	80 91 07 01 	lds	r24, 0x0107	; 0x800107 <disc>
    1b6a:	81 50       	subi	r24, 0x01	; 1
    1b6c:	80 93 07 01 	sts	0x0107, r24	; 0x800107 <disc>
C:\Users\mateu\Documents\GitHub\Audi-CDC-Emulator\Software\archive\cdc_arduino/cdc_function.cpp:774
      if ((disc & 0x0F) == 0)
    1b70:	8f 70       	andi	r24, 0x0F	; 15
    1b72:	09 f0       	breq	.+2      	; 0x1b76 <CDC_Protocol()+0x41e>
    1b74:	b8 cf       	rjmp	.-144    	; 0x1ae6 <CDC_Protocol()+0x38e>
C:\Users\mateu\Documents\GitHub\Audi-CDC-Emulator\Software\archive\cdc_arduino/cdc_function.cpp:776
      {
        disc = 0x46; // set back to CD 1
    1b76:	86 e4       	ldi	r24, 0x46	; 70
C:\Users\mateu\Documents\GitHub\Audi-CDC-Emulator\Software\archive\cdc_arduino/cdc_function.cpp:791
        EnqueueString(sNXT_LIST);
#ifndef DISC_TRACK_NUMBER_FROM_MPD
        disc++;
        if (disc > 0x46)
        {
          disc = 0x41;
    1b78:	80 93 07 01 	sts	0x0107, r24	; 0x800107 <disc>
    1b7c:	b4 cf       	rjmp	.-152    	; 0x1ae6 <CDC_Protocol()+0x38e>
C:\Users\mateu\Documents\GitHub\Audi-CDC-Emulator\Software\archive\cdc_arduino/cdc_function.cpp:783
#endif
      break;

    case Do_SEEKFORWARD:
    case Do_SEEKFORWARD_MK:
      ResetTime();
    1b7e:	0e 94 c6 08 	call	0x118c	; 0x118c <ResetTime()>
C:\Users\mateu\Documents\GitHub\Audi-CDC-Emulator\Software\archive\cdc_arduino/cdc_function.cpp:784
      if (cd_button == FALSE) // mk don't increment when previous command was a cd button
    1b82:	80 91 6f 03 	lds	r24, 0x036F	; 0x80036f <cd_button>
    1b86:	81 11       	cpse	r24, r1
    1b88:	0e c0       	rjmp	.+28     	; 0x1ba6 <CDC_Protocol()+0x44e>
C:\Users\mateu\Documents\GitHub\Audi-CDC-Emulator\Software\archive\cdc_arduino/cdc_function.cpp:786
      {
        EnqueueString(sNXT_LIST);
    1b8a:	85 e6       	ldi	r24, 0x65	; 101
    1b8c:	91 e0       	ldi	r25, 0x01	; 1
    1b8e:	0e 94 72 08 	call	0x10e4	; 0x10e4 <EnqueueString(unsigned char const*)>
C:\Users\mateu\Documents\GitHub\Audi-CDC-Emulator\Software\archive\cdc_arduino/cdc_function.cpp:788
#ifndef DISC_TRACK_NUMBER_FROM_MPD
        disc++;
    1b92:	80 91 07 01 	lds	r24, 0x0107	; 0x800107 <disc>
    1b96:	8f 5f       	subi	r24, 0xFF	; 255
    1b98:	80 93 07 01 	sts	0x0107, r24	; 0x800107 <disc>
C:\Users\mateu\Documents\GitHub\Audi-CDC-Emulator\Software\archive\cdc_arduino/cdc_function.cpp:789
        if (disc > 0x46)
    1b9c:	87 34       	cpi	r24, 0x47	; 71
    1b9e:	08 f4       	brcc	.+2      	; 0x1ba2 <CDC_Protocol()+0x44a>
    1ba0:	a2 cf       	rjmp	.-188    	; 0x1ae6 <CDC_Protocol()+0x38e>
C:\Users\mateu\Documents\GitHub\Audi-CDC-Emulator\Software\archive\cdc_arduino/cdc_function.cpp:791
        {
          disc = 0x41;
    1ba2:	81 e4       	ldi	r24, 0x41	; 65
    1ba4:	e9 cf       	rjmp	.-46     	; 0x1b78 <CDC_Protocol()+0x420>
C:\Users\mateu\Documents\GitHub\Audi-CDC-Emulator\Software\archive\cdc_arduino/cdc_function.cpp:804
        // However, going beyond CD6 mutes audio on monsoon head unit, so we
        // definitely don't want to do that.
      }
      else
      {
        cd_button = FALSE; // mk clear cd button flag
    1ba6:	10 92 6f 03 	sts	0x036F, r1	; 0x80036f <cd_button>
    1baa:	9d cf       	rjmp	.-198    	; 0x1ae6 <CDC_Protocol()+0x38e>
C:\Users\mateu\Documents\GitHub\Audi-CDC-Emulator\Software\archive\cdc_arduino/cdc_function.cpp:818
      {
        mix = TRUE;
      }
      else
      {
        mix = FALSE;
    1bac:	10 92 72 03 	sts	0x0372, r1	; 0x800372 <mix>
    1bb0:	95 cf       	rjmp	.-214    	; 0x1adc <CDC_Protocol()+0x384>
C:\Users\mateu\Documents\GitHub\Audi-CDC-Emulator\Software\archive\cdc_arduino/cdc_function.cpp:825
#endif
      EnqueueString(sRANDOM);
      break;

    case Do_PLAY:
      EnqueueString(sPLAY); // this will make the PJRC play/pause
    1bb2:	85 e2       	ldi	r24, 0x25	; 37
    1bb4:	91 e0       	ldi	r25, 0x01	; 1
    1bb6:	c3 cf       	rjmp	.-122    	; 0x1b3e <CDC_Protocol()+0x3e6>
C:\Users\mateu\Documents\GitHub\Audi-CDC-Emulator\Software\archive\cdc_arduino/cdc_function.cpp:838
      {
        scan = TRUE;
      }
      else
      {
        scan = FALSE;
    1bb8:	10 92 71 03 	sts	0x0371, r1	; 0x800371 <scan>
    1bbc:	51 cf       	rjmp	.-350    	; 0x1a60 <CDC_Protocol()+0x308>
C:\Users\mateu\Documents\GitHub\Audi-CDC-Emulator\Software\archive\cdc_arduino/cdc_function.cpp:877
      #endif
      break;

    case Do_DOWN:
    case Do_DOWN_MK3:
      if (playing == TRUE) // skip track lead-in if not in play mode
    1bbe:	80 91 70 03 	lds	r24, 0x0370	; 0x800370 <playing>
    1bc2:	81 30       	cpi	r24, 0x01	; 1
    1bc4:	31 f4       	brne	.+12     	; 0x1bd2 <CDC_Protocol()+0x47a>
SetStateTrackLeadIn():
C:\Users\mateu\Documents\GitHub\Audi-CDC-Emulator\Software\archive\cdc_arduino/cdc_function.cpp:1454

{

  playing = TRUE;

  BIDIstate = StateTrackLeadIn;
    1bc6:	88 e0       	ldi	r24, 0x08	; 8
    1bc8:	80 93 66 03 	sts	0x0366, r24	; 0x800366 <BIDIstate>
C:\Users\mateu\Documents\GitHub\Audi-CDC-Emulator\Software\archive\cdc_arduino/cdc_function.cpp:1456

  BIDIcount = -12;
    1bcc:	84 ef       	ldi	r24, 0xF4	; 244
    1bce:	80 93 65 03 	sts	0x0365, r24	; 0x800365 <BIDIcount>
DecodeCommand():
C:\Users\mateu\Documents\GitHub\Audi-CDC-Emulator\Software\archive\cdc_arduino/cdc_function.cpp:881
    case Do_DOWN_MK3:
      if (playing == TRUE) // skip track lead-in if not in play mode
      {
        SetStateTrackLeadIn();
      }
      ResetTime();
    1bd2:	0e 94 c6 08 	call	0x118c	; 0x118c <ResetTime()>
C:\Users\mateu\Documents\GitHub\Audi-CDC-Emulator\Software\archive\cdc_arduino/cdc_function.cpp:883
#ifndef DISC_TRACK_NUMBER_FROM_MPD
      decimal_adjust_u8 = track & 0x0F; // skip past hexidecimal codes
    1bd6:	80 91 06 01 	lds	r24, 0x0106	; 0x800106 <track>
    1bda:	98 2f       	mov	r25, r24
    1bdc:	9f 70       	andi	r25, 0x0F	; 15
C:\Users\mateu\Documents\GitHub\Audi-CDC-Emulator\Software\archive\cdc_arduino/cdc_function.cpp:884
      if (decimal_adjust_u8 == 0) // are we at x0?
    1bde:	19 f4       	brne	.+6      	; 0x1be6 <CDC_Protocol()+0x48e>
C:\Users\mateu\Documents\GitHub\Audi-CDC-Emulator\Software\archive\cdc_arduino/cdc_function.cpp:886
      {
        track -= 6; // yes, subtract 6 and we'll be at x9 instead
    1be0:	86 50       	subi	r24, 0x06	; 6
    1be2:	80 93 06 01 	sts	0x0106, r24	; 0x800106 <track>
C:\Users\mateu\Documents\GitHub\Audi-CDC-Emulator\Software\archive\cdc_arduino/cdc_function.cpp:888
      }
      track--;
    1be6:	80 91 06 01 	lds	r24, 0x0106	; 0x800106 <track>
    1bea:	81 50       	subi	r24, 0x01	; 1
    1bec:	80 93 06 01 	sts	0x0106, r24	; 0x800106 <track>
C:\Users\mateu\Documents\GitHub\Audi-CDC-Emulator\Software\archive\cdc_arduino/cdc_function.cpp:889
      if (track == 0) // have we gone below Track 1?
    1bf0:	81 11       	cpse	r24, r1
    1bf2:	03 c0       	rjmp	.+6      	; 0x1bfa <CDC_Protocol()+0x4a2>
C:\Users\mateu\Documents\GitHub\Audi-CDC-Emulator\Software\archive\cdc_arduino/cdc_function.cpp:891
      { // yes, rollover to Track 99 so that jog wheels
        track = 0x99; // can continue rolling (Audi Concert II)
    1bf4:	89 e9       	ldi	r24, 0x99	; 153
    1bf6:	80 93 06 01 	sts	0x0106, r24	; 0x800106 <track>
C:\Users\mateu\Documents\GitHub\Audi-CDC-Emulator\Software\archive\cdc_arduino/cdc_function.cpp:894
      }
#endif
      EnqueueString(sPREVIOUS);
    1bfa:	8c e0       	ldi	r24, 0x0C	; 12
    1bfc:	91 e0       	ldi	r25, 0x01	; 1
    1bfe:	9f cf       	rjmp	.-194    	; 0x1b3e <CDC_Protocol()+0x3e6>
C:\Users\mateu\Documents\GitHub\Audi-CDC-Emulator\Software\archive\cdc_arduino/cdc_function.cpp:901
        //SendBK3266("COM+PV\r\n");
      #endif
      break;

    case Do_CD1:
      cd_button = TRUE; // mk store cd button pressed
    1c00:	81 e0       	ldi	r24, 0x01	; 1
    1c02:	80 93 6f 03 	sts	0x036F, r24	; 0x80036f <cd_button>
C:\Users\mateu\Documents\GitHub\Audi-CDC-Emulator\Software\archive\cdc_arduino/cdc_function.cpp:903
#ifndef DISC_TRACK_NUMBER_FROM_MPD
      disc = 0x41; // set CD 1
    1c06:	81 e4       	ldi	r24, 0x41	; 65
    1c08:	80 93 07 01 	sts	0x0107, r24	; 0x800107 <disc>
cdButtonPushed():
C:\Users\mateu\Documents\GitHub\Audi-CDC-Emulator\Software\archive\cdc_arduino/cdc_function.cpp:2060

static uint8_t cdButtonPushed(uint8_t cdnumber) {
  static uint8_t cd1pushed, cd2pushed, cd3pushed, cd4pushed, cd5pushed, cd6pushed = 0; //variable to cound how many times we pressed button for spectial actions
  switch (cdnumber) {
    case 1:
      cd2pushed = cd3pushed = cd4pushed = cd5pushed = cd6pushed;
    1c0c:	80 91 1a 03 	lds	r24, 0x031A	; 0x80031a <cdButtonPushed(unsigned char)::cd6pushed>
    1c10:	80 93 1b 03 	sts	0x031B, r24	; 0x80031b <cdButtonPushed(unsigned char)::cd5pushed>
    1c14:	80 93 1c 03 	sts	0x031C, r24	; 0x80031c <cdButtonPushed(unsigned char)::cd4pushed>
    1c18:	80 93 1d 03 	sts	0x031D, r24	; 0x80031d <cdButtonPushed(unsigned char)::cd3pushed>
    1c1c:	80 93 1e 03 	sts	0x031E, r24	; 0x80031e <cdButtonPushed(unsigned char)::cd2pushed>
C:\Users\mateu\Documents\GitHub\Audi-CDC-Emulator\Software\archive\cdc_arduino/cdc_function.cpp:2061
      if (++cd1pushed == 6)
    1c20:	80 91 1f 03 	lds	r24, 0x031F	; 0x80031f <cdButtonPushed(unsigned char)::cd1pushed>
    1c24:	8f 5f       	subi	r24, 0xFF	; 255
    1c26:	80 93 1f 03 	sts	0x031F, r24	; 0x80031f <cdButtonPushed(unsigned char)::cd1pushed>
    1c2a:	86 30       	cpi	r24, 0x06	; 6
    1c2c:	11 f4       	brne	.+4      	; 0x1c32 <CDC_Protocol()+0x4da>
C:\Users\mateu\Documents\GitHub\Audi-CDC-Emulator\Software\archive\cdc_arduino/cdc_function.cpp:2062
        cd1pushed = 0;
    1c2e:	10 92 1f 03 	sts	0x031F, r1	; 0x80031f <cdButtonPushed(unsigned char)::cd1pushed>
DecodeCommand():
C:\Users\mateu\Documents\GitHub\Audi-CDC-Emulator\Software\archive\cdc_arduino/cdc_function.cpp:905
    case Do_CD1:
      cd_button = TRUE; // mk store cd button pressed
#ifndef DISC_TRACK_NUMBER_FROM_MPD
      disc = 0x41; // set CD 1
#endif
      if (cdButtonPushed(1))
    1c32:	80 91 1f 03 	lds	r24, 0x031F	; 0x80031f <cdButtonPushed(unsigned char)::cd1pushed>
    1c36:	88 23       	and	r24, r24
    1c38:	09 f4       	brne	.+2      	; 0x1c3c <CDC_Protocol()+0x4e4>
    1c3a:	55 cf       	rjmp	.-342    	; 0x1ae6 <CDC_Protocol()+0x38e>
C:\Users\mateu\Documents\GitHub\Audi-CDC-Emulator\Software\archive\cdc_arduino/cdc_function.cpp:906
          EnqueueString(sLIST1);
    1c3c:	8d e5       	ldi	r24, 0x5D	; 93
    1c3e:	91 e0       	ldi	r25, 0x01	; 1
    1c40:	7e cf       	rjmp	.-260    	; 0x1b3e <CDC_Protocol()+0x3e6>
C:\Users\mateu\Documents\GitHub\Audi-CDC-Emulator\Software\archive\cdc_arduino/cdc_function.cpp:913
        //SendBK3266("COM+MBT\r\n");
      #endif
      break;

    case Do_CD2:
      cd_button = TRUE; // mk store cd button pressed
    1c42:	81 e0       	ldi	r24, 0x01	; 1
    1c44:	80 93 6f 03 	sts	0x036F, r24	; 0x80036f <cd_button>
C:\Users\mateu\Documents\GitHub\Audi-CDC-Emulator\Software\archive\cdc_arduino/cdc_function.cpp:915
#ifndef DISC_TRACK_NUMBER_FROM_MPD
      disc = 0x42; // set CD 2
    1c48:	82 e4       	ldi	r24, 0x42	; 66
    1c4a:	80 93 07 01 	sts	0x0107, r24	; 0x800107 <disc>
cdButtonPushed():
C:\Users\mateu\Documents\GitHub\Audi-CDC-Emulator\Software\archive\cdc_arduino/cdc_function.cpp:2060

static uint8_t cdButtonPushed(uint8_t cdnumber) {
  static uint8_t cd1pushed, cd2pushed, cd3pushed, cd4pushed, cd5pushed, cd6pushed = 0; //variable to cound how many times we pressed button for spectial actions
  switch (cdnumber) {
    case 1:
      cd2pushed = cd3pushed = cd4pushed = cd5pushed = cd6pushed;
    1c4e:	80 91 1a 03 	lds	r24, 0x031A	; 0x80031a <cdButtonPushed(unsigned char)::cd6pushed>
    1c52:	80 93 1b 03 	sts	0x031B, r24	; 0x80031b <cdButtonPushed(unsigned char)::cd5pushed>
    1c56:	80 93 1c 03 	sts	0x031C, r24	; 0x80031c <cdButtonPushed(unsigned char)::cd4pushed>
    1c5a:	80 93 1d 03 	sts	0x031D, r24	; 0x80031d <cdButtonPushed(unsigned char)::cd3pushed>
    1c5e:	80 93 1e 03 	sts	0x031E, r24	; 0x80031e <cdButtonPushed(unsigned char)::cd2pushed>
C:\Users\mateu\Documents\GitHub\Audi-CDC-Emulator\Software\archive\cdc_arduino/cdc_function.cpp:2061
      if (++cd1pushed == 6)
    1c62:	80 91 1f 03 	lds	r24, 0x031F	; 0x80031f <cdButtonPushed(unsigned char)::cd1pushed>
    1c66:	8f 5f       	subi	r24, 0xFF	; 255
    1c68:	80 93 1f 03 	sts	0x031F, r24	; 0x80031f <cdButtonPushed(unsigned char)::cd1pushed>
    1c6c:	86 30       	cpi	r24, 0x06	; 6
    1c6e:	11 f4       	brne	.+4      	; 0x1c74 <CDC_Protocol()+0x51c>
C:\Users\mateu\Documents\GitHub\Audi-CDC-Emulator\Software\archive\cdc_arduino/cdc_function.cpp:2062
        cd1pushed = 0;
    1c70:	10 92 1f 03 	sts	0x031F, r1	; 0x80031f <cdButtonPushed(unsigned char)::cd1pushed>
DecodeCommand():
C:\Users\mateu\Documents\GitHub\Audi-CDC-Emulator\Software\archive\cdc_arduino/cdc_function.cpp:917
    case Do_CD2:
      cd_button = TRUE; // mk store cd button pressed
#ifndef DISC_TRACK_NUMBER_FROM_MPD
      disc = 0x42; // set CD 2
#endif
      if (cdButtonPushed(1))
    1c74:	80 91 1f 03 	lds	r24, 0x031F	; 0x80031f <cdButtonPushed(unsigned char)::cd1pushed>
    1c78:	88 23       	and	r24, r24
    1c7a:	09 f4       	brne	.+2      	; 0x1c7e <CDC_Protocol()+0x526>
    1c7c:	34 cf       	rjmp	.-408    	; 0x1ae6 <CDC_Protocol()+0x38e>
C:\Users\mateu\Documents\GitHub\Audi-CDC-Emulator\Software\archive\cdc_arduino/cdc_function.cpp:918
      EnqueueString(sLIST2);
    1c7e:	85 e5       	ldi	r24, 0x55	; 85
    1c80:	91 e0       	ldi	r25, 0x01	; 1
    1c82:	5d cf       	rjmp	.-326    	; 0x1b3e <CDC_Protocol()+0x3e6>
C:\Users\mateu\Documents\GitHub\Audi-CDC-Emulator\Software\archive\cdc_arduino/cdc_function.cpp:955
      if (cdButtonPushed(5))
          EnqueueString(sLIST5);
      break;

    case Do_CD6:
      cd_button = TRUE; // mk store cd button pressed
    1c84:	81 e0       	ldi	r24, 0x01	; 1
    1c86:	80 93 6f 03 	sts	0x036F, r24	; 0x80036f <cd_button>
C:\Users\mateu\Documents\GitHub\Audi-CDC-Emulator\Software\archive\cdc_arduino/cdc_function.cpp:957
#ifndef DISC_TRACK_NUMBER_FROM_MPD
      disc = 0x46; // set CD 6
    1c8a:	86 e4       	ldi	r24, 0x46	; 70
    1c8c:	80 93 07 01 	sts	0x0107, r24	; 0x800107 <disc>
cdButtonPushed():
C:\Users\mateu\Documents\GitHub\Audi-CDC-Emulator\Software\archive\cdc_arduino/cdc_function.cpp:2089
        if (++cd5pushed == 6)
          cd5pushed = 0;
        return cd5pushed;

      case 6:
        cd1pushed = cd2pushed = cd3pushed = cd4pushed = cd5pushed;
    1c90:	80 91 1b 03 	lds	r24, 0x031B	; 0x80031b <cdButtonPushed(unsigned char)::cd5pushed>
    1c94:	80 93 1c 03 	sts	0x031C, r24	; 0x80031c <cdButtonPushed(unsigned char)::cd4pushed>
    1c98:	80 93 1d 03 	sts	0x031D, r24	; 0x80031d <cdButtonPushed(unsigned char)::cd3pushed>
    1c9c:	80 93 1e 03 	sts	0x031E, r24	; 0x80031e <cdButtonPushed(unsigned char)::cd2pushed>
    1ca0:	80 93 1f 03 	sts	0x031F, r24	; 0x80031f <cdButtonPushed(unsigned char)::cd1pushed>
C:\Users\mateu\Documents\GitHub\Audi-CDC-Emulator\Software\archive\cdc_arduino/cdc_function.cpp:2090
        if (++cd6pushed == 6)
    1ca4:	80 91 1a 03 	lds	r24, 0x031A	; 0x80031a <cdButtonPushed(unsigned char)::cd6pushed>
    1ca8:	8f 5f       	subi	r24, 0xFF	; 255
    1caa:	80 93 1a 03 	sts	0x031A, r24	; 0x80031a <cdButtonPushed(unsigned char)::cd6pushed>
    1cae:	86 30       	cpi	r24, 0x06	; 6
    1cb0:	11 f4       	brne	.+4      	; 0x1cb6 <CDC_Protocol()+0x55e>
C:\Users\mateu\Documents\GitHub\Audi-CDC-Emulator\Software\archive\cdc_arduino/cdc_function.cpp:2091
          cd5pushed = 0;
    1cb2:	10 92 1b 03 	sts	0x031B, r1	; 0x80031b <cdButtonPushed(unsigned char)::cd5pushed>
DecodeCommand():
C:\Users\mateu\Documents\GitHub\Audi-CDC-Emulator\Software\archive\cdc_arduino/cdc_function.cpp:959
    case Do_CD6:
      cd_button = TRUE; // mk store cd button pressed
#ifndef DISC_TRACK_NUMBER_FROM_MPD
      disc = 0x46; // set CD 6
#endif
      if (cdButtonPushed(6))
    1cb6:	80 91 1b 03 	lds	r24, 0x031B	; 0x80031b <cdButtonPushed(unsigned char)::cd5pushed>
    1cba:	88 23       	and	r24, r24
    1cbc:	09 f4       	brne	.+2      	; 0x1cc0 <CDC_Protocol()+0x568>
    1cbe:	13 cf       	rjmp	.-474    	; 0x1ae6 <CDC_Protocol()+0x38e>
C:\Users\mateu\Documents\GitHub\Audi-CDC-Emulator\Software\archive\cdc_arduino/cdc_function.cpp:960
          EnqueueString(sLIST6);
    1cc0:	85 e3       	ldi	r24, 0x35	; 53
    1cc2:	91 e0       	ldi	r25, 0x01	; 1
    1cc4:	3c cf       	rjmp	.-392    	; 0x1b3e <CDC_Protocol()+0x3e6>
C:\Users\mateu\Documents\GitHub\Audi-CDC-Emulator\Software\archive\cdc_arduino/cdc_function.cpp:964
      break;

    case Do_TP:
      if (playing == TRUE) {
    1cc6:	80 91 70 03 	lds	r24, 0x0370	; 0x800370 <playing>
    1cca:	81 30       	cpi	r24, 0x01	; 1
    1ccc:	31 f4       	brne	.+12     	; 0x1cda <CDC_Protocol()+0x582>
SetStateTP():
C:\Users\mateu\Documents\GitHub\Audi-CDC-Emulator\Software\archive\cdc_arduino/cdc_function.cpp:1306
  BIDIstate = StateIdle;

}
static void SetStateTP(void)
{
  playing = FALSE;
    1cce:	10 92 70 03 	sts	0x0370, r1	; 0x800370 <playing>
C:\Users\mateu\Documents\GitHub\Audi-CDC-Emulator\Software\archive\cdc_arduino/cdc_function.cpp:1307
  BIDIstate = StateTP;
    1cd2:	8a e0       	ldi	r24, 0x0A	; 10
    1cd4:	80 93 66 03 	sts	0x0366, r24	; 0x800366 <BIDIstate>
    1cd8:	06 cf       	rjmp	.-500    	; 0x1ae6 <CDC_Protocol()+0x38e>
DecodeCommand():
C:\Users\mateu\Documents\GitHub\Audi-CDC-Emulator\Software\archive\cdc_arduino/cdc_function.cpp:967

    case Do_TP:
      if (playing == TRUE) {
        SetStateTP();
      } else {
        SetStateInitPlay();
    1cda:	0e 94 65 08 	call	0x10ca	; 0x10ca <SetStateInitPlay()>
    1cde:	03 cf       	rjmp	.-506    	; 0x1ae6 <CDC_Protocol()+0x38e>
ScanCommandBytes():
C:\Users\mateu\Documents\GitHub\Audi-CDC-Emulator\Software\archive\cdc_arduino/cdc_function.cpp:1160

    else

    {

      DumpFullCommand(); // ABORT: dump invalid packet for display
    1ce0:	0e 94 99 08 	call	0x1132	; 0x1132 <DumpFullCommand()>
    1ce4:	00 cf       	rjmp	.-512    	; 0x1ae6 <CDC_Protocol()+0x38e>
_Z12CDC_Protocolv():
C:\Users\mateu\Documents\GitHub\Audi-CDC-Emulator\Software\archive\cdc_arduino/cdc_function.cpp:661
#endif

  while (txoutptr != txinptr)
  {
    printstr_p((char*) txbuffer[txoutptr]);
    txoutptr++;
    1ce6:	80 91 5e 03 	lds	r24, 0x035E	; 0x80035e <txoutptr>
    1cea:	8f 5f       	subi	r24, 0xFF	; 255
    1cec:	80 93 5e 03 	sts	0x035E, r24	; 0x80035e <txoutptr>
C:\Users\mateu\Documents\GitHub\Audi-CDC-Emulator\Software\archive\cdc_arduino/cdc_function.cpp:662
    if (txoutptr == TX_BUFFER_END)
    1cf0:	8c 30       	cpi	r24, 0x0C	; 12
    1cf2:	09 f0       	breq	.+2      	; 0x1cf6 <CDC_Protocol()+0x59e>
    1cf4:	f8 ce       	rjmp	.-528    	; 0x1ae6 <CDC_Protocol()+0x38e>
C:\Users\mateu\Documents\GitHub\Audi-CDC-Emulator\Software\archive\cdc_arduino/cdc_function.cpp:664
    {
      txoutptr = 0;
    1cf6:	10 92 5e 03 	sts	0x035E, r1	; 0x80035e <txoutptr>
    1cfa:	f5 ce       	rjmp	.-534    	; 0x1ae6 <CDC_Protocol()+0x38e>
C:\Users\mateu\Documents\GitHub\Audi-CDC-Emulator\Software\archive\cdc_arduino/cdc_function.cpp:667
    }
  }
}
    1cfc:	cf 91       	pop	r28
    1cfe:	1f 91       	pop	r17
    1d00:	0f 91       	pop	r16
    1d02:	08 95       	ret

00001d04 <Print::availableForWrite()>:
_ZN5Print17availableForWriteEv():
C:\Users\mateu\AppData\Local\Arduino15\packages\MiniCore\hardware\avr\2.0.9\libraries\SoftwareSerial\src/SoftwareSerial.cpp:308
uint16_t SoftwareSerial::subtract_cap(uint16_t num, uint16_t sub) {
  if (num > sub)
    return num - sub;
  else
    return 1;
}
    1d04:	90 e0       	ldi	r25, 0x00	; 0
    1d06:	80 e0       	ldi	r24, 0x00	; 0
    1d08:	08 95       	ret

00001d0a <SoftwareSerial::read()>:
_ZN14SoftwareSerial4readEv():
    1d0a:	20 91 be 03 	lds	r18, 0x03BE	; 0x8003be <SoftwareSerial::active_object>
    1d0e:	30 91 bf 03 	lds	r19, 0x03BF	; 0x8003bf <SoftwareSerial::active_object+0x1>
    1d12:	28 17       	cp	r18, r24
    1d14:	39 07       	cpc	r19, r25
    1d16:	b9 f4       	brne	.+46     	; 0x1d46 <SoftwareSerial::read()+0x3c>
    1d18:	90 91 7c 03 	lds	r25, 0x037C	; 0x80037c <SoftwareSerial::_receive_buffer_head>
    1d1c:	80 91 7d 03 	lds	r24, 0x037D	; 0x80037d <SoftwareSerial::_receive_buffer_tail>
    1d20:	98 17       	cp	r25, r24
    1d22:	89 f0       	breq	.+34     	; 0x1d46 <SoftwareSerial::read()+0x3c>
    1d24:	e0 91 7c 03 	lds	r30, 0x037C	; 0x80037c <SoftwareSerial::_receive_buffer_head>
    1d28:	f0 e0       	ldi	r31, 0x00	; 0
    1d2a:	e2 58       	subi	r30, 0x82	; 130
    1d2c:	fc 4f       	sbci	r31, 0xFC	; 252
    1d2e:	80 81       	ld	r24, Z
    1d30:	20 91 7c 03 	lds	r18, 0x037C	; 0x80037c <SoftwareSerial::_receive_buffer_head>
    1d34:	30 e0       	ldi	r19, 0x00	; 0
    1d36:	2f 5f       	subi	r18, 0xFF	; 255
    1d38:	3f 4f       	sbci	r19, 0xFF	; 255
    1d3a:	2f 73       	andi	r18, 0x3F	; 63
    1d3c:	33 27       	eor	r19, r19
    1d3e:	20 93 7c 03 	sts	0x037C, r18	; 0x80037c <SoftwareSerial::_receive_buffer_head>
    1d42:	90 e0       	ldi	r25, 0x00	; 0
    1d44:	08 95       	ret
    1d46:	8f ef       	ldi	r24, 0xFF	; 255
    1d48:	9f ef       	ldi	r25, 0xFF	; 255
    1d4a:	08 95       	ret

00001d4c <SoftwareSerial::write(unsigned char)>:
_ZN14SoftwareSerial5writeEh():
    1d4c:	ef 92       	push	r14
    1d4e:	ff 92       	push	r15
    1d50:	0f 93       	push	r16
    1d52:	1f 93       	push	r17
    1d54:	cf 93       	push	r28
    1d56:	df 93       	push	r29
    1d58:	dc 01       	movw	r26, r24
    1d5a:	5c 96       	adiw	r26, 0x1c	; 28
    1d5c:	ed 90       	ld	r14, X+
    1d5e:	fc 90       	ld	r15, X
    1d60:	5d 97       	sbiw	r26, 0x1d	; 29
    1d62:	e1 14       	cp	r14, r1
    1d64:	f1 04       	cpc	r15, r1
    1d66:	79 f4       	brne	.+30     	; 0x1d86 <SoftwareSerial::write(unsigned char)+0x3a>
_ZN5Print13setWriteErrorEi():
    1d68:	81 e0       	ldi	r24, 0x01	; 1
    1d6a:	90 e0       	ldi	r25, 0x00	; 0
    1d6c:	13 96       	adiw	r26, 0x03	; 3
    1d6e:	9c 93       	st	X, r25
    1d70:	8e 93       	st	-X, r24
    1d72:	12 97       	sbiw	r26, 0x02	; 2
_ZN14SoftwareSerial5writeEh():
    1d74:	90 e0       	ldi	r25, 0x00	; 0
    1d76:	80 e0       	ldi	r24, 0x00	; 0
    1d78:	df 91       	pop	r29
    1d7a:	cf 91       	pop	r28
    1d7c:	1f 91       	pop	r17
    1d7e:	0f 91       	pop	r16
    1d80:	ff 90       	pop	r15
    1d82:	ef 90       	pop	r14
    1d84:	08 95       	ret
    1d86:	51 96       	adiw	r26, 0x11	; 17
    1d88:	ed 91       	ld	r30, X+
    1d8a:	fc 91       	ld	r31, X
    1d8c:	52 97       	sbiw	r26, 0x12	; 18
    1d8e:	50 96       	adiw	r26, 0x10	; 16
    1d90:	8c 91       	ld	r24, X
    1d92:	50 97       	sbiw	r26, 0x10	; 16
    1d94:	98 2f       	mov	r25, r24
    1d96:	90 95       	com	r25
    1d98:	0f b7       	in	r16, 0x3f	; 63
    1d9a:	5e 96       	adiw	r26, 0x1e	; 30
    1d9c:	2c 91       	ld	r18, X
    1d9e:	5e 97       	sbiw	r26, 0x1e	; 30
    1da0:	12 2f       	mov	r17, r18
    1da2:	12 70       	andi	r17, 0x02	; 2
    1da4:	21 fd       	sbrc	r18, 1
    1da6:	60 95       	com	r22
    1da8:	f8 94       	cli
    1daa:	20 81       	ld	r18, Z
    1dac:	11 23       	and	r17, r17
    1dae:	19 f1       	breq	.+70     	; 0x1df6 <SoftwareSerial::write(unsigned char)+0xaa>
    1db0:	28 2b       	or	r18, r24
    1db2:	20 83       	st	Z, r18
_delay_loop_2():
    1db4:	e7 01       	movw	r28, r14
    1db6:	21 97       	sbiw	r28, 0x01	; 1
    1db8:	f1 f7       	brne	.-4      	; 0x1db6 <SoftwareSerial::write(unsigned char)+0x6a>
    1dba:	28 e0       	ldi	r18, 0x08	; 8
_ZN14SoftwareSerial5writeEh():
    1dbc:	46 2f       	mov	r20, r22
    1dbe:	50 e0       	ldi	r21, 0x00	; 0
    1dc0:	30 81       	ld	r19, Z
    1dc2:	60 ff       	sbrs	r22, 0
    1dc4:	1a c0       	rjmp	.+52     	; 0x1dfa <SoftwareSerial::write(unsigned char)+0xae>
    1dc6:	38 2b       	or	r19, r24
    1dc8:	30 83       	st	Z, r19
_delay_loop_2():
    1dca:	e7 01       	movw	r28, r14
    1dcc:	21 97       	sbiw	r28, 0x01	; 1
    1dce:	f1 f7       	brne	.-4      	; 0x1dcc <SoftwareSerial::write(unsigned char)+0x80>
_ZN14SoftwareSerial5writeEh():
    1dd0:	ba 01       	movw	r22, r20
    1dd2:	75 95       	asr	r23
    1dd4:	67 95       	ror	r22
    1dd6:	21 50       	subi	r18, 0x01	; 1
    1dd8:	89 f7       	brne	.-30     	; 0x1dbc <SoftwareSerial::write(unsigned char)+0x70>
    1dda:	11 23       	and	r17, r17
    1ddc:	81 f0       	breq	.+32     	; 0x1dfe <SoftwareSerial::write(unsigned char)+0xb2>
    1dde:	80 81       	ld	r24, Z
    1de0:	89 23       	and	r24, r25
    1de2:	80 83       	st	Z, r24
    1de4:	0f bf       	out	0x3f, r16	; 63
_delay_loop_2():
    1de6:	5c 96       	adiw	r26, 0x1c	; 28
    1de8:	8d 91       	ld	r24, X+
    1dea:	9c 91       	ld	r25, X
    1dec:	01 97       	sbiw	r24, 0x01	; 1
    1dee:	f1 f7       	brne	.-4      	; 0x1dec <SoftwareSerial::write(unsigned char)+0xa0>
_ZN14SoftwareSerial5writeEh():
    1df0:	81 e0       	ldi	r24, 0x01	; 1
    1df2:	90 e0       	ldi	r25, 0x00	; 0
    1df4:	c1 cf       	rjmp	.-126    	; 0x1d78 <SoftwareSerial::write(unsigned char)+0x2c>
    1df6:	29 23       	and	r18, r25
    1df8:	dc cf       	rjmp	.-72     	; 0x1db2 <SoftwareSerial::write(unsigned char)+0x66>
    1dfa:	39 23       	and	r19, r25
    1dfc:	e5 cf       	rjmp	.-54     	; 0x1dc8 <SoftwareSerial::write(unsigned char)+0x7c>
    1dfe:	90 81       	ld	r25, Z
    1e00:	89 2b       	or	r24, r25
    1e02:	ef cf       	rjmp	.-34     	; 0x1de2 <SoftwareSerial::write(unsigned char)+0x96>

00001e04 <SoftwareSerial::flush()>:
_ZN14SoftwareSerial5flushEv():
    1e04:	08 95       	ret

00001e06 <SoftwareSerial::peek()>:
_ZN14SoftwareSerial4peekEv():
    1e06:	20 91 be 03 	lds	r18, 0x03BE	; 0x8003be <SoftwareSerial::active_object>
    1e0a:	30 91 bf 03 	lds	r19, 0x03BF	; 0x8003bf <SoftwareSerial::active_object+0x1>
    1e0e:	28 17       	cp	r18, r24
    1e10:	39 07       	cpc	r19, r25
    1e12:	71 f4       	brne	.+28     	; 0x1e30 <SoftwareSerial::peek()+0x2a>
    1e14:	90 91 7c 03 	lds	r25, 0x037C	; 0x80037c <SoftwareSerial::_receive_buffer_head>
    1e18:	80 91 7d 03 	lds	r24, 0x037D	; 0x80037d <SoftwareSerial::_receive_buffer_tail>
    1e1c:	98 17       	cp	r25, r24
    1e1e:	41 f0       	breq	.+16     	; 0x1e30 <SoftwareSerial::peek()+0x2a>
    1e20:	e0 91 7c 03 	lds	r30, 0x037C	; 0x80037c <SoftwareSerial::_receive_buffer_head>
    1e24:	f0 e0       	ldi	r31, 0x00	; 0
    1e26:	e2 58       	subi	r30, 0x82	; 130
    1e28:	fc 4f       	sbci	r31, 0xFC	; 252
    1e2a:	80 81       	ld	r24, Z
    1e2c:	90 e0       	ldi	r25, 0x00	; 0
    1e2e:	08 95       	ret
    1e30:	8f ef       	ldi	r24, 0xFF	; 255
    1e32:	9f ef       	ldi	r25, 0xFF	; 255
    1e34:	08 95       	ret

00001e36 <SoftwareSerial::available()>:
_ZN14SoftwareSerial9availableEv():
    1e36:	20 91 be 03 	lds	r18, 0x03BE	; 0x8003be <SoftwareSerial::active_object>
    1e3a:	30 91 bf 03 	lds	r19, 0x03BF	; 0x8003bf <SoftwareSerial::active_object+0x1>
    1e3e:	28 17       	cp	r18, r24
    1e40:	39 07       	cpc	r19, r25
    1e42:	71 f4       	brne	.+28     	; 0x1e60 <SoftwareSerial::available()+0x2a>
    1e44:	80 91 7d 03 	lds	r24, 0x037D	; 0x80037d <SoftwareSerial::_receive_buffer_tail>
    1e48:	20 91 7c 03 	lds	r18, 0x037C	; 0x80037c <SoftwareSerial::_receive_buffer_head>
    1e4c:	90 e0       	ldi	r25, 0x00	; 0
    1e4e:	80 5c       	subi	r24, 0xC0	; 192
    1e50:	9f 4f       	sbci	r25, 0xFF	; 255
    1e52:	82 1b       	sub	r24, r18
    1e54:	91 09       	sbc	r25, r1
    1e56:	60 e4       	ldi	r22, 0x40	; 64
    1e58:	70 e0       	ldi	r23, 0x00	; 0
    1e5a:	0e 94 a2 17 	call	0x2f44	; 0x2f44 <__divmodhi4>
    1e5e:	08 95       	ret
    1e60:	90 e0       	ldi	r25, 0x00	; 0
    1e62:	80 e0       	ldi	r24, 0x00	; 0
    1e64:	08 95       	ret

00001e66 <SoftwareSerial::stopListening()>:
_ZN14SoftwareSerial13stopListeningEv():
    1e66:	e0 91 be 03 	lds	r30, 0x03BE	; 0x8003be <SoftwareSerial::active_object>
    1e6a:	f0 91 bf 03 	lds	r31, 0x03BF	; 0x8003bf <SoftwareSerial::active_object+0x1>
    1e6e:	e8 17       	cp	r30, r24
    1e70:	f9 07       	cpc	r31, r25
    1e72:	69 f4       	brne	.+26     	; 0x1e8e <SoftwareSerial::stopListening()+0x28>
_ZN14SoftwareSerial11setRxIntMskEb():
    1e74:	a3 89       	ldd	r26, Z+19	; 0x13
    1e76:	b4 89       	ldd	r27, Z+20	; 0x14
    1e78:	9c 91       	ld	r25, X
    1e7a:	85 89       	ldd	r24, Z+21	; 0x15
    1e7c:	80 95       	com	r24
    1e7e:	89 23       	and	r24, r25
    1e80:	8c 93       	st	X, r24
_ZN14SoftwareSerial13stopListeningEv():
    1e82:	10 92 bf 03 	sts	0x03BF, r1	; 0x8003bf <SoftwareSerial::active_object+0x1>
    1e86:	10 92 be 03 	sts	0x03BE, r1	; 0x8003be <SoftwareSerial::active_object>
    1e8a:	81 e0       	ldi	r24, 0x01	; 1
    1e8c:	08 95       	ret
    1e8e:	80 e0       	ldi	r24, 0x00	; 0
    1e90:	08 95       	ret

00001e92 <SoftwareSerial::listen()>:
_ZN14SoftwareSerial6listenEv():
    1e92:	cf 93       	push	r28
    1e94:	df 93       	push	r29
    1e96:	ec 01       	movw	r28, r24
    1e98:	8a 8d       	ldd	r24, Y+26	; 0x1a
    1e9a:	9b 8d       	ldd	r25, Y+27	; 0x1b
    1e9c:	89 2b       	or	r24, r25
    1e9e:	01 f1       	breq	.+64     	; 0x1ee0 <SoftwareSerial::listen()+0x4e>
    1ea0:	80 91 be 03 	lds	r24, 0x03BE	; 0x8003be <SoftwareSerial::active_object>
    1ea4:	90 91 bf 03 	lds	r25, 0x03BF	; 0x8003bf <SoftwareSerial::active_object+0x1>
    1ea8:	8c 17       	cp	r24, r28
    1eaa:	9d 07       	cpc	r25, r29
    1eac:	c9 f0       	breq	.+50     	; 0x1ee0 <SoftwareSerial::listen()+0x4e>
    1eae:	00 97       	sbiw	r24, 0x00	; 0
    1eb0:	11 f0       	breq	.+4      	; 0x1eb6 <SoftwareSerial::listen()+0x24>
    1eb2:	0e 94 33 0f 	call	0x1e66	; 0x1e66 <SoftwareSerial::stopListening()>
    1eb6:	8e 8d       	ldd	r24, Y+30	; 0x1e
    1eb8:	8e 7f       	andi	r24, 0xFE	; 254
    1eba:	8e 8f       	std	Y+30, r24	; 0x1e
    1ebc:	10 92 7d 03 	sts	0x037D, r1	; 0x80037d <SoftwareSerial::_receive_buffer_tail>
    1ec0:	10 92 7c 03 	sts	0x037C, r1	; 0x80037c <SoftwareSerial::_receive_buffer_head>
    1ec4:	d0 93 bf 03 	sts	0x03BF, r29	; 0x8003bf <SoftwareSerial::active_object+0x1>
    1ec8:	c0 93 be 03 	sts	0x03BE, r28	; 0x8003be <SoftwareSerial::active_object>
_ZN14SoftwareSerial11setRxIntMskEb():
    1ecc:	eb 89       	ldd	r30, Y+19	; 0x13
    1ece:	fc 89       	ldd	r31, Y+20	; 0x14
    1ed0:	80 81       	ld	r24, Z
    1ed2:	9d 89       	ldd	r25, Y+21	; 0x15
    1ed4:	89 2b       	or	r24, r25
    1ed6:	80 83       	st	Z, r24
    1ed8:	81 e0       	ldi	r24, 0x01	; 1
_ZN14SoftwareSerial6listenEv():
    1eda:	df 91       	pop	r29
    1edc:	cf 91       	pop	r28
    1ede:	08 95       	ret
    1ee0:	80 e0       	ldi	r24, 0x00	; 0
    1ee2:	fb cf       	rjmp	.-10     	; 0x1eda <SoftwareSerial::listen()+0x48>

00001ee4 <__vector_27>:
__vector_3():
    1ee4:	1f 92       	push	r1
    1ee6:	0f 92       	push	r0
    1ee8:	0f b6       	in	r0, 0x3f	; 63
    1eea:	0f 92       	push	r0
    1eec:	11 24       	eor	r1, r1
    1eee:	2f 93       	push	r18
    1ef0:	3f 93       	push	r19
    1ef2:	4f 93       	push	r20
    1ef4:	5f 93       	push	r21
    1ef6:	6f 93       	push	r22
    1ef8:	7f 93       	push	r23
    1efa:	8f 93       	push	r24
    1efc:	9f 93       	push	r25
    1efe:	af 93       	push	r26
    1f00:	bf 93       	push	r27
    1f02:	ef 93       	push	r30
    1f04:	ff 93       	push	r31
_ZN14SoftwareSerial16handle_interruptEv():
    1f06:	e0 91 be 03 	lds	r30, 0x03BE	; 0x8003be <SoftwareSerial::active_object>
    1f0a:	f0 91 bf 03 	lds	r31, 0x03BF	; 0x8003bf <SoftwareSerial::active_object+0x1>
    1f0e:	30 97       	sbiw	r30, 0x00	; 0
    1f10:	49 f0       	breq	.+18     	; 0x1f24 <__vector_27+0x40>
    1f12:	a6 85       	ldd	r26, Z+14	; 0x0e
    1f14:	b7 85       	ldd	r27, Z+15	; 0x0f
    1f16:	85 85       	ldd	r24, Z+13	; 0x0d
_ZN14SoftwareSerial4recvEv():
    1f18:	96 8d       	ldd	r25, Z+30	; 0x1e
    1f1a:	91 ff       	sbrs	r25, 1
    1f1c:	14 c0       	rjmp	.+40     	; 0x1f46 <__vector_27+0x62>
_ZN14SoftwareSerial11rx_pin_readEv():
    1f1e:	9c 91       	ld	r25, X
    1f20:	89 23       	and	r24, r25
_ZN14SoftwareSerial4recvEv():
    1f22:	a1 f4       	brne	.+40     	; 0x1f4c <__vector_27+0x68>
__vector_3():
    1f24:	ff 91       	pop	r31
    1f26:	ef 91       	pop	r30
    1f28:	bf 91       	pop	r27
    1f2a:	af 91       	pop	r26
    1f2c:	9f 91       	pop	r25
    1f2e:	8f 91       	pop	r24
    1f30:	7f 91       	pop	r23
    1f32:	6f 91       	pop	r22
    1f34:	5f 91       	pop	r21
    1f36:	4f 91       	pop	r20
    1f38:	3f 91       	pop	r19
    1f3a:	2f 91       	pop	r18
    1f3c:	0f 90       	pop	r0
    1f3e:	0f be       	out	0x3f, r0	; 63
    1f40:	0f 90       	pop	r0
    1f42:	1f 90       	pop	r1
    1f44:	18 95       	reti
_ZN14SoftwareSerial11rx_pin_readEv():
    1f46:	9c 91       	ld	r25, X
    1f48:	89 23       	and	r24, r25
_ZN14SoftwareSerial4recvEv():
    1f4a:	61 f7       	brne	.-40     	; 0x1f24 <__vector_27+0x40>
_ZN14SoftwareSerial11setRxIntMskEb():
    1f4c:	a3 89       	ldd	r26, Z+19	; 0x13
    1f4e:	b4 89       	ldd	r27, Z+20	; 0x14
    1f50:	9c 91       	ld	r25, X
    1f52:	85 89       	ldd	r24, Z+21	; 0x15
    1f54:	80 95       	com	r24
    1f56:	89 23       	and	r24, r25
    1f58:	8c 93       	st	X, r24
_delay_loop_2():
    1f5a:	86 89       	ldd	r24, Z+22	; 0x16
    1f5c:	97 89       	ldd	r25, Z+23	; 0x17
    1f5e:	01 97       	sbiw	r24, 0x01	; 1
    1f60:	f1 f7       	brne	.-4      	; 0x1f5e <__vector_27+0x7a>
_ZN14SoftwareSerial4recvEv():
    1f62:	60 8d       	ldd	r22, Z+24	; 0x18
    1f64:	71 8d       	ldd	r23, Z+25	; 0x19
_ZN14SoftwareSerial11rx_pin_readEv():
    1f66:	a6 85       	ldd	r26, Z+14	; 0x0e
    1f68:	b7 85       	ldd	r27, Z+15	; 0x0f
    1f6a:	55 85       	ldd	r21, Z+13	; 0x0d
    1f6c:	38 e0       	ldi	r19, 0x08	; 8
_ZN14SoftwareSerial4recvEv():
    1f6e:	20 e0       	ldi	r18, 0x00	; 0
_delay_loop_2():
    1f70:	cb 01       	movw	r24, r22
    1f72:	01 97       	sbiw	r24, 0x01	; 1
    1f74:	f1 f7       	brne	.-4      	; 0x1f72 <__vector_27+0x8e>
_ZN14SoftwareSerial4recvEv():
    1f76:	82 2f       	mov	r24, r18
    1f78:	90 e0       	ldi	r25, 0x00	; 0
    1f7a:	95 95       	asr	r25
    1f7c:	87 95       	ror	r24
    1f7e:	28 2f       	mov	r18, r24
_ZN14SoftwareSerial11rx_pin_readEv():
    1f80:	4c 91       	ld	r20, X
    1f82:	45 23       	and	r20, r21
_ZN14SoftwareSerial4recvEv():
    1f84:	09 f0       	breq	.+2      	; 0x1f88 <__vector_27+0xa4>
    1f86:	20 68       	ori	r18, 0x80	; 128
    1f88:	31 50       	subi	r19, 0x01	; 1
    1f8a:	91 f7       	brne	.-28     	; 0x1f70 <__vector_27+0x8c>
    1f8c:	86 8d       	ldd	r24, Z+30	; 0x1e
    1f8e:	81 fd       	sbrc	r24, 1
    1f90:	20 95       	com	r18
    1f92:	80 91 7d 03 	lds	r24, 0x037D	; 0x80037d <SoftwareSerial::_receive_buffer_tail>
    1f96:	90 e0       	ldi	r25, 0x00	; 0
    1f98:	01 96       	adiw	r24, 0x01	; 1
    1f9a:	8f 73       	andi	r24, 0x3F	; 63
    1f9c:	99 27       	eor	r25, r25
    1f9e:	30 91 7c 03 	lds	r19, 0x037C	; 0x80037c <SoftwareSerial::_receive_buffer_head>
    1fa2:	38 17       	cp	r19, r24
    1fa4:	99 f0       	breq	.+38     	; 0x1fcc <__vector_27+0xe8>
    1fa6:	a0 91 7d 03 	lds	r26, 0x037D	; 0x80037d <SoftwareSerial::_receive_buffer_tail>
    1faa:	b0 e0       	ldi	r27, 0x00	; 0
    1fac:	a2 58       	subi	r26, 0x82	; 130
    1fae:	bc 4f       	sbci	r27, 0xFC	; 252
    1fb0:	2c 93       	st	X, r18
    1fb2:	80 93 7d 03 	sts	0x037D, r24	; 0x80037d <SoftwareSerial::_receive_buffer_tail>
_delay_loop_2():
    1fb6:	82 8d       	ldd	r24, Z+26	; 0x1a
    1fb8:	93 8d       	ldd	r25, Z+27	; 0x1b
    1fba:	01 97       	sbiw	r24, 0x01	; 1
    1fbc:	f1 f7       	brne	.-4      	; 0x1fba <__vector_27+0xd6>
_ZN14SoftwareSerial11setRxIntMskEb():
    1fbe:	a3 89       	ldd	r26, Z+19	; 0x13
    1fc0:	b4 89       	ldd	r27, Z+20	; 0x14
    1fc2:	8c 91       	ld	r24, X
    1fc4:	95 89       	ldd	r25, Z+21	; 0x15
    1fc6:	89 2b       	or	r24, r25
    1fc8:	8c 93       	st	X, r24
__vector_3():
    1fca:	ac cf       	rjmp	.-168    	; 0x1f24 <__vector_27+0x40>
_ZN14SoftwareSerial4recvEv():
    1fcc:	86 8d       	ldd	r24, Z+30	; 0x1e
    1fce:	81 60       	ori	r24, 0x01	; 1
    1fd0:	86 8f       	std	Z+30, r24	; 0x1e
    1fd2:	f1 cf       	rjmp	.-30     	; 0x1fb6 <__vector_27+0xd2>

00001fd4 <SoftwareSerial::~SoftwareSerial()>:
_ZN14SoftwareSerialD2Ev():
    1fd4:	21 ea       	ldi	r18, 0xA1	; 161
    1fd6:	32 e0       	ldi	r19, 0x02	; 2
    1fd8:	fc 01       	movw	r30, r24
    1fda:	31 83       	std	Z+1, r19	; 0x01
    1fdc:	20 83       	st	Z, r18
_ZN14SoftwareSerial3endEv():
    1fde:	0c 94 33 0f 	jmp	0x1e66	; 0x1e66 <SoftwareSerial::stopListening()>

00001fe2 <SoftwareSerial::setTX(signed char)>:
_ZN14SoftwareSerial5setTXEa():
    1fe2:	1f 93       	push	r17
    1fe4:	cf 93       	push	r28
    1fe6:	df 93       	push	r29
    1fe8:	ec 01       	movw	r28, r24
    1fea:	16 2f       	mov	r17, r22
    1fec:	6e 8d       	ldd	r22, Y+30	; 0x1e
    1fee:	66 95       	lsr	r22
    1ff0:	61 70       	andi	r22, 0x01	; 1
    1ff2:	81 e0       	ldi	r24, 0x01	; 1
    1ff4:	68 27       	eor	r22, r24
    1ff6:	81 2f       	mov	r24, r17
    1ff8:	0e 94 73 17 	call	0x2ee6	; 0x2ee6 <digitalWrite>
    1ffc:	61 e0       	ldi	r22, 0x01	; 1
    1ffe:	81 2f       	mov	r24, r17
    2000:	0e 94 37 17 	call	0x2e6e	; 0x2e6e <pinMode>
    2004:	81 2f       	mov	r24, r17
    2006:	11 0f       	add	r17, r17
    2008:	99 0b       	sbc	r25, r25
    200a:	fc 01       	movw	r30, r24
    200c:	e5 53       	subi	r30, 0x35	; 53
    200e:	fe 4f       	sbci	r31, 0xFE	; 254
    2010:	e4 91       	lpm	r30, Z
    2012:	e8 8b       	std	Y+16, r30	; 0x10
    2014:	fc 01       	movw	r30, r24
    2016:	ea 51       	subi	r30, 0x1A	; 26
    2018:	fe 4f       	sbci	r31, 0xFE	; 254
    201a:	e4 91       	lpm	r30, Z
    201c:	f0 e0       	ldi	r31, 0x00	; 0
    201e:	ee 0f       	add	r30, r30
    2020:	ff 1f       	adc	r31, r31
    2022:	e3 5f       	subi	r30, 0xF3	; 243
    2024:	fd 4f       	sbci	r31, 0xFD	; 253
    2026:	85 91       	lpm	r24, Z+
    2028:	94 91       	lpm	r25, Z
    202a:	9a 8b       	std	Y+18, r25	; 0x12
    202c:	89 8b       	std	Y+17, r24	; 0x11
    202e:	df 91       	pop	r29
    2030:	cf 91       	pop	r28
    2032:	1f 91       	pop	r17
    2034:	08 95       	ret

00002036 <SoftwareSerial::setRX(signed char)>:
_ZN14SoftwareSerial5setRXEa():
    2036:	1f 93       	push	r17
    2038:	cf 93       	push	r28
    203a:	df 93       	push	r29
    203c:	ec 01       	movw	r28, r24
    203e:	16 2f       	mov	r17, r22
    2040:	60 e0       	ldi	r22, 0x00	; 0
    2042:	81 2f       	mov	r24, r17
    2044:	0e 94 37 17 	call	0x2e6e	; 0x2e6e <pinMode>
    2048:	8e 8d       	ldd	r24, Y+30	; 0x1e
    204a:	81 fd       	sbrc	r24, 1
    204c:	04 c0       	rjmp	.+8      	; 0x2056 <SoftwareSerial::setRX(signed char)+0x20>
    204e:	61 e0       	ldi	r22, 0x01	; 1
    2050:	81 2f       	mov	r24, r17
    2052:	0e 94 73 17 	call	0x2ee6	; 0x2ee6 <digitalWrite>
    2056:	1c 87       	std	Y+12, r17	; 0x0c
    2058:	81 2f       	mov	r24, r17
    205a:	11 0f       	add	r17, r17
    205c:	99 0b       	sbc	r25, r25
    205e:	fc 01       	movw	r30, r24
    2060:	e5 53       	subi	r30, 0x35	; 53
    2062:	fe 4f       	sbci	r31, 0xFE	; 254
    2064:	e4 91       	lpm	r30, Z
    2066:	ed 87       	std	Y+13, r30	; 0x0d
    2068:	fc 01       	movw	r30, r24
    206a:	ea 51       	subi	r30, 0x1A	; 26
    206c:	fe 4f       	sbci	r31, 0xFE	; 254
    206e:	e4 91       	lpm	r30, Z
    2070:	f0 e0       	ldi	r31, 0x00	; 0
    2072:	ee 0f       	add	r30, r30
    2074:	ff 1f       	adc	r31, r31
    2076:	ef 5f       	subi	r30, 0xFF	; 255
    2078:	fd 4f       	sbci	r31, 0xFD	; 253
    207a:	85 91       	lpm	r24, Z+
    207c:	94 91       	lpm	r25, Z
    207e:	9f 87       	std	Y+15, r25	; 0x0f
    2080:	8e 87       	std	Y+14, r24	; 0x0e
    2082:	df 91       	pop	r29
    2084:	cf 91       	pop	r28
    2086:	1f 91       	pop	r17
    2088:	08 95       	ret

0000208a <SoftwareSerial::SoftwareSerial(signed char, signed char, bool)>:
_ZN14SoftwareSerialC2Eaab():
    208a:	1f 93       	push	r17
    208c:	cf 93       	push	r28
    208e:	df 93       	push	r29
    2090:	ec 01       	movw	r28, r24
    2092:	16 2f       	mov	r17, r22
_ZN5PrintC4Ev():
    2094:	1b 82       	std	Y+3, r1	; 0x03
    2096:	1a 82       	std	Y+2, r1	; 0x02
_ZN6StreamC4Ev():
    2098:	88 ee       	ldi	r24, 0xE8	; 232
    209a:	93 e0       	ldi	r25, 0x03	; 3
    209c:	a0 e0       	ldi	r26, 0x00	; 0
    209e:	b0 e0       	ldi	r27, 0x00	; 0
    20a0:	8c 83       	std	Y+4, r24	; 0x04
    20a2:	9d 83       	std	Y+5, r25	; 0x05
    20a4:	ae 83       	std	Y+6, r26	; 0x06
    20a6:	bf 83       	std	Y+7, r27	; 0x07
_ZN14SoftwareSerialC2Eaab():
    20a8:	81 ea       	ldi	r24, 0xA1	; 161
    20aa:	92 e0       	ldi	r25, 0x02	; 2
    20ac:	99 83       	std	Y+1, r25	; 0x01
    20ae:	88 83       	st	Y, r24
    20b0:	1f 8a       	std	Y+23, r1	; 0x17
    20b2:	1e 8a       	std	Y+22, r1	; 0x16
    20b4:	19 8e       	std	Y+25, r1	; 0x19
    20b6:	18 8e       	std	Y+24, r1	; 0x18
    20b8:	1b 8e       	std	Y+27, r1	; 0x1b
    20ba:	1a 8e       	std	Y+26, r1	; 0x1a
    20bc:	1d 8e       	std	Y+29, r1	; 0x1d
    20be:	1c 8e       	std	Y+28, r1	; 0x1c
    20c0:	8e 8d       	ldd	r24, Y+30	; 0x1e
    20c2:	8e 7f       	andi	r24, 0xFE	; 254
    20c4:	20 fb       	bst	r18, 0
    20c6:	81 f9       	bld	r24, 1
    20c8:	8e 8f       	std	Y+30, r24	; 0x1e
    20ca:	64 2f       	mov	r22, r20
    20cc:	ce 01       	movw	r24, r28
    20ce:	0e 94 f1 0f 	call	0x1fe2	; 0x1fe2 <SoftwareSerial::setTX(signed char)>
    20d2:	61 2f       	mov	r22, r17
    20d4:	ce 01       	movw	r24, r28
    20d6:	df 91       	pop	r29
    20d8:	cf 91       	pop	r28
    20da:	1f 91       	pop	r17
    20dc:	0c 94 1b 10 	jmp	0x2036	; 0x2036 <SoftwareSerial::setRX(signed char)>

000020e0 <SoftwareSerial::begin(long)>:
_ZN14SoftwareSerial5beginEl():
C:\Users\mateu\AppData\Local\Arduino15\packages\MiniCore\hardware\avr\2.0.9\libraries\SoftwareSerial\src/SoftwareSerial.cpp:315
//
// Public methods
//

void SoftwareSerial::begin(long speed)
{ 
    20e0:	cf 93       	push	r28
    20e2:	df 93       	push	r29
    20e4:	ec 01       	movw	r28, r24
    20e6:	9a 01       	movw	r18, r20
    20e8:	ab 01       	movw	r20, r22
C:\Users\mateu\AppData\Local\Arduino15\packages\MiniCore\hardware\avr\2.0.9\libraries\SoftwareSerial\src/SoftwareSerial.cpp:316
  _rx_delay_centering = _rx_delay_intrabit = _rx_delay_stopbit = _tx_delay = 0;
    20ea:	1b 8e       	std	Y+27, r1	; 0x1b
    20ec:	1a 8e       	std	Y+26, r1	; 0x1a
    20ee:	19 8e       	std	Y+25, r1	; 0x19
    20f0:	18 8e       	std	Y+24, r1	; 0x18
    20f2:	1f 8a       	std	Y+23, r1	; 0x17
    20f4:	1e 8a       	std	Y+22, r1	; 0x16
C:\Users\mateu\AppData\Local\Arduino15\packages\MiniCore\hardware\avr\2.0.9\libraries\SoftwareSerial\src/SoftwareSerial.cpp:319

  // Precalculate the various delays, in number of 4-cycle delays
  uint16_t bit_delay = (F_CPU / speed) / 4;
    20f6:	60 e0       	ldi	r22, 0x00	; 0
    20f8:	79 e0       	ldi	r23, 0x09	; 9
    20fa:	8d e3       	ldi	r24, 0x3D	; 61
    20fc:	90 e0       	ldi	r25, 0x00	; 0
    20fe:	0e 94 d8 17 	call	0x2fb0	; 0x2fb0 <__divmodsi4>
    2102:	f9 01       	movw	r30, r18
_ZN14SoftwareSerial12subtract_capEjj():
C:\Users\mateu\AppData\Local\Arduino15\packages\MiniCore\hardware\avr\2.0.9\libraries\SoftwareSerial\src/SoftwareSerial.cpp:305
  _receivePortRegister = portInputRegister(port);
}

uint16_t SoftwareSerial::subtract_cap(uint16_t num, uint16_t sub) {
  if (num > sub)
    return num - sub;
    2104:	c9 01       	movw	r24, r18
    2106:	03 97       	sbiw	r24, 0x03	; 3
C:\Users\mateu\AppData\Local\Arduino15\packages\MiniCore\hardware\avr\2.0.9\libraries\SoftwareSerial\src/SoftwareSerial.cpp:304
  uint8_t port = digitalPinToPort(rx);
  _receivePortRegister = portInputRegister(port);
}

uint16_t SoftwareSerial::subtract_cap(uint16_t num, uint16_t sub) {
  if (num > sub)
    2108:	24 30       	cpi	r18, 0x04	; 4
    210a:	31 05       	cpc	r19, r1
    210c:	10 f4       	brcc	.+4      	; 0x2112 <SoftwareSerial::begin(long)+0x32>
C:\Users\mateu\AppData\Local\Arduino15\packages\MiniCore\hardware\avr\2.0.9\libraries\SoftwareSerial\src/SoftwareSerial.cpp:307
    return num - sub;
  else
    return 1;
    210e:	81 e0       	ldi	r24, 0x01	; 1
    2110:	90 e0       	ldi	r25, 0x00	; 0
_ZN14SoftwareSerial5beginEl():
C:\Users\mateu\AppData\Local\Arduino15\packages\MiniCore\hardware\avr\2.0.9\libraries\SoftwareSerial\src/SoftwareSerial.cpp:326
  // 12 (gcc 4.8.2) or 13 (gcc 4.3.2) cycles from start bit to first bit,
  // 15 (gcc 4.8.2) or 16 (gcc 4.3.2) cycles between bits,
  // 12 (gcc 4.8.2) or 14 (gcc 4.3.2) cycles from last bit to stop bit
  // These are all close enough to just use 15 cycles, since the inter-bit
  // timings are the most critical (deviations stack 8 times)
  _tx_delay = subtract_cap(bit_delay, 15 / 4);
    2112:	9d 8f       	std	Y+29, r25	; 0x1d
    2114:	8c 8f       	std	Y+28, r24	; 0x1c
C:\Users\mateu\AppData\Local\Arduino15\packages\MiniCore\hardware\avr\2.0.9\libraries\SoftwareSerial\src/SoftwareSerial.cpp:330

#if defined(PCINT_ONLY) || defined(INT_AND_PCINT)
  // Only setup rx when we have a valid PCINT for this pin
  if (digitalPinToPCICR(_receivePin)) {
    2116:	6c 85       	ldd	r22, Y+12	; 0x0c
    2118:	6b 31       	cpi	r22, 0x1B	; 27
    211a:	08 f0       	brcs	.+2      	; 0x211e <SoftwareSerial::begin(long)+0x3e>
    211c:	61 c0       	rjmp	.+194    	; 0x21e0 <SoftwareSerial::begin(long)+0x100>
C:\Users\mateu\AppData\Local\Arduino15\packages\MiniCore\hardware\avr\2.0.9\libraries\SoftwareSerial\src/SoftwareSerial.cpp:345
    // are 17 more cycles until the pin value is read (excluding the
    // delay in the loop).
    // We want to have a total delay of 1.5 bit time. Inside the loop,
    // we already wait for 1 bit time - 23 cycles, so here we wait for
    // 0.5 bit time - (71 + 18 - 22) cycles.
    _rx_delay_centering = subtract_cap(bit_delay / 2, (4 + 4 + 75 + 17 - 23) / 4);
    211e:	c9 01       	movw	r24, r18
    2120:	96 95       	lsr	r25
    2122:	87 95       	ror	r24
_ZN14SoftwareSerial12subtract_capEjj():
C:\Users\mateu\AppData\Local\Arduino15\packages\MiniCore\hardware\avr\2.0.9\libraries\SoftwareSerial\src/SoftwareSerial.cpp:304
  uint8_t port = digitalPinToPort(rx);
  _receivePortRegister = portInputRegister(port);
}

uint16_t SoftwareSerial::subtract_cap(uint16_t num, uint16_t sub) {
  if (num > sub)
    2124:	84 31       	cpi	r24, 0x14	; 20
    2126:	91 05       	cpc	r25, r1
    2128:	58 f1       	brcs	.+86     	; 0x2180 <SoftwareSerial::begin(long)+0xa0>
C:\Users\mateu\AppData\Local\Arduino15\packages\MiniCore\hardware\avr\2.0.9\libraries\SoftwareSerial\src/SoftwareSerial.cpp:305
    return num - sub;
    212a:	43 97       	sbiw	r24, 0x13	; 19
_ZN14SoftwareSerial5beginEl():
C:\Users\mateu\AppData\Local\Arduino15\packages\MiniCore\hardware\avr\2.0.9\libraries\SoftwareSerial\src/SoftwareSerial.cpp:345
    // are 17 more cycles until the pin value is read (excluding the
    // delay in the loop).
    // We want to have a total delay of 1.5 bit time. Inside the loop,
    // we already wait for 1 bit time - 23 cycles, so here we wait for
    // 0.5 bit time - (71 + 18 - 22) cycles.
    _rx_delay_centering = subtract_cap(bit_delay / 2, (4 + 4 + 75 + 17 - 23) / 4);
    212c:	9f 8b       	std	Y+23, r25	; 0x17
    212e:	8e 8b       	std	Y+22, r24	; 0x16
_ZN14SoftwareSerial12subtract_capEjj():
C:\Users\mateu\AppData\Local\Arduino15\packages\MiniCore\hardware\avr\2.0.9\libraries\SoftwareSerial\src/SoftwareSerial.cpp:305
  _receivePortRegister = portInputRegister(port);
}

uint16_t SoftwareSerial::subtract_cap(uint16_t num, uint16_t sub) {
  if (num > sub)
    return num - sub;
    2130:	c9 01       	movw	r24, r18
    2132:	05 97       	sbiw	r24, 0x05	; 5
C:\Users\mateu\AppData\Local\Arduino15\packages\MiniCore\hardware\avr\2.0.9\libraries\SoftwareSerial\src/SoftwareSerial.cpp:304
  uint8_t port = digitalPinToPort(rx);
  _receivePortRegister = portInputRegister(port);
}

uint16_t SoftwareSerial::subtract_cap(uint16_t num, uint16_t sub) {
  if (num > sub)
    2134:	36 97       	sbiw	r30, 0x06	; 6
    2136:	10 f4       	brcc	.+4      	; 0x213c <SoftwareSerial::begin(long)+0x5c>
C:\Users\mateu\AppData\Local\Arduino15\packages\MiniCore\hardware\avr\2.0.9\libraries\SoftwareSerial\src/SoftwareSerial.cpp:307
    return num - sub;
  else
    return 1;
    2138:	81 e0       	ldi	r24, 0x01	; 1
    213a:	90 e0       	ldi	r25, 0x00	; 0
_ZN14SoftwareSerial5beginEl():
C:\Users\mateu\AppData\Local\Arduino15\packages\MiniCore\hardware\avr\2.0.9\libraries\SoftwareSerial\src/SoftwareSerial.cpp:348
    // we already wait for 1 bit time - 23 cycles, so here we wait for
    // 0.5 bit time - (71 + 18 - 22) cycles.
    _rx_delay_centering = subtract_cap(bit_delay / 2, (4 + 4 + 75 + 17 - 23) / 4);

    // There are 23 cycles in each loop iteration (excluding the delay)
    _rx_delay_intrabit = subtract_cap(bit_delay, 23 / 4);
    213c:	99 8f       	std	Y+25, r25	; 0x19
    213e:	88 8f       	std	Y+24, r24	; 0x18
C:\Users\mateu\AppData\Local\Arduino15\packages\MiniCore\hardware\avr\2.0.9\libraries\SoftwareSerial\src/SoftwareSerial.cpp:357
    // mask is enabled again (which _must_ happen during the stopbit).
    // This delay aims at 3/4 of a bit time, meaning the end of the
    // delay will be at 1/4th of the stopbit. This allows some extra
    // time for ISR cleanup, which makes 115200 baud at 16Mhz work more
    // reliably
    _rx_delay_stopbit = subtract_cap(bit_delay * 3 / 4, (37 + 11) / 4);
    2140:	c9 01       	movw	r24, r18
    2142:	88 0f       	add	r24, r24
    2144:	99 1f       	adc	r25, r25
    2146:	28 0f       	add	r18, r24
    2148:	39 1f       	adc	r19, r25
    214a:	36 95       	lsr	r19
    214c:	27 95       	ror	r18
    214e:	36 95       	lsr	r19
    2150:	27 95       	ror	r18
_ZN14SoftwareSerial12subtract_capEjj():
C:\Users\mateu\AppData\Local\Arduino15\packages\MiniCore\hardware\avr\2.0.9\libraries\SoftwareSerial\src/SoftwareSerial.cpp:304
  uint8_t port = digitalPinToPort(rx);
  _receivePortRegister = portInputRegister(port);
}

uint16_t SoftwareSerial::subtract_cap(uint16_t num, uint16_t sub) {
  if (num > sub)
    2152:	2d 30       	cpi	r18, 0x0D	; 13
    2154:	31 05       	cpc	r19, r1
    2156:	b8 f0       	brcs	.+46     	; 0x2186 <SoftwareSerial::begin(long)+0xa6>
C:\Users\mateu\AppData\Local\Arduino15\packages\MiniCore\hardware\avr\2.0.9\libraries\SoftwareSerial\src/SoftwareSerial.cpp:305
    return num - sub;
    2158:	2c 50       	subi	r18, 0x0C	; 12
    215a:	31 09       	sbc	r19, r1
_ZN14SoftwareSerial5beginEl():
C:\Users\mateu\AppData\Local\Arduino15\packages\MiniCore\hardware\avr\2.0.9\libraries\SoftwareSerial\src/SoftwareSerial.cpp:357
    // mask is enabled again (which _must_ happen during the stopbit).
    // This delay aims at 3/4 of a bit time, meaning the end of the
    // delay will be at 1/4th of the stopbit. This allows some extra
    // time for ISR cleanup, which makes 115200 baud at 16Mhz work more
    // reliably
    _rx_delay_stopbit = subtract_cap(bit_delay * 3 / 4, (37 + 11) / 4);
    215c:	3b 8f       	std	Y+27, r19	; 0x1b
    215e:	2a 8f       	std	Y+26, r18	; 0x1a
C:\Users\mateu\AppData\Local\Arduino15\packages\MiniCore\hardware\avr\2.0.9\libraries\SoftwareSerial\src/SoftwareSerial.cpp:371


    // Enable the PCINT for the entire port here, but never disable it
    // (others might also need it, so we disable the interrupt by using
    // the per-pin PCMSK register).
    *digitalPinToPCICR(_receivePin) |= _BV(digitalPinToPCICRbit(_receivePin));
    2160:	90 91 68 00 	lds	r25, 0x0068	; 0x800068 <__TEXT_REGION_LENGTH__+0x7f8068>
    2164:	84 e0       	ldi	r24, 0x04	; 4
    2166:	68 30       	cpi	r22, 0x08	; 8
    2168:	94 f0       	brlt	.+36     	; 0x218e <SoftwareSerial::begin(long)+0xae>
C:\Users\mateu\AppData\Local\Arduino15\packages\MiniCore\hardware\avr\2.0.9\libraries\SoftwareSerial\src/SoftwareSerial.cpp:371 (discriminator 5)
    216a:	6e 30       	cpi	r22, 0x0E	; 14
    216c:	7c f0       	brlt	.+30     	; 0x218c <SoftwareSerial::begin(long)+0xac>
C:\Users\mateu\AppData\Local\Arduino15\packages\MiniCore\hardware\avr\2.0.9\libraries\SoftwareSerial\src/SoftwareSerial.cpp:371 (discriminator 7)
    216e:	8c ee       	ldi	r24, 0xEC	; 236
    2170:	86 0f       	add	r24, r22
    2172:	82 30       	cpi	r24, 0x02	; 2
    2174:	58 f0       	brcs	.+22     	; 0x218c <SoftwareSerial::begin(long)+0xac>
C:\Users\mateu\AppData\Local\Arduino15\packages\MiniCore\hardware\avr\2.0.9\libraries\SoftwareSerial\src/SoftwareSerial.cpp:371 (discriminator 11)
    2176:	82 e0       	ldi	r24, 0x02	; 2
    2178:	67 31       	cpi	r22, 0x17	; 23
    217a:	4c f0       	brlt	.+18     	; 0x218e <SoftwareSerial::begin(long)+0xae>
C:\Users\mateu\AppData\Local\Arduino15\packages\MiniCore\hardware\avr\2.0.9\libraries\SoftwareSerial\src/SoftwareSerial.cpp:371
    217c:	88 e0       	ldi	r24, 0x08	; 8
    217e:	07 c0       	rjmp	.+14     	; 0x218e <SoftwareSerial::begin(long)+0xae>
_ZN14SoftwareSerial12subtract_capEjj():
C:\Users\mateu\AppData\Local\Arduino15\packages\MiniCore\hardware\avr\2.0.9\libraries\SoftwareSerial\src/SoftwareSerial.cpp:307

uint16_t SoftwareSerial::subtract_cap(uint16_t num, uint16_t sub) {
  if (num > sub)
    return num - sub;
  else
    return 1;
    2180:	81 e0       	ldi	r24, 0x01	; 1
    2182:	90 e0       	ldi	r25, 0x00	; 0
    2184:	d3 cf       	rjmp	.-90     	; 0x212c <SoftwareSerial::begin(long)+0x4c>
    2186:	21 e0       	ldi	r18, 0x01	; 1
    2188:	30 e0       	ldi	r19, 0x00	; 0
    218a:	e8 cf       	rjmp	.-48     	; 0x215c <SoftwareSerial::begin(long)+0x7c>
_ZN14SoftwareSerial5beginEl():
C:\Users\mateu\AppData\Local\Arduino15\packages\MiniCore\hardware\avr\2.0.9\libraries\SoftwareSerial\src/SoftwareSerial.cpp:371


    // Enable the PCINT for the entire port here, but never disable it
    // (others might also need it, so we disable the interrupt by using
    // the per-pin PCMSK register).
    *digitalPinToPCICR(_receivePin) |= _BV(digitalPinToPCICRbit(_receivePin));
    218c:	81 e0       	ldi	r24, 0x01	; 1
C:\Users\mateu\AppData\Local\Arduino15\packages\MiniCore\hardware\avr\2.0.9\libraries\SoftwareSerial\src/SoftwareSerial.cpp:371 (discriminator 20)
    218e:	89 2b       	or	r24, r25
    2190:	80 93 68 00 	sts	0x0068, r24	; 0x800068 <__TEXT_REGION_LENGTH__+0x7f8068>
C:\Users\mateu\AppData\Local\Arduino15\packages\MiniCore\hardware\avr\2.0.9\libraries\SoftwareSerial\src/SoftwareSerial.cpp:374 (discriminator 20)
    // Precalculate the pcint mask register and value, so setRxIntMask
    // can be used inside the ISR without costing too much time.
    _pcint_maskreg = digitalPinToPCMSK(_receivePin);
    2194:	9c 85       	ldd	r25, Y+12	; 0x0c
    2196:	2d e6       	ldi	r18, 0x6D	; 109
    2198:	30 e0       	ldi	r19, 0x00	; 0
    219a:	98 30       	cpi	r25, 0x08	; 8
    219c:	9c f0       	brlt	.+38     	; 0x21c4 <SoftwareSerial::begin(long)+0xe4>
C:\Users\mateu\AppData\Local\Arduino15\packages\MiniCore\hardware\avr\2.0.9\libraries\SoftwareSerial\src/SoftwareSerial.cpp:374 (discriminator 1)
    219e:	9e 30       	cpi	r25, 0x0E	; 14
    21a0:	7c f0       	brlt	.+30     	; 0x21c0 <SoftwareSerial::begin(long)+0xe0>
C:\Users\mateu\AppData\Local\Arduino15\packages\MiniCore\hardware\avr\2.0.9\libraries\SoftwareSerial\src/SoftwareSerial.cpp:374 (discriminator 3)
    21a2:	8c ee       	ldi	r24, 0xEC	; 236
    21a4:	89 0f       	add	r24, r25
    21a6:	82 30       	cpi	r24, 0x02	; 2
    21a8:	58 f0       	brcs	.+22     	; 0x21c0 <SoftwareSerial::begin(long)+0xe0>
C:\Users\mateu\AppData\Local\Arduino15\packages\MiniCore\hardware\avr\2.0.9\libraries\SoftwareSerial\src/SoftwareSerial.cpp:374 (discriminator 7)
    21aa:	2c e6       	ldi	r18, 0x6C	; 108
    21ac:	30 e0       	ldi	r19, 0x00	; 0
    21ae:	97 31       	cpi	r25, 0x17	; 23
    21b0:	4c f0       	brlt	.+18     	; 0x21c4 <SoftwareSerial::begin(long)+0xe4>
C:\Users\mateu\AppData\Local\Arduino15\packages\MiniCore\hardware\avr\2.0.9\libraries\SoftwareSerial\src/SoftwareSerial.cpp:374 (discriminator 9)
    21b2:	23 e7       	ldi	r18, 0x73	; 115
    21b4:	30 e0       	ldi	r19, 0x00	; 0
    21b6:	9b 31       	cpi	r25, 0x1B	; 27
    21b8:	2c f0       	brlt	.+10     	; 0x21c4 <SoftwareSerial::begin(long)+0xe4>
C:\Users\mateu\AppData\Local\Arduino15\packages\MiniCore\hardware\avr\2.0.9\libraries\SoftwareSerial\src/SoftwareSerial.cpp:374
    21ba:	30 e0       	ldi	r19, 0x00	; 0
    21bc:	20 e0       	ldi	r18, 0x00	; 0
    21be:	02 c0       	rjmp	.+4      	; 0x21c4 <SoftwareSerial::begin(long)+0xe4>
    21c0:	2b e6       	ldi	r18, 0x6B	; 107
    21c2:	30 e0       	ldi	r19, 0x00	; 0
C:\Users\mateu\AppData\Local\Arduino15\packages\MiniCore\hardware\avr\2.0.9\libraries\SoftwareSerial\src/SoftwareSerial.cpp:374 (discriminator 20)
    21c4:	3c 8b       	std	Y+20, r19	; 0x14
    21c6:	2b 8b       	std	Y+19, r18	; 0x13
C:\Users\mateu\AppData\Local\Arduino15\packages\MiniCore\hardware\avr\2.0.9\libraries\SoftwareSerial\src/SoftwareSerial.cpp:375 (discriminator 20)
    _pcint_maskvalue = _BV(digitalPinToPCMSKbit(_receivePin));
    21c8:	98 30       	cpi	r25, 0x08	; 8
    21ca:	7c f4       	brge	.+30     	; 0x21ea <SoftwareSerial::begin(long)+0x10a>
C:\Users\mateu\AppData\Local\Arduino15\packages\MiniCore\hardware\avr\2.0.9\libraries\SoftwareSerial\src/SoftwareSerial.cpp:375 (discriminator 11)
    21cc:	81 e0       	ldi	r24, 0x01	; 1
    21ce:	01 c0       	rjmp	.+2      	; 0x21d2 <SoftwareSerial::begin(long)+0xf2>
    21d0:	88 0f       	add	r24, r24
    21d2:	9a 95       	dec	r25
    21d4:	ea f7       	brpl	.-6      	; 0x21d0 <SoftwareSerial::begin(long)+0xf0>
C:\Users\mateu\AppData\Local\Arduino15\packages\MiniCore\hardware\avr\2.0.9\libraries\SoftwareSerial\src/SoftwareSerial.cpp:375 (discriminator 16)
    21d6:	8d 8b       	std	Y+21, r24	; 0x15
_delay_loop_2():
c:\users\mateu\appdata\local\arduino15\packages\arduino\tools\avr-gcc\7.3.0-atmel3.6.1-arduino7\avr\include\util/delay_basic.h:110 (discriminator 16)
	__asm__ volatile (
		"1: sbiw %0,1" "\n\t"
		"brne 1b"
		: "=w" (__count)
		: "0" (__count)
	);
    21d8:	8c 8d       	ldd	r24, Y+28	; 0x1c
    21da:	9d 8d       	ldd	r25, Y+29	; 0x1d
    21dc:	01 97       	sbiw	r24, 0x01	; 1
    21de:	f1 f7       	brne	.-4      	; 0x21dc <SoftwareSerial::begin(long)+0xfc>
_ZN14SoftwareSerial5beginEl():
C:\Users\mateu\AppData\Local\Arduino15\packages\MiniCore\hardware\avr\2.0.9\libraries\SoftwareSerial\src/SoftwareSerial.cpp:434
#if _DEBUG
  pinMode(_DEBUG_PIN1, OUTPUT);
  pinMode(_DEBUG_PIN2, OUTPUT);
#endif

  listen();
    21e0:	ce 01       	movw	r24, r28
C:\Users\mateu\AppData\Local\Arduino15\packages\MiniCore\hardware\avr\2.0.9\libraries\SoftwareSerial\src/SoftwareSerial.cpp:435
}
    21e2:	df 91       	pop	r29
    21e4:	cf 91       	pop	r28
C:\Users\mateu\AppData\Local\Arduino15\packages\MiniCore\hardware\avr\2.0.9\libraries\SoftwareSerial\src/SoftwareSerial.cpp:434
#if _DEBUG
  pinMode(_DEBUG_PIN1, OUTPUT);
  pinMode(_DEBUG_PIN2, OUTPUT);
#endif

  listen();
    21e6:	0c 94 49 0f 	jmp	0x1e92	; 0x1e92 <SoftwareSerial::listen()>
C:\Users\mateu\AppData\Local\Arduino15\packages\MiniCore\hardware\avr\2.0.9\libraries\SoftwareSerial\src/SoftwareSerial.cpp:375 (discriminator 2)
    // the per-pin PCMSK register).
    *digitalPinToPCICR(_receivePin) |= _BV(digitalPinToPCICRbit(_receivePin));
    // Precalculate the pcint mask register and value, so setRxIntMask
    // can be used inside the ISR without costing too much time.
    _pcint_maskreg = digitalPinToPCMSK(_receivePin);
    _pcint_maskvalue = _BV(digitalPinToPCMSKbit(_receivePin));
    21ea:	9e 30       	cpi	r25, 0x0E	; 14
    21ec:	14 f4       	brge	.+4      	; 0x21f2 <SoftwareSerial::begin(long)+0x112>
C:\Users\mateu\AppData\Local\Arduino15\packages\MiniCore\hardware\avr\2.0.9\libraries\SoftwareSerial\src/SoftwareSerial.cpp:375 (discriminator 4)
    21ee:	98 50       	subi	r25, 0x08	; 8
    21f0:	ed cf       	rjmp	.-38     	; 0x21cc <SoftwareSerial::begin(long)+0xec>
C:\Users\mateu\AppData\Local\Arduino15\packages\MiniCore\hardware\avr\2.0.9\libraries\SoftwareSerial\src/SoftwareSerial.cpp:375 (discriminator 5)
    21f2:	96 31       	cpi	r25, 0x16	; 22
    21f4:	14 f4       	brge	.+4      	; 0x21fa <SoftwareSerial::begin(long)+0x11a>
C:\Users\mateu\AppData\Local\Arduino15\packages\MiniCore\hardware\avr\2.0.9\libraries\SoftwareSerial\src/SoftwareSerial.cpp:375 (discriminator 7)
    21f6:	9e 50       	subi	r25, 0x0E	; 14
    21f8:	e9 cf       	rjmp	.-46     	; 0x21cc <SoftwareSerial::begin(long)+0xec>
C:\Users\mateu\AppData\Local\Arduino15\packages\MiniCore\hardware\avr\2.0.9\libraries\SoftwareSerial\src/SoftwareSerial.cpp:375 (discriminator 8)
    21fa:	80 e4       	ldi	r24, 0x40	; 64
    21fc:	96 31       	cpi	r25, 0x16	; 22
    21fe:	59 f3       	breq	.-42     	; 0x21d6 <SoftwareSerial::begin(long)+0xf6>
C:\Users\mateu\AppData\Local\Arduino15\packages\MiniCore\hardware\avr\2.0.9\libraries\SoftwareSerial\src/SoftwareSerial.cpp:375 (discriminator 11)
    2200:	97 51       	subi	r25, 0x17	; 23
    2202:	e4 cf       	rjmp	.-56     	; 0x21cc <SoftwareSerial::begin(long)+0xec>

00002204 <SoftwareSerial::end()>:
_ZN14SoftwareSerial3endEv():
C:\Users\mateu\AppData\Local\Arduino15\packages\MiniCore\hardware\avr\2.0.9\libraries\SoftwareSerial\src/SoftwareSerial.cpp:447
      *_pcint_maskreg &= ~_pcint_maskvalue;
}

void SoftwareSerial::end()
{
  stopListening();
    2204:	0c 94 33 0f 	jmp	0x1e66	; 0x1e66 <SoftwareSerial::stopListening()>

00002208 <HardwareSerial::available()>:
_ZN14HardwareSerial9availableEv():
C:\Users\mateu\AppData\Local\Arduino15\packages\MiniCore\hardware\avr\2.0.9\cores\MCUdude_corefiles/HardwareSerial.cpp:150
  // clear any received data
  _rx_buffer_head = _rx_buffer_tail;
}

int HardwareSerial::available(void)
{
    2208:	fc 01       	movw	r30, r24
C:\Users\mateu\AppData\Local\Arduino15\packages\MiniCore\hardware\avr\2.0.9\cores\MCUdude_corefiles/HardwareSerial.cpp:151
  return ((unsigned int)(SERIAL_RX_BUFFER_SIZE + _rx_buffer_head - _rx_buffer_tail)) % SERIAL_RX_BUFFER_SIZE;
    220a:	91 8d       	ldd	r25, Z+25	; 0x19
    220c:	22 8d       	ldd	r18, Z+26	; 0x1a
    220e:	89 2f       	mov	r24, r25
    2210:	90 e0       	ldi	r25, 0x00	; 0
    2212:	80 5c       	subi	r24, 0xC0	; 192
    2214:	9f 4f       	sbci	r25, 0xFF	; 255
    2216:	82 1b       	sub	r24, r18
    2218:	91 09       	sbc	r25, r1
C:\Users\mateu\AppData\Local\Arduino15\packages\MiniCore\hardware\avr\2.0.9\cores\MCUdude_corefiles/HardwareSerial.cpp:152
}
    221a:	8f 73       	andi	r24, 0x3F	; 63
    221c:	99 27       	eor	r25, r25
    221e:	08 95       	ret

00002220 <HardwareSerial::peek()>:
_ZN14HardwareSerial4peekEv():
C:\Users\mateu\AppData\Local\Arduino15\packages\MiniCore\hardware\avr\2.0.9\cores\MCUdude_corefiles/HardwareSerial.cpp:155

int HardwareSerial::peek(void)
{
    2220:	fc 01       	movw	r30, r24
C:\Users\mateu\AppData\Local\Arduino15\packages\MiniCore\hardware\avr\2.0.9\cores\MCUdude_corefiles/HardwareSerial.cpp:156
  if (_rx_buffer_head == _rx_buffer_tail) {
    2222:	91 8d       	ldd	r25, Z+25	; 0x19
    2224:	82 8d       	ldd	r24, Z+26	; 0x1a
    2226:	98 17       	cp	r25, r24
    2228:	31 f0       	breq	.+12     	; 0x2236 <HardwareSerial::peek()+0x16>
C:\Users\mateu\AppData\Local\Arduino15\packages\MiniCore\hardware\avr\2.0.9\cores\MCUdude_corefiles/HardwareSerial.cpp:159
    return -1;
  } else {
    return _rx_buffer[_rx_buffer_tail];
    222a:	82 8d       	ldd	r24, Z+26	; 0x1a
    222c:	e8 0f       	add	r30, r24
    222e:	f1 1d       	adc	r31, r1
    2230:	85 8d       	ldd	r24, Z+29	; 0x1d
    2232:	90 e0       	ldi	r25, 0x00	; 0
    2234:	08 95       	ret
C:\Users\mateu\AppData\Local\Arduino15\packages\MiniCore\hardware\avr\2.0.9\cores\MCUdude_corefiles/HardwareSerial.cpp:157
}

int HardwareSerial::peek(void)
{
  if (_rx_buffer_head == _rx_buffer_tail) {
    return -1;
    2236:	8f ef       	ldi	r24, 0xFF	; 255
    2238:	9f ef       	ldi	r25, 0xFF	; 255
C:\Users\mateu\AppData\Local\Arduino15\packages\MiniCore\hardware\avr\2.0.9\cores\MCUdude_corefiles/HardwareSerial.cpp:161
  } else {
    return _rx_buffer[_rx_buffer_tail];
  }
}
    223a:	08 95       	ret

0000223c <HardwareSerial::read()>:
_ZN14HardwareSerial4readEv():
C:\Users\mateu\AppData\Local\Arduino15\packages\MiniCore\hardware\avr\2.0.9\cores\MCUdude_corefiles/HardwareSerial.cpp:164

int HardwareSerial::read(void)
{
    223c:	fc 01       	movw	r30, r24
C:\Users\mateu\AppData\Local\Arduino15\packages\MiniCore\hardware\avr\2.0.9\cores\MCUdude_corefiles/HardwareSerial.cpp:166
  // if the head isn't ahead of the tail, we don't have any characters
  if (_rx_buffer_head == _rx_buffer_tail) {
    223e:	91 8d       	ldd	r25, Z+25	; 0x19
    2240:	82 8d       	ldd	r24, Z+26	; 0x1a
    2242:	98 17       	cp	r25, r24
    2244:	61 f0       	breq	.+24     	; 0x225e <HardwareSerial::read()+0x22>
C:\Users\mateu\AppData\Local\Arduino15\packages\MiniCore\hardware\avr\2.0.9\cores\MCUdude_corefiles/HardwareSerial.cpp:169
    return -1;
  } else {
    unsigned char c = _rx_buffer[_rx_buffer_tail];
    2246:	a2 8d       	ldd	r26, Z+26	; 0x1a
    2248:	ae 0f       	add	r26, r30
    224a:	bf 2f       	mov	r27, r31
    224c:	b1 1d       	adc	r27, r1
    224e:	5d 96       	adiw	r26, 0x1d	; 29
    2250:	8c 91       	ld	r24, X
C:\Users\mateu\AppData\Local\Arduino15\packages\MiniCore\hardware\avr\2.0.9\cores\MCUdude_corefiles/HardwareSerial.cpp:170
    _rx_buffer_tail = (rx_buffer_index_t)(_rx_buffer_tail + 1) % SERIAL_RX_BUFFER_SIZE;
    2252:	92 8d       	ldd	r25, Z+26	; 0x1a
    2254:	9f 5f       	subi	r25, 0xFF	; 255
    2256:	9f 73       	andi	r25, 0x3F	; 63
    2258:	92 8f       	std	Z+26, r25	; 0x1a
C:\Users\mateu\AppData\Local\Arduino15\packages\MiniCore\hardware\avr\2.0.9\cores\MCUdude_corefiles/HardwareSerial.cpp:171
    return c;
    225a:	90 e0       	ldi	r25, 0x00	; 0
    225c:	08 95       	ret
C:\Users\mateu\AppData\Local\Arduino15\packages\MiniCore\hardware\avr\2.0.9\cores\MCUdude_corefiles/HardwareSerial.cpp:167

int HardwareSerial::read(void)
{
  // if the head isn't ahead of the tail, we don't have any characters
  if (_rx_buffer_head == _rx_buffer_tail) {
    return -1;
    225e:	8f ef       	ldi	r24, 0xFF	; 255
    2260:	9f ef       	ldi	r25, 0xFF	; 255
C:\Users\mateu\AppData\Local\Arduino15\packages\MiniCore\hardware\avr\2.0.9\cores\MCUdude_corefiles/HardwareSerial.cpp:173
  } else {
    unsigned char c = _rx_buffer[_rx_buffer_tail];
    _rx_buffer_tail = (rx_buffer_index_t)(_rx_buffer_tail + 1) % SERIAL_RX_BUFFER_SIZE;
    return c;
  }
}
    2262:	08 95       	ret

00002264 <HardwareSerial::availableForWrite()>:
_ZN14HardwareSerial17availableForWriteEv():
C:\Users\mateu\AppData\Local\Arduino15\packages\MiniCore\hardware\avr\2.0.9\cores\MCUdude_corefiles/HardwareSerial.cpp:181
{
#if (SERIAL_TX_BUFFER_SIZE>256)
  uint8_t oldSREG = SREG;
  cli();
#endif
  tx_buffer_index_t head = _tx_buffer_head;
    2264:	fc 01       	movw	r30, r24
    2266:	53 8d       	ldd	r21, Z+27	; 0x1b
C:\Users\mateu\AppData\Local\Arduino15\packages\MiniCore\hardware\avr\2.0.9\cores\MCUdude_corefiles/HardwareSerial.cpp:182
  tx_buffer_index_t tail = _tx_buffer_tail;
    2268:	44 8d       	ldd	r20, Z+28	; 0x1c
    226a:	25 2f       	mov	r18, r21
    226c:	30 e0       	ldi	r19, 0x00	; 0
    226e:	84 2f       	mov	r24, r20
    2270:	90 e0       	ldi	r25, 0x00	; 0
C:\Users\mateu\AppData\Local\Arduino15\packages\MiniCore\hardware\avr\2.0.9\cores\MCUdude_corefiles/HardwareSerial.cpp:186
#if (SERIAL_TX_BUFFER_SIZE>256)
  SREG = oldSREG;
#endif
  if (head >= tail) return SERIAL_TX_BUFFER_SIZE - 1 - head + tail;
    2272:	82 1b       	sub	r24, r18
    2274:	93 0b       	sbc	r25, r19
    2276:	54 17       	cp	r21, r20
    2278:	10 f0       	brcs	.+4      	; 0x227e <HardwareSerial::availableForWrite()+0x1a>
C:\Users\mateu\AppData\Local\Arduino15\packages\MiniCore\hardware\avr\2.0.9\cores\MCUdude_corefiles/HardwareSerial.cpp:186 (discriminator 1)
    227a:	cf 96       	adiw	r24, 0x3f	; 63
    227c:	08 95       	ret
C:\Users\mateu\AppData\Local\Arduino15\packages\MiniCore\hardware\avr\2.0.9\cores\MCUdude_corefiles/HardwareSerial.cpp:187
  return tail - head - 1;
    227e:	01 97       	sbiw	r24, 0x01	; 1
C:\Users\mateu\AppData\Local\Arduino15\packages\MiniCore\hardware\avr\2.0.9\cores\MCUdude_corefiles/HardwareSerial.cpp:188
}
    2280:	08 95       	ret

00002282 <serialEventRun()>:
_Z14serialEventRunv():
C:\Users\mateu\AppData\Local\Arduino15\packages\MiniCore\hardware\avr\2.0.9\cores\MCUdude_corefiles/HardwareSerial.cpp:66
#endif

void serialEventRun(void)
{
#if defined(HAVE_HWSERIAL0)
  if (Serial0_available && serialEvent && Serial0_available()) serialEvent();
    2282:	84 e9       	ldi	r24, 0x94	; 148
    2284:	92 e1       	ldi	r25, 0x12	; 18
    2286:	89 2b       	or	r24, r25
    2288:	49 f0       	breq	.+18     	; 0x229c <serialEventRun()+0x1a>
C:\Users\mateu\AppData\Local\Arduino15\packages\MiniCore\hardware\avr\2.0.9\cores\MCUdude_corefiles/HardwareSerial.cpp:66 (discriminator 1)
    228a:	80 e0       	ldi	r24, 0x00	; 0
    228c:	90 e0       	ldi	r25, 0x00	; 0
    228e:	89 2b       	or	r24, r25
    2290:	29 f0       	breq	.+10     	; 0x229c <serialEventRun()+0x1a>
C:\Users\mateu\AppData\Local\Arduino15\packages\MiniCore\hardware\avr\2.0.9\cores\MCUdude_corefiles/HardwareSerial.cpp:66 (discriminator 3)
    2292:	0e 94 94 12 	call	0x2528	; 0x2528 <Serial0_available()>
    2296:	81 11       	cpse	r24, r1
C:\Users\mateu\AppData\Local\Arduino15\packages\MiniCore\hardware\avr\2.0.9\cores\MCUdude_corefiles/HardwareSerial.cpp:66
    2298:	0e 94 00 00 	call	0	; 0x0 <__vectors>
C:\Users\mateu\AppData\Local\Arduino15\packages\MiniCore\hardware\avr\2.0.9\cores\MCUdude_corefiles/HardwareSerial.cpp:69
#endif
#if defined(HAVE_HWSERIAL1)
  if (Serial1_available && serialEvent1 && Serial1_available()) serialEvent1();
    229c:	80 e0       	ldi	r24, 0x00	; 0
    229e:	90 e0       	ldi	r25, 0x00	; 0
    22a0:	89 2b       	or	r24, r25
    22a2:	49 f0       	breq	.+18     	; 0x22b6 <serialEventRun()+0x34>
C:\Users\mateu\AppData\Local\Arduino15\packages\MiniCore\hardware\avr\2.0.9\cores\MCUdude_corefiles/HardwareSerial.cpp:69 (discriminator 1)
    22a4:	80 e0       	ldi	r24, 0x00	; 0
    22a6:	90 e0       	ldi	r25, 0x00	; 0
    22a8:	89 2b       	or	r24, r25
    22aa:	29 f0       	breq	.+10     	; 0x22b6 <serialEventRun()+0x34>
C:\Users\mateu\AppData\Local\Arduino15\packages\MiniCore\hardware\avr\2.0.9\cores\MCUdude_corefiles/HardwareSerial.cpp:69 (discriminator 3)
    22ac:	0e 94 00 00 	call	0	; 0x0 <__vectors>
    22b0:	81 11       	cpse	r24, r1
C:\Users\mateu\AppData\Local\Arduino15\packages\MiniCore\hardware\avr\2.0.9\cores\MCUdude_corefiles/HardwareSerial.cpp:69
    22b2:	0c 94 00 00 	jmp	0	; 0x0 <__vectors>
C:\Users\mateu\AppData\Local\Arduino15\packages\MiniCore\hardware\avr\2.0.9\cores\MCUdude_corefiles/HardwareSerial.cpp:77
  if (Serial2_available && serialEvent2 && Serial2_available()) serialEvent2();
#endif
#if defined(HAVE_HWSERIAL3)
  if (Serial3_available && serialEvent3 && Serial3_available()) serialEvent3();
#endif
}
    22b6:	08 95       	ret

000022b8 <HardwareSerial::_tx_udr_empty_irq()>:
_ZN14HardwareSerial17_tx_udr_empty_irqEv():
C:\Users\mateu\AppData\Local\Arduino15\packages\MiniCore\hardware\avr\2.0.9\cores\MCUdude_corefiles/HardwareSerial.cpp:82

// Actual interrupt handlers //////////////////////////////////////////////////////////////

void HardwareSerial::_tx_udr_empty_irq(void)
{
    22b8:	fc 01       	movw	r30, r24
C:\Users\mateu\AppData\Local\Arduino15\packages\MiniCore\hardware\avr\2.0.9\cores\MCUdude_corefiles/HardwareSerial.cpp:85
  // If interrupts are enabled, there must be more data in the output
  // buffer. Send the next byte
  unsigned char c = _tx_buffer[_tx_buffer_tail];
    22ba:	a4 8d       	ldd	r26, Z+28	; 0x1c
    22bc:	a8 0f       	add	r26, r24
    22be:	b9 2f       	mov	r27, r25
    22c0:	b1 1d       	adc	r27, r1
    22c2:	a3 5a       	subi	r26, 0xA3	; 163
    22c4:	bf 4f       	sbci	r27, 0xFF	; 255
    22c6:	2c 91       	ld	r18, X
C:\Users\mateu\AppData\Local\Arduino15\packages\MiniCore\hardware\avr\2.0.9\cores\MCUdude_corefiles/HardwareSerial.cpp:86
  _tx_buffer_tail = (_tx_buffer_tail + 1) % SERIAL_TX_BUFFER_SIZE;
    22c8:	84 8d       	ldd	r24, Z+28	; 0x1c
    22ca:	90 e0       	ldi	r25, 0x00	; 0
    22cc:	01 96       	adiw	r24, 0x01	; 1
    22ce:	8f 73       	andi	r24, 0x3F	; 63
    22d0:	99 27       	eor	r25, r25
    22d2:	84 8f       	std	Z+28, r24	; 0x1c
C:\Users\mateu\AppData\Local\Arduino15\packages\MiniCore\hardware\avr\2.0.9\cores\MCUdude_corefiles/HardwareSerial.cpp:88

  *_udr = c;
    22d4:	a6 89       	ldd	r26, Z+22	; 0x16
    22d6:	b7 89       	ldd	r27, Z+23	; 0x17
    22d8:	2c 93       	st	X, r18
C:\Users\mateu\AppData\Local\Arduino15\packages\MiniCore\hardware\avr\2.0.9\cores\MCUdude_corefiles/HardwareSerial.cpp:93

  // clear the TXC bit -- "can be cleared by writing a one to its bit
  // location". This makes sure flush() won't return until the bytes
  // actually got written
  *_ucsra |= _BV(TXC0);
    22da:	a0 89       	ldd	r26, Z+16	; 0x10
    22dc:	b1 89       	ldd	r27, Z+17	; 0x11
    22de:	8c 91       	ld	r24, X
    22e0:	80 64       	ori	r24, 0x40	; 64
    22e2:	8c 93       	st	X, r24
C:\Users\mateu\AppData\Local\Arduino15\packages\MiniCore\hardware\avr\2.0.9\cores\MCUdude_corefiles/HardwareSerial.cpp:95

  if (_tx_buffer_head == _tx_buffer_tail) {
    22e4:	93 8d       	ldd	r25, Z+27	; 0x1b
    22e6:	84 8d       	ldd	r24, Z+28	; 0x1c
    22e8:	98 13       	cpse	r25, r24
    22ea:	06 c0       	rjmp	.+12     	; 0x22f8 <HardwareSerial::_tx_udr_empty_irq()+0x40>
C:\Users\mateu\AppData\Local\Arduino15\packages\MiniCore\hardware\avr\2.0.9\cores\MCUdude_corefiles/HardwareSerial.cpp:97
    // Buffer empty, so disable interrupts
    *_ucsrb &= ~_BV(UDRIE0);
    22ec:	02 88       	ldd	r0, Z+18	; 0x12
    22ee:	f3 89       	ldd	r31, Z+19	; 0x13
    22f0:	e0 2d       	mov	r30, r0
    22f2:	80 81       	ld	r24, Z
    22f4:	8f 7d       	andi	r24, 0xDF	; 223
    22f6:	80 83       	st	Z, r24
C:\Users\mateu\AppData\Local\Arduino15\packages\MiniCore\hardware\avr\2.0.9\cores\MCUdude_corefiles/HardwareSerial.cpp:99
  }
}
    22f8:	08 95       	ret

000022fa <HardwareSerial::flush()>:
_ZN14HardwareSerial5flushEv():
C:\Users\mateu\AppData\Local\Arduino15\packages\MiniCore\hardware\avr\2.0.9\cores\MCUdude_corefiles/HardwareSerial.cpp:191
  if (head >= tail) return SERIAL_TX_BUFFER_SIZE - 1 - head + tail;
  return tail - head - 1;
}

void HardwareSerial::flush()
{
    22fa:	cf 93       	push	r28
    22fc:	df 93       	push	r29
    22fe:	ec 01       	movw	r28, r24
C:\Users\mateu\AppData\Local\Arduino15\packages\MiniCore\hardware\avr\2.0.9\cores\MCUdude_corefiles/HardwareSerial.cpp:195
  // If we have never written a byte, no need to flush. This special
  // case is needed since there is no way to force the TXC (transmit
  // complete) bit to 1 during initialization
  if (!_written)
    2300:	88 8d       	ldd	r24, Y+24	; 0x18
    2302:	88 23       	and	r24, r24
    2304:	b9 f0       	breq	.+46     	; 0x2334 <HardwareSerial::flush()+0x3a>
C:\Users\mateu\AppData\Local\Arduino15\packages\MiniCore\hardware\avr\2.0.9\cores\MCUdude_corefiles/HardwareSerial.cpp:198
    return;

  while (bit_is_set(*_ucsrb, UDRIE0) || bit_is_clear(*_ucsra, TXC0)) {
    2306:	aa 89       	ldd	r26, Y+18	; 0x12
    2308:	bb 89       	ldd	r27, Y+19	; 0x13
    230a:	e8 89       	ldd	r30, Y+16	; 0x10
    230c:	f9 89       	ldd	r31, Y+17	; 0x11
    230e:	8c 91       	ld	r24, X
    2310:	85 fd       	sbrc	r24, 5
    2312:	03 c0       	rjmp	.+6      	; 0x231a <HardwareSerial::flush()+0x20>
    2314:	80 81       	ld	r24, Z
    2316:	86 fd       	sbrc	r24, 6
    2318:	0d c0       	rjmp	.+26     	; 0x2334 <HardwareSerial::flush()+0x3a>
C:\Users\mateu\AppData\Local\Arduino15\packages\MiniCore\hardware\avr\2.0.9\cores\MCUdude_corefiles/HardwareSerial.cpp:199
    if (bit_is_clear(SREG, SREG_I) && bit_is_set(*_ucsrb, UDRIE0))
    231a:	0f b6       	in	r0, 0x3f	; 63
    231c:	07 fc       	sbrc	r0, 7
    231e:	f7 cf       	rjmp	.-18     	; 0x230e <HardwareSerial::flush()+0x14>
    2320:	8c 91       	ld	r24, X
    2322:	85 ff       	sbrs	r24, 5
    2324:	f2 cf       	rjmp	.-28     	; 0x230a <HardwareSerial::flush()+0x10>
C:\Users\mateu\AppData\Local\Arduino15\packages\MiniCore\hardware\avr\2.0.9\cores\MCUdude_corefiles/HardwareSerial.cpp:203
      // Interrupts are globally disabled, but the DR empty
      // interrupt should be enabled, so poll the DR empty flag to
      // prevent deadlock
      if (bit_is_set(*_ucsra, UDRE0))
    2326:	80 81       	ld	r24, Z
    2328:	85 ff       	sbrs	r24, 5
    232a:	ed cf       	rjmp	.-38     	; 0x2306 <HardwareSerial::flush()+0xc>
C:\Users\mateu\AppData\Local\Arduino15\packages\MiniCore\hardware\avr\2.0.9\cores\MCUdude_corefiles/HardwareSerial.cpp:204
        _tx_udr_empty_irq();
    232c:	ce 01       	movw	r24, r28
    232e:	0e 94 5c 11 	call	0x22b8	; 0x22b8 <HardwareSerial::_tx_udr_empty_irq()>
    2332:	e9 cf       	rjmp	.-46     	; 0x2306 <HardwareSerial::flush()+0xc>
C:\Users\mateu\AppData\Local\Arduino15\packages\MiniCore\hardware\avr\2.0.9\cores\MCUdude_corefiles/HardwareSerial.cpp:208
  }
  // If we get here, nothing is queued anymore (DRIE is disabled) and
  // the hardware finished tranmission (TXC is set).
}
    2334:	df 91       	pop	r29
    2336:	cf 91       	pop	r28
    2338:	08 95       	ret

0000233a <HardwareSerial::write(unsigned char)>:
_ZN14HardwareSerial5writeEh():
C:\Users\mateu\AppData\Local\Arduino15\packages\MiniCore\hardware\avr\2.0.9\cores\MCUdude_corefiles/HardwareSerial.cpp:211

size_t HardwareSerial::write(uint8_t c)
{
    233a:	ef 92       	push	r14
    233c:	ff 92       	push	r15
    233e:	0f 93       	push	r16
    2340:	1f 93       	push	r17
    2342:	cf 93       	push	r28
    2344:	df 93       	push	r29
    2346:	ec 01       	movw	r28, r24
C:\Users\mateu\AppData\Local\Arduino15\packages\MiniCore\hardware\avr\2.0.9\cores\MCUdude_corefiles/HardwareSerial.cpp:212
  _written = true;
    2348:	81 e0       	ldi	r24, 0x01	; 1
    234a:	88 8f       	std	Y+24, r24	; 0x18
C:\Users\mateu\AppData\Local\Arduino15\packages\MiniCore\hardware\avr\2.0.9\cores\MCUdude_corefiles/HardwareSerial.cpp:217
  // If the buffer and the data register is empty, just write the byte
  // to the data register and be done. This shortcut helps
  // significantly improve the effective datarate at high (>
  // 500kbit/s) bitrates, where interrupt overhead becomes a slowdown.
  if (_tx_buffer_head == _tx_buffer_tail && bit_is_set(*_ucsra, UDRE0)) {
    234c:	9b 8d       	ldd	r25, Y+27	; 0x1b
    234e:	8c 8d       	ldd	r24, Y+28	; 0x1c
    2350:	98 13       	cpse	r25, r24
    2352:	16 c0       	rjmp	.+44     	; 0x2380 <HardwareSerial::write(unsigned char)+0x46>
C:\Users\mateu\AppData\Local\Arduino15\packages\MiniCore\hardware\avr\2.0.9\cores\MCUdude_corefiles/HardwareSerial.cpp:217 (discriminator 1)
    2354:	e8 89       	ldd	r30, Y+16	; 0x10
    2356:	f9 89       	ldd	r31, Y+17	; 0x11
    2358:	80 81       	ld	r24, Z
    235a:	85 ff       	sbrs	r24, 5
    235c:	11 c0       	rjmp	.+34     	; 0x2380 <HardwareSerial::write(unsigned char)+0x46>
C:\Users\mateu\AppData\Local\Arduino15\packages\MiniCore\hardware\avr\2.0.9\cores\MCUdude_corefiles/HardwareSerial.cpp:218
    *_udr = c;
    235e:	ee 89       	ldd	r30, Y+22	; 0x16
    2360:	ff 89       	ldd	r31, Y+23	; 0x17
    2362:	60 83       	st	Z, r22
C:\Users\mateu\AppData\Local\Arduino15\packages\MiniCore\hardware\avr\2.0.9\cores\MCUdude_corefiles/HardwareSerial.cpp:219
    *_ucsra |= _BV(TXC0);
    2364:	e8 89       	ldd	r30, Y+16	; 0x10
    2366:	f9 89       	ldd	r31, Y+17	; 0x11
    2368:	80 81       	ld	r24, Z
    236a:	80 64       	ori	r24, 0x40	; 64
C:\Users\mateu\AppData\Local\Arduino15\packages\MiniCore\hardware\avr\2.0.9\cores\MCUdude_corefiles/HardwareSerial.cpp:242
  }

  _tx_buffer[_tx_buffer_head] = c;
  _tx_buffer_head = i;

  *_ucsrb |= _BV(UDRIE0);
    236c:	80 83       	st	Z, r24
C:\Users\mateu\AppData\Local\Arduino15\packages\MiniCore\hardware\avr\2.0.9\cores\MCUdude_corefiles/HardwareSerial.cpp:245
  
  return 1;
}
    236e:	81 e0       	ldi	r24, 0x01	; 1
    2370:	90 e0       	ldi	r25, 0x00	; 0
    2372:	df 91       	pop	r29
    2374:	cf 91       	pop	r28
    2376:	1f 91       	pop	r17
    2378:	0f 91       	pop	r16
    237a:	ff 90       	pop	r15
    237c:	ef 90       	pop	r14
    237e:	08 95       	ret
    2380:	f6 2e       	mov	r15, r22
C:\Users\mateu\AppData\Local\Arduino15\packages\MiniCore\hardware\avr\2.0.9\cores\MCUdude_corefiles/HardwareSerial.cpp:222
  if (_tx_buffer_head == _tx_buffer_tail && bit_is_set(*_ucsra, UDRE0)) {
    *_udr = c;
    *_ucsra |= _BV(TXC0);
    return 1;
  }
  tx_buffer_index_t i = (_tx_buffer_head + 1) % SERIAL_TX_BUFFER_SIZE;
    2382:	0b 8d       	ldd	r16, Y+27	; 0x1b
    2384:	10 e0       	ldi	r17, 0x00	; 0
    2386:	0f 5f       	subi	r16, 0xFF	; 255
    2388:	1f 4f       	sbci	r17, 0xFF	; 255
    238a:	0f 73       	andi	r16, 0x3F	; 63
    238c:	11 27       	eor	r17, r17
    238e:	e0 2e       	mov	r14, r16
C:\Users\mateu\AppData\Local\Arduino15\packages\MiniCore\hardware\avr\2.0.9\cores\MCUdude_corefiles/HardwareSerial.cpp:226

  // If the output buffer is full, there's nothing for it other than to 
  // wait for the interrupt handler to empty it a bit
  while (i == _tx_buffer_tail) {
    2390:	8c 8d       	ldd	r24, Y+28	; 0x1c
    2392:	8e 11       	cpse	r24, r14
    2394:	0c c0       	rjmp	.+24     	; 0x23ae <HardwareSerial::write(unsigned char)+0x74>
C:\Users\mateu\AppData\Local\Arduino15\packages\MiniCore\hardware\avr\2.0.9\cores\MCUdude_corefiles/HardwareSerial.cpp:227
    if (bit_is_clear(SREG, SREG_I)) {
    2396:	0f b6       	in	r0, 0x3f	; 63
    2398:	07 fc       	sbrc	r0, 7
    239a:	fa cf       	rjmp	.-12     	; 0x2390 <HardwareSerial::write(unsigned char)+0x56>
C:\Users\mateu\AppData\Local\Arduino15\packages\MiniCore\hardware\avr\2.0.9\cores\MCUdude_corefiles/HardwareSerial.cpp:232
      // Interrupts are disabled, so we'll have to poll the data
      // register empty flag ourselves. If it is set, pretend an
      // interrupt has happened and call the handler to free up
      // space for us.
      if(bit_is_set(*_ucsra, UDRE0))
    239c:	e8 89       	ldd	r30, Y+16	; 0x10
    239e:	f9 89       	ldd	r31, Y+17	; 0x11
    23a0:	80 81       	ld	r24, Z
    23a2:	85 ff       	sbrs	r24, 5
    23a4:	f5 cf       	rjmp	.-22     	; 0x2390 <HardwareSerial::write(unsigned char)+0x56>
C:\Users\mateu\AppData\Local\Arduino15\packages\MiniCore\hardware\avr\2.0.9\cores\MCUdude_corefiles/HardwareSerial.cpp:233
        _tx_udr_empty_irq();
    23a6:	ce 01       	movw	r24, r28
    23a8:	0e 94 5c 11 	call	0x22b8	; 0x22b8 <HardwareSerial::_tx_udr_empty_irq()>
    23ac:	f1 cf       	rjmp	.-30     	; 0x2390 <HardwareSerial::write(unsigned char)+0x56>
C:\Users\mateu\AppData\Local\Arduino15\packages\MiniCore\hardware\avr\2.0.9\cores\MCUdude_corefiles/HardwareSerial.cpp:239
    } else {
      // nop, the interrupt handler will free up space for us
    }
  }

  _tx_buffer[_tx_buffer_head] = c;
    23ae:	eb 8d       	ldd	r30, Y+27	; 0x1b
    23b0:	ec 0f       	add	r30, r28
    23b2:	fd 2f       	mov	r31, r29
    23b4:	f1 1d       	adc	r31, r1
    23b6:	e3 5a       	subi	r30, 0xA3	; 163
    23b8:	ff 4f       	sbci	r31, 0xFF	; 255
    23ba:	f0 82       	st	Z, r15
C:\Users\mateu\AppData\Local\Arduino15\packages\MiniCore\hardware\avr\2.0.9\cores\MCUdude_corefiles/HardwareSerial.cpp:240
  _tx_buffer_head = i;
    23bc:	0b 8f       	std	Y+27, r16	; 0x1b
C:\Users\mateu\AppData\Local\Arduino15\packages\MiniCore\hardware\avr\2.0.9\cores\MCUdude_corefiles/HardwareSerial.cpp:242

  *_ucsrb |= _BV(UDRIE0);
    23be:	ea 89       	ldd	r30, Y+18	; 0x12
    23c0:	fb 89       	ldd	r31, Y+19	; 0x13
    23c2:	80 81       	ld	r24, Z
    23c4:	80 62       	ori	r24, 0x20	; 32
    23c6:	d2 cf       	rjmp	.-92     	; 0x236c <HardwareSerial::write(unsigned char)+0x32>

000023c8 <HardwareSerial::begin(unsigned long, unsigned char)>:
_ZN14HardwareSerial5beginEmh():
C:\Users\mateu\AppData\Local\Arduino15\packages\MiniCore\hardware\avr\2.0.9\cores\MCUdude_corefiles/HardwareSerial.cpp:104
}

// Public Methods //////////////////////////////////////////////////////////////

void HardwareSerial::begin(unsigned long baud, byte config)
{
    23c8:	cf 92       	push	r12
    23ca:	df 92       	push	r13
    23cc:	ef 92       	push	r14
    23ce:	ff 92       	push	r15
    23d0:	1f 93       	push	r17
    23d2:	cf 93       	push	r28
    23d4:	df 93       	push	r29
    23d6:	ec 01       	movw	r28, r24
    23d8:	6a 01       	movw	r12, r20
    23da:	7b 01       	movw	r14, r22
    23dc:	12 2f       	mov	r17, r18
C:\Users\mateu\AppData\Local\Arduino15\packages\MiniCore\hardware\avr\2.0.9\cores\MCUdude_corefiles/HardwareSerial.cpp:107
  // Try u2x mode first
  uint16_t baud_setting = (F_CPU / 4 / baud - 1) / 2;
  *_ucsra = 1 << U2X0;
    23de:	e8 89       	ldd	r30, Y+16	; 0x10
    23e0:	f9 89       	ldd	r31, Y+17	; 0x11
    23e2:	82 e0       	ldi	r24, 0x02	; 2
    23e4:	80 83       	st	Z, r24
C:\Users\mateu\AppData\Local\Arduino15\packages\MiniCore\hardware\avr\2.0.9\cores\MCUdude_corefiles/HardwareSerial.cpp:114
  // hardcoded exception for 57600 for compatibility with the bootloader
  // shipped with the Duemilanove and previous boards and the firmware
  // on the 8U2 on the Uno and Mega 2560. Also, The baud_setting cannot
  // be > 4095, so switch back to non-u2x mode if the baud rate is too
  // low.
  if (((F_CPU == 16000000UL) && (baud == 57600)) || (baud_setting >4095))
    23e6:	c1 14       	cp	r12, r1
    23e8:	81 ee       	ldi	r24, 0xE1	; 225
    23ea:	d8 06       	cpc	r13, r24
    23ec:	e1 04       	cpc	r14, r1
    23ee:	f1 04       	cpc	r15, r1
    23f0:	a1 f0       	breq	.+40     	; 0x241a <HardwareSerial::begin(unsigned long, unsigned char)+0x52>
C:\Users\mateu\AppData\Local\Arduino15\packages\MiniCore\hardware\avr\2.0.9\cores\MCUdude_corefiles/HardwareSerial.cpp:106 (discriminator 1)
// Public Methods //////////////////////////////////////////////////////////////

void HardwareSerial::begin(unsigned long baud, byte config)
{
  // Try u2x mode first
  uint16_t baud_setting = (F_CPU / 4 / baud - 1) / 2;
    23f2:	60 e0       	ldi	r22, 0x00	; 0
    23f4:	79 e0       	ldi	r23, 0x09	; 9
    23f6:	8d e3       	ldi	r24, 0x3D	; 61
    23f8:	90 e0       	ldi	r25, 0x00	; 0
    23fa:	a7 01       	movw	r20, r14
    23fc:	96 01       	movw	r18, r12
    23fe:	0e 94 b6 17 	call	0x2f6c	; 0x2f6c <__udivmodsi4>
    2402:	21 50       	subi	r18, 0x01	; 1
    2404:	31 09       	sbc	r19, r1
    2406:	41 09       	sbc	r20, r1
    2408:	51 09       	sbc	r21, r1
    240a:	56 95       	lsr	r21
    240c:	47 95       	ror	r20
    240e:	37 95       	ror	r19
    2410:	27 95       	ror	r18
C:\Users\mateu\AppData\Local\Arduino15\packages\MiniCore\hardware\avr\2.0.9\cores\MCUdude_corefiles/HardwareSerial.cpp:114 (discriminator 1)
  // hardcoded exception for 57600 for compatibility with the bootloader
  // shipped with the Duemilanove and previous boards and the firmware
  // on the 8U2 on the Uno and Mega 2560. Also, The baud_setting cannot
  // be > 4095, so switch back to non-u2x mode if the baud rate is too
  // low.
  if (((F_CPU == 16000000UL) && (baud == 57600)) || (baud_setting >4095))
    2412:	21 15       	cp	r18, r1
    2414:	80 e1       	ldi	r24, 0x10	; 16
    2416:	38 07       	cpc	r19, r24
    2418:	98 f0       	brcs	.+38     	; 0x2440 <HardwareSerial::begin(unsigned long, unsigned char)+0x78>
C:\Users\mateu\AppData\Local\Arduino15\packages\MiniCore\hardware\avr\2.0.9\cores\MCUdude_corefiles/HardwareSerial.cpp:116
  {
    *_ucsra = 0;
    241a:	e8 89       	ldd	r30, Y+16	; 0x10
    241c:	f9 89       	ldd	r31, Y+17	; 0x11
    241e:	10 82       	st	Z, r1
C:\Users\mateu\AppData\Local\Arduino15\packages\MiniCore\hardware\avr\2.0.9\cores\MCUdude_corefiles/HardwareSerial.cpp:117
    baud_setting = (F_CPU / 8 / baud - 1) / 2;
    2420:	60 e8       	ldi	r22, 0x80	; 128
    2422:	74 e8       	ldi	r23, 0x84	; 132
    2424:	8e e1       	ldi	r24, 0x1E	; 30
    2426:	90 e0       	ldi	r25, 0x00	; 0
    2428:	a7 01       	movw	r20, r14
    242a:	96 01       	movw	r18, r12
    242c:	0e 94 b6 17 	call	0x2f6c	; 0x2f6c <__udivmodsi4>
    2430:	21 50       	subi	r18, 0x01	; 1
    2432:	31 09       	sbc	r19, r1
    2434:	41 09       	sbc	r20, r1
    2436:	51 09       	sbc	r21, r1
    2438:	56 95       	lsr	r21
    243a:	47 95       	ror	r20
    243c:	37 95       	ror	r19
    243e:	27 95       	ror	r18
C:\Users\mateu\AppData\Local\Arduino15\packages\MiniCore\hardware\avr\2.0.9\cores\MCUdude_corefiles/HardwareSerial.cpp:121
  }

  // assign the baud_setting, a.k.a. ubrr (USART Baud Rate Register)
  *_ubrrh = baud_setting >> 8;
    2440:	ec 85       	ldd	r30, Y+12	; 0x0c
    2442:	fd 85       	ldd	r31, Y+13	; 0x0d
    2444:	30 83       	st	Z, r19
C:\Users\mateu\AppData\Local\Arduino15\packages\MiniCore\hardware\avr\2.0.9\cores\MCUdude_corefiles/HardwareSerial.cpp:122
  *_ubrrl = baud_setting;
    2446:	ee 85       	ldd	r30, Y+14	; 0x0e
    2448:	ff 85       	ldd	r31, Y+15	; 0x0f
    244a:	20 83       	st	Z, r18
C:\Users\mateu\AppData\Local\Arduino15\packages\MiniCore\hardware\avr\2.0.9\cores\MCUdude_corefiles/HardwareSerial.cpp:124

  _written = false;
    244c:	18 8e       	std	Y+24, r1	; 0x18
C:\Users\mateu\AppData\Local\Arduino15\packages\MiniCore\hardware\avr\2.0.9\cores\MCUdude_corefiles/HardwareSerial.cpp:132
#if defined(__AVR_ATmega8__) || defined(__AVR_ATmega8515__) || defined(__AVR_ATmega162__) \
|| defined(__AVR_ATmega8535__) || defined(__AVR_ATmega16__)|| defined(__AVR_ATmega32__)   \
|| defined(__AVR_ATmega162__)
  config |= 0x80; // select UCSRC register (shared with UBRRH)
#endif
  *_ucsrc = config;
    244e:	ec 89       	ldd	r30, Y+20	; 0x14
    2450:	fd 89       	ldd	r31, Y+21	; 0x15
    2452:	10 83       	st	Z, r17
C:\Users\mateu\AppData\Local\Arduino15\packages\MiniCore\hardware\avr\2.0.9\cores\MCUdude_corefiles/HardwareSerial.cpp:134
  
  *_ucsrb |= _BV(RXEN0) | _BV(TXEN0) | _BV(RXCIE0);
    2454:	ea 89       	ldd	r30, Y+18	; 0x12
    2456:	fb 89       	ldd	r31, Y+19	; 0x13
    2458:	80 81       	ld	r24, Z
    245a:	88 69       	ori	r24, 0x98	; 152
    245c:	80 83       	st	Z, r24
C:\Users\mateu\AppData\Local\Arduino15\packages\MiniCore\hardware\avr\2.0.9\cores\MCUdude_corefiles/HardwareSerial.cpp:135
  *_ucsrb &= ~_BV(UDRIE0);
    245e:	ea 89       	ldd	r30, Y+18	; 0x12
    2460:	fb 89       	ldd	r31, Y+19	; 0x13
    2462:	80 81       	ld	r24, Z
    2464:	8f 7d       	andi	r24, 0xDF	; 223
    2466:	80 83       	st	Z, r24
C:\Users\mateu\AppData\Local\Arduino15\packages\MiniCore\hardware\avr\2.0.9\cores\MCUdude_corefiles/HardwareSerial.cpp:136
}
    2468:	df 91       	pop	r29
    246a:	cf 91       	pop	r28
    246c:	1f 91       	pop	r17
    246e:	ff 90       	pop	r15
    2470:	ef 90       	pop	r14
    2472:	df 90       	pop	r13
    2474:	cf 90       	pop	r12
    2476:	08 95       	ret

00002478 <__vector_18>:
__vector_18():
C:\Users\mateu\AppData\Local\Arduino15\packages\MiniCore\hardware\avr\2.0.9\cores\MCUdude_corefiles/HardwareSerial0.cpp:50
#elif defined(USART_RXC_vect)
  ISR(USART_RXC_vect)
#else
  #error "Don't know what the Data Received vector is called for Serial"
#endif
  {
    2478:	1f 92       	push	r1
    247a:	0f 92       	push	r0
    247c:	0f b6       	in	r0, 0x3f	; 63
    247e:	0f 92       	push	r0
    2480:	11 24       	eor	r1, r1
    2482:	2f 93       	push	r18
    2484:	8f 93       	push	r24
    2486:	9f 93       	push	r25
    2488:	ef 93       	push	r30
    248a:	ff 93       	push	r31
_ZN14HardwareSerial16_rx_complete_irqEv():
C:\Users\mateu\AppData\Local\Arduino15\packages\MiniCore\hardware\avr\2.0.9\cores\MCUdude_corefiles/HardwareSerial_private.h:103

// Actual interrupt handlers //////////////////////////////////////////////////////////////

void HardwareSerial::_rx_complete_irq(void)
{
  if (bit_is_clear(*_ucsra, UPE0)) {
    248c:	e0 91 d0 03 	lds	r30, 0x03D0	; 0x8003d0 <Serial+0x10>
    2490:	f0 91 d1 03 	lds	r31, 0x03D1	; 0x8003d1 <Serial+0x11>
    2494:	80 81       	ld	r24, Z
    2496:	e0 91 d6 03 	lds	r30, 0x03D6	; 0x8003d6 <Serial+0x16>
    249a:	f0 91 d7 03 	lds	r31, 0x03D7	; 0x8003d7 <Serial+0x17>
    249e:	82 fd       	sbrc	r24, 2
    24a0:	1b c0       	rjmp	.+54     	; 0x24d8 <__vector_18+0x60>
C:\Users\mateu\AppData\Local\Arduino15\packages\MiniCore\hardware\avr\2.0.9\cores\MCUdude_corefiles/HardwareSerial_private.h:106
    // No Parity error, read byte and store it in the buffer if there is
    // room
    unsigned char c = *_udr;
    24a2:	90 81       	ld	r25, Z
C:\Users\mateu\AppData\Local\Arduino15\packages\MiniCore\hardware\avr\2.0.9\cores\MCUdude_corefiles/HardwareSerial_private.h:107
    rx_buffer_index_t i = (unsigned int)(_rx_buffer_head + 1) % SERIAL_RX_BUFFER_SIZE;
    24a4:	80 91 d9 03 	lds	r24, 0x03D9	; 0x8003d9 <Serial+0x19>
    24a8:	8f 5f       	subi	r24, 0xFF	; 255
    24aa:	8f 73       	andi	r24, 0x3F	; 63
C:\Users\mateu\AppData\Local\Arduino15\packages\MiniCore\hardware\avr\2.0.9\cores\MCUdude_corefiles/HardwareSerial_private.h:113

    // if we should be storing the received character into the location
    // just before the tail (meaning that the head would advance to the
    // current location of the tail), we're about to overflow the buffer
    // and so we don't write the character or advance the head.
    if (i != _rx_buffer_tail) {
    24ac:	20 91 da 03 	lds	r18, 0x03DA	; 0x8003da <Serial+0x1a>
    24b0:	82 17       	cp	r24, r18
    24b2:	41 f0       	breq	.+16     	; 0x24c4 <__vector_18+0x4c>
C:\Users\mateu\AppData\Local\Arduino15\packages\MiniCore\hardware\avr\2.0.9\cores\MCUdude_corefiles/HardwareSerial_private.h:114
      _rx_buffer[_rx_buffer_head] = c;
    24b4:	e0 91 d9 03 	lds	r30, 0x03D9	; 0x8003d9 <Serial+0x19>
    24b8:	f0 e0       	ldi	r31, 0x00	; 0
    24ba:	e0 54       	subi	r30, 0x40	; 64
    24bc:	fc 4f       	sbci	r31, 0xFC	; 252
    24be:	95 8f       	std	Z+29, r25	; 0x1d
C:\Users\mateu\AppData\Local\Arduino15\packages\MiniCore\hardware\avr\2.0.9\cores\MCUdude_corefiles/HardwareSerial_private.h:115
      _rx_buffer_head = i;
    24c0:	80 93 d9 03 	sts	0x03D9, r24	; 0x8003d9 <Serial+0x19>
__vector_18():
C:\Users\mateu\AppData\Local\Arduino15\packages\MiniCore\hardware\avr\2.0.9\cores\MCUdude_corefiles/HardwareSerial0.cpp:52
    Serial._rx_complete_irq();
  }
    24c4:	ff 91       	pop	r31
    24c6:	ef 91       	pop	r30
    24c8:	9f 91       	pop	r25
    24ca:	8f 91       	pop	r24
    24cc:	2f 91       	pop	r18
    24ce:	0f 90       	pop	r0
    24d0:	0f be       	out	0x3f, r0	; 63
    24d2:	0f 90       	pop	r0
    24d4:	1f 90       	pop	r1
    24d6:	18 95       	reti
_ZN14HardwareSerial16_rx_complete_irqEv():
C:\Users\mateu\AppData\Local\Arduino15\packages\MiniCore\hardware\avr\2.0.9\cores\MCUdude_corefiles/HardwareSerial_private.h:119
    }
  } else {
    // Parity error, read byte but discard it
    *_udr;
    24d8:	80 81       	ld	r24, Z
__vector_18():
C:\Users\mateu\AppData\Local\Arduino15\packages\MiniCore\hardware\avr\2.0.9\cores\MCUdude_corefiles/HardwareSerial0.cpp:52
    24da:	f4 cf       	rjmp	.-24     	; 0x24c4 <__vector_18+0x4c>

000024dc <__vector_19>:
__vector_19():
C:\Users\mateu\AppData\Local\Arduino15\packages\MiniCore\hardware\avr\2.0.9\cores\MCUdude_corefiles/HardwareSerial0.cpp:63
#elif defined(USART0_UDRE_vect)
ISR(USART0_UDRE_vect)
#else
  #error "Don't know what the Data Register Empty vector is called for Serial"
#endif
{
    24dc:	1f 92       	push	r1
    24de:	0f 92       	push	r0
    24e0:	0f b6       	in	r0, 0x3f	; 63
    24e2:	0f 92       	push	r0
    24e4:	11 24       	eor	r1, r1
    24e6:	2f 93       	push	r18
    24e8:	3f 93       	push	r19
    24ea:	4f 93       	push	r20
    24ec:	5f 93       	push	r21
    24ee:	6f 93       	push	r22
    24f0:	7f 93       	push	r23
    24f2:	8f 93       	push	r24
    24f4:	9f 93       	push	r25
    24f6:	af 93       	push	r26
    24f8:	bf 93       	push	r27
    24fa:	ef 93       	push	r30
    24fc:	ff 93       	push	r31
C:\Users\mateu\AppData\Local\Arduino15\packages\MiniCore\hardware\avr\2.0.9\cores\MCUdude_corefiles/HardwareSerial0.cpp:64
  Serial._tx_udr_empty_irq();
    24fe:	80 ec       	ldi	r24, 0xC0	; 192
    2500:	93 e0       	ldi	r25, 0x03	; 3
    2502:	0e 94 5c 11 	call	0x22b8	; 0x22b8 <HardwareSerial::_tx_udr_empty_irq()>
C:\Users\mateu\AppData\Local\Arduino15\packages\MiniCore\hardware\avr\2.0.9\cores\MCUdude_corefiles/HardwareSerial0.cpp:65
}
    2506:	ff 91       	pop	r31
    2508:	ef 91       	pop	r30
    250a:	bf 91       	pop	r27
    250c:	af 91       	pop	r26
    250e:	9f 91       	pop	r25
    2510:	8f 91       	pop	r24
    2512:	7f 91       	pop	r23
    2514:	6f 91       	pop	r22
    2516:	5f 91       	pop	r21
    2518:	4f 91       	pop	r20
    251a:	3f 91       	pop	r19
    251c:	2f 91       	pop	r18
    251e:	0f 90       	pop	r0
    2520:	0f be       	out	0x3f, r0	; 63
    2522:	0f 90       	pop	r0
    2524:	1f 90       	pop	r1
    2526:	18 95       	reti

00002528 <Serial0_available()>:
_Z17Serial0_availablev():
C:\Users\mateu\AppData\Local\Arduino15\packages\MiniCore\hardware\avr\2.0.9\cores\MCUdude_corefiles/HardwareSerial0.cpp:76
#endif

// Function that can be weakly referenced by serialEventRun to prevent
// pulling in this file if it's not otherwise used.
bool Serial0_available() {
  return Serial.available();
    2528:	80 ec       	ldi	r24, 0xC0	; 192
    252a:	93 e0       	ldi	r25, 0x03	; 3
    252c:	0e 94 04 11 	call	0x2208	; 0x2208 <HardwareSerial::available()>
    2530:	21 e0       	ldi	r18, 0x01	; 1
    2532:	89 2b       	or	r24, r25
    2534:	09 f4       	brne	.+2      	; 0x2538 <Serial0_available()+0x10>
    2536:	20 e0       	ldi	r18, 0x00	; 0
C:\Users\mateu\AppData\Local\Arduino15\packages\MiniCore\hardware\avr\2.0.9\cores\MCUdude_corefiles/HardwareSerial0.cpp:77
}
    2538:	82 2f       	mov	r24, r18
    253a:	08 95       	ret

0000253c <_GLOBAL__sub_I___vector_18>:
_ZN5PrintC4Ev():
C:\Users\mateu\AppData\Local\Arduino15\packages\MiniCore\hardware\avr\2.0.9\cores\MCUdude_corefiles/Print.h:46
    size_t printNumber(unsigned long, uint8_t);
    size_t printFloat(double, uint8_t);
  protected:
    void setWriteError(int err = 1) { write_error = err; }
  public:
    Print() : write_error(0) {}
    253c:	e0 ec       	ldi	r30, 0xC0	; 192
    253e:	f3 e0       	ldi	r31, 0x03	; 3
    2540:	13 82       	std	Z+3, r1	; 0x03
    2542:	12 82       	std	Z+2, r1	; 0x02
_ZN6StreamC4Ev():
C:\Users\mateu\AppData\Local\Arduino15\packages\MiniCore\hardware\avr\2.0.9\cores\MCUdude_corefiles/Stream.h:63
  public:
    virtual int available() = 0;
    virtual int read() = 0;
    virtual int peek() = 0;

    Stream() {_timeout=1000;}
    2544:	88 ee       	ldi	r24, 0xE8	; 232
    2546:	93 e0       	ldi	r25, 0x03	; 3
    2548:	a0 e0       	ldi	r26, 0x00	; 0
    254a:	b0 e0       	ldi	r27, 0x00	; 0
    254c:	84 83       	std	Z+4, r24	; 0x04
    254e:	95 83       	std	Z+5, r25	; 0x05
    2550:	a6 83       	std	Z+6, r26	; 0x06
    2552:	b7 83       	std	Z+7, r27	; 0x07
_ZN14HardwareSerialC4EPVhS1_S1_S1_S1_S1_():
C:\Users\mateu\AppData\Local\Arduino15\packages\MiniCore\hardware\avr\2.0.9\cores\MCUdude_corefiles/HardwareSerial_private.h:95
  volatile uint8_t *ucsrc, volatile uint8_t *udr) :
    _ubrrh(ubrrh), _ubrrl(ubrrl),
    _ucsra(ucsra), _ucsrb(ucsrb), _ucsrc(ucsrc),
    _udr(udr),
    _rx_buffer_head(0), _rx_buffer_tail(0),
    _tx_buffer_head(0), _tx_buffer_tail(0)
    2554:	83 eb       	ldi	r24, 0xB3	; 179
    2556:	92 e0       	ldi	r25, 0x02	; 2
    2558:	91 83       	std	Z+1, r25	; 0x01
    255a:	80 83       	st	Z, r24
    255c:	85 ec       	ldi	r24, 0xC5	; 197
    255e:	90 e0       	ldi	r25, 0x00	; 0
    2560:	95 87       	std	Z+13, r25	; 0x0d
    2562:	84 87       	std	Z+12, r24	; 0x0c
    2564:	84 ec       	ldi	r24, 0xC4	; 196
    2566:	90 e0       	ldi	r25, 0x00	; 0
    2568:	97 87       	std	Z+15, r25	; 0x0f
    256a:	86 87       	std	Z+14, r24	; 0x0e
    256c:	80 ec       	ldi	r24, 0xC0	; 192
    256e:	90 e0       	ldi	r25, 0x00	; 0
    2570:	91 8b       	std	Z+17, r25	; 0x11
    2572:	80 8b       	std	Z+16, r24	; 0x10
    2574:	81 ec       	ldi	r24, 0xC1	; 193
    2576:	90 e0       	ldi	r25, 0x00	; 0
    2578:	93 8b       	std	Z+19, r25	; 0x13
    257a:	82 8b       	std	Z+18, r24	; 0x12
    257c:	82 ec       	ldi	r24, 0xC2	; 194
    257e:	90 e0       	ldi	r25, 0x00	; 0
    2580:	95 8b       	std	Z+21, r25	; 0x15
    2582:	84 8b       	std	Z+20, r24	; 0x14
    2584:	86 ec       	ldi	r24, 0xC6	; 198
    2586:	90 e0       	ldi	r25, 0x00	; 0
    2588:	97 8b       	std	Z+23, r25	; 0x17
    258a:	86 8b       	std	Z+22, r24	; 0x16
    258c:	11 8e       	std	Z+25, r1	; 0x19
    258e:	12 8e       	std	Z+26, r1	; 0x1a
    2590:	13 8e       	std	Z+27, r1	; 0x1b
    2592:	14 8e       	std	Z+28, r1	; 0x1c
_GLOBAL__sub_I___vector_18():
C:\Users\mateu\AppData\Local\Arduino15\packages\MiniCore\hardware\avr\2.0.9\cores\MCUdude_corefiles/HardwareSerial0.cpp:77
    2594:	08 95       	ret

00002596 <Print::write(unsigned char const*, unsigned int)>:
_ZN5Print5writeEPKhj():
C:\Users\mateu\AppData\Local\Arduino15\packages\MiniCore\hardware\avr\2.0.9\cores\MCUdude_corefiles/Print.cpp:178
size_t Print::println(long num, int base)
{
  size_t n = print(num, base);
  n += println();
  return n;
}
    2596:	af 92       	push	r10
    2598:	bf 92       	push	r11
    259a:	cf 92       	push	r12
    259c:	df 92       	push	r13
    259e:	ef 92       	push	r14
    25a0:	ff 92       	push	r15
    25a2:	0f 93       	push	r16
    25a4:	1f 93       	push	r17
    25a6:	cf 93       	push	r28
    25a8:	df 93       	push	r29
    25aa:	6c 01       	movw	r12, r24
    25ac:	7b 01       	movw	r14, r22
    25ae:	8b 01       	movw	r16, r22
    25b0:	04 0f       	add	r16, r20
    25b2:	15 1f       	adc	r17, r21
    25b4:	eb 01       	movw	r28, r22
    25b6:	5e 01       	movw	r10, r28
    25b8:	ae 18       	sub	r10, r14
    25ba:	bf 08       	sbc	r11, r15
    25bc:	c0 17       	cp	r28, r16
    25be:	d1 07       	cpc	r29, r17
    25c0:	59 f0       	breq	.+22     	; 0x25d8 <Print::write(unsigned char const*, unsigned int)+0x42>
    25c2:	69 91       	ld	r22, Y+
    25c4:	d6 01       	movw	r26, r12
    25c6:	ed 91       	ld	r30, X+
    25c8:	fc 91       	ld	r31, X
    25ca:	01 90       	ld	r0, Z+
    25cc:	f0 81       	ld	r31, Z
    25ce:	e0 2d       	mov	r30, r0
    25d0:	c6 01       	movw	r24, r12
    25d2:	09 95       	icall
    25d4:	89 2b       	or	r24, r25
    25d6:	79 f7       	brne	.-34     	; 0x25b6 <Print::write(unsigned char const*, unsigned int)+0x20>
    25d8:	c5 01       	movw	r24, r10
    25da:	df 91       	pop	r29
    25dc:	cf 91       	pop	r28
    25de:	1f 91       	pop	r17
    25e0:	0f 91       	pop	r16
    25e2:	ff 90       	pop	r15
    25e4:	ef 90       	pop	r14
    25e6:	df 90       	pop	r13
    25e8:	cf 90       	pop	r12
    25ea:	bf 90       	pop	r11
    25ec:	af 90       	pop	r10
    25ee:	08 95       	ret

000025f0 <Print::write(char const*) [clone .part.2]>:
_ZN5Print5writeEPKc():
    25f0:	fb 01       	movw	r30, r22
    25f2:	01 90       	ld	r0, Z+
    25f4:	00 20       	and	r0, r0
    25f6:	e9 f7       	brne	.-6      	; 0x25f2 <Print::write(char const*) [clone .part.2]+0x2>
    25f8:	31 97       	sbiw	r30, 0x01	; 1
    25fa:	af 01       	movw	r20, r30
    25fc:	46 1b       	sub	r20, r22
    25fe:	57 0b       	sbc	r21, r23
    2600:	dc 01       	movw	r26, r24
    2602:	ed 91       	ld	r30, X+
    2604:	fc 91       	ld	r31, X
    2606:	02 80       	ldd	r0, Z+2	; 0x02
    2608:	f3 81       	ldd	r31, Z+3	; 0x03
    260a:	e0 2d       	mov	r30, r0
    260c:	09 94       	ijmp

0000260e <Print::print(String const&)>:
_ZN5Print5writeEPKcj():
    260e:	db 01       	movw	r26, r22
    2610:	14 96       	adiw	r26, 0x04	; 4
    2612:	4d 91       	ld	r20, X+
    2614:	5c 91       	ld	r21, X
    2616:	15 97       	sbiw	r26, 0x05	; 5
    2618:	6d 91       	ld	r22, X+
    261a:	7c 91       	ld	r23, X
    261c:	dc 01       	movw	r26, r24
    261e:	ed 91       	ld	r30, X+
    2620:	fc 91       	ld	r31, X
    2622:	02 80       	ldd	r0, Z+2	; 0x02
    2624:	f3 81       	ldd	r31, Z+3	; 0x03
    2626:	e0 2d       	mov	r30, r0
    2628:	09 94       	ijmp

0000262a <Print::print(char)>:
_ZN5Print5printEc():
    262a:	dc 01       	movw	r26, r24
    262c:	ed 91       	ld	r30, X+
    262e:	fc 91       	ld	r31, X
    2630:	01 90       	ld	r0, Z+
    2632:	f0 81       	ld	r31, Z
    2634:	e0 2d       	mov	r30, r0
    2636:	09 94       	ijmp

00002638 <Print::println()>:
_ZN5Print5writeEPKc():
    2638:	6a e1       	ldi	r22, 0x1A	; 26
    263a:	72 e0       	ldi	r23, 0x02	; 2
    263c:	0c 94 f8 12 	jmp	0x25f0	; 0x25f0 <Print::write(char const*) [clone .part.2]>

00002640 <Print::println(char const*)>:
_ZN5Print7printlnEPKc():
    2640:	0f 93       	push	r16
    2642:	1f 93       	push	r17
    2644:	cf 93       	push	r28
    2646:	df 93       	push	r29
    2648:	8c 01       	movw	r16, r24
_ZN5Print5writeEPKc():
    264a:	d0 e0       	ldi	r29, 0x00	; 0
    264c:	c0 e0       	ldi	r28, 0x00	; 0
    264e:	61 15       	cp	r22, r1
    2650:	71 05       	cpc	r23, r1
    2652:	19 f0       	breq	.+6      	; 0x265a <Print::println(char const*)+0x1a>
    2654:	0e 94 f8 12 	call	0x25f0	; 0x25f0 <Print::write(char const*) [clone .part.2]>
    2658:	ec 01       	movw	r28, r24
_ZN5Print7printlnEPKc():
    265a:	c8 01       	movw	r24, r16
    265c:	0e 94 1c 13 	call	0x2638	; 0x2638 <Print::println()>
    2660:	8c 0f       	add	r24, r28
    2662:	9d 1f       	adc	r25, r29
    2664:	df 91       	pop	r29
    2666:	cf 91       	pop	r28
    2668:	1f 91       	pop	r17
    266a:	0f 91       	pop	r16
    266c:	08 95       	ret

0000266e <Print::printNumber(unsigned long, unsigned char)>:
_ZN5Print11printNumberEmh():
    266e:	8f 92       	push	r8
    2670:	9f 92       	push	r9
    2672:	af 92       	push	r10
    2674:	bf 92       	push	r11
    2676:	ef 92       	push	r14
    2678:	ff 92       	push	r15
    267a:	0f 93       	push	r16
    267c:	1f 93       	push	r17
    267e:	cf 93       	push	r28
    2680:	df 93       	push	r29
    2682:	cd b7       	in	r28, 0x3d	; 61
    2684:	de b7       	in	r29, 0x3e	; 62
    2686:	a1 97       	sbiw	r28, 0x21	; 33
    2688:	0f b6       	in	r0, 0x3f	; 63
    268a:	f8 94       	cli
    268c:	de bf       	out	0x3e, r29	; 62
    268e:	0f be       	out	0x3f, r0	; 63
    2690:	cd bf       	out	0x3d, r28	; 61
    2692:	7c 01       	movw	r14, r24
    2694:	fa 01       	movw	r30, r20
    2696:	cb 01       	movw	r24, r22
    2698:	19 a2       	std	Y+33, r1	; 0x21
    269a:	22 30       	cpi	r18, 0x02	; 2
    269c:	08 f4       	brcc	.+2      	; 0x26a0 <Print::printNumber(unsigned long, unsigned char)+0x32>
    269e:	2a e0       	ldi	r18, 0x0A	; 10
    26a0:	8e 01       	movw	r16, r28
    26a2:	0f 5d       	subi	r16, 0xDF	; 223
    26a4:	1f 4f       	sbci	r17, 0xFF	; 255
    26a6:	82 2e       	mov	r8, r18
    26a8:	91 2c       	mov	r9, r1
    26aa:	b1 2c       	mov	r11, r1
    26ac:	a1 2c       	mov	r10, r1
    26ae:	bf 01       	movw	r22, r30
    26b0:	a5 01       	movw	r20, r10
    26b2:	94 01       	movw	r18, r8
    26b4:	0e 94 b6 17 	call	0x2f6c	; 0x2f6c <__udivmodsi4>
    26b8:	f9 01       	movw	r30, r18
    26ba:	ca 01       	movw	r24, r20
    26bc:	6a 30       	cpi	r22, 0x0A	; 10
    26be:	0c f5       	brge	.+66     	; 0x2702 <Print::printNumber(unsigned long, unsigned char)+0x94>
    26c0:	60 5d       	subi	r22, 0xD0	; 208
    26c2:	d8 01       	movw	r26, r16
    26c4:	6e 93       	st	-X, r22
    26c6:	8d 01       	movw	r16, r26
    26c8:	23 2b       	or	r18, r19
    26ca:	24 2b       	or	r18, r20
    26cc:	25 2b       	or	r18, r21
    26ce:	79 f7       	brne	.-34     	; 0x26ae <Print::printNumber(unsigned long, unsigned char)+0x40>
_ZN5Print5writeEPKc():
    26d0:	90 e0       	ldi	r25, 0x00	; 0
    26d2:	80 e0       	ldi	r24, 0x00	; 0
    26d4:	10 97       	sbiw	r26, 0x00	; 0
    26d6:	21 f0       	breq	.+8      	; 0x26e0 <Print::printNumber(unsigned long, unsigned char)+0x72>
    26d8:	bd 01       	movw	r22, r26
    26da:	c7 01       	movw	r24, r14
    26dc:	0e 94 f8 12 	call	0x25f0	; 0x25f0 <Print::write(char const*) [clone .part.2]>
_ZN5Print11printNumberEmh():
    26e0:	a1 96       	adiw	r28, 0x21	; 33
    26e2:	0f b6       	in	r0, 0x3f	; 63
    26e4:	f8 94       	cli
    26e6:	de bf       	out	0x3e, r29	; 62
    26e8:	0f be       	out	0x3f, r0	; 63
    26ea:	cd bf       	out	0x3d, r28	; 61
    26ec:	df 91       	pop	r29
    26ee:	cf 91       	pop	r28
    26f0:	1f 91       	pop	r17
    26f2:	0f 91       	pop	r16
    26f4:	ff 90       	pop	r15
    26f6:	ef 90       	pop	r14
    26f8:	bf 90       	pop	r11
    26fa:	af 90       	pop	r10
    26fc:	9f 90       	pop	r9
    26fe:	8f 90       	pop	r8
    2700:	08 95       	ret
    2702:	69 5c       	subi	r22, 0xC9	; 201
    2704:	de cf       	rjmp	.-68     	; 0x26c2 <Print::printNumber(unsigned long, unsigned char)+0x54>

00002706 <Print::print(long, int)>:
_ZN5Print5printEli():
    2706:	cf 92       	push	r12
    2708:	df 92       	push	r13
    270a:	ef 92       	push	r14
    270c:	ff 92       	push	r15
    270e:	0f 93       	push	r16
    2710:	1f 93       	push	r17
    2712:	cf 93       	push	r28
    2714:	df 93       	push	r29
    2716:	21 15       	cp	r18, r1
    2718:	31 05       	cpc	r19, r1
    271a:	81 f4       	brne	.+32     	; 0x273c <Print::print(long, int)+0x36>
    271c:	dc 01       	movw	r26, r24
    271e:	ed 91       	ld	r30, X+
    2720:	fc 91       	ld	r31, X
    2722:	01 90       	ld	r0, Z+
    2724:	f0 81       	ld	r31, Z
    2726:	e0 2d       	mov	r30, r0
    2728:	64 2f       	mov	r22, r20
    272a:	df 91       	pop	r29
    272c:	cf 91       	pop	r28
    272e:	1f 91       	pop	r17
    2730:	0f 91       	pop	r16
    2732:	ff 90       	pop	r15
    2734:	ef 90       	pop	r14
    2736:	df 90       	pop	r13
    2738:	cf 90       	pop	r12
    273a:	09 94       	ijmp
    273c:	2a 30       	cpi	r18, 0x0A	; 10
    273e:	31 05       	cpc	r19, r1
    2740:	01 f5       	brne	.+64     	; 0x2782 <Print::print(long, int)+0x7c>
    2742:	2a e0       	ldi	r18, 0x0A	; 10
    2744:	77 ff       	sbrs	r23, 7
    2746:	1d c0       	rjmp	.+58     	; 0x2782 <Print::print(long, int)+0x7c>
    2748:	6a 01       	movw	r12, r20
    274a:	7b 01       	movw	r14, r22
    274c:	ec 01       	movw	r28, r24
    274e:	6d e2       	ldi	r22, 0x2D	; 45
    2750:	0e 94 15 13 	call	0x262a	; 0x262a <Print::print(char)>
    2754:	8c 01       	movw	r16, r24
    2756:	44 27       	eor	r20, r20
    2758:	55 27       	eor	r21, r21
    275a:	ba 01       	movw	r22, r20
    275c:	4c 19       	sub	r20, r12
    275e:	5d 09       	sbc	r21, r13
    2760:	6e 09       	sbc	r22, r14
    2762:	7f 09       	sbc	r23, r15
    2764:	2a e0       	ldi	r18, 0x0A	; 10
    2766:	ce 01       	movw	r24, r28
    2768:	0e 94 37 13 	call	0x266e	; 0x266e <Print::printNumber(unsigned long, unsigned char)>
    276c:	80 0f       	add	r24, r16
    276e:	91 1f       	adc	r25, r17
    2770:	df 91       	pop	r29
    2772:	cf 91       	pop	r28
    2774:	1f 91       	pop	r17
    2776:	0f 91       	pop	r16
    2778:	ff 90       	pop	r15
    277a:	ef 90       	pop	r14
    277c:	df 90       	pop	r13
    277e:	cf 90       	pop	r12
    2780:	08 95       	ret
    2782:	df 91       	pop	r29
    2784:	cf 91       	pop	r28
    2786:	1f 91       	pop	r17
    2788:	0f 91       	pop	r16
    278a:	ff 90       	pop	r15
    278c:	ef 90       	pop	r14
    278e:	df 90       	pop	r13
    2790:	cf 90       	pop	r12
    2792:	0c 94 37 13 	jmp	0x266e	; 0x266e <Print::printNumber(unsigned long, unsigned char)>

00002796 <Print::print(int, int)>:
_ZN5Print5printEii():
    2796:	9a 01       	movw	r18, r20
    2798:	ab 01       	movw	r20, r22
    279a:	77 0f       	add	r23, r23
    279c:	66 0b       	sbc	r22, r22
    279e:	77 0b       	sbc	r23, r23
    27a0:	0c 94 83 13 	jmp	0x2706	; 0x2706 <Print::print(long, int)>

000027a4 <Print::println(int, int)>:
_ZN5Print7printlnEii():
    27a4:	0f 93       	push	r16
    27a6:	1f 93       	push	r17
    27a8:	cf 93       	push	r28
    27aa:	df 93       	push	r29
    27ac:	ec 01       	movw	r28, r24
    27ae:	0e 94 cb 13 	call	0x2796	; 0x2796 <Print::print(int, int)>
    27b2:	8c 01       	movw	r16, r24
    27b4:	ce 01       	movw	r24, r28
    27b6:	0e 94 1c 13 	call	0x2638	; 0x2638 <Print::println()>
    27ba:	80 0f       	add	r24, r16
    27bc:	91 1f       	adc	r25, r17
    27be:	df 91       	pop	r29
    27c0:	cf 91       	pop	r28
    27c2:	1f 91       	pop	r17
    27c4:	0f 91       	pop	r16
    27c6:	08 95       	ret

000027c8 <Print::print(unsigned long, int)>:
_ZN5Print5printEmi():
C:\Users\mateu\AppData\Local\Arduino15\packages\MiniCore\hardware\avr\2.0.9\cores\MCUdude_corefiles/Print.cpp:105
  }
}

size_t Print::print(unsigned long n, int base)
{
  if (base == 0) return write(n);
    27c8:	21 15       	cp	r18, r1
    27ca:	31 05       	cpc	r19, r1
    27cc:	41 f4       	brne	.+16     	; 0x27de <Print::print(unsigned long, int)+0x16>
    27ce:	dc 01       	movw	r26, r24
    27d0:	ed 91       	ld	r30, X+
    27d2:	fc 91       	ld	r31, X
    27d4:	01 90       	ld	r0, Z+
    27d6:	f0 81       	ld	r31, Z
    27d8:	e0 2d       	mov	r30, r0
    27da:	64 2f       	mov	r22, r20
    27dc:	09 94       	ijmp
C:\Users\mateu\AppData\Local\Arduino15\packages\MiniCore\hardware\avr\2.0.9\cores\MCUdude_corefiles/Print.cpp:106
  else return printNumber(n, base);
    27de:	0c 94 37 13 	jmp	0x266e	; 0x266e <Print::printNumber(unsigned long, unsigned char)>

000027e2 <Print::print(unsigned char, int)>:
_ZN5Print5printEhi():
C:\Users\mateu\AppData\Local\Arduino15\packages\MiniCore\hardware\avr\2.0.9\cores\MCUdude_corefiles/Print.cpp:73
{
  return write(c);
}

size_t Print::print(unsigned char b, int base)
{
    27e2:	9a 01       	movw	r18, r20
C:\Users\mateu\AppData\Local\Arduino15\packages\MiniCore\hardware\avr\2.0.9\cores\MCUdude_corefiles/Print.cpp:74
  return print((unsigned long) b, base);
    27e4:	46 2f       	mov	r20, r22
    27e6:	50 e0       	ldi	r21, 0x00	; 0
    27e8:	70 e0       	ldi	r23, 0x00	; 0
    27ea:	60 e0       	ldi	r22, 0x00	; 0
    27ec:	0c 94 e4 13 	jmp	0x27c8	; 0x27c8 <Print::print(unsigned long, int)>

000027f0 <Print::println(unsigned char, int)>:
_ZN5Print7printlnEhi():
C:\Users\mateu\AppData\Local\Arduino15\packages\MiniCore\hardware\avr\2.0.9\cores\MCUdude_corefiles/Print.cpp:153
  n += println();
  return n;
}

size_t Print::println(unsigned char b, int base)
{
    27f0:	0f 93       	push	r16
    27f2:	1f 93       	push	r17
    27f4:	cf 93       	push	r28
    27f6:	df 93       	push	r29
    27f8:	ec 01       	movw	r28, r24
C:\Users\mateu\AppData\Local\Arduino15\packages\MiniCore\hardware\avr\2.0.9\cores\MCUdude_corefiles/Print.cpp:154
  size_t n = print(b, base);
    27fa:	0e 94 f1 13 	call	0x27e2	; 0x27e2 <Print::print(unsigned char, int)>
    27fe:	8c 01       	movw	r16, r24
C:\Users\mateu\AppData\Local\Arduino15\packages\MiniCore\hardware\avr\2.0.9\cores\MCUdude_corefiles/Print.cpp:155
  n += println();
    2800:	ce 01       	movw	r24, r28
    2802:	0e 94 1c 13 	call	0x2638	; 0x2638 <Print::println()>
C:\Users\mateu\AppData\Local\Arduino15\packages\MiniCore\hardware\avr\2.0.9\cores\MCUdude_corefiles/Print.cpp:157
  return n;
}
    2806:	80 0f       	add	r24, r16
    2808:	91 1f       	adc	r25, r17
    280a:	df 91       	pop	r29
    280c:	cf 91       	pop	r28
    280e:	1f 91       	pop	r17
    2810:	0f 91       	pop	r16
    2812:	08 95       	ret

00002814 <String::StringIfHelper() const>:
_ZNK6String14StringIfHelperEv():
C:\Users\mateu\AppData\Local\Arduino15\packages\MiniCore\hardware\avr\2.0.9\cores\MCUdude_corefiles/WString.cpp:728
  while (isspace(*begin)) begin++;
  char *end = buffer + len - 1;
  while (isspace(*end) && end >= begin) end--;
  len = end + 1 - begin;
  if (begin > buffer) memcpy(buffer, begin, len);
  buffer[len] = 0;
    2814:	08 95       	ret

00002816 <String::~String()>:
_ZN6StringD2Ev():
    2816:	fc 01       	movw	r30, r24
    2818:	80 81       	ld	r24, Z
    281a:	91 81       	ldd	r25, Z+1	; 0x01
    281c:	0c 94 ad 18 	jmp	0x315a	; 0x315a <free>

00002820 <String::invalidate()>:
_ZN6String10invalidateEv():
    2820:	cf 93       	push	r28
    2822:	df 93       	push	r29
    2824:	ec 01       	movw	r28, r24
    2826:	88 81       	ld	r24, Y
    2828:	99 81       	ldd	r25, Y+1	; 0x01
    282a:	00 97       	sbiw	r24, 0x00	; 0
    282c:	11 f0       	breq	.+4      	; 0x2832 <String::invalidate()+0x12>
    282e:	0e 94 ad 18 	call	0x315a	; 0x315a <free>
    2832:	19 82       	std	Y+1, r1	; 0x01
    2834:	18 82       	st	Y, r1
    2836:	1d 82       	std	Y+5, r1	; 0x05
    2838:	1c 82       	std	Y+4, r1	; 0x04
    283a:	1b 82       	std	Y+3, r1	; 0x03
    283c:	1a 82       	std	Y+2, r1	; 0x02
    283e:	df 91       	pop	r29
    2840:	cf 91       	pop	r28
    2842:	08 95       	ret

00002844 <String::changeBuffer(unsigned int)>:
_ZN6String12changeBufferEj():
    2844:	0f 93       	push	r16
    2846:	1f 93       	push	r17
    2848:	cf 93       	push	r28
    284a:	df 93       	push	r29
    284c:	ec 01       	movw	r28, r24
    284e:	8b 01       	movw	r16, r22
    2850:	6f 5f       	subi	r22, 0xFF	; 255
    2852:	7f 4f       	sbci	r23, 0xFF	; 255
    2854:	88 81       	ld	r24, Y
    2856:	99 81       	ldd	r25, Y+1	; 0x01
    2858:	0e 94 36 19 	call	0x326c	; 0x326c <realloc>
    285c:	00 97       	sbiw	r24, 0x00	; 0
    285e:	51 f0       	breq	.+20     	; 0x2874 <String::changeBuffer(unsigned int)+0x30>
    2860:	99 83       	std	Y+1, r25	; 0x01
    2862:	88 83       	st	Y, r24
    2864:	1b 83       	std	Y+3, r17	; 0x03
    2866:	0a 83       	std	Y+2, r16	; 0x02
    2868:	81 e0       	ldi	r24, 0x01	; 1
    286a:	df 91       	pop	r29
    286c:	cf 91       	pop	r28
    286e:	1f 91       	pop	r17
    2870:	0f 91       	pop	r16
    2872:	08 95       	ret
    2874:	80 e0       	ldi	r24, 0x00	; 0
    2876:	f9 cf       	rjmp	.-14     	; 0x286a <String::changeBuffer(unsigned int)+0x26>

00002878 <String::reserve(unsigned int)>:
_ZN6String7reserveEj():
    2878:	cf 93       	push	r28
    287a:	df 93       	push	r29
    287c:	ec 01       	movw	r28, r24
    287e:	88 81       	ld	r24, Y
    2880:	99 81       	ldd	r25, Y+1	; 0x01
    2882:	89 2b       	or	r24, r25
    2884:	49 f0       	breq	.+18     	; 0x2898 <String::reserve(unsigned int)+0x20>
    2886:	8a 81       	ldd	r24, Y+2	; 0x02
    2888:	9b 81       	ldd	r25, Y+3	; 0x03
    288a:	86 17       	cp	r24, r22
    288c:	97 07       	cpc	r25, r23
    288e:	20 f0       	brcs	.+8      	; 0x2898 <String::reserve(unsigned int)+0x20>
    2890:	81 e0       	ldi	r24, 0x01	; 1
    2892:	df 91       	pop	r29
    2894:	cf 91       	pop	r28
    2896:	08 95       	ret
    2898:	ce 01       	movw	r24, r28
    289a:	0e 94 22 14 	call	0x2844	; 0x2844 <String::changeBuffer(unsigned int)>
    289e:	88 23       	and	r24, r24
    28a0:	c1 f3       	breq	.-16     	; 0x2892 <String::reserve(unsigned int)+0x1a>
    28a2:	8c 81       	ldd	r24, Y+4	; 0x04
    28a4:	9d 81       	ldd	r25, Y+5	; 0x05
    28a6:	89 2b       	or	r24, r25
    28a8:	99 f7       	brne	.-26     	; 0x2890 <String::reserve(unsigned int)+0x18>
    28aa:	e8 81       	ld	r30, Y
    28ac:	f9 81       	ldd	r31, Y+1	; 0x01
    28ae:	10 82       	st	Z, r1
    28b0:	ef cf       	rjmp	.-34     	; 0x2890 <String::reserve(unsigned int)+0x18>

000028b2 <String::copy(char const*, unsigned int)>:
_ZN6String4copyEPKcj():
    28b2:	ef 92       	push	r14
    28b4:	ff 92       	push	r15
    28b6:	0f 93       	push	r16
    28b8:	1f 93       	push	r17
    28ba:	cf 93       	push	r28
    28bc:	df 93       	push	r29
    28be:	ec 01       	movw	r28, r24
    28c0:	7b 01       	movw	r14, r22
    28c2:	8a 01       	movw	r16, r20
    28c4:	ba 01       	movw	r22, r20
    28c6:	0e 94 3c 14 	call	0x2878	; 0x2878 <String::reserve(unsigned int)>
    28ca:	81 11       	cpse	r24, r1
    28cc:	0b c0       	rjmp	.+22     	; 0x28e4 <String::copy(char const*, unsigned int)+0x32>
    28ce:	ce 01       	movw	r24, r28
    28d0:	0e 94 10 14 	call	0x2820	; 0x2820 <String::invalidate()>
    28d4:	ce 01       	movw	r24, r28
    28d6:	df 91       	pop	r29
    28d8:	cf 91       	pop	r28
    28da:	1f 91       	pop	r17
    28dc:	0f 91       	pop	r16
    28de:	ff 90       	pop	r15
    28e0:	ef 90       	pop	r14
    28e2:	08 95       	ret
    28e4:	1d 83       	std	Y+5, r17	; 0x05
    28e6:	0c 83       	std	Y+4, r16	; 0x04
    28e8:	b7 01       	movw	r22, r14
    28ea:	88 81       	ld	r24, Y
    28ec:	99 81       	ldd	r25, Y+1	; 0x01
    28ee:	0e 94 39 1a 	call	0x3472	; 0x3472 <strcpy>
    28f2:	f0 cf       	rjmp	.-32     	; 0x28d4 <String::copy(char const*, unsigned int)+0x22>

000028f4 <String::String(char const*)>:
_ZN6String4initEv():
    28f4:	fc 01       	movw	r30, r24
    28f6:	11 82       	std	Z+1, r1	; 0x01
    28f8:	10 82       	st	Z, r1
    28fa:	13 82       	std	Z+3, r1	; 0x03
    28fc:	12 82       	std	Z+2, r1	; 0x02
    28fe:	15 82       	std	Z+5, r1	; 0x05
    2900:	14 82       	std	Z+4, r1	; 0x04
_ZN6StringC2EPKc():
    2902:	61 15       	cp	r22, r1
    2904:	71 05       	cpc	r23, r1
    2906:	51 f0       	breq	.+20     	; 0x291c <String::String(char const*)+0x28>
    2908:	fb 01       	movw	r30, r22
    290a:	01 90       	ld	r0, Z+
    290c:	00 20       	and	r0, r0
    290e:	e9 f7       	brne	.-6      	; 0x290a <String::String(char const*)+0x16>
    2910:	31 97       	sbiw	r30, 0x01	; 1
    2912:	af 01       	movw	r20, r30
    2914:	46 1b       	sub	r20, r22
    2916:	57 0b       	sbc	r21, r23
    2918:	0c 94 59 14 	jmp	0x28b2	; 0x28b2 <String::copy(char const*, unsigned int)>
    291c:	08 95       	ret

0000291e <String::operator=(char const*) [clone .part.3]>:
_ZN6StringaSEPKc():
    291e:	fb 01       	movw	r30, r22
    2920:	01 90       	ld	r0, Z+
    2922:	00 20       	and	r0, r0
    2924:	e9 f7       	brne	.-6      	; 0x2920 <String::operator=(char const*) [clone .part.3]+0x2>
    2926:	31 97       	sbiw	r30, 0x01	; 1
    2928:	af 01       	movw	r20, r30
    292a:	46 1b       	sub	r20, r22
    292c:	57 0b       	sbc	r21, r23
    292e:	0c 94 59 14 	jmp	0x28b2	; 0x28b2 <String::copy(char const*, unsigned int)>

00002932 <String::move(String&)>:
_ZN6String4moveERS_():
    2932:	0f 93       	push	r16
    2934:	1f 93       	push	r17
    2936:	cf 93       	push	r28
    2938:	df 93       	push	r29
    293a:	8c 01       	movw	r16, r24
    293c:	eb 01       	movw	r28, r22
    293e:	fc 01       	movw	r30, r24
    2940:	80 81       	ld	r24, Z
    2942:	91 81       	ldd	r25, Z+1	; 0x01
    2944:	00 97       	sbiw	r24, 0x00	; 0
    2946:	01 f1       	breq	.+64     	; 0x2988 <String::move(String&)+0x56>
    2948:	68 81       	ld	r22, Y
    294a:	79 81       	ldd	r23, Y+1	; 0x01
_ZNK6StringcvMS_KFvvEEv():
    294c:	61 15       	cp	r22, r1
    294e:	71 05       	cpc	r23, r1
    2950:	c9 f0       	breq	.+50     	; 0x2984 <String::move(String&)+0x52>
_ZN6String4moveERS_():
    2952:	2a e0       	ldi	r18, 0x0A	; 10
    2954:	34 e1       	ldi	r19, 0x14	; 20
    2956:	23 2b       	or	r18, r19
    2958:	a9 f0       	breq	.+42     	; 0x2984 <String::move(String&)+0x52>
    295a:	42 81       	ldd	r20, Z+2	; 0x02
    295c:	53 81       	ldd	r21, Z+3	; 0x03
    295e:	2c 81       	ldd	r18, Y+4	; 0x04
    2960:	3d 81       	ldd	r19, Y+5	; 0x05
    2962:	42 17       	cp	r20, r18
    2964:	53 07       	cpc	r21, r19
    2966:	70 f0       	brcs	.+28     	; 0x2984 <String::move(String&)+0x52>
    2968:	0e 94 39 1a 	call	0x3472	; 0x3472 <strcpy>
    296c:	8c 81       	ldd	r24, Y+4	; 0x04
    296e:	9d 81       	ldd	r25, Y+5	; 0x05
    2970:	f8 01       	movw	r30, r16
    2972:	95 83       	std	Z+5, r25	; 0x05
    2974:	84 83       	std	Z+4, r24	; 0x04
    2976:	1d 82       	std	Y+5, r1	; 0x05
    2978:	1c 82       	std	Y+4, r1	; 0x04
    297a:	df 91       	pop	r29
    297c:	cf 91       	pop	r28
    297e:	1f 91       	pop	r17
    2980:	0f 91       	pop	r16
    2982:	08 95       	ret
    2984:	0e 94 ad 18 	call	0x315a	; 0x315a <free>
    2988:	88 81       	ld	r24, Y
    298a:	99 81       	ldd	r25, Y+1	; 0x01
    298c:	f8 01       	movw	r30, r16
    298e:	91 83       	std	Z+1, r25	; 0x01
    2990:	80 83       	st	Z, r24
    2992:	8a 81       	ldd	r24, Y+2	; 0x02
    2994:	9b 81       	ldd	r25, Y+3	; 0x03
    2996:	93 83       	std	Z+3, r25	; 0x03
    2998:	82 83       	std	Z+2, r24	; 0x02
    299a:	8c 81       	ldd	r24, Y+4	; 0x04
    299c:	9d 81       	ldd	r25, Y+5	; 0x05
    299e:	95 83       	std	Z+5, r25	; 0x05
    29a0:	84 83       	std	Z+4, r24	; 0x04
    29a2:	19 82       	std	Y+1, r1	; 0x01
    29a4:	18 82       	st	Y, r1
    29a6:	1b 82       	std	Y+3, r1	; 0x03
    29a8:	1a 82       	std	Y+2, r1	; 0x02
    29aa:	e5 cf       	rjmp	.-54     	; 0x2976 <String::move(String&)+0x44>

000029ac <String::operator=(String const&)>:
_ZN6StringaSERKS_():
    29ac:	cf 93       	push	r28
    29ae:	df 93       	push	r29
    29b0:	ec 01       	movw	r28, r24
    29b2:	fb 01       	movw	r30, r22
    29b4:	86 17       	cp	r24, r22
    29b6:	97 07       	cpc	r25, r23
    29b8:	49 f0       	breq	.+18     	; 0x29cc <String::operator=(String const&)+0x20>
    29ba:	60 81       	ld	r22, Z
    29bc:	71 81       	ldd	r23, Z+1	; 0x01
    29be:	61 15       	cp	r22, r1
    29c0:	71 05       	cpc	r23, r1
    29c2:	41 f0       	breq	.+16     	; 0x29d4 <String::operator=(String const&)+0x28>
    29c4:	44 81       	ldd	r20, Z+4	; 0x04
    29c6:	55 81       	ldd	r21, Z+5	; 0x05
    29c8:	0e 94 59 14 	call	0x28b2	; 0x28b2 <String::copy(char const*, unsigned int)>
    29cc:	ce 01       	movw	r24, r28
    29ce:	df 91       	pop	r29
    29d0:	cf 91       	pop	r28
    29d2:	08 95       	ret
    29d4:	0e 94 10 14 	call	0x2820	; 0x2820 <String::invalidate()>
    29d8:	f9 cf       	rjmp	.-14     	; 0x29cc <String::operator=(String const&)+0x20>

000029da <String::String(String const&)>:
_ZN6String4initEv():
    29da:	fc 01       	movw	r30, r24
    29dc:	11 82       	std	Z+1, r1	; 0x01
    29de:	10 82       	st	Z, r1
    29e0:	13 82       	std	Z+3, r1	; 0x03
    29e2:	12 82       	std	Z+2, r1	; 0x02
    29e4:	15 82       	std	Z+5, r1	; 0x05
    29e6:	14 82       	std	Z+4, r1	; 0x04
_ZN6StringC2ERKS_():
    29e8:	0c 94 d6 14 	jmp	0x29ac	; 0x29ac <String::operator=(String const&)>

000029ec <String::operator=(String&&)>:
_ZN6StringaSEOS_():
    29ec:	cf 93       	push	r28
    29ee:	df 93       	push	r29
    29f0:	ec 01       	movw	r28, r24
    29f2:	86 17       	cp	r24, r22
    29f4:	97 07       	cpc	r25, r23
    29f6:	11 f0       	breq	.+4      	; 0x29fc <String::operator=(String&&)+0x10>
    29f8:	0e 94 99 14 	call	0x2932	; 0x2932 <String::move(String&)>
    29fc:	ce 01       	movw	r24, r28
    29fe:	df 91       	pop	r29
    2a00:	cf 91       	pop	r28
    2a02:	08 95       	ret

00002a04 <String::operator=(char const*)>:
_ZN6StringaSEPKc():
    2a04:	cf 93       	push	r28
    2a06:	df 93       	push	r29
    2a08:	ec 01       	movw	r28, r24
    2a0a:	61 15       	cp	r22, r1
    2a0c:	71 05       	cpc	r23, r1
    2a0e:	31 f0       	breq	.+12     	; 0x2a1c <String::operator=(char const*)+0x18>
    2a10:	0e 94 8f 14 	call	0x291e	; 0x291e <String::operator=(char const*) [clone .part.3]>
    2a14:	ce 01       	movw	r24, r28
    2a16:	df 91       	pop	r29
    2a18:	cf 91       	pop	r28
    2a1a:	08 95       	ret
    2a1c:	0e 94 10 14 	call	0x2820	; 0x2820 <String::invalidate()>
    2a20:	f9 cf       	rjmp	.-14     	; 0x2a14 <String::operator=(char const*)+0x10>

00002a22 <String::concat(char const*, unsigned int)>:
_ZN6String6concatEPKcj():
    2a22:	ef 92       	push	r14
    2a24:	ff 92       	push	r15
    2a26:	0f 93       	push	r16
    2a28:	1f 93       	push	r17
    2a2a:	cf 93       	push	r28
    2a2c:	df 93       	push	r29
    2a2e:	61 15       	cp	r22, r1
    2a30:	71 05       	cpc	r23, r1
    2a32:	41 f4       	brne	.+16     	; 0x2a44 <String::concat(char const*, unsigned int)+0x22>
    2a34:	80 e0       	ldi	r24, 0x00	; 0
    2a36:	df 91       	pop	r29
    2a38:	cf 91       	pop	r28
    2a3a:	1f 91       	pop	r17
    2a3c:	0f 91       	pop	r16
    2a3e:	ff 90       	pop	r15
    2a40:	ef 90       	pop	r14
    2a42:	08 95       	ret
    2a44:	41 15       	cp	r20, r1
    2a46:	51 05       	cpc	r21, r1
    2a48:	b1 f0       	breq	.+44     	; 0x2a76 <String::concat(char const*, unsigned int)+0x54>
    2a4a:	7b 01       	movw	r14, r22
    2a4c:	ec 01       	movw	r28, r24
    2a4e:	0c 81       	ldd	r16, Y+4	; 0x04
    2a50:	1d 81       	ldd	r17, Y+5	; 0x05
    2a52:	04 0f       	add	r16, r20
    2a54:	15 1f       	adc	r17, r21
    2a56:	b8 01       	movw	r22, r16
    2a58:	0e 94 3c 14 	call	0x2878	; 0x2878 <String::reserve(unsigned int)>
    2a5c:	88 23       	and	r24, r24
    2a5e:	51 f3       	breq	.-44     	; 0x2a34 <String::concat(char const*, unsigned int)+0x12>
    2a60:	28 81       	ld	r18, Y
    2a62:	39 81       	ldd	r19, Y+1	; 0x01
    2a64:	8c 81       	ldd	r24, Y+4	; 0x04
    2a66:	9d 81       	ldd	r25, Y+5	; 0x05
    2a68:	b7 01       	movw	r22, r14
    2a6a:	82 0f       	add	r24, r18
    2a6c:	93 1f       	adc	r25, r19
    2a6e:	0e 94 39 1a 	call	0x3472	; 0x3472 <strcpy>
    2a72:	1d 83       	std	Y+5, r17	; 0x05
    2a74:	0c 83       	std	Y+4, r16	; 0x04
    2a76:	81 e0       	ldi	r24, 0x01	; 1
    2a78:	de cf       	rjmp	.-68     	; 0x2a36 <String::concat(char const*, unsigned int)+0x14>

00002a7a <String::concat(char)>:
_ZN6String6concatEc():
    2a7a:	cf 93       	push	r28
    2a7c:	df 93       	push	r29
    2a7e:	00 d0       	rcall	.+0      	; 0x2a80 <String::concat(char)+0x6>
    2a80:	cd b7       	in	r28, 0x3d	; 61
    2a82:	de b7       	in	r29, 0x3e	; 62
    2a84:	69 83       	std	Y+1, r22	; 0x01
    2a86:	1a 82       	std	Y+2, r1	; 0x02
    2a88:	41 e0       	ldi	r20, 0x01	; 1
    2a8a:	50 e0       	ldi	r21, 0x00	; 0
    2a8c:	be 01       	movw	r22, r28
    2a8e:	6f 5f       	subi	r22, 0xFF	; 255
    2a90:	7f 4f       	sbci	r23, 0xFF	; 255
    2a92:	0e 94 11 15 	call	0x2a22	; 0x2a22 <String::concat(char const*, unsigned int)>
    2a96:	0f 90       	pop	r0
    2a98:	0f 90       	pop	r0
    2a9a:	df 91       	pop	r29
    2a9c:	cf 91       	pop	r28
    2a9e:	08 95       	ret

00002aa0 <operator+(StringSumHelper const&, String const&)>:
_ZplRK15StringSumHelperRK6String():
    2aa0:	cf 93       	push	r28
    2aa2:	df 93       	push	r29
    2aa4:	ec 01       	movw	r28, r24
    2aa6:	fb 01       	movw	r30, r22
    2aa8:	44 81       	ldd	r20, Z+4	; 0x04
    2aaa:	55 81       	ldd	r21, Z+5	; 0x05
    2aac:	60 81       	ld	r22, Z
    2aae:	71 81       	ldd	r23, Z+1	; 0x01
    2ab0:	0e 94 11 15 	call	0x2a22	; 0x2a22 <String::concat(char const*, unsigned int)>
    2ab4:	81 11       	cpse	r24, r1
    2ab6:	03 c0       	rjmp	.+6      	; 0x2abe <operator+(StringSumHelper const&, String const&)+0x1e>
    2ab8:	ce 01       	movw	r24, r28
    2aba:	0e 94 10 14 	call	0x2820	; 0x2820 <String::invalidate()>
    2abe:	ce 01       	movw	r24, r28
    2ac0:	df 91       	pop	r29
    2ac2:	cf 91       	pop	r28
    2ac4:	08 95       	ret

00002ac6 <operator+(StringSumHelper const&, char const*)>:
_ZplRK15StringSumHelperPKc():
    2ac6:	cf 93       	push	r28
    2ac8:	df 93       	push	r29
    2aca:	ec 01       	movw	r28, r24
    2acc:	61 15       	cp	r22, r1
    2ace:	71 05       	cpc	r23, r1
    2ad0:	39 f4       	brne	.+14     	; 0x2ae0 <operator+(StringSumHelper const&, char const*)+0x1a>
    2ad2:	ce 01       	movw	r24, r28
    2ad4:	0e 94 10 14 	call	0x2820	; 0x2820 <String::invalidate()>
    2ad8:	ce 01       	movw	r24, r28
    2ada:	df 91       	pop	r29
    2adc:	cf 91       	pop	r28
    2ade:	08 95       	ret
    2ae0:	fb 01       	movw	r30, r22
    2ae2:	01 90       	ld	r0, Z+
    2ae4:	00 20       	and	r0, r0
    2ae6:	e9 f7       	brne	.-6      	; 0x2ae2 <operator+(StringSumHelper const&, char const*)+0x1c>
    2ae8:	31 97       	sbiw	r30, 0x01	; 1
    2aea:	af 01       	movw	r20, r30
    2aec:	46 1b       	sub	r20, r22
    2aee:	57 0b       	sbc	r21, r23
    2af0:	0e 94 11 15 	call	0x2a22	; 0x2a22 <String::concat(char const*, unsigned int)>
    2af4:	88 23       	and	r24, r24
    2af6:	69 f3       	breq	.-38     	; 0x2ad2 <operator+(StringSumHelper const&, char const*)+0xc>
    2af8:	ef cf       	rjmp	.-34     	; 0x2ad8 <operator+(StringSumHelper const&, char const*)+0x12>

00002afa <String::equals(char const*) const>:
_ZNK6String6equalsEPKc():
    2afa:	fc 01       	movw	r30, r24
    2afc:	24 81       	ldd	r18, Z+4	; 0x04
    2afe:	35 81       	ldd	r19, Z+5	; 0x05
    2b00:	23 2b       	or	r18, r19
    2b02:	31 f4       	brne	.+12     	; 0x2b10 <String::equals(char const*) const+0x16>
    2b04:	21 e0       	ldi	r18, 0x01	; 1
    2b06:	fb 01       	movw	r30, r22
    2b08:	67 2b       	or	r22, r23
    2b0a:	49 f4       	brne	.+18     	; 0x2b1e <String::equals(char const*) const+0x24>
    2b0c:	82 2f       	mov	r24, r18
    2b0e:	08 95       	ret
    2b10:	80 81       	ld	r24, Z
    2b12:	91 81       	ldd	r25, Z+1	; 0x01
    2b14:	61 15       	cp	r22, r1
    2b16:	71 05       	cpc	r23, r1
    2b18:	39 f4       	brne	.+14     	; 0x2b28 <String::equals(char const*) const+0x2e>
    2b1a:	21 e0       	ldi	r18, 0x01	; 1
    2b1c:	fc 01       	movw	r30, r24
    2b1e:	80 81       	ld	r24, Z
    2b20:	88 23       	and	r24, r24
    2b22:	a1 f3       	breq	.-24     	; 0x2b0c <String::equals(char const*) const+0x12>
    2b24:	20 e0       	ldi	r18, 0x00	; 0
    2b26:	f2 cf       	rjmp	.-28     	; 0x2b0c <String::equals(char const*) const+0x12>
    2b28:	0e 94 30 1a 	call	0x3460	; 0x3460 <strcmp>
    2b2c:	21 e0       	ldi	r18, 0x01	; 1
    2b2e:	89 2b       	or	r24, r25
    2b30:	69 f3       	breq	.-38     	; 0x2b0c <String::equals(char const*) const+0x12>
    2b32:	f8 cf       	rjmp	.-16     	; 0x2b24 <String::equals(char const*) const+0x2a>

00002b34 <String::operator[](unsigned int)>:
_ZN6StringixEj():
    2b34:	fc 01       	movw	r30, r24
    2b36:	24 81       	ldd	r18, Z+4	; 0x04
    2b38:	35 81       	ldd	r19, Z+5	; 0x05
    2b3a:	62 17       	cp	r22, r18
    2b3c:	73 07       	cpc	r23, r19
    2b3e:	20 f4       	brcc	.+8      	; 0x2b48 <String::operator[](unsigned int)+0x14>
    2b40:	80 81       	ld	r24, Z
    2b42:	91 81       	ldd	r25, Z+1	; 0x01
    2b44:	00 97       	sbiw	r24, 0x00	; 0
    2b46:	29 f4       	brne	.+10     	; 0x2b52 <String::operator[](unsigned int)+0x1e>
    2b48:	10 92 5d 04 	sts	0x045D, r1	; 0x80045d <String::operator[](unsigned int)::dummy_writable_char>
    2b4c:	8d e5       	ldi	r24, 0x5D	; 93
    2b4e:	94 e0       	ldi	r25, 0x04	; 4
    2b50:	08 95       	ret
    2b52:	86 0f       	add	r24, r22
    2b54:	97 1f       	adc	r25, r23
    2b56:	08 95       	ret

00002b58 <String::substring(unsigned int, unsigned int) const>:
_ZNK6String9substringEjj():
    2b58:	af 92       	push	r10
    2b5a:	bf 92       	push	r11
    2b5c:	cf 92       	push	r12
    2b5e:	df 92       	push	r13
    2b60:	ef 92       	push	r14
    2b62:	ff 92       	push	r15
    2b64:	0f 93       	push	r16
    2b66:	1f 93       	push	r17
    2b68:	cf 93       	push	r28
    2b6a:	df 93       	push	r29
    2b6c:	5c 01       	movw	r10, r24
    2b6e:	6b 01       	movw	r12, r22
    2b70:	7a 01       	movw	r14, r20
    2b72:	89 01       	movw	r16, r18
    2b74:	24 17       	cp	r18, r20
    2b76:	35 07       	cpc	r19, r21
    2b78:	20 f4       	brcc	.+8      	; 0x2b82 <String::substring(unsigned int, unsigned int) const+0x2a>
    2b7a:	8f 2d       	mov	r24, r15
    2b7c:	79 01       	movw	r14, r18
    2b7e:	04 2f       	mov	r16, r20
    2b80:	18 2f       	mov	r17, r24
    2b82:	6c e1       	ldi	r22, 0x1C	; 28
    2b84:	72 e0       	ldi	r23, 0x02	; 2
    2b86:	c5 01       	movw	r24, r10
    2b88:	0e 94 7a 14 	call	0x28f4	; 0x28f4 <String::String(char const*)>
    2b8c:	d6 01       	movw	r26, r12
    2b8e:	14 96       	adiw	r26, 0x04	; 4
    2b90:	cd 91       	ld	r28, X+
    2b92:	dc 91       	ld	r29, X
    2b94:	ec 16       	cp	r14, r28
    2b96:	fd 06       	cpc	r15, r29
    2b98:	c8 f4       	brcc	.+50     	; 0x2bcc <String::substring(unsigned int, unsigned int) const+0x74>
    2b9a:	0c 17       	cp	r16, r28
    2b9c:	1d 07       	cpc	r17, r29
    2b9e:	08 f4       	brcc	.+2      	; 0x2ba2 <String::substring(unsigned int, unsigned int) const+0x4a>
    2ba0:	e8 01       	movw	r28, r16
    2ba2:	d6 01       	movw	r26, r12
    2ba4:	ed 91       	ld	r30, X+
    2ba6:	fc 91       	ld	r31, X
    2ba8:	11 97       	sbiw	r26, 0x01	; 1
    2baa:	ec 0f       	add	r30, r28
    2bac:	fd 1f       	adc	r31, r29
    2bae:	10 81       	ld	r17, Z
    2bb0:	10 82       	st	Z, r1
    2bb2:	6d 91       	ld	r22, X+
    2bb4:	7c 91       	ld	r23, X
    2bb6:	6e 0d       	add	r22, r14
    2bb8:	7f 1d       	adc	r23, r15
    2bba:	c5 01       	movw	r24, r10
    2bbc:	0e 94 02 15 	call	0x2a04	; 0x2a04 <String::operator=(char const*)>
    2bc0:	f6 01       	movw	r30, r12
    2bc2:	80 81       	ld	r24, Z
    2bc4:	91 81       	ldd	r25, Z+1	; 0x01
    2bc6:	c8 0f       	add	r28, r24
    2bc8:	d9 1f       	adc	r29, r25
    2bca:	18 83       	st	Y, r17
    2bcc:	c5 01       	movw	r24, r10
    2bce:	df 91       	pop	r29
    2bd0:	cf 91       	pop	r28
    2bd2:	1f 91       	pop	r17
    2bd4:	0f 91       	pop	r16
    2bd6:	ff 90       	pop	r15
    2bd8:	ef 90       	pop	r14
    2bda:	df 90       	pop	r13
    2bdc:	cf 90       	pop	r12
    2bde:	bf 90       	pop	r11
    2be0:	af 90       	pop	r10
    2be2:	08 95       	ret

00002be4 <String::toInt() const>:
_ZNK6String5toIntEv():
C:\Users\mateu\AppData\Local\Arduino15\packages\MiniCore\hardware\avr\2.0.9\cores\MCUdude_corefiles/WString.cpp:737
/*  Parsing / Conversion                     */
/*********************************************/

long String::toInt(void) const
{
  if (buffer) return atol(buffer);
    2be4:	fc 01       	movw	r30, r24
    2be6:	80 81       	ld	r24, Z
    2be8:	91 81       	ldd	r25, Z+1	; 0x01
    2bea:	00 97       	sbiw	r24, 0x00	; 0
    2bec:	11 f0       	breq	.+4      	; 0x2bf2 <String::toInt() const+0xe>
C:\Users\mateu\AppData\Local\Arduino15\packages\MiniCore\hardware\avr\2.0.9\cores\MCUdude_corefiles/WString.cpp:737 (discriminator 1)
    2bee:	0c 94 f3 19 	jmp	0x33e6	; 0x33e6 <atol>
C:\Users\mateu\AppData\Local\Arduino15\packages\MiniCore\hardware\avr\2.0.9\cores\MCUdude_corefiles/WString.cpp:739
  return 0;
}
    2bf2:	60 e0       	ldi	r22, 0x00	; 0
    2bf4:	70 e0       	ldi	r23, 0x00	; 0
    2bf6:	cb 01       	movw	r24, r22
    2bf8:	08 95       	ret

00002bfa <initVariant>:
initVariant():
C:\Users\mateu\AppData\Local\Arduino15\packages\MiniCore\hardware\avr\2.0.9\cores\MCUdude_corefiles/main.cpp:28
int atexit(void (* /*func*/ )()) { return 0; }

// Weak empty variant initialization function.
// May be redefined by variant files.
void initVariant() __attribute__((weak));
void initVariant() { }
    2bfa:	08 95       	ret

00002bfc <main>:
main():
C:\Users\mateu\AppData\Local\Arduino15\packages\MiniCore\hardware\avr\2.0.9\cores\MCUdude_corefiles/main.cpp:35
//void setupUSB() __attribute__((weak));
//void setupUSB() { }

int main(void)
{
  init();
    2bfc:	0e 94 b5 16 	call	0x2d6a	; 0x2d6a <init>
C:\Users\mateu\AppData\Local\Arduino15\packages\MiniCore\hardware\avr\2.0.9\cores\MCUdude_corefiles/main.cpp:37

  initVariant();
    2c00:	0e 94 fd 15 	call	0x2bfa	; 0x2bfa <initVariant>
C:\Users\mateu\AppData\Local\Arduino15\packages\MiniCore\hardware\avr\2.0.9\cores\MCUdude_corefiles/main.cpp:43

#if defined(USBCON)
  USBDevice.attach();
#endif
  
  setup();
    2c04:	0e 94 f9 07 	call	0xff2	; 0xff2 <setup>
C:\Users\mateu\AppData\Local\Arduino15\packages\MiniCore\hardware\avr\2.0.9\cores\MCUdude_corefiles/main.cpp:47
    
  for (;;) {
    loop();
    if (serialEventRun) serialEventRun();
    2c08:	c1 e4       	ldi	r28, 0x41	; 65
    2c0a:	d1 e1       	ldi	r29, 0x11	; 17
C:\Users\mateu\AppData\Local\Arduino15\packages\MiniCore\hardware\avr\2.0.9\cores\MCUdude_corefiles/main.cpp:46
#endif
  
  setup();
    
  for (;;) {
    loop();
    2c0c:	0e 94 2e 08 	call	0x105c	; 0x105c <loop>
C:\Users\mateu\AppData\Local\Arduino15\packages\MiniCore\hardware\avr\2.0.9\cores\MCUdude_corefiles/main.cpp:47
    if (serialEventRun) serialEventRun();
    2c10:	20 97       	sbiw	r28, 0x00	; 0
    2c12:	e1 f3       	breq	.-8      	; 0x2c0c <main+0x10>
C:\Users\mateu\AppData\Local\Arduino15\packages\MiniCore\hardware\avr\2.0.9\cores\MCUdude_corefiles/main.cpp:47 (discriminator 1)
    2c14:	0e 94 41 11 	call	0x2282	; 0x2282 <serialEventRun()>
    2c18:	f9 cf       	rjmp	.-14     	; 0x2c0c <main+0x10>

00002c1a <__vector_16>:
__vector_16():
C:\Users\mateu\AppData\Local\Arduino15\packages\MiniCore\hardware\avr\2.0.9\cores\MCUdude_corefiles/wiring.c:606
    "   brne 1b"                     // 2 cycles
    : /* no outputs */
    : "w" (us)
  );
  // return = 4 cycles
}
    2c1a:	1f 92       	push	r1
    2c1c:	0f 92       	push	r0
    2c1e:	0f b6       	in	r0, 0x3f	; 63
    2c20:	0f 92       	push	r0
    2c22:	11 24       	eor	r1, r1
    2c24:	2f 93       	push	r18
    2c26:	3f 93       	push	r19
    2c28:	8f 93       	push	r24
    2c2a:	9f 93       	push	r25
    2c2c:	af 93       	push	r26
    2c2e:	bf 93       	push	r27
    2c30:	80 91 5f 04 	lds	r24, 0x045F	; 0x80045f <timer0_millis>
    2c34:	90 91 60 04 	lds	r25, 0x0460	; 0x800460 <timer0_millis+0x1>
    2c38:	a0 91 61 04 	lds	r26, 0x0461	; 0x800461 <timer0_millis+0x2>
    2c3c:	b0 91 62 04 	lds	r27, 0x0462	; 0x800462 <timer0_millis+0x3>
    2c40:	30 91 5e 04 	lds	r19, 0x045E	; 0x80045e <timer0_fract>
    2c44:	23 e0       	ldi	r18, 0x03	; 3
    2c46:	23 0f       	add	r18, r19
    2c48:	2d 37       	cpi	r18, 0x7D	; 125
    2c4a:	58 f5       	brcc	.+86     	; 0x2ca2 <__vector_16+0x88>
    2c4c:	01 96       	adiw	r24, 0x01	; 1
    2c4e:	a1 1d       	adc	r26, r1
    2c50:	b1 1d       	adc	r27, r1
    2c52:	20 93 5e 04 	sts	0x045E, r18	; 0x80045e <timer0_fract>
    2c56:	80 93 5f 04 	sts	0x045F, r24	; 0x80045f <timer0_millis>
    2c5a:	90 93 60 04 	sts	0x0460, r25	; 0x800460 <timer0_millis+0x1>
    2c5e:	a0 93 61 04 	sts	0x0461, r26	; 0x800461 <timer0_millis+0x2>
    2c62:	b0 93 62 04 	sts	0x0462, r27	; 0x800462 <timer0_millis+0x3>
    2c66:	80 91 63 04 	lds	r24, 0x0463	; 0x800463 <timer0_overflow_count>
    2c6a:	90 91 64 04 	lds	r25, 0x0464	; 0x800464 <timer0_overflow_count+0x1>
    2c6e:	a0 91 65 04 	lds	r26, 0x0465	; 0x800465 <timer0_overflow_count+0x2>
    2c72:	b0 91 66 04 	lds	r27, 0x0466	; 0x800466 <timer0_overflow_count+0x3>
    2c76:	01 96       	adiw	r24, 0x01	; 1
    2c78:	a1 1d       	adc	r26, r1
    2c7a:	b1 1d       	adc	r27, r1
    2c7c:	80 93 63 04 	sts	0x0463, r24	; 0x800463 <timer0_overflow_count>
    2c80:	90 93 64 04 	sts	0x0464, r25	; 0x800464 <timer0_overflow_count+0x1>
    2c84:	a0 93 65 04 	sts	0x0465, r26	; 0x800465 <timer0_overflow_count+0x2>
    2c88:	b0 93 66 04 	sts	0x0466, r27	; 0x800466 <timer0_overflow_count+0x3>
    2c8c:	bf 91       	pop	r27
    2c8e:	af 91       	pop	r26
    2c90:	9f 91       	pop	r25
    2c92:	8f 91       	pop	r24
    2c94:	3f 91       	pop	r19
    2c96:	2f 91       	pop	r18
    2c98:	0f 90       	pop	r0
    2c9a:	0f be       	out	0x3f, r0	; 63
    2c9c:	0f 90       	pop	r0
    2c9e:	1f 90       	pop	r1
    2ca0:	18 95       	reti
    2ca2:	26 e8       	ldi	r18, 0x86	; 134
    2ca4:	23 0f       	add	r18, r19
    2ca6:	02 96       	adiw	r24, 0x02	; 2
    2ca8:	a1 1d       	adc	r26, r1
    2caa:	b1 1d       	adc	r27, r1
    2cac:	d2 cf       	rjmp	.-92     	; 0x2c52 <__vector_16+0x38>

00002cae <micros>:
micros():
    2cae:	3f b7       	in	r19, 0x3f	; 63
    2cb0:	f8 94       	cli
    2cb2:	80 91 63 04 	lds	r24, 0x0463	; 0x800463 <timer0_overflow_count>
    2cb6:	90 91 64 04 	lds	r25, 0x0464	; 0x800464 <timer0_overflow_count+0x1>
    2cba:	a0 91 65 04 	lds	r26, 0x0465	; 0x800465 <timer0_overflow_count+0x2>
    2cbe:	b0 91 66 04 	lds	r27, 0x0466	; 0x800466 <timer0_overflow_count+0x3>
    2cc2:	26 b5       	in	r18, 0x26	; 38
    2cc4:	a8 9b       	sbis	0x15, 0	; 21
    2cc6:	05 c0       	rjmp	.+10     	; 0x2cd2 <micros+0x24>
    2cc8:	2f 3f       	cpi	r18, 0xFF	; 255
    2cca:	19 f0       	breq	.+6      	; 0x2cd2 <micros+0x24>
    2ccc:	01 96       	adiw	r24, 0x01	; 1
    2cce:	a1 1d       	adc	r26, r1
    2cd0:	b1 1d       	adc	r27, r1
    2cd2:	3f bf       	out	0x3f, r19	; 63
    2cd4:	ba 2f       	mov	r27, r26
    2cd6:	a9 2f       	mov	r26, r25
    2cd8:	98 2f       	mov	r25, r24
    2cda:	88 27       	eor	r24, r24
    2cdc:	bc 01       	movw	r22, r24
    2cde:	cd 01       	movw	r24, r26
    2ce0:	62 0f       	add	r22, r18
    2ce2:	71 1d       	adc	r23, r1
    2ce4:	81 1d       	adc	r24, r1
    2ce6:	91 1d       	adc	r25, r1
    2ce8:	42 e0       	ldi	r20, 0x02	; 2
    2cea:	66 0f       	add	r22, r22
    2cec:	77 1f       	adc	r23, r23
    2cee:	88 1f       	adc	r24, r24
    2cf0:	99 1f       	adc	r25, r25
    2cf2:	4a 95       	dec	r20
    2cf4:	d1 f7       	brne	.-12     	; 0x2cea <micros+0x3c>
    2cf6:	08 95       	ret

00002cf8 <delay>:
delay():
    2cf8:	8f 92       	push	r8
    2cfa:	9f 92       	push	r9
    2cfc:	af 92       	push	r10
    2cfe:	bf 92       	push	r11
    2d00:	cf 92       	push	r12
    2d02:	df 92       	push	r13
    2d04:	ef 92       	push	r14
    2d06:	ff 92       	push	r15
    2d08:	6b 01       	movw	r12, r22
    2d0a:	7c 01       	movw	r14, r24
    2d0c:	0e 94 57 16 	call	0x2cae	; 0x2cae <micros>
    2d10:	4b 01       	movw	r8, r22
    2d12:	5c 01       	movw	r10, r24
    2d14:	c1 14       	cp	r12, r1
    2d16:	d1 04       	cpc	r13, r1
    2d18:	e1 04       	cpc	r14, r1
    2d1a:	f1 04       	cpc	r15, r1
    2d1c:	e9 f0       	breq	.+58     	; 0x2d58 <delay+0x60>
    2d1e:	0e 94 a1 17 	call	0x2f42	; 0x2f42 <yield>
    2d22:	0e 94 57 16 	call	0x2cae	; 0x2cae <micros>
    2d26:	68 19       	sub	r22, r8
    2d28:	79 09       	sbc	r23, r9
    2d2a:	8a 09       	sbc	r24, r10
    2d2c:	9b 09       	sbc	r25, r11
    2d2e:	68 3e       	cpi	r22, 0xE8	; 232
    2d30:	73 40       	sbci	r23, 0x03	; 3
    2d32:	81 05       	cpc	r24, r1
    2d34:	91 05       	cpc	r25, r1
    2d36:	70 f3       	brcs	.-36     	; 0x2d14 <delay+0x1c>
    2d38:	21 e0       	ldi	r18, 0x01	; 1
    2d3a:	c2 1a       	sub	r12, r18
    2d3c:	d1 08       	sbc	r13, r1
    2d3e:	e1 08       	sbc	r14, r1
    2d40:	f1 08       	sbc	r15, r1
    2d42:	88 ee       	ldi	r24, 0xE8	; 232
    2d44:	88 0e       	add	r8, r24
    2d46:	83 e0       	ldi	r24, 0x03	; 3
    2d48:	98 1e       	adc	r9, r24
    2d4a:	a1 1c       	adc	r10, r1
    2d4c:	b1 1c       	adc	r11, r1
    2d4e:	c1 14       	cp	r12, r1
    2d50:	d1 04       	cpc	r13, r1
    2d52:	e1 04       	cpc	r14, r1
    2d54:	f1 04       	cpc	r15, r1
    2d56:	29 f7       	brne	.-54     	; 0x2d22 <delay+0x2a>
    2d58:	ff 90       	pop	r15
    2d5a:	ef 90       	pop	r14
    2d5c:	df 90       	pop	r13
    2d5e:	cf 90       	pop	r12
    2d60:	bf 90       	pop	r11
    2d62:	af 90       	pop	r10
    2d64:	9f 90       	pop	r9
    2d66:	8f 90       	pop	r8
    2d68:	08 95       	ret

00002d6a <init>:
init():
C:\Users\mateu\AppData\Local\Arduino15\packages\MiniCore\hardware\avr\2.0.9\cores\MCUdude_corefiles/wiring.c:612

void init()
{
  // this needs to be called before setup() or some functions won't
  // work there
  sei();
    2d6a:	78 94       	sei
C:\Users\mateu\AppData\Local\Arduino15\packages\MiniCore\hardware\avr\2.0.9\cores\MCUdude_corefiles/wiring.c:624

  // On the ATmega168, timer 0 is also used for fast hardware pwm
  // (using phase-correct PWM would mean that timer 0 overflowed half as often
  // resulting in different millis() behavior on the ATmega8 and ATmega168)
#if defined(TCCR0A) && defined(WGM01)
  TCCR0A |= _BV(WGM01) | _BV(WGM00);
    2d6c:	84 b5       	in	r24, 0x24	; 36
    2d6e:	83 60       	ori	r24, 0x03	; 3
    2d70:	84 bd       	out	0x24, r24	; 36
C:\Users\mateu\AppData\Local\Arduino15\packages\MiniCore\hardware\avr\2.0.9\cores\MCUdude_corefiles/wiring.c:639
  #if defined(WGM00) && defined(WGM01) // The ATmega8 doesn't have WGM00 and WGM01
    TCCR0 |= _BV(WGM01) | _BV(WGM00);
  #endif
#elif defined(TCCR0B) && defined(CS01) && defined(CS00)
  // This combination is for the standard 168/328/640/1280/1281/2560/2561
  TCCR0B |= _BV(CS01) | _BV(CS00);
    2d72:	85 b5       	in	r24, 0x25	; 37
    2d74:	83 60       	ori	r24, 0x03	; 3
    2d76:	85 bd       	out	0x25, r24	; 37
C:\Users\mateu\AppData\Local\Arduino15\packages\MiniCore\hardware\avr\2.0.9\cores\MCUdude_corefiles/wiring.c:651

// Enable timer 0 overflow interrupt
#if defined(TIMSK) && defined(TOIE0)
  TIMSK |= _BV(TOIE0);
#elif defined(TIMSK0) && defined(TOIE0)
  TIMSK0 |= _BV(TOIE0);
    2d78:	ee e6       	ldi	r30, 0x6E	; 110
    2d7a:	f0 e0       	ldi	r31, 0x00	; 0
    2d7c:	80 81       	ld	r24, Z
    2d7e:	81 60       	ori	r24, 0x01	; 1
    2d80:	80 83       	st	Z, r24
C:\Users\mateu\AppData\Local\Arduino15\packages\MiniCore\hardware\avr\2.0.9\cores\MCUdude_corefiles/wiring.c:662
// this is better for motors as it ensures an even waveform
// note, however, that fast pwm mode can achieve a frequency of up
// 8 MHz (with a 16 MHz clock) at 50% duty cycle

#if defined(TCCR1B) && defined(CS11) && defined(CS10)
  TCCR1B = _BV(CS11); // Set timer 1 prescale factor to 64
    2d82:	e1 e8       	ldi	r30, 0x81	; 129
    2d84:	f0 e0       	ldi	r31, 0x00	; 0
    2d86:	82 e0       	ldi	r24, 0x02	; 2
    2d88:	80 83       	st	Z, r24
C:\Users\mateu\AppData\Local\Arduino15\packages\MiniCore\hardware\avr\2.0.9\cores\MCUdude_corefiles/wiring.c:664
#if F_CPU >= 8000000L
  TCCR1B |= _BV(CS10);
    2d8a:	80 81       	ld	r24, Z
    2d8c:	81 60       	ori	r24, 0x01	; 1
    2d8e:	80 83       	st	Z, r24
C:\Users\mateu\AppData\Local\Arduino15\packages\MiniCore\hardware\avr\2.0.9\cores\MCUdude_corefiles/wiring.c:673
#if F_CPU >= 8000000L
  TCCR1 |= _BV(CS10);
#endif
#endif
#if defined(TCCR1A) && defined(WGM10)
  TCCR1A |= _BV(WGM10); // Put timer 1 in 8-bit phase correct pwm mode
    2d90:	e0 e8       	ldi	r30, 0x80	; 128
    2d92:	f0 e0       	ldi	r31, 0x00	; 0
    2d94:	80 81       	ld	r24, Z
    2d96:	81 60       	ori	r24, 0x01	; 1
    2d98:	80 83       	st	Z, r24
C:\Users\mateu\AppData\Local\Arduino15\packages\MiniCore\hardware\avr\2.0.9\cores\MCUdude_corefiles/wiring.c:680

// Set timer 2 prescale factor to 64
#if defined(TCCR2) && defined(CS22)
  TCCR2 |= _BV(CS22);
#elif defined(TCCR2B) && defined(CS22)
  TCCR2B |= _BV(CS22);
    2d9a:	e1 eb       	ldi	r30, 0xB1	; 177
    2d9c:	f0 e0       	ldi	r31, 0x00	; 0
    2d9e:	80 81       	ld	r24, Z
    2da0:	84 60       	ori	r24, 0x04	; 4
    2da2:	80 83       	st	Z, r24
C:\Users\mateu\AppData\Local\Arduino15\packages\MiniCore\hardware\avr\2.0.9\cores\MCUdude_corefiles/wiring.c:689

// Configure timer 2 for phase correct pwm (8-bit)
#if defined(TCCR2) && defined(WGM20)
  TCCR2 |= _BV(WGM20);
#elif defined(TCCR2A) && defined(WGM20)
  TCCR2A |= _BV(WGM20);
    2da4:	e0 eb       	ldi	r30, 0xB0	; 176
    2da6:	f0 e0       	ldi	r31, 0x00	; 0
    2da8:	80 81       	ld	r24, Z
    2daa:	81 60       	ori	r24, 0x01	; 1
    2dac:	80 83       	st	Z, r24
C:\Users\mateu\AppData\Local\Arduino15\packages\MiniCore\hardware\avr\2.0.9\cores\MCUdude_corefiles/wiring.c:695
//#else
  // Timer 2 not finished (may not be present on this CPU)
#endif

#if defined(TCCR3B) && defined(CS31) && defined(WGM30)
  TCCR3B |= _BV(CS31) | _BV(CS30); // Set timer 3 prescale factor to 64
    2dae:	e1 e9       	ldi	r30, 0x91	; 145
    2db0:	f0 e0       	ldi	r31, 0x00	; 0
    2db2:	80 81       	ld	r24, Z
    2db4:	83 60       	ori	r24, 0x03	; 3
    2db6:	80 83       	st	Z, r24
C:\Users\mateu\AppData\Local\Arduino15\packages\MiniCore\hardware\avr\2.0.9\cores\MCUdude_corefiles/wiring.c:696
  TCCR3A |= _BV(WGM30);            // Put timer 3 in 8-bit phase correct pwm mode
    2db8:	e0 e9       	ldi	r30, 0x90	; 144
    2dba:	f0 e0       	ldi	r31, 0x00	; 0
    2dbc:	80 81       	ld	r24, Z
    2dbe:	81 60       	ori	r24, 0x01	; 1
    2dc0:	80 83       	st	Z, r24
C:\Users\mateu\AppData\Local\Arduino15\packages\MiniCore\hardware\avr\2.0.9\cores\MCUdude_corefiles/wiring.c:705
  TCCR4B |= _BV(CS42) | _BV(CS41) | _BV(CS40); // Set timer 4 prescale factor to 64
  TCCR4D |= _BV(WGM40);                        // Put timer 4 in phase- and frequency-correct PWM mode 
  TCCR4A |= _BV(PWM4A);                        // Enable PWM mode for comparator OCR4A
  TCCR4C |= _BV(PWM4D);                        // Enable PWM mode for comparator OCR4D 
#elif defined(TCCR4B) && defined(CS41) && defined(WGM40)
  TCCR4B |= _BV(CS41) | _BV(CS40); // Set timer 4 prescale factor to 64
    2dc2:	e1 ea       	ldi	r30, 0xA1	; 161
    2dc4:	f0 e0       	ldi	r31, 0x00	; 0
    2dc6:	80 81       	ld	r24, Z
    2dc8:	83 60       	ori	r24, 0x03	; 3
    2dca:	80 83       	st	Z, r24
C:\Users\mateu\AppData\Local\Arduino15\packages\MiniCore\hardware\avr\2.0.9\cores\MCUdude_corefiles/wiring.c:706
  TCCR4A |= _BV(WGM40);            // Put timer 4 in 8-bit phase correct pwm mode
    2dcc:	e0 ea       	ldi	r30, 0xA0	; 160
    2dce:	f0 e0       	ldi	r31, 0x00	; 0
    2dd0:	80 81       	ld	r24, Z
    2dd2:	81 60       	ori	r24, 0x01	; 1
    2dd4:	80 83       	st	Z, r24
C:\Users\mateu\AppData\Local\Arduino15\packages\MiniCore\hardware\avr\2.0.9\cores\MCUdude_corefiles/wiring.c:717
#endif

#if defined(ADCSRA)
  // set a2d prescaler so we are inside the desired 50-200 KHz range.
  #if F_CPU >= 16000000 // 16 MHz / 128 = 125 KHz
    ADCSRA = _BV(ADPS2) | _BV(ADPS1) | _BV(ADPS0) | _BV(ADEN);
    2dd6:	87 e8       	ldi	r24, 0x87	; 135
    2dd8:	80 93 7a 00 	sts	0x007A, r24	; 0x80007a <__TEXT_REGION_LENGTH__+0x7f807a>
C:\Users\mateu\AppData\Local\Arduino15\packages\MiniCore\hardware\avr\2.0.9\cores\MCUdude_corefiles/wiring.c:737
  // here so they can be used as normal digital i/o; they will be
  // reconnected in Serial.begin()
#if defined(UCSRB)
  UCSRB = 0;
#elif defined(UCSR0B)
  UCSR0B = 0;
    2ddc:	10 92 c1 00 	sts	0x00C1, r1	; 0x8000c1 <__TEXT_REGION_LENGTH__+0x7f80c1>
C:\Users\mateu\AppData\Local\Arduino15\packages\MiniCore\hardware\avr\2.0.9\cores\MCUdude_corefiles/wiring.c:739
#endif
}
    2de0:	08 95       	ret

00002de2 <turnOffPWM>:
turnOffPWM():
C:\Users\mateu\AppData\Local\Arduino15\packages\MiniCore\hardware\avr\2.0.9\cores\MCUdude_corefiles/wiring_digital.c:77
//
//static inline void turnOffPWM(uint8_t timer) __attribute__ ((always_inline));
//static inline void turnOffPWM(uint8_t timer)
static void turnOffPWM(uint8_t timer)
{
  switch (timer)
    2de2:	82 50       	subi	r24, 0x02	; 2
    2de4:	8d 30       	cpi	r24, 0x0D	; 13
    2de6:	08 f0       	brcs	.+2      	; 0x2dea <turnOffPWM+0x8>
    2de8:	3e c0       	rjmp	.+124    	; 0x2e66 <turnOffPWM+0x84>
    2dea:	e8 2f       	mov	r30, r24
    2dec:	f0 e0       	ldi	r31, 0x00	; 0
    2dee:	e5 50       	subi	r30, 0x05	; 5
    2df0:	f9 4e       	sbci	r31, 0xE9	; 233
    2df2:	0c 94 f7 17 	jmp	0x2fee	; 0x2fee <__tablejump2__>
    2df6:	30 17       	cp	r19, r16
    2df8:	34 17       	cp	r19, r20
    2dfa:	08 17       	cp	r16, r24
    2dfc:	0e 17       	cp	r16, r30
    2dfe:	33 17       	cp	r19, r19
    2e00:	33 17       	cp	r19, r19
    2e02:	12 17       	cp	r17, r18
    2e04:	18 17       	cp	r17, r24
    2e06:	1c 17       	cp	r17, r28
    2e08:	22 17       	cp	r18, r18
    2e0a:	33 17       	cp	r19, r19
    2e0c:	26 17       	cp	r18, r22
    2e0e:	2c 17       	cp	r18, r28
C:\Users\mateu\AppData\Local\Arduino15\packages\MiniCore\hardware\avr\2.0.9\cores\MCUdude_corefiles/wiring_digital.c:82
  {
    // Timer1
    #if defined(TCCR1A) && defined(COM1A1)
      case TIMER1A:
        TCCR1A &= ~_BV(COM1A1);
    2e10:	80 91 80 00 	lds	r24, 0x0080	; 0x800080 <__TEXT_REGION_LENGTH__+0x7f8080>
    2e14:	8f 77       	andi	r24, 0x7F	; 127
C:\Users\mateu\AppData\Local\Arduino15\packages\MiniCore\hardware\avr\2.0.9\cores\MCUdude_corefiles/wiring_digital.c:87
        break;
    #endif
    #if defined(TCCR1A) && defined(COM1B1)
      case TIMER1B:
        TCCR1A &= ~_BV(COM1B1);
    2e16:	80 93 80 00 	sts	0x0080, r24	; 0x800080 <__TEXT_REGION_LENGTH__+0x7f8080>
C:\Users\mateu\AppData\Local\Arduino15\packages\MiniCore\hardware\avr\2.0.9\cores\MCUdude_corefiles/wiring_digital.c:88
        break;
    2e1a:	08 95       	ret
C:\Users\mateu\AppData\Local\Arduino15\packages\MiniCore\hardware\avr\2.0.9\cores\MCUdude_corefiles/wiring_digital.c:87
        TCCR1A &= ~_BV(COM1A1);
        break;
    #endif
    #if defined(TCCR1A) && defined(COM1B1)
      case TIMER1B:
        TCCR1A &= ~_BV(COM1B1);
    2e1c:	80 91 80 00 	lds	r24, 0x0080	; 0x800080 <__TEXT_REGION_LENGTH__+0x7f8080>
    2e20:	8f 7d       	andi	r24, 0xDF	; 223
    2e22:	f9 cf       	rjmp	.-14     	; 0x2e16 <turnOffPWM+0x34>
C:\Users\mateu\AppData\Local\Arduino15\packages\MiniCore\hardware\avr\2.0.9\cores\MCUdude_corefiles/wiring_digital.c:104
        TCCR2 &= ~_BV(COM21);
        break;
    #endif
    #if defined(TCCR2A) && defined(COM2A1)
      case TIMER2A:
        TCCR2A &= ~_BV(COM2A1);
    2e24:	80 91 b0 00 	lds	r24, 0x00B0	; 0x8000b0 <__TEXT_REGION_LENGTH__+0x7f80b0>
    2e28:	8f 77       	andi	r24, 0x7F	; 127
C:\Users\mateu\AppData\Local\Arduino15\packages\MiniCore\hardware\avr\2.0.9\cores\MCUdude_corefiles/wiring_digital.c:109
        break;
    #endif
    #if defined(TCCR2A) && defined(COM2B1)
      case TIMER2B:
        TCCR2A &= ~_BV(COM2B1);
    2e2a:	80 93 b0 00 	sts	0x00B0, r24	; 0x8000b0 <__TEXT_REGION_LENGTH__+0x7f80b0>
C:\Users\mateu\AppData\Local\Arduino15\packages\MiniCore\hardware\avr\2.0.9\cores\MCUdude_corefiles/wiring_digital.c:110
        break;
    2e2e:	08 95       	ret
C:\Users\mateu\AppData\Local\Arduino15\packages\MiniCore\hardware\avr\2.0.9\cores\MCUdude_corefiles/wiring_digital.c:109
        TCCR2A &= ~_BV(COM2A1);
        break;
    #endif
    #if defined(TCCR2A) && defined(COM2B1)
      case TIMER2B:
        TCCR2A &= ~_BV(COM2B1);
    2e30:	80 91 b0 00 	lds	r24, 0x00B0	; 0x8000b0 <__TEXT_REGION_LENGTH__+0x7f80b0>
    2e34:	8f 7d       	andi	r24, 0xDF	; 223
    2e36:	f9 cf       	rjmp	.-14     	; 0x2e2a <turnOffPWM+0x48>
C:\Users\mateu\AppData\Local\Arduino15\packages\MiniCore\hardware\avr\2.0.9\cores\MCUdude_corefiles/wiring_digital.c:116
    #endif

    // Timer3
    #if defined(TCCR3A) && defined(COM3A1)
      case TIMER3A:
        TCCR3A &= ~_BV(COM3A1);
    2e38:	80 91 90 00 	lds	r24, 0x0090	; 0x800090 <__TEXT_REGION_LENGTH__+0x7f8090>
    2e3c:	8f 77       	andi	r24, 0x7F	; 127
C:\Users\mateu\AppData\Local\Arduino15\packages\MiniCore\hardware\avr\2.0.9\cores\MCUdude_corefiles/wiring_digital.c:121
        break;
    #endif
    #if defined(TCCR3A) && defined(COM3B1)
      case TIMER3B:
        TCCR3A &= ~_BV(COM3B1);
    2e3e:	80 93 90 00 	sts	0x0090, r24	; 0x800090 <__TEXT_REGION_LENGTH__+0x7f8090>
C:\Users\mateu\AppData\Local\Arduino15\packages\MiniCore\hardware\avr\2.0.9\cores\MCUdude_corefiles/wiring_digital.c:122
        break;
    2e42:	08 95       	ret
C:\Users\mateu\AppData\Local\Arduino15\packages\MiniCore\hardware\avr\2.0.9\cores\MCUdude_corefiles/wiring_digital.c:121
        TCCR3A &= ~_BV(COM3A1);
        break;
    #endif
    #if defined(TCCR3A) && defined(COM3B1)
      case TIMER3B:
        TCCR3A &= ~_BV(COM3B1);
    2e44:	80 91 90 00 	lds	r24, 0x0090	; 0x800090 <__TEXT_REGION_LENGTH__+0x7f8090>
    2e48:	8f 7d       	andi	r24, 0xDF	; 223
    2e4a:	f9 cf       	rjmp	.-14     	; 0x2e3e <turnOffPWM+0x5c>
C:\Users\mateu\AppData\Local\Arduino15\packages\MiniCore\hardware\avr\2.0.9\cores\MCUdude_corefiles/wiring_digital.c:133
    #endif

    // Timer4
    #if defined(TCCR4A) && defined(COM4A1)
      case TIMER4A:
        TCCR4A &= ~_BV(COM4A1);
    2e4c:	80 91 a0 00 	lds	r24, 0x00A0	; 0x8000a0 <__TEXT_REGION_LENGTH__+0x7f80a0>
    2e50:	8f 77       	andi	r24, 0x7F	; 127
C:\Users\mateu\AppData\Local\Arduino15\packages\MiniCore\hardware\avr\2.0.9\cores\MCUdude_corefiles/wiring_digital.c:138
        break;
    #endif
    #if defined(TCCR4A) && defined(COM4B1)
      case  TIMER4B:
        TCCR4A &= ~_BV(COM4B1);
    2e52:	80 93 a0 00 	sts	0x00A0, r24	; 0x8000a0 <__TEXT_REGION_LENGTH__+0x7f80a0>
C:\Users\mateu\AppData\Local\Arduino15\packages\MiniCore\hardware\avr\2.0.9\cores\MCUdude_corefiles/wiring_digital.c:139
        break;
    2e56:	08 95       	ret
C:\Users\mateu\AppData\Local\Arduino15\packages\MiniCore\hardware\avr\2.0.9\cores\MCUdude_corefiles/wiring_digital.c:138
        TCCR4A &= ~_BV(COM4A1);
        break;
    #endif
    #if defined(TCCR4A) && defined(COM4B1)
      case  TIMER4B:
        TCCR4A &= ~_BV(COM4B1);
    2e58:	80 91 a0 00 	lds	r24, 0x00A0	; 0x8000a0 <__TEXT_REGION_LENGTH__+0x7f80a0>
    2e5c:	8f 7d       	andi	r24, 0xDF	; 223
    2e5e:	f9 cf       	rjmp	.-14     	; 0x2e52 <turnOffPWM+0x70>
C:\Users\mateu\AppData\Local\Arduino15\packages\MiniCore\hardware\avr\2.0.9\cores\MCUdude_corefiles/wiring_digital.c:176
        TCCR0 &= ~_BV(COM01);
        break;
    #endif
    #if defined(TCCR0A) && defined(COM0A1)
      case TIMER0A:
        TCCR0A &= ~_BV(COM0A1);
    2e60:	84 b5       	in	r24, 0x24	; 36
    2e62:	8f 77       	andi	r24, 0x7F	; 127
C:\Users\mateu\AppData\Local\Arduino15\packages\MiniCore\hardware\avr\2.0.9\cores\MCUdude_corefiles/wiring_digital.c:181
        break;
    #endif
    #if defined(TCCR0A) && defined(COM0B1)
      case TIMER0B:
        TCCR0A &= ~_BV(COM0B1);
    2e64:	84 bd       	out	0x24, r24	; 36
C:\Users\mateu\AppData\Local\Arduino15\packages\MiniCore\hardware\avr\2.0.9\cores\MCUdude_corefiles/wiring_digital.c:185
        break;
    #endif
  }
}
    2e66:	08 95       	ret
C:\Users\mateu\AppData\Local\Arduino15\packages\MiniCore\hardware\avr\2.0.9\cores\MCUdude_corefiles/wiring_digital.c:181
        TCCR0A &= ~_BV(COM0A1);
        break;
    #endif
    #if defined(TCCR0A) && defined(COM0B1)
      case TIMER0B:
        TCCR0A &= ~_BV(COM0B1);
    2e68:	84 b5       	in	r24, 0x24	; 36
    2e6a:	8f 7d       	andi	r24, 0xDF	; 223
    2e6c:	fb cf       	rjmp	.-10     	; 0x2e64 <turnOffPWM+0x82>

00002e6e <pinMode>:
pinMode():
C:\Users\mateu\AppData\Local\Arduino15\packages\MiniCore\hardware\avr\2.0.9\cores\MCUdude_corefiles/wiring_digital.c:30
#define ARDUINO_MAIN
#include "wiring_private.h"
#include "pins_arduino.h"

void pinMode(uint8_t pin, uint8_t mode)
{
    2e6e:	cf 93       	push	r28
    2e70:	df 93       	push	r29
C:\Users\mateu\AppData\Local\Arduino15\packages\MiniCore\hardware\avr\2.0.9\cores\MCUdude_corefiles/wiring_digital.c:31
  uint8_t bit = digitalPinToBitMask(pin);
    2e72:	90 e0       	ldi	r25, 0x00	; 0
    2e74:	fc 01       	movw	r30, r24
    2e76:	e5 53       	subi	r30, 0x35	; 53
    2e78:	fe 4f       	sbci	r31, 0xFE	; 254
    2e7a:	24 91       	lpm	r18, Z
C:\Users\mateu\AppData\Local\Arduino15\packages\MiniCore\hardware\avr\2.0.9\cores\MCUdude_corefiles/wiring_digital.c:32
  uint8_t port = digitalPinToPort(pin);
    2e7c:	8a 51       	subi	r24, 0x1A	; 26
    2e7e:	9e 4f       	sbci	r25, 0xFE	; 254
    2e80:	fc 01       	movw	r30, r24
    2e82:	84 91       	lpm	r24, Z
C:\Users\mateu\AppData\Local\Arduino15\packages\MiniCore\hardware\avr\2.0.9\cores\MCUdude_corefiles/wiring_digital.c:35
  volatile uint8_t *reg, *out;

  if (port == NOT_A_PIN) return;
    2e84:	88 23       	and	r24, r24
    2e86:	c9 f0       	breq	.+50     	; 0x2eba <pinMode+0x4c>
C:\Users\mateu\AppData\Local\Arduino15\packages\MiniCore\hardware\avr\2.0.9\cores\MCUdude_corefiles/wiring_digital.c:38

  // JWS: can I let the optimizer do this?
  reg = portModeRegister(port);
    2e88:	90 e0       	ldi	r25, 0x00	; 0
    2e8a:	88 0f       	add	r24, r24
    2e8c:	99 1f       	adc	r25, r25
    2e8e:	fc 01       	movw	r30, r24
    2e90:	e7 5e       	subi	r30, 0xE7	; 231
    2e92:	fd 4f       	sbci	r31, 0xFD	; 253
    2e94:	a5 91       	lpm	r26, Z+
    2e96:	b4 91       	lpm	r27, Z
C:\Users\mateu\AppData\Local\Arduino15\packages\MiniCore\hardware\avr\2.0.9\cores\MCUdude_corefiles/wiring_digital.c:39
  out = portOutputRegister(port);
    2e98:	fc 01       	movw	r30, r24
    2e9a:	e3 5f       	subi	r30, 0xF3	; 243
    2e9c:	fd 4f       	sbci	r31, 0xFD	; 253
    2e9e:	c5 91       	lpm	r28, Z+
    2ea0:	d4 91       	lpm	r29, Z
C:\Users\mateu\AppData\Local\Arduino15\packages\MiniCore\hardware\avr\2.0.9\cores\MCUdude_corefiles/wiring_digital.c:41

  if (mode == INPUT) { 
    2ea2:	61 11       	cpse	r22, r1
    2ea4:	0d c0       	rjmp	.+26     	; 0x2ec0 <pinMode+0x52>
C:\Users\mateu\AppData\Local\Arduino15\packages\MiniCore\hardware\avr\2.0.9\cores\MCUdude_corefiles/wiring_digital.c:42
    uint8_t oldSREG = SREG;
    2ea6:	9f b7       	in	r25, 0x3f	; 63
C:\Users\mateu\AppData\Local\Arduino15\packages\MiniCore\hardware\avr\2.0.9\cores\MCUdude_corefiles/wiring_digital.c:43
    cli();
    2ea8:	f8 94       	cli
C:\Users\mateu\AppData\Local\Arduino15\packages\MiniCore\hardware\avr\2.0.9\cores\MCUdude_corefiles/wiring_digital.c:44
    *reg &= ~bit;
    2eaa:	8c 91       	ld	r24, X
    2eac:	20 95       	com	r18
    2eae:	82 23       	and	r24, r18
    2eb0:	8c 93       	st	X, r24
C:\Users\mateu\AppData\Local\Arduino15\packages\MiniCore\hardware\avr\2.0.9\cores\MCUdude_corefiles/wiring_digital.c:45
    *out &= ~bit;
    2eb2:	88 81       	ld	r24, Y
    2eb4:	28 23       	and	r18, r24
C:\Users\mateu\AppData\Local\Arduino15\packages\MiniCore\hardware\avr\2.0.9\cores\MCUdude_corefiles/wiring_digital.c:51
    SREG = oldSREG;
  } else if (mode == INPUT_PULLUP) {
    uint8_t oldSREG = SREG;
    cli();
    *reg &= ~bit;
    *out |= bit;
    2eb6:	28 83       	st	Y, r18
C:\Users\mateu\AppData\Local\Arduino15\packages\MiniCore\hardware\avr\2.0.9\cores\MCUdude_corefiles/wiring_digital.c:52
    SREG = oldSREG;
    2eb8:	9f bf       	out	0x3f, r25	; 63
C:\Users\mateu\AppData\Local\Arduino15\packages\MiniCore\hardware\avr\2.0.9\cores\MCUdude_corefiles/wiring_digital.c:59
    uint8_t oldSREG = SREG;
    cli();
    *reg |= bit;
    SREG = oldSREG;
  }
}
    2eba:	df 91       	pop	r29
    2ebc:	cf 91       	pop	r28
    2ebe:	08 95       	ret
C:\Users\mateu\AppData\Local\Arduino15\packages\MiniCore\hardware\avr\2.0.9\cores\MCUdude_corefiles/wiring_digital.c:47
    uint8_t oldSREG = SREG;
    cli();
    *reg &= ~bit;
    *out &= ~bit;
    SREG = oldSREG;
  } else if (mode == INPUT_PULLUP) {
    2ec0:	62 30       	cpi	r22, 0x02	; 2
    2ec2:	51 f4       	brne	.+20     	; 0x2ed8 <pinMode+0x6a>
C:\Users\mateu\AppData\Local\Arduino15\packages\MiniCore\hardware\avr\2.0.9\cores\MCUdude_corefiles/wiring_digital.c:48
    uint8_t oldSREG = SREG;
    2ec4:	9f b7       	in	r25, 0x3f	; 63
C:\Users\mateu\AppData\Local\Arduino15\packages\MiniCore\hardware\avr\2.0.9\cores\MCUdude_corefiles/wiring_digital.c:49
    cli();
    2ec6:	f8 94       	cli
C:\Users\mateu\AppData\Local\Arduino15\packages\MiniCore\hardware\avr\2.0.9\cores\MCUdude_corefiles/wiring_digital.c:50
    *reg &= ~bit;
    2ec8:	3c 91       	ld	r19, X
    2eca:	82 2f       	mov	r24, r18
    2ecc:	80 95       	com	r24
    2ece:	83 23       	and	r24, r19
    2ed0:	8c 93       	st	X, r24
C:\Users\mateu\AppData\Local\Arduino15\packages\MiniCore\hardware\avr\2.0.9\cores\MCUdude_corefiles/wiring_digital.c:51
    *out |= bit;
    2ed2:	e8 81       	ld	r30, Y
    2ed4:	2e 2b       	or	r18, r30
    2ed6:	ef cf       	rjmp	.-34     	; 0x2eb6 <pinMode+0x48>
C:\Users\mateu\AppData\Local\Arduino15\packages\MiniCore\hardware\avr\2.0.9\cores\MCUdude_corefiles/wiring_digital.c:54
    SREG = oldSREG;
  } else {
    uint8_t oldSREG = SREG;
    2ed8:	8f b7       	in	r24, 0x3f	; 63
C:\Users\mateu\AppData\Local\Arduino15\packages\MiniCore\hardware\avr\2.0.9\cores\MCUdude_corefiles/wiring_digital.c:55
    cli();
    2eda:	f8 94       	cli
C:\Users\mateu\AppData\Local\Arduino15\packages\MiniCore\hardware\avr\2.0.9\cores\MCUdude_corefiles/wiring_digital.c:56
    *reg |= bit;
    2edc:	ec 91       	ld	r30, X
    2ede:	2e 2b       	or	r18, r30
    2ee0:	2c 93       	st	X, r18
C:\Users\mateu\AppData\Local\Arduino15\packages\MiniCore\hardware\avr\2.0.9\cores\MCUdude_corefiles/wiring_digital.c:57
    SREG = oldSREG;
    2ee2:	8f bf       	out	0x3f, r24	; 63
    2ee4:	ea cf       	rjmp	.-44     	; 0x2eba <pinMode+0x4c>

00002ee6 <digitalWrite>:
digitalWrite():
C:\Users\mateu\AppData\Local\Arduino15\packages\MiniCore\hardware\avr\2.0.9\cores\MCUdude_corefiles/wiring_digital.c:188
    #endif
  }
}

void digitalWrite(uint8_t pin, uint8_t val)
{
    2ee6:	1f 93       	push	r17
    2ee8:	cf 93       	push	r28
    2eea:	df 93       	push	r29
C:\Users\mateu\AppData\Local\Arduino15\packages\MiniCore\hardware\avr\2.0.9\cores\MCUdude_corefiles/wiring_digital.c:189
  uint8_t timer = digitalPinToTimer(pin);
    2eec:	28 2f       	mov	r18, r24
    2eee:	30 e0       	ldi	r19, 0x00	; 0
    2ef0:	f9 01       	movw	r30, r18
    2ef2:	e0 55       	subi	r30, 0x50	; 80
    2ef4:	fe 4f       	sbci	r31, 0xFE	; 254
    2ef6:	84 91       	lpm	r24, Z
C:\Users\mateu\AppData\Local\Arduino15\packages\MiniCore\hardware\avr\2.0.9\cores\MCUdude_corefiles/wiring_digital.c:190
  uint8_t bit = digitalPinToBitMask(pin);
    2ef8:	f9 01       	movw	r30, r18
    2efa:	e5 53       	subi	r30, 0x35	; 53
    2efc:	fe 4f       	sbci	r31, 0xFE	; 254
    2efe:	d4 91       	lpm	r29, Z
C:\Users\mateu\AppData\Local\Arduino15\packages\MiniCore\hardware\avr\2.0.9\cores\MCUdude_corefiles/wiring_digital.c:191
  uint8_t port = digitalPinToPort(pin);
    2f00:	f9 01       	movw	r30, r18
    2f02:	ea 51       	subi	r30, 0x1A	; 26
    2f04:	fe 4f       	sbci	r31, 0xFE	; 254
    2f06:	c4 91       	lpm	r28, Z
C:\Users\mateu\AppData\Local\Arduino15\packages\MiniCore\hardware\avr\2.0.9\cores\MCUdude_corefiles/wiring_digital.c:194
  volatile uint8_t *out;

  if (port == NOT_A_PIN) return;
    2f08:	cc 23       	and	r28, r28
    2f0a:	a9 f0       	breq	.+42     	; 0x2f36 <digitalWrite+0x50>
    2f0c:	16 2f       	mov	r17, r22
C:\Users\mateu\AppData\Local\Arduino15\packages\MiniCore\hardware\avr\2.0.9\cores\MCUdude_corefiles/wiring_digital.c:198

  // If the pin that support PWM output, we need to turn it off
  // before doing a digital write.
  if (timer != NOT_ON_TIMER) turnOffPWM(timer);
    2f0e:	81 11       	cpse	r24, r1
C:\Users\mateu\AppData\Local\Arduino15\packages\MiniCore\hardware\avr\2.0.9\cores\MCUdude_corefiles/wiring_digital.c:198 (discriminator 1)
    2f10:	0e 94 f1 16 	call	0x2de2	; 0x2de2 <turnOffPWM>
C:\Users\mateu\AppData\Local\Arduino15\packages\MiniCore\hardware\avr\2.0.9\cores\MCUdude_corefiles/wiring_digital.c:200

  out = portOutputRegister(port);
    2f14:	ec 2f       	mov	r30, r28
    2f16:	f0 e0       	ldi	r31, 0x00	; 0
    2f18:	ee 0f       	add	r30, r30
    2f1a:	ff 1f       	adc	r31, r31
    2f1c:	e3 5f       	subi	r30, 0xF3	; 243
    2f1e:	fd 4f       	sbci	r31, 0xFD	; 253
    2f20:	a5 91       	lpm	r26, Z+
    2f22:	b4 91       	lpm	r27, Z
C:\Users\mateu\AppData\Local\Arduino15\packages\MiniCore\hardware\avr\2.0.9\cores\MCUdude_corefiles/wiring_digital.c:202

  uint8_t oldSREG = SREG;
    2f24:	8f b7       	in	r24, 0x3f	; 63
C:\Users\mateu\AppData\Local\Arduino15\packages\MiniCore\hardware\avr\2.0.9\cores\MCUdude_corefiles/wiring_digital.c:203
  cli();
    2f26:	f8 94       	cli
C:\Users\mateu\AppData\Local\Arduino15\packages\MiniCore\hardware\avr\2.0.9\cores\MCUdude_corefiles/wiring_digital.c:206

  if (val == LOW) {
    *out &= ~bit;
    2f28:	ec 91       	ld	r30, X
C:\Users\mateu\AppData\Local\Arduino15\packages\MiniCore\hardware\avr\2.0.9\cores\MCUdude_corefiles/wiring_digital.c:205
  out = portOutputRegister(port);

  uint8_t oldSREG = SREG;
  cli();

  if (val == LOW) {
    2f2a:	11 11       	cpse	r17, r1
    2f2c:	08 c0       	rjmp	.+16     	; 0x2f3e <digitalWrite+0x58>
C:\Users\mateu\AppData\Local\Arduino15\packages\MiniCore\hardware\avr\2.0.9\cores\MCUdude_corefiles/wiring_digital.c:206
    *out &= ~bit;
    2f2e:	d0 95       	com	r29
    2f30:	de 23       	and	r29, r30
C:\Users\mateu\AppData\Local\Arduino15\packages\MiniCore\hardware\avr\2.0.9\cores\MCUdude_corefiles/wiring_digital.c:208
  } else {
    *out |= bit;
    2f32:	dc 93       	st	X, r29
C:\Users\mateu\AppData\Local\Arduino15\packages\MiniCore\hardware\avr\2.0.9\cores\MCUdude_corefiles/wiring_digital.c:211
  }

  SREG = oldSREG;
    2f34:	8f bf       	out	0x3f, r24	; 63
C:\Users\mateu\AppData\Local\Arduino15\packages\MiniCore\hardware\avr\2.0.9\cores\MCUdude_corefiles/wiring_digital.c:212
}
    2f36:	df 91       	pop	r29
    2f38:	cf 91       	pop	r28
    2f3a:	1f 91       	pop	r17
    2f3c:	08 95       	ret
C:\Users\mateu\AppData\Local\Arduino15\packages\MiniCore\hardware\avr\2.0.9\cores\MCUdude_corefiles/wiring_digital.c:208
  cli();

  if (val == LOW) {
    *out &= ~bit;
  } else {
    *out |= bit;
    2f3e:	de 2b       	or	r29, r30
    2f40:	f8 cf       	rjmp	.-16     	; 0x2f32 <digitalWrite+0x4c>

00002f42 <yield>:
__empty():
C:\Users\mateu\AppData\Local\Arduino15\packages\MiniCore\hardware\avr\2.0.9\cores\MCUdude_corefiles/hooks.c:30
 * Its defined as a weak symbol and it can be redefined to implement a
 * real cooperative scheduler.
 */
static void __empty() {
  // Empty
}
    2f42:	08 95       	ret

00002f44 <__divmodhi4>:
__divmodhi4():
/home/jenkins-mingw32/workspace/avr-gcc-staging/label/Ubuntu14.04x64-mingw32/gcc-build/avr/avr5/libgcc/../../../../gcc/libgcc/config/avr/lib1funcs.S:1440
    2f44:	97 fb       	bst	r25, 7
/home/jenkins-mingw32/workspace/avr-gcc-staging/label/Ubuntu14.04x64-mingw32/gcc-build/avr/avr5/libgcc/../../../../gcc/libgcc/config/avr/lib1funcs.S:1441
    2f46:	07 2e       	mov	r0, r23
/home/jenkins-mingw32/workspace/avr-gcc-staging/label/Ubuntu14.04x64-mingw32/gcc-build/avr/avr5/libgcc/../../../../gcc/libgcc/config/avr/lib1funcs.S:1442
    2f48:	16 f4       	brtc	.+4      	; 0x2f4e <__divmodhi4+0xa>
/home/jenkins-mingw32/workspace/avr-gcc-staging/label/Ubuntu14.04x64-mingw32/gcc-build/avr/avr5/libgcc/../../../../gcc/libgcc/config/avr/lib1funcs.S:1443
    2f4a:	00 94       	com	r0
/home/jenkins-mingw32/workspace/avr-gcc-staging/label/Ubuntu14.04x64-mingw32/gcc-build/avr/avr5/libgcc/../../../../gcc/libgcc/config/avr/lib1funcs.S:1444
    2f4c:	07 d0       	rcall	.+14     	; 0x2f5c <__divmodhi4_neg1>
/home/jenkins-mingw32/workspace/avr-gcc-staging/label/Ubuntu14.04x64-mingw32/gcc-build/avr/avr5/libgcc/../../../../gcc/libgcc/config/avr/lib1funcs.S:1446
    2f4e:	77 fd       	sbrc	r23, 7
/home/jenkins-mingw32/workspace/avr-gcc-staging/label/Ubuntu14.04x64-mingw32/gcc-build/avr/avr5/libgcc/../../../../gcc/libgcc/config/avr/lib1funcs.S:1447
    2f50:	09 d0       	rcall	.+18     	; 0x2f64 <__divmodhi4_neg2>
/home/jenkins-mingw32/workspace/avr-gcc-staging/label/Ubuntu14.04x64-mingw32/gcc-build/avr/avr5/libgcc/../../../../gcc/libgcc/config/avr/lib1funcs.S:1448
    2f52:	0e 94 fd 17 	call	0x2ffa	; 0x2ffa <__udivmodhi4>
/home/jenkins-mingw32/workspace/avr-gcc-staging/label/Ubuntu14.04x64-mingw32/gcc-build/avr/avr5/libgcc/../../../../gcc/libgcc/config/avr/lib1funcs.S:1449
    2f56:	07 fc       	sbrc	r0, 7
/home/jenkins-mingw32/workspace/avr-gcc-staging/label/Ubuntu14.04x64-mingw32/gcc-build/avr/avr5/libgcc/../../../../gcc/libgcc/config/avr/lib1funcs.S:1450
    2f58:	05 d0       	rcall	.+10     	; 0x2f64 <__divmodhi4_neg2>
/home/jenkins-mingw32/workspace/avr-gcc-staging/label/Ubuntu14.04x64-mingw32/gcc-build/avr/avr5/libgcc/../../../../gcc/libgcc/config/avr/lib1funcs.S:1451
    2f5a:	3e f4       	brtc	.+14     	; 0x2f6a <__divmodhi4_exit>

00002f5c <__divmodhi4_neg1>:
/home/jenkins-mingw32/workspace/avr-gcc-staging/label/Ubuntu14.04x64-mingw32/gcc-build/avr/avr5/libgcc/../../../../gcc/libgcc/config/avr/lib1funcs.S:1454
    2f5c:	90 95       	com	r25
/home/jenkins-mingw32/workspace/avr-gcc-staging/label/Ubuntu14.04x64-mingw32/gcc-build/avr/avr5/libgcc/../../../../gcc/libgcc/config/avr/lib1funcs.S:1455
    2f5e:	81 95       	neg	r24
/home/jenkins-mingw32/workspace/avr-gcc-staging/label/Ubuntu14.04x64-mingw32/gcc-build/avr/avr5/libgcc/../../../../gcc/libgcc/config/avr/lib1funcs.S:1456
    2f60:	9f 4f       	sbci	r25, 0xFF	; 255
/home/jenkins-mingw32/workspace/avr-gcc-staging/label/Ubuntu14.04x64-mingw32/gcc-build/avr/avr5/libgcc/../../../../gcc/libgcc/config/avr/lib1funcs.S:1457
    2f62:	08 95       	ret

00002f64 <__divmodhi4_neg2>:
/home/jenkins-mingw32/workspace/avr-gcc-staging/label/Ubuntu14.04x64-mingw32/gcc-build/avr/avr5/libgcc/../../../../gcc/libgcc/config/avr/lib1funcs.S:1460
    2f64:	70 95       	com	r23
/home/jenkins-mingw32/workspace/avr-gcc-staging/label/Ubuntu14.04x64-mingw32/gcc-build/avr/avr5/libgcc/../../../../gcc/libgcc/config/avr/lib1funcs.S:1461
    2f66:	61 95       	neg	r22
/home/jenkins-mingw32/workspace/avr-gcc-staging/label/Ubuntu14.04x64-mingw32/gcc-build/avr/avr5/libgcc/../../../../gcc/libgcc/config/avr/lib1funcs.S:1462
    2f68:	7f 4f       	sbci	r23, 0xFF	; 255

00002f6a <__divmodhi4_exit>:
/home/jenkins-mingw32/workspace/avr-gcc-staging/label/Ubuntu14.04x64-mingw32/gcc-build/avr/avr5/libgcc/../../../../gcc/libgcc/config/avr/lib1funcs.S:1464
    2f6a:	08 95       	ret

00002f6c <__udivmodsi4>:
__udivmodsi4():
/home/jenkins-mingw32/workspace/avr-gcc-staging/label/Ubuntu14.04x64-mingw32/gcc-build/avr/avr5/libgcc/../../../../gcc/libgcc/config/avr/lib1funcs.S:1638
    2f6c:	a1 e2       	ldi	r26, 0x21	; 33
/home/jenkins-mingw32/workspace/avr-gcc-staging/label/Ubuntu14.04x64-mingw32/gcc-build/avr/avr5/libgcc/../../../../gcc/libgcc/config/avr/lib1funcs.S:1639
    2f6e:	1a 2e       	mov	r1, r26
/home/jenkins-mingw32/workspace/avr-gcc-staging/label/Ubuntu14.04x64-mingw32/gcc-build/avr/avr5/libgcc/../../../../gcc/libgcc/config/avr/lib1funcs.S:1640
    2f70:	aa 1b       	sub	r26, r26
/home/jenkins-mingw32/workspace/avr-gcc-staging/label/Ubuntu14.04x64-mingw32/gcc-build/avr/avr5/libgcc/../../../../gcc/libgcc/config/avr/lib1funcs.S:1641
    2f72:	bb 1b       	sub	r27, r27
/home/jenkins-mingw32/workspace/avr-gcc-staging/label/Ubuntu14.04x64-mingw32/gcc-build/avr/avr5/libgcc/../../../../gcc/libgcc/config/avr/lib1funcs.S:1642
    2f74:	fd 01       	movw	r30, r26
/home/jenkins-mingw32/workspace/avr-gcc-staging/label/Ubuntu14.04x64-mingw32/gcc-build/avr/avr5/libgcc/../../../../gcc/libgcc/config/avr/lib1funcs.S:1644
    2f76:	0d c0       	rjmp	.+26     	; 0x2f92 <__udivmodsi4_ep>

00002f78 <__udivmodsi4_loop>:
/home/jenkins-mingw32/workspace/avr-gcc-staging/label/Ubuntu14.04x64-mingw32/gcc-build/avr/avr5/libgcc/../../../../gcc/libgcc/config/avr/lib1funcs.S:1646
    2f78:	aa 1f       	adc	r26, r26
/home/jenkins-mingw32/workspace/avr-gcc-staging/label/Ubuntu14.04x64-mingw32/gcc-build/avr/avr5/libgcc/../../../../gcc/libgcc/config/avr/lib1funcs.S:1647
    2f7a:	bb 1f       	adc	r27, r27
/home/jenkins-mingw32/workspace/avr-gcc-staging/label/Ubuntu14.04x64-mingw32/gcc-build/avr/avr5/libgcc/../../../../gcc/libgcc/config/avr/lib1funcs.S:1648
    2f7c:	ee 1f       	adc	r30, r30
/home/jenkins-mingw32/workspace/avr-gcc-staging/label/Ubuntu14.04x64-mingw32/gcc-build/avr/avr5/libgcc/../../../../gcc/libgcc/config/avr/lib1funcs.S:1649
    2f7e:	ff 1f       	adc	r31, r31
/home/jenkins-mingw32/workspace/avr-gcc-staging/label/Ubuntu14.04x64-mingw32/gcc-build/avr/avr5/libgcc/../../../../gcc/libgcc/config/avr/lib1funcs.S:1650
    2f80:	a2 17       	cp	r26, r18
/home/jenkins-mingw32/workspace/avr-gcc-staging/label/Ubuntu14.04x64-mingw32/gcc-build/avr/avr5/libgcc/../../../../gcc/libgcc/config/avr/lib1funcs.S:1651
    2f82:	b3 07       	cpc	r27, r19
/home/jenkins-mingw32/workspace/avr-gcc-staging/label/Ubuntu14.04x64-mingw32/gcc-build/avr/avr5/libgcc/../../../../gcc/libgcc/config/avr/lib1funcs.S:1652
    2f84:	e4 07       	cpc	r30, r20
/home/jenkins-mingw32/workspace/avr-gcc-staging/label/Ubuntu14.04x64-mingw32/gcc-build/avr/avr5/libgcc/../../../../gcc/libgcc/config/avr/lib1funcs.S:1653
    2f86:	f5 07       	cpc	r31, r21
/home/jenkins-mingw32/workspace/avr-gcc-staging/label/Ubuntu14.04x64-mingw32/gcc-build/avr/avr5/libgcc/../../../../gcc/libgcc/config/avr/lib1funcs.S:1654
    2f88:	20 f0       	brcs	.+8      	; 0x2f92 <__udivmodsi4_ep>
/home/jenkins-mingw32/workspace/avr-gcc-staging/label/Ubuntu14.04x64-mingw32/gcc-build/avr/avr5/libgcc/../../../../gcc/libgcc/config/avr/lib1funcs.S:1655
    2f8a:	a2 1b       	sub	r26, r18
/home/jenkins-mingw32/workspace/avr-gcc-staging/label/Ubuntu14.04x64-mingw32/gcc-build/avr/avr5/libgcc/../../../../gcc/libgcc/config/avr/lib1funcs.S:1656
    2f8c:	b3 0b       	sbc	r27, r19
/home/jenkins-mingw32/workspace/avr-gcc-staging/label/Ubuntu14.04x64-mingw32/gcc-build/avr/avr5/libgcc/../../../../gcc/libgcc/config/avr/lib1funcs.S:1657
    2f8e:	e4 0b       	sbc	r30, r20
/home/jenkins-mingw32/workspace/avr-gcc-staging/label/Ubuntu14.04x64-mingw32/gcc-build/avr/avr5/libgcc/../../../../gcc/libgcc/config/avr/lib1funcs.S:1658
    2f90:	f5 0b       	sbc	r31, r21

00002f92 <__udivmodsi4_ep>:
/home/jenkins-mingw32/workspace/avr-gcc-staging/label/Ubuntu14.04x64-mingw32/gcc-build/avr/avr5/libgcc/../../../../gcc/libgcc/config/avr/lib1funcs.S:1660
    2f92:	66 1f       	adc	r22, r22
/home/jenkins-mingw32/workspace/avr-gcc-staging/label/Ubuntu14.04x64-mingw32/gcc-build/avr/avr5/libgcc/../../../../gcc/libgcc/config/avr/lib1funcs.S:1661
    2f94:	77 1f       	adc	r23, r23
/home/jenkins-mingw32/workspace/avr-gcc-staging/label/Ubuntu14.04x64-mingw32/gcc-build/avr/avr5/libgcc/../../../../gcc/libgcc/config/avr/lib1funcs.S:1662
    2f96:	88 1f       	adc	r24, r24
/home/jenkins-mingw32/workspace/avr-gcc-staging/label/Ubuntu14.04x64-mingw32/gcc-build/avr/avr5/libgcc/../../../../gcc/libgcc/config/avr/lib1funcs.S:1663
    2f98:	99 1f       	adc	r25, r25
/home/jenkins-mingw32/workspace/avr-gcc-staging/label/Ubuntu14.04x64-mingw32/gcc-build/avr/avr5/libgcc/../../../../gcc/libgcc/config/avr/lib1funcs.S:1664
    2f9a:	1a 94       	dec	r1
/home/jenkins-mingw32/workspace/avr-gcc-staging/label/Ubuntu14.04x64-mingw32/gcc-build/avr/avr5/libgcc/../../../../gcc/libgcc/config/avr/lib1funcs.S:1665
    2f9c:	69 f7       	brne	.-38     	; 0x2f78 <__udivmodsi4_loop>
/home/jenkins-mingw32/workspace/avr-gcc-staging/label/Ubuntu14.04x64-mingw32/gcc-build/avr/avr5/libgcc/../../../../gcc/libgcc/config/avr/lib1funcs.S:1667
    2f9e:	60 95       	com	r22
/home/jenkins-mingw32/workspace/avr-gcc-staging/label/Ubuntu14.04x64-mingw32/gcc-build/avr/avr5/libgcc/../../../../gcc/libgcc/config/avr/lib1funcs.S:1668
    2fa0:	70 95       	com	r23
/home/jenkins-mingw32/workspace/avr-gcc-staging/label/Ubuntu14.04x64-mingw32/gcc-build/avr/avr5/libgcc/../../../../gcc/libgcc/config/avr/lib1funcs.S:1669
    2fa2:	80 95       	com	r24
/home/jenkins-mingw32/workspace/avr-gcc-staging/label/Ubuntu14.04x64-mingw32/gcc-build/avr/avr5/libgcc/../../../../gcc/libgcc/config/avr/lib1funcs.S:1670
    2fa4:	90 95       	com	r25
/home/jenkins-mingw32/workspace/avr-gcc-staging/label/Ubuntu14.04x64-mingw32/gcc-build/avr/avr5/libgcc/../../../../gcc/libgcc/config/avr/lib1funcs.S:1672
    2fa6:	9b 01       	movw	r18, r22
/home/jenkins-mingw32/workspace/avr-gcc-staging/label/Ubuntu14.04x64-mingw32/gcc-build/avr/avr5/libgcc/../../../../gcc/libgcc/config/avr/lib1funcs.S:1674
    2fa8:	ac 01       	movw	r20, r24
/home/jenkins-mingw32/workspace/avr-gcc-staging/label/Ubuntu14.04x64-mingw32/gcc-build/avr/avr5/libgcc/../../../../gcc/libgcc/config/avr/lib1funcs.S:1676
    2faa:	bd 01       	movw	r22, r26
/home/jenkins-mingw32/workspace/avr-gcc-staging/label/Ubuntu14.04x64-mingw32/gcc-build/avr/avr5/libgcc/../../../../gcc/libgcc/config/avr/lib1funcs.S:1678
    2fac:	cf 01       	movw	r24, r30
/home/jenkins-mingw32/workspace/avr-gcc-staging/label/Ubuntu14.04x64-mingw32/gcc-build/avr/avr5/libgcc/../../../../gcc/libgcc/config/avr/lib1funcs.S:1680
    2fae:	08 95       	ret

00002fb0 <__divmodsi4>:
__divmodsi4():
/home/jenkins-mingw32/workspace/avr-gcc-staging/label/Ubuntu14.04x64-mingw32/gcc-build/avr/avr5/libgcc/../../../../gcc/libgcc/config/avr/lib1funcs.S:1686
    2fb0:	05 2e       	mov	r0, r21
/home/jenkins-mingw32/workspace/avr-gcc-staging/label/Ubuntu14.04x64-mingw32/gcc-build/avr/avr5/libgcc/../../../../gcc/libgcc/config/avr/lib1funcs.S:1687
    2fb2:	97 fb       	bst	r25, 7
/home/jenkins-mingw32/workspace/avr-gcc-staging/label/Ubuntu14.04x64-mingw32/gcc-build/avr/avr5/libgcc/../../../../gcc/libgcc/config/avr/lib1funcs.S:1688
    2fb4:	1e f4       	brtc	.+6      	; 0x2fbc <__divmodsi4+0xc>
/home/jenkins-mingw32/workspace/avr-gcc-staging/label/Ubuntu14.04x64-mingw32/gcc-build/avr/avr5/libgcc/../../../../gcc/libgcc/config/avr/lib1funcs.S:1689
    2fb6:	00 94       	com	r0
/home/jenkins-mingw32/workspace/avr-gcc-staging/label/Ubuntu14.04x64-mingw32/gcc-build/avr/avr5/libgcc/../../../../gcc/libgcc/config/avr/lib1funcs.S:1690
    2fb8:	0e 94 ef 17 	call	0x2fde	; 0x2fde <__negsi2>
/home/jenkins-mingw32/workspace/avr-gcc-staging/label/Ubuntu14.04x64-mingw32/gcc-build/avr/avr5/libgcc/../../../../gcc/libgcc/config/avr/lib1funcs.S:1692
    2fbc:	57 fd       	sbrc	r21, 7
/home/jenkins-mingw32/workspace/avr-gcc-staging/label/Ubuntu14.04x64-mingw32/gcc-build/avr/avr5/libgcc/../../../../gcc/libgcc/config/avr/lib1funcs.S:1693
    2fbe:	07 d0       	rcall	.+14     	; 0x2fce <__divmodsi4_neg2>
/home/jenkins-mingw32/workspace/avr-gcc-staging/label/Ubuntu14.04x64-mingw32/gcc-build/avr/avr5/libgcc/../../../../gcc/libgcc/config/avr/lib1funcs.S:1694
    2fc0:	0e 94 b6 17 	call	0x2f6c	; 0x2f6c <__udivmodsi4>
/home/jenkins-mingw32/workspace/avr-gcc-staging/label/Ubuntu14.04x64-mingw32/gcc-build/avr/avr5/libgcc/../../../../gcc/libgcc/config/avr/lib1funcs.S:1695
    2fc4:	07 fc       	sbrc	r0, 7
/home/jenkins-mingw32/workspace/avr-gcc-staging/label/Ubuntu14.04x64-mingw32/gcc-build/avr/avr5/libgcc/../../../../gcc/libgcc/config/avr/lib1funcs.S:1696
    2fc6:	03 d0       	rcall	.+6      	; 0x2fce <__divmodsi4_neg2>
/home/jenkins-mingw32/workspace/avr-gcc-staging/label/Ubuntu14.04x64-mingw32/gcc-build/avr/avr5/libgcc/../../../../gcc/libgcc/config/avr/lib1funcs.S:1697
    2fc8:	4e f4       	brtc	.+18     	; 0x2fdc <__divmodsi4_exit>
/home/jenkins-mingw32/workspace/avr-gcc-staging/label/Ubuntu14.04x64-mingw32/gcc-build/avr/avr5/libgcc/../../../../gcc/libgcc/config/avr/lib1funcs.S:1698
    2fca:	0c 94 ef 17 	jmp	0x2fde	; 0x2fde <__negsi2>

00002fce <__divmodsi4_neg2>:
/home/jenkins-mingw32/workspace/avr-gcc-staging/label/Ubuntu14.04x64-mingw32/gcc-build/avr/avr5/libgcc/../../../../gcc/libgcc/config/avr/lib1funcs.S:1701
    2fce:	50 95       	com	r21
/home/jenkins-mingw32/workspace/avr-gcc-staging/label/Ubuntu14.04x64-mingw32/gcc-build/avr/avr5/libgcc/../../../../gcc/libgcc/config/avr/lib1funcs.S:1702
    2fd0:	40 95       	com	r20
/home/jenkins-mingw32/workspace/avr-gcc-staging/label/Ubuntu14.04x64-mingw32/gcc-build/avr/avr5/libgcc/../../../../gcc/libgcc/config/avr/lib1funcs.S:1703
    2fd2:	30 95       	com	r19
/home/jenkins-mingw32/workspace/avr-gcc-staging/label/Ubuntu14.04x64-mingw32/gcc-build/avr/avr5/libgcc/../../../../gcc/libgcc/config/avr/lib1funcs.S:1704
    2fd4:	21 95       	neg	r18
/home/jenkins-mingw32/workspace/avr-gcc-staging/label/Ubuntu14.04x64-mingw32/gcc-build/avr/avr5/libgcc/../../../../gcc/libgcc/config/avr/lib1funcs.S:1705
    2fd6:	3f 4f       	sbci	r19, 0xFF	; 255
/home/jenkins-mingw32/workspace/avr-gcc-staging/label/Ubuntu14.04x64-mingw32/gcc-build/avr/avr5/libgcc/../../../../gcc/libgcc/config/avr/lib1funcs.S:1706
    2fd8:	4f 4f       	sbci	r20, 0xFF	; 255
/home/jenkins-mingw32/workspace/avr-gcc-staging/label/Ubuntu14.04x64-mingw32/gcc-build/avr/avr5/libgcc/../../../../gcc/libgcc/config/avr/lib1funcs.S:1707
    2fda:	5f 4f       	sbci	r21, 0xFF	; 255

00002fdc <__divmodsi4_exit>:
/home/jenkins-mingw32/workspace/avr-gcc-staging/label/Ubuntu14.04x64-mingw32/gcc-build/avr/avr5/libgcc/../../../../gcc/libgcc/config/avr/lib1funcs.S:1709
    2fdc:	08 95       	ret

00002fde <__negsi2>:
__negsi2():
/home/jenkins-mingw32/workspace/avr-gcc-staging/label/Ubuntu14.04x64-mingw32/gcc-build/avr/avr5/libgcc/../../../../gcc/libgcc/config/avr/lib1funcs.S:1718
    2fde:	90 95       	com	r25
    2fe0:	80 95       	com	r24
    2fe2:	70 95       	com	r23
    2fe4:	61 95       	neg	r22
    2fe6:	7f 4f       	sbci	r23, 0xFF	; 255
    2fe8:	8f 4f       	sbci	r24, 0xFF	; 255
    2fea:	9f 4f       	sbci	r25, 0xFF	; 255
/home/jenkins-mingw32/workspace/avr-gcc-staging/label/Ubuntu14.04x64-mingw32/gcc-build/avr/avr5/libgcc/../../../../gcc/libgcc/config/avr/lib1funcs.S:1719
    2fec:	08 95       	ret

00002fee <__tablejump2__>:
__tablejump2__():
/home/jenkins-mingw32/workspace/avr-gcc-staging/label/Ubuntu14.04x64-mingw32/gcc-build/avr/avr5/libgcc/../../../../gcc/libgcc/config/avr/lib1funcs.S:2296
    2fee:	ee 0f       	add	r30, r30
/home/jenkins-mingw32/workspace/avr-gcc-staging/label/Ubuntu14.04x64-mingw32/gcc-build/avr/avr5/libgcc/../../../../gcc/libgcc/config/avr/lib1funcs.S:2297
    2ff0:	ff 1f       	adc	r31, r31
/home/jenkins-mingw32/workspace/avr-gcc-staging/label/Ubuntu14.04x64-mingw32/gcc-build/avr/avr5/libgcc/../../../../gcc/libgcc/config/avr/lib1funcs.S:2328
    2ff2:	05 90       	lpm	r0, Z+
/home/jenkins-mingw32/workspace/avr-gcc-staging/label/Ubuntu14.04x64-mingw32/gcc-build/avr/avr5/libgcc/../../../../gcc/libgcc/config/avr/lib1funcs.S:2329
    2ff4:	f4 91       	lpm	r31, Z
/home/jenkins-mingw32/workspace/avr-gcc-staging/label/Ubuntu14.04x64-mingw32/gcc-build/avr/avr5/libgcc/../../../../gcc/libgcc/config/avr/lib1funcs.S:2330
    2ff6:	e0 2d       	mov	r30, r0
/home/jenkins-mingw32/workspace/avr-gcc-staging/label/Ubuntu14.04x64-mingw32/gcc-build/avr/avr5/libgcc/../../../../gcc/libgcc/config/avr/lib1funcs.S:2331
    2ff8:	09 94       	ijmp

00002ffa <__udivmodhi4>:
__udivmodhi4():
/home/jenkins-mingw32/workspace/avr-gcc-staging/label/Ubuntu14.04x64-mingw32/gcc-build/avr/avr5/libgcc/../../../../gcc/libgcc/config/avr/lib1funcs.S:1408
    2ffa:	aa 1b       	sub	r26, r26
/home/jenkins-mingw32/workspace/avr-gcc-staging/label/Ubuntu14.04x64-mingw32/gcc-build/avr/avr5/libgcc/../../../../gcc/libgcc/config/avr/lib1funcs.S:1409
    2ffc:	bb 1b       	sub	r27, r27
/home/jenkins-mingw32/workspace/avr-gcc-staging/label/Ubuntu14.04x64-mingw32/gcc-build/avr/avr5/libgcc/../../../../gcc/libgcc/config/avr/lib1funcs.S:1410
    2ffe:	51 e1       	ldi	r21, 0x11	; 17
/home/jenkins-mingw32/workspace/avr-gcc-staging/label/Ubuntu14.04x64-mingw32/gcc-build/avr/avr5/libgcc/../../../../gcc/libgcc/config/avr/lib1funcs.S:1411
    3000:	07 c0       	rjmp	.+14     	; 0x3010 <__udivmodhi4_ep>

00003002 <__udivmodhi4_loop>:
/home/jenkins-mingw32/workspace/avr-gcc-staging/label/Ubuntu14.04x64-mingw32/gcc-build/avr/avr5/libgcc/../../../../gcc/libgcc/config/avr/lib1funcs.S:1413
    3002:	aa 1f       	adc	r26, r26
/home/jenkins-mingw32/workspace/avr-gcc-staging/label/Ubuntu14.04x64-mingw32/gcc-build/avr/avr5/libgcc/../../../../gcc/libgcc/config/avr/lib1funcs.S:1414
    3004:	bb 1f       	adc	r27, r27
/home/jenkins-mingw32/workspace/avr-gcc-staging/label/Ubuntu14.04x64-mingw32/gcc-build/avr/avr5/libgcc/../../../../gcc/libgcc/config/avr/lib1funcs.S:1415
    3006:	a6 17       	cp	r26, r22
/home/jenkins-mingw32/workspace/avr-gcc-staging/label/Ubuntu14.04x64-mingw32/gcc-build/avr/avr5/libgcc/../../../../gcc/libgcc/config/avr/lib1funcs.S:1416
    3008:	b7 07       	cpc	r27, r23
/home/jenkins-mingw32/workspace/avr-gcc-staging/label/Ubuntu14.04x64-mingw32/gcc-build/avr/avr5/libgcc/../../../../gcc/libgcc/config/avr/lib1funcs.S:1417
    300a:	10 f0       	brcs	.+4      	; 0x3010 <__udivmodhi4_ep>
/home/jenkins-mingw32/workspace/avr-gcc-staging/label/Ubuntu14.04x64-mingw32/gcc-build/avr/avr5/libgcc/../../../../gcc/libgcc/config/avr/lib1funcs.S:1418
    300c:	a6 1b       	sub	r26, r22
/home/jenkins-mingw32/workspace/avr-gcc-staging/label/Ubuntu14.04x64-mingw32/gcc-build/avr/avr5/libgcc/../../../../gcc/libgcc/config/avr/lib1funcs.S:1419
    300e:	b7 0b       	sbc	r27, r23

00003010 <__udivmodhi4_ep>:
/home/jenkins-mingw32/workspace/avr-gcc-staging/label/Ubuntu14.04x64-mingw32/gcc-build/avr/avr5/libgcc/../../../../gcc/libgcc/config/avr/lib1funcs.S:1421
    3010:	88 1f       	adc	r24, r24
/home/jenkins-mingw32/workspace/avr-gcc-staging/label/Ubuntu14.04x64-mingw32/gcc-build/avr/avr5/libgcc/../../../../gcc/libgcc/config/avr/lib1funcs.S:1422
    3012:	99 1f       	adc	r25, r25
/home/jenkins-mingw32/workspace/avr-gcc-staging/label/Ubuntu14.04x64-mingw32/gcc-build/avr/avr5/libgcc/../../../../gcc/libgcc/config/avr/lib1funcs.S:1423
    3014:	5a 95       	dec	r21
/home/jenkins-mingw32/workspace/avr-gcc-staging/label/Ubuntu14.04x64-mingw32/gcc-build/avr/avr5/libgcc/../../../../gcc/libgcc/config/avr/lib1funcs.S:1424
    3016:	a9 f7       	brne	.-22     	; 0x3002 <__udivmodhi4_loop>
/home/jenkins-mingw32/workspace/avr-gcc-staging/label/Ubuntu14.04x64-mingw32/gcc-build/avr/avr5/libgcc/../../../../gcc/libgcc/config/avr/lib1funcs.S:1425
    3018:	80 95       	com	r24
/home/jenkins-mingw32/workspace/avr-gcc-staging/label/Ubuntu14.04x64-mingw32/gcc-build/avr/avr5/libgcc/../../../../gcc/libgcc/config/avr/lib1funcs.S:1426
    301a:	90 95       	com	r25
/home/jenkins-mingw32/workspace/avr-gcc-staging/label/Ubuntu14.04x64-mingw32/gcc-build/avr/avr5/libgcc/../../../../gcc/libgcc/config/avr/lib1funcs.S:1428
    301c:	bc 01       	movw	r22, r24
/home/jenkins-mingw32/workspace/avr-gcc-staging/label/Ubuntu14.04x64-mingw32/gcc-build/avr/avr5/libgcc/../../../../gcc/libgcc/config/avr/lib1funcs.S:1430
    301e:	cd 01       	movw	r24, r26
/home/jenkins-mingw32/workspace/avr-gcc-staging/label/Ubuntu14.04x64-mingw32/gcc-build/avr/avr5/libgcc/../../../../gcc/libgcc/config/avr/lib1funcs.S:1432
    3020:	08 95       	ret

00003022 <malloc>:
malloc():
    3022:	0f 93       	push	r16
    3024:	1f 93       	push	r17
    3026:	cf 93       	push	r28
    3028:	df 93       	push	r29
    302a:	82 30       	cpi	r24, 0x02	; 2
    302c:	91 05       	cpc	r25, r1
    302e:	10 f4       	brcc	.+4      	; 0x3034 <malloc+0x12>
    3030:	82 e0       	ldi	r24, 0x02	; 2
    3032:	90 e0       	ldi	r25, 0x00	; 0
    3034:	e0 91 69 04 	lds	r30, 0x0469	; 0x800469 <__flp>
    3038:	f0 91 6a 04 	lds	r31, 0x046A	; 0x80046a <__flp+0x1>
    303c:	30 e0       	ldi	r19, 0x00	; 0
    303e:	20 e0       	ldi	r18, 0x00	; 0
    3040:	b0 e0       	ldi	r27, 0x00	; 0
    3042:	a0 e0       	ldi	r26, 0x00	; 0
    3044:	30 97       	sbiw	r30, 0x00	; 0
    3046:	99 f4       	brne	.+38     	; 0x306e <malloc+0x4c>
    3048:	21 15       	cp	r18, r1
    304a:	31 05       	cpc	r19, r1
    304c:	09 f4       	brne	.+2      	; 0x3050 <malloc+0x2e>
    304e:	4a c0       	rjmp	.+148    	; 0x30e4 <malloc+0xc2>
    3050:	28 1b       	sub	r18, r24
    3052:	39 0b       	sbc	r19, r25
    3054:	24 30       	cpi	r18, 0x04	; 4
    3056:	31 05       	cpc	r19, r1
    3058:	d8 f5       	brcc	.+118    	; 0x30d0 <malloc+0xae>
    305a:	8a 81       	ldd	r24, Y+2	; 0x02
    305c:	9b 81       	ldd	r25, Y+3	; 0x03
    305e:	61 15       	cp	r22, r1
    3060:	71 05       	cpc	r23, r1
    3062:	89 f1       	breq	.+98     	; 0x30c6 <malloc+0xa4>
    3064:	fb 01       	movw	r30, r22
    3066:	93 83       	std	Z+3, r25	; 0x03
    3068:	82 83       	std	Z+2, r24	; 0x02
    306a:	fe 01       	movw	r30, r28
    306c:	11 c0       	rjmp	.+34     	; 0x3090 <malloc+0x6e>
    306e:	40 81       	ld	r20, Z
    3070:	51 81       	ldd	r21, Z+1	; 0x01
    3072:	02 81       	ldd	r16, Z+2	; 0x02
    3074:	13 81       	ldd	r17, Z+3	; 0x03
    3076:	48 17       	cp	r20, r24
    3078:	59 07       	cpc	r21, r25
    307a:	e0 f0       	brcs	.+56     	; 0x30b4 <malloc+0x92>
    307c:	48 17       	cp	r20, r24
    307e:	59 07       	cpc	r21, r25
    3080:	99 f4       	brne	.+38     	; 0x30a8 <malloc+0x86>
    3082:	10 97       	sbiw	r26, 0x00	; 0
    3084:	61 f0       	breq	.+24     	; 0x309e <malloc+0x7c>
    3086:	12 96       	adiw	r26, 0x02	; 2
    3088:	0c 93       	st	X, r16
    308a:	12 97       	sbiw	r26, 0x02	; 2
    308c:	13 96       	adiw	r26, 0x03	; 3
    308e:	1c 93       	st	X, r17
    3090:	32 96       	adiw	r30, 0x02	; 2
    3092:	cf 01       	movw	r24, r30
    3094:	df 91       	pop	r29
    3096:	cf 91       	pop	r28
    3098:	1f 91       	pop	r17
    309a:	0f 91       	pop	r16
    309c:	08 95       	ret
    309e:	00 93 69 04 	sts	0x0469, r16	; 0x800469 <__flp>
    30a2:	10 93 6a 04 	sts	0x046A, r17	; 0x80046a <__flp+0x1>
    30a6:	f4 cf       	rjmp	.-24     	; 0x3090 <malloc+0x6e>
    30a8:	21 15       	cp	r18, r1
    30aa:	31 05       	cpc	r19, r1
    30ac:	51 f0       	breq	.+20     	; 0x30c2 <malloc+0xa0>
    30ae:	42 17       	cp	r20, r18
    30b0:	53 07       	cpc	r21, r19
    30b2:	38 f0       	brcs	.+14     	; 0x30c2 <malloc+0xa0>
    30b4:	a9 01       	movw	r20, r18
    30b6:	db 01       	movw	r26, r22
    30b8:	9a 01       	movw	r18, r20
    30ba:	bd 01       	movw	r22, r26
    30bc:	df 01       	movw	r26, r30
    30be:	f8 01       	movw	r30, r16
    30c0:	c1 cf       	rjmp	.-126    	; 0x3044 <malloc+0x22>
    30c2:	ef 01       	movw	r28, r30
    30c4:	f9 cf       	rjmp	.-14     	; 0x30b8 <malloc+0x96>
    30c6:	90 93 6a 04 	sts	0x046A, r25	; 0x80046a <__flp+0x1>
    30ca:	80 93 69 04 	sts	0x0469, r24	; 0x800469 <__flp>
    30ce:	cd cf       	rjmp	.-102    	; 0x306a <malloc+0x48>
    30d0:	fe 01       	movw	r30, r28
    30d2:	e2 0f       	add	r30, r18
    30d4:	f3 1f       	adc	r31, r19
    30d6:	81 93       	st	Z+, r24
    30d8:	91 93       	st	Z+, r25
    30da:	22 50       	subi	r18, 0x02	; 2
    30dc:	31 09       	sbc	r19, r1
    30de:	39 83       	std	Y+1, r19	; 0x01
    30e0:	28 83       	st	Y, r18
    30e2:	d7 cf       	rjmp	.-82     	; 0x3092 <malloc+0x70>
    30e4:	20 91 67 04 	lds	r18, 0x0467	; 0x800467 <__brkval>
    30e8:	30 91 68 04 	lds	r19, 0x0468	; 0x800468 <__brkval+0x1>
    30ec:	23 2b       	or	r18, r19
    30ee:	41 f4       	brne	.+16     	; 0x3100 <malloc+0xde>
    30f0:	20 91 02 01 	lds	r18, 0x0102	; 0x800102 <__malloc_heap_start>
    30f4:	30 91 03 01 	lds	r19, 0x0103	; 0x800103 <__malloc_heap_start+0x1>
    30f8:	30 93 68 04 	sts	0x0468, r19	; 0x800468 <__brkval+0x1>
    30fc:	20 93 67 04 	sts	0x0467, r18	; 0x800467 <__brkval>
    3100:	20 91 00 01 	lds	r18, 0x0100	; 0x800100 <__DATA_REGION_ORIGIN__>
    3104:	30 91 01 01 	lds	r19, 0x0101	; 0x800101 <__DATA_REGION_ORIGIN__+0x1>
    3108:	21 15       	cp	r18, r1
    310a:	31 05       	cpc	r19, r1
    310c:	41 f4       	brne	.+16     	; 0x311e <malloc+0xfc>
    310e:	2d b7       	in	r18, 0x3d	; 61
    3110:	3e b7       	in	r19, 0x3e	; 62
    3112:	40 91 04 01 	lds	r20, 0x0104	; 0x800104 <__malloc_margin>
    3116:	50 91 05 01 	lds	r21, 0x0105	; 0x800105 <__malloc_margin+0x1>
    311a:	24 1b       	sub	r18, r20
    311c:	35 0b       	sbc	r19, r21
    311e:	e0 91 67 04 	lds	r30, 0x0467	; 0x800467 <__brkval>
    3122:	f0 91 68 04 	lds	r31, 0x0468	; 0x800468 <__brkval+0x1>
    3126:	e2 17       	cp	r30, r18
    3128:	f3 07       	cpc	r31, r19
    312a:	a0 f4       	brcc	.+40     	; 0x3154 <malloc+0x132>
    312c:	2e 1b       	sub	r18, r30
    312e:	3f 0b       	sbc	r19, r31
    3130:	28 17       	cp	r18, r24
    3132:	39 07       	cpc	r19, r25
    3134:	78 f0       	brcs	.+30     	; 0x3154 <malloc+0x132>
    3136:	ac 01       	movw	r20, r24
    3138:	4e 5f       	subi	r20, 0xFE	; 254
    313a:	5f 4f       	sbci	r21, 0xFF	; 255
    313c:	24 17       	cp	r18, r20
    313e:	35 07       	cpc	r19, r21
    3140:	48 f0       	brcs	.+18     	; 0x3154 <malloc+0x132>
    3142:	4e 0f       	add	r20, r30
    3144:	5f 1f       	adc	r21, r31
    3146:	50 93 68 04 	sts	0x0468, r21	; 0x800468 <__brkval+0x1>
    314a:	40 93 67 04 	sts	0x0467, r20	; 0x800467 <__brkval>
    314e:	81 93       	st	Z+, r24
    3150:	91 93       	st	Z+, r25
    3152:	9f cf       	rjmp	.-194    	; 0x3092 <malloc+0x70>
    3154:	f0 e0       	ldi	r31, 0x00	; 0
    3156:	e0 e0       	ldi	r30, 0x00	; 0
    3158:	9c cf       	rjmp	.-200    	; 0x3092 <malloc+0x70>

0000315a <free>:
free():
    315a:	cf 93       	push	r28
    315c:	df 93       	push	r29
    315e:	00 97       	sbiw	r24, 0x00	; 0
    3160:	e9 f0       	breq	.+58     	; 0x319c <free+0x42>
    3162:	fc 01       	movw	r30, r24
    3164:	32 97       	sbiw	r30, 0x02	; 2
    3166:	13 82       	std	Z+3, r1	; 0x03
    3168:	12 82       	std	Z+2, r1	; 0x02
    316a:	a0 91 69 04 	lds	r26, 0x0469	; 0x800469 <__flp>
    316e:	b0 91 6a 04 	lds	r27, 0x046A	; 0x80046a <__flp+0x1>
    3172:	ed 01       	movw	r28, r26
    3174:	30 e0       	ldi	r19, 0x00	; 0
    3176:	20 e0       	ldi	r18, 0x00	; 0
    3178:	10 97       	sbiw	r26, 0x00	; 0
    317a:	a1 f4       	brne	.+40     	; 0x31a4 <free+0x4a>
    317c:	20 81       	ld	r18, Z
    317e:	31 81       	ldd	r19, Z+1	; 0x01
    3180:	82 0f       	add	r24, r18
    3182:	93 1f       	adc	r25, r19
    3184:	20 91 67 04 	lds	r18, 0x0467	; 0x800467 <__brkval>
    3188:	30 91 68 04 	lds	r19, 0x0468	; 0x800468 <__brkval+0x1>
    318c:	28 17       	cp	r18, r24
    318e:	39 07       	cpc	r19, r25
    3190:	09 f0       	breq	.+2      	; 0x3194 <free+0x3a>
    3192:	61 c0       	rjmp	.+194    	; 0x3256 <free+0xfc>
    3194:	f0 93 68 04 	sts	0x0468, r31	; 0x800468 <__brkval+0x1>
    3198:	e0 93 67 04 	sts	0x0467, r30	; 0x800467 <__brkval>
    319c:	df 91       	pop	r29
    319e:	cf 91       	pop	r28
    31a0:	08 95       	ret
    31a2:	ea 01       	movw	r28, r20
    31a4:	ce 17       	cp	r28, r30
    31a6:	df 07       	cpc	r29, r31
    31a8:	e8 f5       	brcc	.+122    	; 0x3224 <free+0xca>
    31aa:	4a 81       	ldd	r20, Y+2	; 0x02
    31ac:	5b 81       	ldd	r21, Y+3	; 0x03
    31ae:	9e 01       	movw	r18, r28
    31b0:	41 15       	cp	r20, r1
    31b2:	51 05       	cpc	r21, r1
    31b4:	b1 f7       	brne	.-20     	; 0x31a2 <free+0x48>
    31b6:	e9 01       	movw	r28, r18
    31b8:	fb 83       	std	Y+3, r31	; 0x03
    31ba:	ea 83       	std	Y+2, r30	; 0x02
    31bc:	49 91       	ld	r20, Y+
    31be:	59 91       	ld	r21, Y+
    31c0:	c4 0f       	add	r28, r20
    31c2:	d5 1f       	adc	r29, r21
    31c4:	ec 17       	cp	r30, r28
    31c6:	fd 07       	cpc	r31, r29
    31c8:	61 f4       	brne	.+24     	; 0x31e2 <free+0x88>
    31ca:	80 81       	ld	r24, Z
    31cc:	91 81       	ldd	r25, Z+1	; 0x01
    31ce:	02 96       	adiw	r24, 0x02	; 2
    31d0:	84 0f       	add	r24, r20
    31d2:	95 1f       	adc	r25, r21
    31d4:	e9 01       	movw	r28, r18
    31d6:	99 83       	std	Y+1, r25	; 0x01
    31d8:	88 83       	st	Y, r24
    31da:	82 81       	ldd	r24, Z+2	; 0x02
    31dc:	93 81       	ldd	r25, Z+3	; 0x03
    31de:	9b 83       	std	Y+3, r25	; 0x03
    31e0:	8a 83       	std	Y+2, r24	; 0x02
    31e2:	f0 e0       	ldi	r31, 0x00	; 0
    31e4:	e0 e0       	ldi	r30, 0x00	; 0
    31e6:	12 96       	adiw	r26, 0x02	; 2
    31e8:	8d 91       	ld	r24, X+
    31ea:	9c 91       	ld	r25, X
    31ec:	13 97       	sbiw	r26, 0x03	; 3
    31ee:	00 97       	sbiw	r24, 0x00	; 0
    31f0:	b9 f5       	brne	.+110    	; 0x3260 <free+0x106>
    31f2:	2d 91       	ld	r18, X+
    31f4:	3c 91       	ld	r19, X
    31f6:	11 97       	sbiw	r26, 0x01	; 1
    31f8:	cd 01       	movw	r24, r26
    31fa:	02 96       	adiw	r24, 0x02	; 2
    31fc:	82 0f       	add	r24, r18
    31fe:	93 1f       	adc	r25, r19
    3200:	20 91 67 04 	lds	r18, 0x0467	; 0x800467 <__brkval>
    3204:	30 91 68 04 	lds	r19, 0x0468	; 0x800468 <__brkval+0x1>
    3208:	28 17       	cp	r18, r24
    320a:	39 07       	cpc	r19, r25
    320c:	39 f6       	brne	.-114    	; 0x319c <free+0x42>
    320e:	30 97       	sbiw	r30, 0x00	; 0
    3210:	51 f5       	brne	.+84     	; 0x3266 <free+0x10c>
    3212:	10 92 6a 04 	sts	0x046A, r1	; 0x80046a <__flp+0x1>
    3216:	10 92 69 04 	sts	0x0469, r1	; 0x800469 <__flp>
    321a:	b0 93 68 04 	sts	0x0468, r27	; 0x800468 <__brkval+0x1>
    321e:	a0 93 67 04 	sts	0x0467, r26	; 0x800467 <__brkval>
    3222:	bc cf       	rjmp	.-136    	; 0x319c <free+0x42>
    3224:	d3 83       	std	Z+3, r29	; 0x03
    3226:	c2 83       	std	Z+2, r28	; 0x02
    3228:	40 81       	ld	r20, Z
    322a:	51 81       	ldd	r21, Z+1	; 0x01
    322c:	84 0f       	add	r24, r20
    322e:	95 1f       	adc	r25, r21
    3230:	c8 17       	cp	r28, r24
    3232:	d9 07       	cpc	r29, r25
    3234:	61 f4       	brne	.+24     	; 0x324e <free+0xf4>
    3236:	4e 5f       	subi	r20, 0xFE	; 254
    3238:	5f 4f       	sbci	r21, 0xFF	; 255
    323a:	88 81       	ld	r24, Y
    323c:	99 81       	ldd	r25, Y+1	; 0x01
    323e:	48 0f       	add	r20, r24
    3240:	59 1f       	adc	r21, r25
    3242:	51 83       	std	Z+1, r21	; 0x01
    3244:	40 83       	st	Z, r20
    3246:	8a 81       	ldd	r24, Y+2	; 0x02
    3248:	9b 81       	ldd	r25, Y+3	; 0x03
    324a:	93 83       	std	Z+3, r25	; 0x03
    324c:	82 83       	std	Z+2, r24	; 0x02
    324e:	21 15       	cp	r18, r1
    3250:	31 05       	cpc	r19, r1
    3252:	09 f0       	breq	.+2      	; 0x3256 <free+0xfc>
    3254:	b0 cf       	rjmp	.-160    	; 0x31b6 <free+0x5c>
    3256:	f0 93 6a 04 	sts	0x046A, r31	; 0x80046a <__flp+0x1>
    325a:	e0 93 69 04 	sts	0x0469, r30	; 0x800469 <__flp>
    325e:	9e cf       	rjmp	.-196    	; 0x319c <free+0x42>
    3260:	fd 01       	movw	r30, r26
    3262:	dc 01       	movw	r26, r24
    3264:	c0 cf       	rjmp	.-128    	; 0x31e6 <free+0x8c>
    3266:	13 82       	std	Z+3, r1	; 0x03
    3268:	12 82       	std	Z+2, r1	; 0x02
    326a:	d7 cf       	rjmp	.-82     	; 0x321a <free+0xc0>

0000326c <realloc>:
realloc():
    326c:	b0 e0       	ldi	r27, 0x00	; 0
    326e:	a0 e0       	ldi	r26, 0x00	; 0
    3270:	ec e3       	ldi	r30, 0x3C	; 60
    3272:	f9 e1       	ldi	r31, 0x19	; 25
    3274:	0c 94 57 1a 	jmp	0x34ae	; 0x34ae <__prologue_saves__+0x4>
    3278:	8c 01       	movw	r16, r24
    327a:	00 97       	sbiw	r24, 0x00	; 0
    327c:	51 f4       	brne	.+20     	; 0x3292 <realloc+0x26>
    327e:	cb 01       	movw	r24, r22
    3280:	0e 94 11 18 	call	0x3022	; 0x3022 <malloc>
    3284:	8c 01       	movw	r16, r24
    3286:	c8 01       	movw	r24, r16
    3288:	cd b7       	in	r28, 0x3d	; 61
    328a:	de b7       	in	r29, 0x3e	; 62
    328c:	e0 e1       	ldi	r30, 0x10	; 16
    328e:	0c 94 73 1a 	jmp	0x34e6	; 0x34e6 <__epilogue_restores__+0x4>
    3292:	fc 01       	movw	r30, r24
    3294:	e6 0f       	add	r30, r22
    3296:	f7 1f       	adc	r31, r23
    3298:	9c 01       	movw	r18, r24
    329a:	22 50       	subi	r18, 0x02	; 2
    329c:	31 09       	sbc	r19, r1
    329e:	e2 17       	cp	r30, r18
    32a0:	f3 07       	cpc	r31, r19
    32a2:	08 f4       	brcc	.+2      	; 0x32a6 <realloc+0x3a>
    32a4:	9d c0       	rjmp	.+314    	; 0x33e0 <realloc+0x174>
    32a6:	d9 01       	movw	r26, r18
    32a8:	cd 91       	ld	r28, X+
    32aa:	dc 91       	ld	r29, X
    32ac:	11 97       	sbiw	r26, 0x01	; 1
    32ae:	c6 17       	cp	r28, r22
    32b0:	d7 07       	cpc	r29, r23
    32b2:	98 f0       	brcs	.+38     	; 0x32da <realloc+0x6e>
    32b4:	c5 30       	cpi	r28, 0x05	; 5
    32b6:	d1 05       	cpc	r29, r1
    32b8:	30 f3       	brcs	.-52     	; 0x3286 <realloc+0x1a>
    32ba:	ce 01       	movw	r24, r28
    32bc:	04 97       	sbiw	r24, 0x04	; 4
    32be:	86 17       	cp	r24, r22
    32c0:	97 07       	cpc	r25, r23
    32c2:	08 f3       	brcs	.-62     	; 0x3286 <realloc+0x1a>
    32c4:	c6 1b       	sub	r28, r22
    32c6:	d7 0b       	sbc	r29, r23
    32c8:	22 97       	sbiw	r28, 0x02	; 2
    32ca:	c1 93       	st	Z+, r28
    32cc:	d1 93       	st	Z+, r29
    32ce:	6d 93       	st	X+, r22
    32d0:	7c 93       	st	X, r23
    32d2:	cf 01       	movw	r24, r30
    32d4:	0e 94 ad 18 	call	0x315a	; 0x315a <free>
    32d8:	d6 cf       	rjmp	.-84     	; 0x3286 <realloc+0x1a>
    32da:	5b 01       	movw	r10, r22
    32dc:	ac 1a       	sub	r10, r28
    32de:	bd 0a       	sbc	r11, r29
    32e0:	4c 01       	movw	r8, r24
    32e2:	8c 0e       	add	r8, r28
    32e4:	9d 1e       	adc	r9, r29
    32e6:	a0 91 69 04 	lds	r26, 0x0469	; 0x800469 <__flp>
    32ea:	b0 91 6a 04 	lds	r27, 0x046A	; 0x80046a <__flp+0x1>
    32ee:	51 2c       	mov	r5, r1
    32f0:	41 2c       	mov	r4, r1
    32f2:	f1 2c       	mov	r15, r1
    32f4:	e1 2c       	mov	r14, r1
    32f6:	10 97       	sbiw	r26, 0x00	; 0
    32f8:	31 f5       	brne	.+76     	; 0x3346 <realloc+0xda>
    32fa:	80 91 67 04 	lds	r24, 0x0467	; 0x800467 <__brkval>
    32fe:	90 91 68 04 	lds	r25, 0x0468	; 0x800468 <__brkval+0x1>
    3302:	88 15       	cp	r24, r8
    3304:	99 05       	cpc	r25, r9
    3306:	09 f0       	breq	.+2      	; 0x330a <realloc+0x9e>
    3308:	5c c0       	rjmp	.+184    	; 0x33c2 <realloc+0x156>
    330a:	46 16       	cp	r4, r22
    330c:	57 06       	cpc	r5, r23
    330e:	08 f0       	brcs	.+2      	; 0x3312 <realloc+0xa6>
    3310:	58 c0       	rjmp	.+176    	; 0x33c2 <realloc+0x156>
    3312:	80 91 00 01 	lds	r24, 0x0100	; 0x800100 <__DATA_REGION_ORIGIN__>
    3316:	90 91 01 01 	lds	r25, 0x0101	; 0x800101 <__DATA_REGION_ORIGIN__+0x1>
    331a:	00 97       	sbiw	r24, 0x00	; 0
    331c:	41 f4       	brne	.+16     	; 0x332e <realloc+0xc2>
    331e:	8d b7       	in	r24, 0x3d	; 61
    3320:	9e b7       	in	r25, 0x3e	; 62
    3322:	40 91 04 01 	lds	r20, 0x0104	; 0x800104 <__malloc_margin>
    3326:	50 91 05 01 	lds	r21, 0x0105	; 0x800105 <__malloc_margin+0x1>
    332a:	84 1b       	sub	r24, r20
    332c:	95 0b       	sbc	r25, r21
    332e:	e8 17       	cp	r30, r24
    3330:	f9 07       	cpc	r31, r25
    3332:	08 f0       	brcs	.+2      	; 0x3336 <realloc+0xca>
    3334:	55 c0       	rjmp	.+170    	; 0x33e0 <realloc+0x174>
    3336:	f0 93 68 04 	sts	0x0468, r31	; 0x800468 <__brkval+0x1>
    333a:	e0 93 67 04 	sts	0x0467, r30	; 0x800467 <__brkval>
    333e:	f9 01       	movw	r30, r18
    3340:	71 83       	std	Z+1, r23	; 0x01
    3342:	60 83       	st	Z, r22
    3344:	a0 cf       	rjmp	.-192    	; 0x3286 <realloc+0x1a>
    3346:	8d 91       	ld	r24, X+
    3348:	9c 91       	ld	r25, X
    334a:	11 97       	sbiw	r26, 0x01	; 1
    334c:	12 96       	adiw	r26, 0x02	; 2
    334e:	6c 90       	ld	r6, X
    3350:	12 97       	sbiw	r26, 0x02	; 2
    3352:	13 96       	adiw	r26, 0x03	; 3
    3354:	7c 90       	ld	r7, X
    3356:	13 97       	sbiw	r26, 0x03	; 3
    3358:	a8 15       	cp	r26, r8
    335a:	b9 05       	cpc	r27, r9
    335c:	59 f5       	brne	.+86     	; 0x33b4 <realloc+0x148>
    335e:	6c 01       	movw	r12, r24
    3360:	42 e0       	ldi	r20, 0x02	; 2
    3362:	c4 0e       	add	r12, r20
    3364:	d1 1c       	adc	r13, r1
    3366:	ca 14       	cp	r12, r10
    3368:	db 04       	cpc	r13, r11
    336a:	20 f1       	brcs	.+72     	; 0x33b4 <realloc+0x148>
    336c:	ac 01       	movw	r20, r24
    336e:	4a 19       	sub	r20, r10
    3370:	5b 09       	sbc	r21, r11
    3372:	da 01       	movw	r26, r20
    3374:	12 96       	adiw	r26, 0x02	; 2
    3376:	15 97       	sbiw	r26, 0x05	; 5
    3378:	80 f0       	brcs	.+32     	; 0x339a <realloc+0x12e>
    337a:	62 82       	std	Z+2, r6	; 0x02
    337c:	73 82       	std	Z+3, r7	; 0x03
    337e:	51 83       	std	Z+1, r21	; 0x01
    3380:	40 83       	st	Z, r20
    3382:	d9 01       	movw	r26, r18
    3384:	6d 93       	st	X+, r22
    3386:	7c 93       	st	X, r23
    3388:	e1 14       	cp	r14, r1
    338a:	f1 04       	cpc	r15, r1
    338c:	71 f0       	breq	.+28     	; 0x33aa <realloc+0x13e>
    338e:	d7 01       	movw	r26, r14
    3390:	13 96       	adiw	r26, 0x03	; 3
    3392:	fc 93       	st	X, r31
    3394:	ee 93       	st	-X, r30
    3396:	12 97       	sbiw	r26, 0x02	; 2
    3398:	76 cf       	rjmp	.-276    	; 0x3286 <realloc+0x1a>
    339a:	22 96       	adiw	r28, 0x02	; 2
    339c:	8c 0f       	add	r24, r28
    339e:	9d 1f       	adc	r25, r29
    33a0:	f9 01       	movw	r30, r18
    33a2:	91 83       	std	Z+1, r25	; 0x01
    33a4:	80 83       	st	Z, r24
    33a6:	f3 01       	movw	r30, r6
    33a8:	ef cf       	rjmp	.-34     	; 0x3388 <realloc+0x11c>
    33aa:	f0 93 6a 04 	sts	0x046A, r31	; 0x80046a <__flp+0x1>
    33ae:	e0 93 69 04 	sts	0x0469, r30	; 0x800469 <__flp>
    33b2:	69 cf       	rjmp	.-302    	; 0x3286 <realloc+0x1a>
    33b4:	48 16       	cp	r4, r24
    33b6:	59 06       	cpc	r5, r25
    33b8:	08 f4       	brcc	.+2      	; 0x33bc <realloc+0x150>
    33ba:	2c 01       	movw	r4, r24
    33bc:	7d 01       	movw	r14, r26
    33be:	d3 01       	movw	r26, r6
    33c0:	9a cf       	rjmp	.-204    	; 0x32f6 <realloc+0x8a>
    33c2:	cb 01       	movw	r24, r22
    33c4:	0e 94 11 18 	call	0x3022	; 0x3022 <malloc>
    33c8:	7c 01       	movw	r14, r24
    33ca:	00 97       	sbiw	r24, 0x00	; 0
    33cc:	49 f0       	breq	.+18     	; 0x33e0 <realloc+0x174>
    33ce:	ae 01       	movw	r20, r28
    33d0:	b8 01       	movw	r22, r16
    33d2:	0e 94 27 1a 	call	0x344e	; 0x344e <memcpy>
    33d6:	c8 01       	movw	r24, r16
    33d8:	0e 94 ad 18 	call	0x315a	; 0x315a <free>
    33dc:	87 01       	movw	r16, r14
    33de:	53 cf       	rjmp	.-346    	; 0x3286 <realloc+0x1a>
    33e0:	10 e0       	ldi	r17, 0x00	; 0
    33e2:	00 e0       	ldi	r16, 0x00	; 0
    33e4:	50 cf       	rjmp	.-352    	; 0x3286 <realloc+0x1a>

000033e6 <atol>:
atol():
    33e6:	1f 93       	push	r17
    33e8:	fc 01       	movw	r30, r24
    33ea:	99 27       	eor	r25, r25
    33ec:	88 27       	eor	r24, r24
    33ee:	bc 01       	movw	r22, r24
    33f0:	e8 94       	clt
    33f2:	11 91       	ld	r17, Z+
    33f4:	10 32       	cpi	r17, 0x20	; 32
    33f6:	e9 f3       	breq	.-6      	; 0x33f2 <atol+0xc>
    33f8:	19 30       	cpi	r17, 0x09	; 9
    33fa:	10 f0       	brcs	.+4      	; 0x3400 <atol+0x1a>
    33fc:	1e 30       	cpi	r17, 0x0E	; 14
    33fe:	c8 f3       	brcs	.-14     	; 0x33f2 <atol+0xc>
    3400:	1b 32       	cpi	r17, 0x2B	; 43
    3402:	51 f0       	breq	.+20     	; 0x3418 <atol+0x32>
    3404:	1d 32       	cpi	r17, 0x2D	; 45
    3406:	49 f4       	brne	.+18     	; 0x341a <atol+0x34>
    3408:	68 94       	set
    340a:	06 c0       	rjmp	.+12     	; 0x3418 <atol+0x32>
    340c:	0e 94 40 1a 	call	0x3480	; 0x3480 <__mulsi_const_10>
    3410:	61 0f       	add	r22, r17
    3412:	71 1d       	adc	r23, r1
    3414:	81 1d       	adc	r24, r1
    3416:	91 1d       	adc	r25, r1
    3418:	11 91       	ld	r17, Z+
    341a:	10 53       	subi	r17, 0x30	; 48
    341c:	1a 30       	cpi	r17, 0x0A	; 10
    341e:	b0 f3       	brcs	.-20     	; 0x340c <atol+0x26>
    3420:	3e f4       	brtc	.+14     	; 0x3430 <atol+0x4a>
    3422:	90 95       	com	r25
    3424:	80 95       	com	r24
    3426:	70 95       	com	r23
    3428:	61 95       	neg	r22
    342a:	7f 4f       	sbci	r23, 0xFF	; 255
    342c:	8f 4f       	sbci	r24, 0xFF	; 255
    342e:	9f 4f       	sbci	r25, 0xFF	; 255
    3430:	1f 91       	pop	r17
    3432:	08 95       	ret

00003434 <memcmp>:
memcmp():
    3434:	fb 01       	movw	r30, r22
    3436:	dc 01       	movw	r26, r24
    3438:	04 c0       	rjmp	.+8      	; 0x3442 <memcmp+0xe>
    343a:	8d 91       	ld	r24, X+
    343c:	01 90       	ld	r0, Z+
    343e:	80 19       	sub	r24, r0
    3440:	21 f4       	brne	.+8      	; 0x344a <memcmp+0x16>
    3442:	41 50       	subi	r20, 0x01	; 1
    3444:	50 40       	sbci	r21, 0x00	; 0
    3446:	c8 f7       	brcc	.-14     	; 0x343a <memcmp+0x6>
    3448:	88 1b       	sub	r24, r24
    344a:	99 0b       	sbc	r25, r25
    344c:	08 95       	ret

0000344e <memcpy>:
memcpy():
    344e:	fb 01       	movw	r30, r22
    3450:	dc 01       	movw	r26, r24
    3452:	02 c0       	rjmp	.+4      	; 0x3458 <memcpy+0xa>
    3454:	01 90       	ld	r0, Z+
    3456:	0d 92       	st	X+, r0
    3458:	41 50       	subi	r20, 0x01	; 1
    345a:	50 40       	sbci	r21, 0x00	; 0
    345c:	d8 f7       	brcc	.-10     	; 0x3454 <memcpy+0x6>
    345e:	08 95       	ret

00003460 <strcmp>:
strcmp():
    3460:	fb 01       	movw	r30, r22
    3462:	dc 01       	movw	r26, r24
    3464:	8d 91       	ld	r24, X+
    3466:	01 90       	ld	r0, Z+
    3468:	80 19       	sub	r24, r0
    346a:	01 10       	cpse	r0, r1
    346c:	d9 f3       	breq	.-10     	; 0x3464 <strcmp+0x4>
    346e:	99 0b       	sbc	r25, r25
    3470:	08 95       	ret

00003472 <strcpy>:
strcpy():
    3472:	fb 01       	movw	r30, r22
    3474:	dc 01       	movw	r26, r24
    3476:	01 90       	ld	r0, Z+
    3478:	0d 92       	st	X+, r0
    347a:	00 20       	and	r0, r0
    347c:	e1 f7       	brne	.-8      	; 0x3476 <strcpy+0x4>
    347e:	08 95       	ret

00003480 <__mulsi_const_10>:
__mulsi_const_10():
    3480:	59 2f       	mov	r21, r25
    3482:	48 2f       	mov	r20, r24
    3484:	37 2f       	mov	r19, r23
    3486:	26 2f       	mov	r18, r22
    3488:	66 0f       	add	r22, r22
    348a:	77 1f       	adc	r23, r23
    348c:	88 1f       	adc	r24, r24
    348e:	99 1f       	adc	r25, r25
    3490:	66 0f       	add	r22, r22
    3492:	77 1f       	adc	r23, r23
    3494:	88 1f       	adc	r24, r24
    3496:	99 1f       	adc	r25, r25
    3498:	62 0f       	add	r22, r18
    349a:	73 1f       	adc	r23, r19
    349c:	84 1f       	adc	r24, r20
    349e:	95 1f       	adc	r25, r21
    34a0:	66 0f       	add	r22, r22
    34a2:	77 1f       	adc	r23, r23
    34a4:	88 1f       	adc	r24, r24
    34a6:	99 1f       	adc	r25, r25
    34a8:	08 95       	ret

000034aa <__prologue_saves__>:
__prologue_saves__():
/home/jenkins-mingw32/workspace/avr-gcc-staging/label/Ubuntu14.04x64-mingw32/gcc-build/avr/avr5/libgcc/../../../../gcc/libgcc/config/avr/lib1funcs.S:2169
    34aa:	2f 92       	push	r2
/home/jenkins-mingw32/workspace/avr-gcc-staging/label/Ubuntu14.04x64-mingw32/gcc-build/avr/avr5/libgcc/../../../../gcc/libgcc/config/avr/lib1funcs.S:2170
    34ac:	3f 92       	push	r3
/home/jenkins-mingw32/workspace/avr-gcc-staging/label/Ubuntu14.04x64-mingw32/gcc-build/avr/avr5/libgcc/../../../../gcc/libgcc/config/avr/lib1funcs.S:2171
    34ae:	4f 92       	push	r4
/home/jenkins-mingw32/workspace/avr-gcc-staging/label/Ubuntu14.04x64-mingw32/gcc-build/avr/avr5/libgcc/../../../../gcc/libgcc/config/avr/lib1funcs.S:2172
    34b0:	5f 92       	push	r5
/home/jenkins-mingw32/workspace/avr-gcc-staging/label/Ubuntu14.04x64-mingw32/gcc-build/avr/avr5/libgcc/../../../../gcc/libgcc/config/avr/lib1funcs.S:2173
    34b2:	6f 92       	push	r6
/home/jenkins-mingw32/workspace/avr-gcc-staging/label/Ubuntu14.04x64-mingw32/gcc-build/avr/avr5/libgcc/../../../../gcc/libgcc/config/avr/lib1funcs.S:2174
    34b4:	7f 92       	push	r7
/home/jenkins-mingw32/workspace/avr-gcc-staging/label/Ubuntu14.04x64-mingw32/gcc-build/avr/avr5/libgcc/../../../../gcc/libgcc/config/avr/lib1funcs.S:2175
    34b6:	8f 92       	push	r8
/home/jenkins-mingw32/workspace/avr-gcc-staging/label/Ubuntu14.04x64-mingw32/gcc-build/avr/avr5/libgcc/../../../../gcc/libgcc/config/avr/lib1funcs.S:2176
    34b8:	9f 92       	push	r9
/home/jenkins-mingw32/workspace/avr-gcc-staging/label/Ubuntu14.04x64-mingw32/gcc-build/avr/avr5/libgcc/../../../../gcc/libgcc/config/avr/lib1funcs.S:2177
    34ba:	af 92       	push	r10
/home/jenkins-mingw32/workspace/avr-gcc-staging/label/Ubuntu14.04x64-mingw32/gcc-build/avr/avr5/libgcc/../../../../gcc/libgcc/config/avr/lib1funcs.S:2178
    34bc:	bf 92       	push	r11
/home/jenkins-mingw32/workspace/avr-gcc-staging/label/Ubuntu14.04x64-mingw32/gcc-build/avr/avr5/libgcc/../../../../gcc/libgcc/config/avr/lib1funcs.S:2179
    34be:	cf 92       	push	r12
/home/jenkins-mingw32/workspace/avr-gcc-staging/label/Ubuntu14.04x64-mingw32/gcc-build/avr/avr5/libgcc/../../../../gcc/libgcc/config/avr/lib1funcs.S:2180
    34c0:	df 92       	push	r13
/home/jenkins-mingw32/workspace/avr-gcc-staging/label/Ubuntu14.04x64-mingw32/gcc-build/avr/avr5/libgcc/../../../../gcc/libgcc/config/avr/lib1funcs.S:2181
    34c2:	ef 92       	push	r14
/home/jenkins-mingw32/workspace/avr-gcc-staging/label/Ubuntu14.04x64-mingw32/gcc-build/avr/avr5/libgcc/../../../../gcc/libgcc/config/avr/lib1funcs.S:2182
    34c4:	ff 92       	push	r15
/home/jenkins-mingw32/workspace/avr-gcc-staging/label/Ubuntu14.04x64-mingw32/gcc-build/avr/avr5/libgcc/../../../../gcc/libgcc/config/avr/lib1funcs.S:2183
    34c6:	0f 93       	push	r16
/home/jenkins-mingw32/workspace/avr-gcc-staging/label/Ubuntu14.04x64-mingw32/gcc-build/avr/avr5/libgcc/../../../../gcc/libgcc/config/avr/lib1funcs.S:2184
    34c8:	1f 93       	push	r17
/home/jenkins-mingw32/workspace/avr-gcc-staging/label/Ubuntu14.04x64-mingw32/gcc-build/avr/avr5/libgcc/../../../../gcc/libgcc/config/avr/lib1funcs.S:2185
    34ca:	cf 93       	push	r28
/home/jenkins-mingw32/workspace/avr-gcc-staging/label/Ubuntu14.04x64-mingw32/gcc-build/avr/avr5/libgcc/../../../../gcc/libgcc/config/avr/lib1funcs.S:2186
    34cc:	df 93       	push	r29
/home/jenkins-mingw32/workspace/avr-gcc-staging/label/Ubuntu14.04x64-mingw32/gcc-build/avr/avr5/libgcc/../../../../gcc/libgcc/config/avr/lib1funcs.S:2200
    34ce:	cd b7       	in	r28, 0x3d	; 61
/home/jenkins-mingw32/workspace/avr-gcc-staging/label/Ubuntu14.04x64-mingw32/gcc-build/avr/avr5/libgcc/../../../../gcc/libgcc/config/avr/lib1funcs.S:2201
    34d0:	de b7       	in	r29, 0x3e	; 62
/home/jenkins-mingw32/workspace/avr-gcc-staging/label/Ubuntu14.04x64-mingw32/gcc-build/avr/avr5/libgcc/../../../../gcc/libgcc/config/avr/lib1funcs.S:2202
    34d2:	ca 1b       	sub	r28, r26
/home/jenkins-mingw32/workspace/avr-gcc-staging/label/Ubuntu14.04x64-mingw32/gcc-build/avr/avr5/libgcc/../../../../gcc/libgcc/config/avr/lib1funcs.S:2203
    34d4:	db 0b       	sbc	r29, r27
/home/jenkins-mingw32/workspace/avr-gcc-staging/label/Ubuntu14.04x64-mingw32/gcc-build/avr/avr5/libgcc/../../../../gcc/libgcc/config/avr/lib1funcs.S:2204
    34d6:	0f b6       	in	r0, 0x3f	; 63
/home/jenkins-mingw32/workspace/avr-gcc-staging/label/Ubuntu14.04x64-mingw32/gcc-build/avr/avr5/libgcc/../../../../gcc/libgcc/config/avr/lib1funcs.S:2205
    34d8:	f8 94       	cli
/home/jenkins-mingw32/workspace/avr-gcc-staging/label/Ubuntu14.04x64-mingw32/gcc-build/avr/avr5/libgcc/../../../../gcc/libgcc/config/avr/lib1funcs.S:2206
    34da:	de bf       	out	0x3e, r29	; 62
/home/jenkins-mingw32/workspace/avr-gcc-staging/label/Ubuntu14.04x64-mingw32/gcc-build/avr/avr5/libgcc/../../../../gcc/libgcc/config/avr/lib1funcs.S:2207
    34dc:	0f be       	out	0x3f, r0	; 63
/home/jenkins-mingw32/workspace/avr-gcc-staging/label/Ubuntu14.04x64-mingw32/gcc-build/avr/avr5/libgcc/../../../../gcc/libgcc/config/avr/lib1funcs.S:2208
    34de:	cd bf       	out	0x3d, r28	; 61
/home/jenkins-mingw32/workspace/avr-gcc-staging/label/Ubuntu14.04x64-mingw32/gcc-build/avr/avr5/libgcc/../../../../gcc/libgcc/config/avr/lib1funcs.S:2211
    34e0:	09 94       	ijmp

000034e2 <__epilogue_restores__>:
__epilogue_restores__():
/home/jenkins-mingw32/workspace/avr-gcc-staging/label/Ubuntu14.04x64-mingw32/gcc-build/avr/avr5/libgcc/../../../../gcc/libgcc/config/avr/lib1funcs.S:2222
    34e2:	2a 88       	ldd	r2, Y+18	; 0x12
/home/jenkins-mingw32/workspace/avr-gcc-staging/label/Ubuntu14.04x64-mingw32/gcc-build/avr/avr5/libgcc/../../../../gcc/libgcc/config/avr/lib1funcs.S:2223
    34e4:	39 88       	ldd	r3, Y+17	; 0x11
/home/jenkins-mingw32/workspace/avr-gcc-staging/label/Ubuntu14.04x64-mingw32/gcc-build/avr/avr5/libgcc/../../../../gcc/libgcc/config/avr/lib1funcs.S:2224
    34e6:	48 88       	ldd	r4, Y+16	; 0x10
/home/jenkins-mingw32/workspace/avr-gcc-staging/label/Ubuntu14.04x64-mingw32/gcc-build/avr/avr5/libgcc/../../../../gcc/libgcc/config/avr/lib1funcs.S:2225
    34e8:	5f 84       	ldd	r5, Y+15	; 0x0f
/home/jenkins-mingw32/workspace/avr-gcc-staging/label/Ubuntu14.04x64-mingw32/gcc-build/avr/avr5/libgcc/../../../../gcc/libgcc/config/avr/lib1funcs.S:2226
    34ea:	6e 84       	ldd	r6, Y+14	; 0x0e
/home/jenkins-mingw32/workspace/avr-gcc-staging/label/Ubuntu14.04x64-mingw32/gcc-build/avr/avr5/libgcc/../../../../gcc/libgcc/config/avr/lib1funcs.S:2227
    34ec:	7d 84       	ldd	r7, Y+13	; 0x0d
/home/jenkins-mingw32/workspace/avr-gcc-staging/label/Ubuntu14.04x64-mingw32/gcc-build/avr/avr5/libgcc/../../../../gcc/libgcc/config/avr/lib1funcs.S:2228
    34ee:	8c 84       	ldd	r8, Y+12	; 0x0c
/home/jenkins-mingw32/workspace/avr-gcc-staging/label/Ubuntu14.04x64-mingw32/gcc-build/avr/avr5/libgcc/../../../../gcc/libgcc/config/avr/lib1funcs.S:2229
    34f0:	9b 84       	ldd	r9, Y+11	; 0x0b
/home/jenkins-mingw32/workspace/avr-gcc-staging/label/Ubuntu14.04x64-mingw32/gcc-build/avr/avr5/libgcc/../../../../gcc/libgcc/config/avr/lib1funcs.S:2230
    34f2:	aa 84       	ldd	r10, Y+10	; 0x0a
/home/jenkins-mingw32/workspace/avr-gcc-staging/label/Ubuntu14.04x64-mingw32/gcc-build/avr/avr5/libgcc/../../../../gcc/libgcc/config/avr/lib1funcs.S:2231
    34f4:	b9 84       	ldd	r11, Y+9	; 0x09
/home/jenkins-mingw32/workspace/avr-gcc-staging/label/Ubuntu14.04x64-mingw32/gcc-build/avr/avr5/libgcc/../../../../gcc/libgcc/config/avr/lib1funcs.S:2232
    34f6:	c8 84       	ldd	r12, Y+8	; 0x08
/home/jenkins-mingw32/workspace/avr-gcc-staging/label/Ubuntu14.04x64-mingw32/gcc-build/avr/avr5/libgcc/../../../../gcc/libgcc/config/avr/lib1funcs.S:2233
    34f8:	df 80       	ldd	r13, Y+7	; 0x07
/home/jenkins-mingw32/workspace/avr-gcc-staging/label/Ubuntu14.04x64-mingw32/gcc-build/avr/avr5/libgcc/../../../../gcc/libgcc/config/avr/lib1funcs.S:2234
    34fa:	ee 80       	ldd	r14, Y+6	; 0x06
/home/jenkins-mingw32/workspace/avr-gcc-staging/label/Ubuntu14.04x64-mingw32/gcc-build/avr/avr5/libgcc/../../../../gcc/libgcc/config/avr/lib1funcs.S:2235
    34fc:	fd 80       	ldd	r15, Y+5	; 0x05
/home/jenkins-mingw32/workspace/avr-gcc-staging/label/Ubuntu14.04x64-mingw32/gcc-build/avr/avr5/libgcc/../../../../gcc/libgcc/config/avr/lib1funcs.S:2236
    34fe:	0c 81       	ldd	r16, Y+4	; 0x04
/home/jenkins-mingw32/workspace/avr-gcc-staging/label/Ubuntu14.04x64-mingw32/gcc-build/avr/avr5/libgcc/../../../../gcc/libgcc/config/avr/lib1funcs.S:2237
    3500:	1b 81       	ldd	r17, Y+3	; 0x03
/home/jenkins-mingw32/workspace/avr-gcc-staging/label/Ubuntu14.04x64-mingw32/gcc-build/avr/avr5/libgcc/../../../../gcc/libgcc/config/avr/lib1funcs.S:2238
    3502:	aa 81       	ldd	r26, Y+2	; 0x02
/home/jenkins-mingw32/workspace/avr-gcc-staging/label/Ubuntu14.04x64-mingw32/gcc-build/avr/avr5/libgcc/../../../../gcc/libgcc/config/avr/lib1funcs.S:2252
    3504:	b9 81       	ldd	r27, Y+1	; 0x01
/home/jenkins-mingw32/workspace/avr-gcc-staging/label/Ubuntu14.04x64-mingw32/gcc-build/avr/avr5/libgcc/../../../../gcc/libgcc/config/avr/lib1funcs.S:2253
    3506:	ce 0f       	add	r28, r30
/home/jenkins-mingw32/workspace/avr-gcc-staging/label/Ubuntu14.04x64-mingw32/gcc-build/avr/avr5/libgcc/../../../../gcc/libgcc/config/avr/lib1funcs.S:2254
    3508:	d1 1d       	adc	r29, r1
/home/jenkins-mingw32/workspace/avr-gcc-staging/label/Ubuntu14.04x64-mingw32/gcc-build/avr/avr5/libgcc/../../../../gcc/libgcc/config/avr/lib1funcs.S:2255
    350a:	0f b6       	in	r0, 0x3f	; 63
/home/jenkins-mingw32/workspace/avr-gcc-staging/label/Ubuntu14.04x64-mingw32/gcc-build/avr/avr5/libgcc/../../../../gcc/libgcc/config/avr/lib1funcs.S:2256
    350c:	f8 94       	cli
/home/jenkins-mingw32/workspace/avr-gcc-staging/label/Ubuntu14.04x64-mingw32/gcc-build/avr/avr5/libgcc/../../../../gcc/libgcc/config/avr/lib1funcs.S:2257
    350e:	de bf       	out	0x3e, r29	; 62
/home/jenkins-mingw32/workspace/avr-gcc-staging/label/Ubuntu14.04x64-mingw32/gcc-build/avr/avr5/libgcc/../../../../gcc/libgcc/config/avr/lib1funcs.S:2258
    3510:	0f be       	out	0x3f, r0	; 63
/home/jenkins-mingw32/workspace/avr-gcc-staging/label/Ubuntu14.04x64-mingw32/gcc-build/avr/avr5/libgcc/../../../../gcc/libgcc/config/avr/lib1funcs.S:2259
    3512:	cd bf       	out	0x3d, r28	; 61
/home/jenkins-mingw32/workspace/avr-gcc-staging/label/Ubuntu14.04x64-mingw32/gcc-build/avr/avr5/libgcc/../../../../gcc/libgcc/config/avr/lib1funcs.S:2260
    3514:	ed 01       	movw	r28, r26
/home/jenkins-mingw32/workspace/avr-gcc-staging/label/Ubuntu14.04x64-mingw32/gcc-build/avr/avr5/libgcc/../../../../gcc/libgcc/config/avr/lib1funcs.S:2263
    3516:	08 95       	ret

00003518 <__do_global_dtors>:
__do_global_dtors():
/home/jenkins-mingw32/workspace/avr-gcc-staging/label/Ubuntu14.04x64-mingw32/gcc-build/avr/avr5/libgcc/../../../../gcc/libgcc/config/avr/lib1funcs.S:2496
    3518:	11 e0       	ldi	r17, 0x01	; 1
/home/jenkins-mingw32/workspace/avr-gcc-staging/label/Ubuntu14.04x64-mingw32/gcc-build/avr/avr5/libgcc/../../../../gcc/libgcc/config/avr/lib1funcs.S:2497
    351a:	c6 e1       	ldi	r28, 0x16	; 22
/home/jenkins-mingw32/workspace/avr-gcc-staging/label/Ubuntu14.04x64-mingw32/gcc-build/avr/avr5/libgcc/../../../../gcc/libgcc/config/avr/lib1funcs.S:2498
    351c:	d1 e0       	ldi	r29, 0x01	; 1
/home/jenkins-mingw32/workspace/avr-gcc-staging/label/Ubuntu14.04x64-mingw32/gcc-build/avr/avr5/libgcc/../../../../gcc/libgcc/config/avr/lib1funcs.S:2502
    351e:	04 c0       	rjmp	.+8      	; 0x3528 <__do_global_dtors+0x10>
/home/jenkins-mingw32/workspace/avr-gcc-staging/label/Ubuntu14.04x64-mingw32/gcc-build/avr/avr5/libgcc/../../../../gcc/libgcc/config/avr/lib1funcs.S:2508
    3520:	fe 01       	movw	r30, r28
/home/jenkins-mingw32/workspace/avr-gcc-staging/label/Ubuntu14.04x64-mingw32/gcc-build/avr/avr5/libgcc/../../../../gcc/libgcc/config/avr/lib1funcs.S:2509
    3522:	0e 94 f7 17 	call	0x2fee	; 0x2fee <__tablejump2__>
/home/jenkins-mingw32/workspace/avr-gcc-staging/label/Ubuntu14.04x64-mingw32/gcc-build/avr/avr5/libgcc/../../../../gcc/libgcc/config/avr/lib1funcs.S:2510
    3526:	21 96       	adiw	r28, 0x01	; 1
/home/jenkins-mingw32/workspace/avr-gcc-staging/label/Ubuntu14.04x64-mingw32/gcc-build/avr/avr5/libgcc/../../../../gcc/libgcc/config/avr/lib1funcs.S:2515
    3528:	c8 31       	cpi	r28, 0x18	; 24
/home/jenkins-mingw32/workspace/avr-gcc-staging/label/Ubuntu14.04x64-mingw32/gcc-build/avr/avr5/libgcc/../../../../gcc/libgcc/config/avr/lib1funcs.S:2516
    352a:	d1 07       	cpc	r29, r17
/home/jenkins-mingw32/workspace/avr-gcc-staging/label/Ubuntu14.04x64-mingw32/gcc-build/avr/avr5/libgcc/../../../../gcc/libgcc/config/avr/lib1funcs.S:2521
    352c:	c9 f7       	brne	.-14     	; 0x3520 <__do_global_dtors+0x8>
/home/jenkins-mingw32/workspace/avr-gcc-staging/label/Ubuntu14.04x64-mingw32/gcc-build/avr/avr5/libgcc/../../../../gcc/libgcc/config/avr/lib1funcs.S:2278
    352e:	f8 94       	cli

00003530 <__stop_program>:
__stop_program():
/home/jenkins-mingw32/workspace/avr-gcc-staging/label/Ubuntu14.04x64-mingw32/gcc-build/avr/avr5/libgcc/../../../../gcc/libgcc/config/avr/lib1funcs.S:2280
    3530:	ff cf       	rjmp	.-2      	; 0x3530 <__stop_program>
