
C:\Users\mateu\AppData\Local\Temp\arduino\sketches\2EF1F2734C9080CB1DE6BCAD1DBAD692/cdc_arduino_atmega328pb_bk3254.ino.elf:     file format elf32-avr


Disassembly of section .text:

00000000 <__vectors>:
__vectors():
../../../../crt1/gcrt1.S:65
       0:	0c 94 cd 00 	jmp	0x19a	; 0x19a <__dtors_end>
../../../../crt1/gcrt1.S:67
       4:	0c 94 f5 00 	jmp	0x1ea	; 0x1ea <__bad_interrupt>
../../../../crt1/gcrt1.S:68
       8:	0c 94 f5 00 	jmp	0x1ea	; 0x1ea <__bad_interrupt>
../../../../crt1/gcrt1.S:69
       c:	0c 94 4b 0a 	jmp	0x1496	; 0x1496 <__vector_27>
../../../../crt1/gcrt1.S:70
      10:	0c 94 4b 0a 	jmp	0x1496	; 0x1496 <__vector_27>
../../../../crt1/gcrt1.S:71
      14:	0c 94 4b 0a 	jmp	0x1496	; 0x1496 <__vector_27>
../../../../crt1/gcrt1.S:72
      18:	0c 94 f5 00 	jmp	0x1ea	; 0x1ea <__bad_interrupt>
../../../../crt1/gcrt1.S:73
      1c:	0c 94 f3 05 	jmp	0xbe6	; 0xbe6 <__vector_7>
../../../../crt1/gcrt1.S:74
      20:	0c 94 f5 00 	jmp	0x1ea	; 0x1ea <__bad_interrupt>
../../../../crt1/gcrt1.S:75
      24:	0c 94 f5 00 	jmp	0x1ea	; 0x1ea <__bad_interrupt>
../../../../crt1/gcrt1.S:76
      28:	0c 94 a6 06 	jmp	0xd4c	; 0xd4c <__vector_10>
../../../../crt1/gcrt1.S:77
      2c:	0c 94 f5 00 	jmp	0x1ea	; 0x1ea <__bad_interrupt>
../../../../crt1/gcrt1.S:78
      30:	0c 94 f5 00 	jmp	0x1ea	; 0x1ea <__bad_interrupt>
../../../../crt1/gcrt1.S:79
      34:	0c 94 63 06 	jmp	0xcc6	; 0xcc6 <__vector_13>
../../../../crt1/gcrt1.S:80
      38:	0c 94 3d 06 	jmp	0xc7a	; 0xc7a <__vector_14>
../../../../crt1/gcrt1.S:81
      3c:	0c 94 f5 00 	jmp	0x1ea	; 0x1ea <__bad_interrupt>
../../../../crt1/gcrt1.S:82
      40:	0c 94 d5 0e 	jmp	0x1daa	; 0x1daa <__vector_16>
../../../../crt1/gcrt1.S:83
      44:	0c 94 f5 00 	jmp	0x1ea	; 0x1ea <__bad_interrupt>
../../../../crt1/gcrt1.S:84
      48:	0c 94 e0 0b 	jmp	0x17c0	; 0x17c0 <__vector_18>
../../../../crt1/gcrt1.S:85
      4c:	0c 94 12 0c 	jmp	0x1824	; 0x1824 <__vector_19>
../../../../crt1/gcrt1.S:86
      50:	0c 94 f5 00 	jmp	0x1ea	; 0x1ea <__bad_interrupt>
../../../../crt1/gcrt1.S:87
      54:	0c 94 f5 00 	jmp	0x1ea	; 0x1ea <__bad_interrupt>
../../../../crt1/gcrt1.S:88
      58:	0c 94 f5 00 	jmp	0x1ea	; 0x1ea <__bad_interrupt>
../../../../crt1/gcrt1.S:89
      5c:	0c 94 f5 00 	jmp	0x1ea	; 0x1ea <__bad_interrupt>
../../../../crt1/gcrt1.S:90
      60:	0c 94 f5 00 	jmp	0x1ea	; 0x1ea <__bad_interrupt>
../../../../crt1/gcrt1.S:91
      64:	0c 94 f5 00 	jmp	0x1ea	; 0x1ea <__bad_interrupt>
../../../../crt1/gcrt1.S:92
      68:	0c 94 f5 00 	jmp	0x1ea	; 0x1ea <__bad_interrupt>
../../../../crt1/gcrt1.S:93
      6c:	0c 94 4b 0a 	jmp	0x1496	; 0x1496 <__vector_27>
../../../../crt1/gcrt1.S:94
      70:	0c 94 65 0c 	jmp	0x18ca	; 0x18ca <__vector_28>
../../../../crt1/gcrt1.S:95
      74:	0c 94 97 0c 	jmp	0x192e	; 0x192e <__vector_29>
../../../../crt1/gcrt1.S:96
      78:	0c 94 f5 00 	jmp	0x1ea	; 0x1ea <__bad_interrupt>
../../../../crt1/gcrt1.S:97
      7c:	0c 94 f5 00 	jmp	0x1ea	; 0x1ea <__bad_interrupt>
../../../../crt1/gcrt1.S:98
      80:	0c 94 f5 00 	jmp	0x1ea	; 0x1ea <__bad_interrupt>
../../../../crt1/gcrt1.S:99
      84:	0c 94 f5 00 	jmp	0x1ea	; 0x1ea <__bad_interrupt>
../../../../crt1/gcrt1.S:100
      88:	0c 94 f5 00 	jmp	0x1ea	; 0x1ea <__bad_interrupt>
../../../../crt1/gcrt1.S:101
      8c:	0c 94 f5 00 	jmp	0x1ea	; 0x1ea <__bad_interrupt>
../../../../crt1/gcrt1.S:102
      90:	0c 94 f5 00 	jmp	0x1ea	; 0x1ea <__bad_interrupt>
../../../../crt1/gcrt1.S:103
      94:	0c 94 f5 00 	jmp	0x1ea	; 0x1ea <__bad_interrupt>
../../../../crt1/gcrt1.S:104
      98:	0c 94 f5 00 	jmp	0x1ea	; 0x1ea <__bad_interrupt>
../../../../crt1/gcrt1.S:105
      9c:	0c 94 f5 00 	jmp	0x1ea	; 0x1ea <__bad_interrupt>
../../../../crt1/gcrt1.S:106
      a0:	0c 94 f5 00 	jmp	0x1ea	; 0x1ea <__bad_interrupt>
../../../../crt1/gcrt1.S:107
      a4:	0c 94 f5 00 	jmp	0x1ea	; 0x1ea <__bad_interrupt>
../../../../crt1/gcrt1.S:108
      a8:	0c 94 f5 00 	jmp	0x1ea	; 0x1ea <__bad_interrupt>
../../../../crt1/gcrt1.S:109
      ac:	0c 94 f5 00 	jmp	0x1ea	; 0x1ea <__bad_interrupt>
../../../../crt1/gcrt1.S:110
      b0:	0c 94 f5 00 	jmp	0x1ea	; 0x1ea <__bad_interrupt>

000000b4 <__trampolines_end>:
__trampolines_start():
      b4:	43 61       	ori	r20, 0x13	; 19
      b6:	6c 6c       	ori	r22, 0xCC	; 204
      b8:	20 69       	ori	r18, 0x90	; 144
      ba:	6e 20       	and	r6, r14
      bc:	70 72       	andi	r23, 0x20	; 32
      be:	6f 67       	ori	r22, 0x7F	; 127
      c0:	72 65       	ori	r23, 0x52	; 82
      c2:	73 73       	andi	r23, 0x33	; 51
      c4:	0a 00       	.word	0x000a	; ????

000000c6 <BK3254::simpleDecodeReceivedString(String)::__c>:
      c6:	4f 75 74 67 6f 69 6e 67 20 63 61 6c 6c 0a 00        Outgoing call..

000000d5 <BK3254::simpleDecodeReceivedString(String)::__c>:
      d5:	49 6e 63 6f 6d 69 6e 67 20 63 61 6c 6c 0a 00        Incoming call..

000000e4 <BK3254::simpleDecodeReceivedString(String)::__c>:
      e4:	43 6f 6e 6e 65 63 74 65 64 0a 00                    Connected..

000000ef <BK3254::simpleDecodeReceivedString(String)::__c>:
      ef:	44 69 73 63 6f 6e 6e 65 63 74 65 64 0a 00           Disconnected..

000000fd <sVERSION>:
      fd:	31 2e 30 61 00                                      1.0a.

00000102 <sHEX>:
	...

00000103 <sDASH>:
     103:	5f 00                                               _.

00000105 <sNEWLINE>:
     105:	0d 0a 00                                            ...

00000108 <sIDENTIFY>:
     108:	41 75 64 69 20 43 6f 6e 63 65 72 74 20 49 20 4d     Audi Concert I M
     118:	75 6c 74 69 6d 65 64 69 61 20 61 6e 64 20 50 68     ultimedia and Ph
     128:	6f 6e 65 20 47 61 74 65 77 61 79 20 56 65 72 2e     one Gateway Ver.
	...

00000139 <sRING>:
     139:	52 49 4e 47 0d 0a 00                                RING...

00000140 <sPREVIOUS>:
     140:	43 4f 4d 2b 50 56 0d 0a 00                          COM+PV...

00000149 <sNEXT>:
     149:	43 4f 4d 2b 50 4e 0d 0a 00                          COM+PN...

00000152 <sSCAN>:
	...

00000153 <sPLAY>:
     153:	43 4f 4d 2b 50 41 0d 0a 00                          COM+PA...

0000015c <sRANDOM>:
     15c:	43 4f 4d 5f 53 4d 52 0a 00                          COM_SMR..

00000165 <sLIST6>:
	...

00000166 <sLIST5>:
	...

00000167 <sLIST4>:
	...

00000168 <sLIST3>:
     168:	43 4f 4d 2b 4d 41 58 0d 0a 00                       COM+MAX...

00000172 <sLIST2>:
     172:	43 4f 4d 2b 4d 55 44 0d 0a 00                       COM+MUD...

0000017c <sLIST1>:
     17c:	43 4f 4d 2b 4d 42 54 0d 0a 00                       COM+MBT...

00000186 <sNXT_LIST>:
	...

00000187 <sPRV_LIST>:
	...

00000188 <sMINQUIRY>:
	...

00000189 <sMENABLE>:
	...

0000018a <sMDISABLE>:
	...

0000018b <sOVERFLOW>:
	...

0000018c <sDATAERR>:
	...

0000018e <__ctors_start>:
__ctors_start():
     18e:	18 01       	movw	r2, r16
     190:	0c 03       	fmul	r16, r20
     192:	38 0c       	add	r3, r8
     194:	bd 0c       	add	r11, r13

00000196 <__ctors_end>:
__dtors_start():
     196:	1c 01       	movw	r2, r24
     198:	40 03       	mulsu	r20, r16

0000019a <__dtors_end>:
__dtors_end():
../../../../crt1/gcrt1.S:230
     19a:	11 24       	eor	r1, r1
../../../../crt1/gcrt1.S:231
     19c:	1f be       	out	0x3f, r1	; 63
../../../../crt1/gcrt1.S:232
     19e:	cf ef       	ldi	r28, 0xFF	; 255
../../../../crt1/gcrt1.S:241
     1a0:	d8 e0       	ldi	r29, 0x08	; 8
../../../../crt1/gcrt1.S:242
     1a2:	de bf       	out	0x3e, r29	; 62
../../../../crt1/gcrt1.S:244
     1a4:	cd bf       	out	0x3d, r28	; 61

000001a6 <__do_copy_data>:
__do_copy_data():
/home/jenkins-mingw32/workspace/avr-gcc-staging/label/Ubuntu14.04x64-mingw32/gcc-build/avr/avr5/libgcc/../../../../gcc/libgcc/config/avr/lib1funcs.S:2409
     1a6:	11 e0       	ldi	r17, 0x01	; 1
/home/jenkins-mingw32/workspace/avr-gcc-staging/label/Ubuntu14.04x64-mingw32/gcc-build/avr/avr5/libgcc/../../../../gcc/libgcc/config/avr/lib1funcs.S:2410
     1a8:	a0 e0       	ldi	r26, 0x00	; 0
/home/jenkins-mingw32/workspace/avr-gcc-staging/label/Ubuntu14.04x64-mingw32/gcc-build/avr/avr5/libgcc/../../../../gcc/libgcc/config/avr/lib1funcs.S:2411
     1aa:	b1 e0       	ldi	r27, 0x01	; 1
/home/jenkins-mingw32/workspace/avr-gcc-staging/label/Ubuntu14.04x64-mingw32/gcc-build/avr/avr5/libgcc/../../../../gcc/libgcc/config/avr/lib1funcs.S:2412
     1ac:	e2 ef       	ldi	r30, 0xF2	; 242
/home/jenkins-mingw32/workspace/avr-gcc-staging/label/Ubuntu14.04x64-mingw32/gcc-build/avr/avr5/libgcc/../../../../gcc/libgcc/config/avr/lib1funcs.S:2413
     1ae:	f3 e2       	ldi	r31, 0x23	; 35
/home/jenkins-mingw32/workspace/avr-gcc-staging/label/Ubuntu14.04x64-mingw32/gcc-build/avr/avr5/libgcc/../../../../gcc/libgcc/config/avr/lib1funcs.S:2414
     1b0:	02 c0       	rjmp	.+4      	; 0x1b6 <__do_copy_data+0x10>
/home/jenkins-mingw32/workspace/avr-gcc-staging/label/Ubuntu14.04x64-mingw32/gcc-build/avr/avr5/libgcc/../../../../gcc/libgcc/config/avr/lib1funcs.S:2417
     1b2:	05 90       	lpm	r0, Z+
/home/jenkins-mingw32/workspace/avr-gcc-staging/label/Ubuntu14.04x64-mingw32/gcc-build/avr/avr5/libgcc/../../../../gcc/libgcc/config/avr/lib1funcs.S:2422
     1b4:	0d 92       	st	X+, r0
/home/jenkins-mingw32/workspace/avr-gcc-staging/label/Ubuntu14.04x64-mingw32/gcc-build/avr/avr5/libgcc/../../../../gcc/libgcc/config/avr/lib1funcs.S:2424
     1b6:	a0 3a       	cpi	r26, 0xA0	; 160
/home/jenkins-mingw32/workspace/avr-gcc-staging/label/Ubuntu14.04x64-mingw32/gcc-build/avr/avr5/libgcc/../../../../gcc/libgcc/config/avr/lib1funcs.S:2425
     1b8:	b1 07       	cpc	r27, r17
/home/jenkins-mingw32/workspace/avr-gcc-staging/label/Ubuntu14.04x64-mingw32/gcc-build/avr/avr5/libgcc/../../../../gcc/libgcc/config/avr/lib1funcs.S:2426
     1ba:	d9 f7       	brne	.-10     	; 0x1b2 <__do_copy_data+0xc>

000001bc <__do_clear_bss>:
__do_clear_bss():
/home/jenkins-mingw32/workspace/avr-gcc-staging/label/Ubuntu14.04x64-mingw32/gcc-build/avr/avr5/libgcc/../../../../gcc/libgcc/config/avr/lib1funcs.S:2441
     1bc:	23 e0       	ldi	r18, 0x03	; 3
/home/jenkins-mingw32/workspace/avr-gcc-staging/label/Ubuntu14.04x64-mingw32/gcc-build/avr/avr5/libgcc/../../../../gcc/libgcc/config/avr/lib1funcs.S:2442
     1be:	a0 ea       	ldi	r26, 0xA0	; 160
/home/jenkins-mingw32/workspace/avr-gcc-staging/label/Ubuntu14.04x64-mingw32/gcc-build/avr/avr5/libgcc/../../../../gcc/libgcc/config/avr/lib1funcs.S:2443
     1c0:	b1 e0       	ldi	r27, 0x01	; 1
/home/jenkins-mingw32/workspace/avr-gcc-staging/label/Ubuntu14.04x64-mingw32/gcc-build/avr/avr5/libgcc/../../../../gcc/libgcc/config/avr/lib1funcs.S:2444
     1c2:	01 c0       	rjmp	.+2      	; 0x1c6 <.do_clear_bss_start>

000001c4 <.do_clear_bss_loop>:
/home/jenkins-mingw32/workspace/avr-gcc-staging/label/Ubuntu14.04x64-mingw32/gcc-build/avr/avr5/libgcc/../../../../gcc/libgcc/config/avr/lib1funcs.S:2446
     1c4:	1d 92       	st	X+, r1

000001c6 <.do_clear_bss_start>:
/home/jenkins-mingw32/workspace/avr-gcc-staging/label/Ubuntu14.04x64-mingw32/gcc-build/avr/avr5/libgcc/../../../../gcc/libgcc/config/avr/lib1funcs.S:2448
     1c6:	ab 3c       	cpi	r26, 0xCB	; 203
/home/jenkins-mingw32/workspace/avr-gcc-staging/label/Ubuntu14.04x64-mingw32/gcc-build/avr/avr5/libgcc/../../../../gcc/libgcc/config/avr/lib1funcs.S:2449
     1c8:	b2 07       	cpc	r27, r18
/home/jenkins-mingw32/workspace/avr-gcc-staging/label/Ubuntu14.04x64-mingw32/gcc-build/avr/avr5/libgcc/../../../../gcc/libgcc/config/avr/lib1funcs.S:2450
     1ca:	e1 f7       	brne	.-8      	; 0x1c4 <.do_clear_bss_loop>

000001cc <__do_global_ctors>:
__do_global_ctors():
/home/jenkins-mingw32/workspace/avr-gcc-staging/label/Ubuntu14.04x64-mingw32/gcc-build/avr/avr5/libgcc/../../../../gcc/libgcc/config/avr/lib1funcs.S:2466
     1cc:	10 e0       	ldi	r17, 0x00	; 0
/home/jenkins-mingw32/workspace/avr-gcc-staging/label/Ubuntu14.04x64-mingw32/gcc-build/avr/avr5/libgcc/../../../../gcc/libgcc/config/avr/lib1funcs.S:2467
     1ce:	cb ec       	ldi	r28, 0xCB	; 203
/home/jenkins-mingw32/workspace/avr-gcc-staging/label/Ubuntu14.04x64-mingw32/gcc-build/avr/avr5/libgcc/../../../../gcc/libgcc/config/avr/lib1funcs.S:2468
     1d0:	d0 e0       	ldi	r29, 0x00	; 0
/home/jenkins-mingw32/workspace/avr-gcc-staging/label/Ubuntu14.04x64-mingw32/gcc-build/avr/avr5/libgcc/../../../../gcc/libgcc/config/avr/lib1funcs.S:2472
     1d2:	04 c0       	rjmp	.+8      	; 0x1dc <__do_global_ctors+0x10>
/home/jenkins-mingw32/workspace/avr-gcc-staging/label/Ubuntu14.04x64-mingw32/gcc-build/avr/avr5/libgcc/../../../../gcc/libgcc/config/avr/lib1funcs.S:2474
     1d4:	21 97       	sbiw	r28, 0x01	; 1
/home/jenkins-mingw32/workspace/avr-gcc-staging/label/Ubuntu14.04x64-mingw32/gcc-build/avr/avr5/libgcc/../../../../gcc/libgcc/config/avr/lib1funcs.S:2480
     1d6:	fe 01       	movw	r30, r28
/home/jenkins-mingw32/workspace/avr-gcc-staging/label/Ubuntu14.04x64-mingw32/gcc-build/avr/avr5/libgcc/../../../../gcc/libgcc/config/avr/lib1funcs.S:2481
     1d8:	0e 94 a0 0f 	call	0x1f40	; 0x1f40 <__tablejump2__>
/home/jenkins-mingw32/workspace/avr-gcc-staging/label/Ubuntu14.04x64-mingw32/gcc-build/avr/avr5/libgcc/../../../../gcc/libgcc/config/avr/lib1funcs.S:2483
     1dc:	c7 3c       	cpi	r28, 0xC7	; 199
/home/jenkins-mingw32/workspace/avr-gcc-staging/label/Ubuntu14.04x64-mingw32/gcc-build/avr/avr5/libgcc/../../../../gcc/libgcc/config/avr/lib1funcs.S:2484
     1de:	d1 07       	cpc	r29, r17
/home/jenkins-mingw32/workspace/avr-gcc-staging/label/Ubuntu14.04x64-mingw32/gcc-build/avr/avr5/libgcc/../../../../gcc/libgcc/config/avr/lib1funcs.S:2489
     1e0:	c9 f7       	brne	.-14     	; 0x1d4 <__do_global_ctors+0x8>
../../../../crt1/gcrt1.S:314
     1e2:	0e 94 c8 03 	call	0x790	; 0x790 <main>
../../../../crt1/gcrt1.S:315
     1e6:	0c 94 ec 11 	jmp	0x23d8	; 0x23d8 <__do_global_dtors>

000001ea <__bad_interrupt>:
__vector_38():
../../../../crt1/gcrt1.S:209
     1ea:	0c 94 00 00 	jmp	0	; 0x0 <__vectors>

000001ee <Remote::Remote()>:
_ZN6RemoteC2Ev():
C:\Users\mateu\Documents\GitHub\Audi-CDC-Emulator\Software\cdc_arduino_atmega328pb_bk3254/Remote.cpp:114
      }
      else  if(bt.CallState == OutgoingCall){
        bt.callHangUp();  //Hang up the phone 
      }
      else  if(bt.CallState == Idle) {
        bt.callRedial();  //Last number redial
     1ee:	0f 93       	push	r16
     1f0:	1f 93       	push	r17
     1f2:	cf 93       	push	r28
     1f4:	df 93       	push	r29
     1f6:	ec 01       	movw	r28, r24
     1f8:	8c 01       	movw	r16, r24
     1fa:	0e 5f       	subi	r16, 0xFE	; 254
     1fc:	1f 4f       	sbci	r17, 0xFF	; 255
     1fe:	6f e1       	ldi	r22, 0x1F	; 31
     200:	71 e0       	ldi	r23, 0x01	; 1
     202:	c8 01       	movw	r24, r16
     204:	0e 94 c5 0d 	call	0x1b8a	; 0x1b8a <String::String(char const*)>
     208:	6f e1       	ldi	r22, 0x1F	; 31
     20a:	71 e0       	ldi	r23, 0x01	; 1
     20c:	ce 01       	movw	r24, r28
     20e:	08 96       	adiw	r24, 0x08	; 8
     210:	0e 94 c5 0d 	call	0x1b8a	; 0x1b8a <String::String(char const*)>
     214:	18 82       	st	Y, r1
     216:	19 82       	std	Y+1, r1	; 0x01
     218:	6f e1       	ldi	r22, 0x1F	; 31
     21a:	71 e0       	ldi	r23, 0x01	; 1
     21c:	c8 01       	movw	r24, r16
     21e:	0e 94 25 0e 	call	0x1c4a	; 0x1c4a <String::operator=(char const*)>
     222:	85 e0       	ldi	r24, 0x05	; 5
     224:	8f 87       	std	Y+15, r24	; 0x0f
     226:	df 91       	pop	r29
     228:	cf 91       	pop	r28
     22a:	1f 91       	pop	r17
     22c:	0f 91       	pop	r16
     22e:	08 95       	ret

00000230 <_GLOBAL__sub_I_remote>:
_GLOBAL__sub_I_remote():
C:\Users\mateu\Documents\GitHub\Audi-CDC-Emulator\Software\cdc_arduino_atmega328pb_bk3254/Remote.cpp:7
#include "Remote.h"
#include "bk3254.h"
#include <avr/interrupt.h>
#include <SoftwareSerial.h>

Remote remote;
     230:	80 ea       	ldi	r24, 0xA0	; 160
     232:	91 e0       	ldi	r25, 0x01	; 1
     234:	0c 94 f7 00 	jmp	0x1ee	; 0x1ee <Remote::Remote()>

00000238 <_GLOBAL__sub_D_remote>:
_ZN6RemoteD4Ev():
C:\Users\mateu\Documents\GitHub\Audi-CDC-Emulator\Software\cdc_arduino_atmega328pb_bk3254/Remote.h:15
//#define SteringWheelRemote
//#define OneButtonRemote

#define DEBUG

class Remote {
     238:	88 ea       	ldi	r24, 0xA8	; 168
     23a:	91 e0       	ldi	r25, 0x01	; 1
     23c:	0e 94 56 0d 	call	0x1aac	; 0x1aac <String::~String()>
     240:	82 ea       	ldi	r24, 0xA2	; 162
     242:	91 e0       	ldi	r25, 0x01	; 1
     244:	0c 94 56 0d 	jmp	0x1aac	; 0x1aac <String::~String()>

00000248 <BK3254::send(String)>:
_ZN6BK32544sendE6String():
C:\Users\mateu\Documents\GitHub\Audi-CDC-Emulator\Software\cdc_arduino_atmega328pb_bk3254/bk3254.cpp:634
  BK3254::send("COM+MAX\r\n");
}

void BK3254::switchInputToUsb() { //BK3254_INPUT_USB "COM+MUD" //USB Disk mode (if available)
  BK3254::send("COM+MUD\r\n");
     248:	80 e2       	ldi	r24, 0x20	; 32
     24a:	93 e0       	ldi	r25, 0x03	; 3
     24c:	0c 94 26 0d 	jmp	0x1a4c	; 0x1a4c <Print::print(String const&)>

00000250 <BK3254::simpleDecodeReceivedString(String)>:
_ZN6BK325426simpleDecodeReceivedStringE6String():
     250:	ef 92       	push	r14
     252:	ff 92       	push	r15
     254:	0f 93       	push	r16
     256:	1f 93       	push	r17
     258:	cf 93       	push	r28
     25a:	df 93       	push	r29
     25c:	00 d0       	rcall	.+0      	; 0x25e <BK3254::simpleDecodeReceivedString(String)+0xe>
     25e:	00 d0       	rcall	.+0      	; 0x260 <BK3254::simpleDecodeReceivedString(String)+0x10>
     260:	00 d0       	rcall	.+0      	; 0x262 <BK3254::simpleDecodeReceivedString(String)+0x12>
     262:	cd b7       	in	r28, 0x3d	; 61
     264:	de b7       	in	r29, 0x3e	; 62
     266:	8c 01       	movw	r16, r24
     268:	7b 01       	movw	r14, r22
     26a:	70 e0       	ldi	r23, 0x00	; 0
     26c:	60 e0       	ldi	r22, 0x00	; 0
     26e:	c7 01       	movw	r24, r14
     270:	0e 94 c3 0e 	call	0x1d86	; 0x1d86 <String::operator[](unsigned int)>
     274:	42 e0       	ldi	r20, 0x02	; 2
     276:	50 e0       	ldi	r21, 0x00	; 0
     278:	68 e0       	ldi	r22, 0x08	; 8
     27a:	71 e0       	ldi	r23, 0x01	; 1
     27c:	0e 94 98 11 	call	0x2330	; 0x2330 <memcmp>
     280:	89 2b       	or	r24, r25
     282:	b9 f4       	brne	.+46     	; 0x2b2 <BK3254::simpleDecodeReceivedString(String)+0x62>
     284:	6f ee       	ldi	r22, 0xEF	; 239
     286:	70 e0       	ldi	r23, 0x00	; 0
     288:	ce 01       	movw	r24, r28
     28a:	01 96       	adiw	r24, 0x01	; 1
     28c:	0e 94 4e 0e 	call	0x1c9c	; 0x1c9c <String::String(__FlashStringHelper const*)>
_ZN6BK32543DBGE6String():
     290:	be 01       	movw	r22, r28
     292:	6f 5f       	subi	r22, 0xFF	; 255
     294:	7f 4f       	sbci	r23, 0xFF	; 255
     296:	83 e8       	ldi	r24, 0x83	; 131
     298:	92 e0       	ldi	r25, 0x02	; 2
     29a:	0e 94 26 0d 	call	0x1a4c	; 0x1a4c <Print::print(String const&)>
_ZN6BK325426simpleDecodeReceivedStringE6String():
     29e:	ce 01       	movw	r24, r28
     2a0:	01 96       	adiw	r24, 0x01	; 1
     2a2:	0e 94 56 0d 	call	0x1aac	; 0x1aac <String::~String()>
     2a6:	81 e0       	ldi	r24, 0x01	; 1
     2a8:	f8 01       	movw	r30, r16
     2aa:	80 83       	st	Z, r24
     2ac:	83 e0       	ldi	r24, 0x03	; 3
     2ae:	81 83       	std	Z+1, r24	; 0x01
     2b0:	41 c0       	rjmp	.+130    	; 0x334 <BK3254::simpleDecodeReceivedString(String)+0xe4>
     2b2:	70 e0       	ldi	r23, 0x00	; 0
     2b4:	60 e0       	ldi	r22, 0x00	; 0
     2b6:	c7 01       	movw	r24, r14
     2b8:	0e 94 c3 0e 	call	0x1d86	; 0x1d86 <String::operator[](unsigned int)>
     2bc:	42 e0       	ldi	r20, 0x02	; 2
     2be:	50 e0       	ldi	r21, 0x00	; 0
     2c0:	6b e0       	ldi	r22, 0x0B	; 11
     2c2:	71 e0       	ldi	r23, 0x01	; 1
     2c4:	0e 94 98 11 	call	0x2330	; 0x2330 <memcmp>
     2c8:	89 2b       	or	r24, r25
     2ca:	a1 f4       	brne	.+40     	; 0x2f4 <BK3254::simpleDecodeReceivedString(String)+0xa4>
     2cc:	64 ee       	ldi	r22, 0xE4	; 228
     2ce:	70 e0       	ldi	r23, 0x00	; 0
     2d0:	ce 01       	movw	r24, r28
     2d2:	01 96       	adiw	r24, 0x01	; 1
     2d4:	0e 94 4e 0e 	call	0x1c9c	; 0x1c9c <String::String(__FlashStringHelper const*)>
_ZN6BK32543DBGE6String():
     2d8:	be 01       	movw	r22, r28
     2da:	6f 5f       	subi	r22, 0xFF	; 255
     2dc:	7f 4f       	sbci	r23, 0xFF	; 255
     2de:	83 e8       	ldi	r24, 0x83	; 131
     2e0:	92 e0       	ldi	r25, 0x02	; 2
     2e2:	0e 94 26 0d 	call	0x1a4c	; 0x1a4c <Print::print(String const&)>
_ZN6BK325426simpleDecodeReceivedStringE6String():
     2e6:	ce 01       	movw	r24, r28
     2e8:	01 96       	adiw	r24, 0x01	; 1
     2ea:	0e 94 56 0d 	call	0x1aac	; 0x1aac <String::~String()>
     2ee:	f8 01       	movw	r30, r16
     2f0:	10 82       	st	Z, r1
     2f2:	dc cf       	rjmp	.-72     	; 0x2ac <BK3254::simpleDecodeReceivedString(String)+0x5c>
     2f4:	70 e0       	ldi	r23, 0x00	; 0
     2f6:	60 e0       	ldi	r22, 0x00	; 0
     2f8:	c7 01       	movw	r24, r14
     2fa:	0e 94 c3 0e 	call	0x1d86	; 0x1d86 <String::operator[](unsigned int)>
     2fe:	42 e0       	ldi	r20, 0x02	; 2
     300:	50 e0       	ldi	r21, 0x00	; 0
     302:	6e e0       	ldi	r22, 0x0E	; 14
     304:	71 e0       	ldi	r23, 0x01	; 1
     306:	0e 94 98 11 	call	0x2330	; 0x2330 <memcmp>
     30a:	89 2b       	or	r24, r25
     30c:	31 f5       	brne	.+76     	; 0x35a <BK3254::simpleDecodeReceivedString(String)+0x10a>
     30e:	65 ed       	ldi	r22, 0xD5	; 213
     310:	70 e0       	ldi	r23, 0x00	; 0
     312:	ce 01       	movw	r24, r28
     314:	01 96       	adiw	r24, 0x01	; 1
     316:	0e 94 4e 0e 	call	0x1c9c	; 0x1c9c <String::String(__FlashStringHelper const*)>
_ZN6BK32543DBGE6String():
     31a:	be 01       	movw	r22, r28
     31c:	6f 5f       	subi	r22, 0xFF	; 255
     31e:	7f 4f       	sbci	r23, 0xFF	; 255
     320:	83 e8       	ldi	r24, 0x83	; 131
     322:	92 e0       	ldi	r25, 0x02	; 2
     324:	0e 94 26 0d 	call	0x1a4c	; 0x1a4c <Print::print(String const&)>
_ZN6BK325426simpleDecodeReceivedStringE6String():
     328:	ce 01       	movw	r24, r28
     32a:	01 96       	adiw	r24, 0x01	; 1
     32c:	0e 94 56 0d 	call	0x1aac	; 0x1aac <String::~String()>
     330:	f8 01       	movw	r30, r16
     332:	11 82       	std	Z+1, r1	; 0x01
     334:	6f e1       	ldi	r22, 0x1F	; 31
     336:	71 e0       	ldi	r23, 0x01	; 1
     338:	c7 01       	movw	r24, r14
     33a:	0e 94 25 0e 	call	0x1c4a	; 0x1c4a <String::operator=(char const*)>
     33e:	81 e0       	ldi	r24, 0x01	; 1
     340:	26 96       	adiw	r28, 0x06	; 6
     342:	0f b6       	in	r0, 0x3f	; 63
     344:	f8 94       	cli
     346:	de bf       	out	0x3e, r29	; 62
     348:	0f be       	out	0x3f, r0	; 63
     34a:	cd bf       	out	0x3d, r28	; 61
     34c:	df 91       	pop	r29
     34e:	cf 91       	pop	r28
     350:	1f 91       	pop	r17
     352:	0f 91       	pop	r16
     354:	ff 90       	pop	r15
     356:	ef 90       	pop	r14
     358:	08 95       	ret
     35a:	70 e0       	ldi	r23, 0x00	; 0
     35c:	60 e0       	ldi	r22, 0x00	; 0
     35e:	c7 01       	movw	r24, r14
     360:	0e 94 c3 0e 	call	0x1d86	; 0x1d86 <String::operator[](unsigned int)>
     364:	42 e0       	ldi	r20, 0x02	; 2
     366:	50 e0       	ldi	r21, 0x00	; 0
     368:	61 e1       	ldi	r22, 0x11	; 17
     36a:	71 e0       	ldi	r23, 0x01	; 1
     36c:	0e 94 98 11 	call	0x2330	; 0x2330 <memcmp>
     370:	89 2b       	or	r24, r25
     372:	a1 f4       	brne	.+40     	; 0x39c <BK3254::simpleDecodeReceivedString(String)+0x14c>
     374:	66 ec       	ldi	r22, 0xC6	; 198
     376:	70 e0       	ldi	r23, 0x00	; 0
     378:	ce 01       	movw	r24, r28
     37a:	01 96       	adiw	r24, 0x01	; 1
     37c:	0e 94 4e 0e 	call	0x1c9c	; 0x1c9c <String::String(__FlashStringHelper const*)>
_ZN6BK32543DBGE6String():
     380:	be 01       	movw	r22, r28
     382:	6f 5f       	subi	r22, 0xFF	; 255
     384:	7f 4f       	sbci	r23, 0xFF	; 255
     386:	83 e8       	ldi	r24, 0x83	; 131
     388:	92 e0       	ldi	r25, 0x02	; 2
     38a:	0e 94 26 0d 	call	0x1a4c	; 0x1a4c <Print::print(String const&)>
_ZN6BK325426simpleDecodeReceivedStringE6String():
     38e:	ce 01       	movw	r24, r28
     390:	01 96       	adiw	r24, 0x01	; 1
     392:	0e 94 56 0d 	call	0x1aac	; 0x1aac <String::~String()>
     396:	81 e0       	ldi	r24, 0x01	; 1
     398:	f8 01       	movw	r30, r16
     39a:	89 cf       	rjmp	.-238    	; 0x2ae <BK3254::simpleDecodeReceivedString(String)+0x5e>
     39c:	70 e0       	ldi	r23, 0x00	; 0
     39e:	60 e0       	ldi	r22, 0x00	; 0
     3a0:	c7 01       	movw	r24, r14
     3a2:	0e 94 c3 0e 	call	0x1d86	; 0x1d86 <String::operator[](unsigned int)>
     3a6:	42 e0       	ldi	r20, 0x02	; 2
     3a8:	50 e0       	ldi	r21, 0x00	; 0
     3aa:	64 e1       	ldi	r22, 0x14	; 20
     3ac:	71 e0       	ldi	r23, 0x01	; 1
     3ae:	0e 94 98 11 	call	0x2330	; 0x2330 <memcmp>
     3b2:	89 2b       	or	r24, r25
     3b4:	09 f0       	breq	.+2      	; 0x3b8 <BK3254::simpleDecodeReceivedString(String)+0x168>
     3b6:	be cf       	rjmp	.-132    	; 0x334 <BK3254::simpleDecodeReceivedString(String)+0xe4>
     3b8:	64 eb       	ldi	r22, 0xB4	; 180
     3ba:	70 e0       	ldi	r23, 0x00	; 0
     3bc:	ce 01       	movw	r24, r28
     3be:	01 96       	adiw	r24, 0x01	; 1
     3c0:	0e 94 4e 0e 	call	0x1c9c	; 0x1c9c <String::String(__FlashStringHelper const*)>
_ZN6BK32543DBGE6String():
     3c4:	be 01       	movw	r22, r28
     3c6:	6f 5f       	subi	r22, 0xFF	; 255
     3c8:	7f 4f       	sbci	r23, 0xFF	; 255
     3ca:	83 e8       	ldi	r24, 0x83	; 131
     3cc:	92 e0       	ldi	r25, 0x02	; 2
     3ce:	0e 94 26 0d 	call	0x1a4c	; 0x1a4c <Print::print(String const&)>
_ZN6BK325426simpleDecodeReceivedStringE6String():
     3d2:	ce 01       	movw	r24, r28
     3d4:	01 96       	adiw	r24, 0x01	; 1
     3d6:	0e 94 56 0d 	call	0x1aac	; 0x1aac <String::~String()>
     3da:	82 e0       	ldi	r24, 0x02	; 2
     3dc:	dd cf       	rjmp	.-70     	; 0x398 <BK3254::simpleDecodeReceivedString(String)+0x148>

000003de <BK3254::musicPlay()>:
_ZN6BK32549musicPlayEv():
     3de:	cf 93       	push	r28
     3e0:	df 93       	push	r29
     3e2:	00 d0       	rcall	.+0      	; 0x3e4 <BK3254::musicPlay()+0x6>
     3e4:	00 d0       	rcall	.+0      	; 0x3e6 <BK3254::musicPlay()+0x8>
     3e6:	00 d0       	rcall	.+0      	; 0x3e8 <BK3254::musicPlay()+0xa>
     3e8:	cd b7       	in	r28, 0x3d	; 61
     3ea:	de b7       	in	r29, 0x3e	; 62
     3ec:	67 e1       	ldi	r22, 0x17	; 23
     3ee:	71 e0       	ldi	r23, 0x01	; 1
     3f0:	ce 01       	movw	r24, r28
     3f2:	01 96       	adiw	r24, 0x01	; 1
     3f4:	0e 94 c5 0d 	call	0x1b8a	; 0x1b8a <String::String(char const*)>
_ZN6BK32544sendE6String():
     3f8:	be 01       	movw	r22, r28
     3fa:	6f 5f       	subi	r22, 0xFF	; 255
     3fc:	7f 4f       	sbci	r23, 0xFF	; 255
     3fe:	80 e2       	ldi	r24, 0x20	; 32
     400:	93 e0       	ldi	r25, 0x03	; 3
     402:	0e 94 26 0d 	call	0x1a4c	; 0x1a4c <Print::print(String const&)>
_ZN6BK32549musicPlayEv():
     406:	ce 01       	movw	r24, r28
     408:	01 96       	adiw	r24, 0x01	; 1
     40a:	0e 94 56 0d 	call	0x1aac	; 0x1aac <String::~String()>
     40e:	26 96       	adiw	r28, 0x06	; 6
     410:	0f b6       	in	r0, 0x3f	; 63
     412:	f8 94       	cli
     414:	de bf       	out	0x3e, r29	; 62
     416:	0f be       	out	0x3f, r0	; 63
     418:	cd bf       	out	0x3d, r28	; 61
     41a:	df 91       	pop	r29
     41c:	cf 91       	pop	r28
     41e:	08 95       	ret

00000420 <BK3254::musicStop()>:
_ZN6BK32549musicStopEv():
     420:	cf 93       	push	r28
     422:	df 93       	push	r29
     424:	00 d0       	rcall	.+0      	; 0x426 <BK3254::musicStop()+0x6>
     426:	00 d0       	rcall	.+0      	; 0x428 <BK3254::musicStop()+0x8>
     428:	00 d0       	rcall	.+0      	; 0x42a <BK3254::musicStop()+0xa>
     42a:	cd b7       	in	r28, 0x3d	; 61
     42c:	de b7       	in	r29, 0x3e	; 62
     42e:	60 e2       	ldi	r22, 0x20	; 32
     430:	71 e0       	ldi	r23, 0x01	; 1
     432:	ce 01       	movw	r24, r28
     434:	01 96       	adiw	r24, 0x01	; 1
     436:	0e 94 c5 0d 	call	0x1b8a	; 0x1b8a <String::String(char const*)>
_ZN6BK32544sendE6String():
     43a:	be 01       	movw	r22, r28
     43c:	6f 5f       	subi	r22, 0xFF	; 255
     43e:	7f 4f       	sbci	r23, 0xFF	; 255
     440:	80 e2       	ldi	r24, 0x20	; 32
     442:	93 e0       	ldi	r25, 0x03	; 3
     444:	0e 94 26 0d 	call	0x1a4c	; 0x1a4c <Print::print(String const&)>
_ZN6BK32549musicStopEv():
     448:	ce 01       	movw	r24, r28
     44a:	01 96       	adiw	r24, 0x01	; 1
     44c:	0e 94 56 0d 	call	0x1aac	; 0x1aac <String::~String()>
     450:	26 96       	adiw	r28, 0x06	; 6
     452:	0f b6       	in	r0, 0x3f	; 63
     454:	f8 94       	cli
     456:	de bf       	out	0x3e, r29	; 62
     458:	0f be       	out	0x3f, r0	; 63
     45a:	cd bf       	out	0x3d, r28	; 61
     45c:	df 91       	pop	r29
     45e:	cf 91       	pop	r28
     460:	08 95       	ret

00000462 <BK3254::musicNextTrack()>:
_ZN6BK325414musicNextTrackEv():
     462:	cf 93       	push	r28
     464:	df 93       	push	r29
     466:	00 d0       	rcall	.+0      	; 0x468 <BK3254::musicNextTrack()+0x6>
     468:	00 d0       	rcall	.+0      	; 0x46a <BK3254::musicNextTrack()+0x8>
     46a:	00 d0       	rcall	.+0      	; 0x46c <BK3254::musicNextTrack()+0xa>
     46c:	cd b7       	in	r28, 0x3d	; 61
     46e:	de b7       	in	r29, 0x3e	; 62
     470:	69 e2       	ldi	r22, 0x29	; 41
     472:	71 e0       	ldi	r23, 0x01	; 1
     474:	ce 01       	movw	r24, r28
     476:	01 96       	adiw	r24, 0x01	; 1
     478:	0e 94 c5 0d 	call	0x1b8a	; 0x1b8a <String::String(char const*)>
_ZN6BK32544sendE6String():
     47c:	be 01       	movw	r22, r28
     47e:	6f 5f       	subi	r22, 0xFF	; 255
     480:	7f 4f       	sbci	r23, 0xFF	; 255
     482:	80 e2       	ldi	r24, 0x20	; 32
     484:	93 e0       	ldi	r25, 0x03	; 3
     486:	0e 94 26 0d 	call	0x1a4c	; 0x1a4c <Print::print(String const&)>
_ZN6BK325414musicNextTrackEv():
     48a:	ce 01       	movw	r24, r28
     48c:	01 96       	adiw	r24, 0x01	; 1
     48e:	0e 94 56 0d 	call	0x1aac	; 0x1aac <String::~String()>
     492:	26 96       	adiw	r28, 0x06	; 6
     494:	0f b6       	in	r0, 0x3f	; 63
     496:	f8 94       	cli
     498:	de bf       	out	0x3e, r29	; 62
     49a:	0f be       	out	0x3f, r0	; 63
     49c:	cd bf       	out	0x3d, r28	; 61
     49e:	df 91       	pop	r29
     4a0:	cf 91       	pop	r28
     4a2:	08 95       	ret

000004a4 <BK3254::musicPreviousTrack()>:
_ZN6BK325418musicPreviousTrackEv():
     4a4:	cf 93       	push	r28
     4a6:	df 93       	push	r29
     4a8:	00 d0       	rcall	.+0      	; 0x4aa <BK3254::musicPreviousTrack()+0x6>
     4aa:	00 d0       	rcall	.+0      	; 0x4ac <BK3254::musicPreviousTrack()+0x8>
     4ac:	00 d0       	rcall	.+0      	; 0x4ae <BK3254::musicPreviousTrack()+0xa>
     4ae:	cd b7       	in	r28, 0x3d	; 61
     4b0:	de b7       	in	r29, 0x3e	; 62
     4b2:	62 e3       	ldi	r22, 0x32	; 50
     4b4:	71 e0       	ldi	r23, 0x01	; 1
     4b6:	ce 01       	movw	r24, r28
     4b8:	01 96       	adiw	r24, 0x01	; 1
     4ba:	0e 94 c5 0d 	call	0x1b8a	; 0x1b8a <String::String(char const*)>
_ZN6BK32544sendE6String():
     4be:	be 01       	movw	r22, r28
     4c0:	6f 5f       	subi	r22, 0xFF	; 255
     4c2:	7f 4f       	sbci	r23, 0xFF	; 255
     4c4:	80 e2       	ldi	r24, 0x20	; 32
     4c6:	93 e0       	ldi	r25, 0x03	; 3
     4c8:	0e 94 26 0d 	call	0x1a4c	; 0x1a4c <Print::print(String const&)>
_ZN6BK325418musicPreviousTrackEv():
     4cc:	ce 01       	movw	r24, r28
     4ce:	01 96       	adiw	r24, 0x01	; 1
     4d0:	0e 94 56 0d 	call	0x1aac	; 0x1aac <String::~String()>
     4d4:	26 96       	adiw	r28, 0x06	; 6
     4d6:	0f b6       	in	r0, 0x3f	; 63
     4d8:	f8 94       	cli
     4da:	de bf       	out	0x3e, r29	; 62
     4dc:	0f be       	out	0x3f, r0	; 63
     4de:	cd bf       	out	0x3d, r28	; 61
     4e0:	df 91       	pop	r29
     4e2:	cf 91       	pop	r28
     4e4:	08 95       	ret

000004e6 <BK3254::volumeSet(String)>:
_ZN6BK32549volumeSetE6String():
     4e6:	0f 93       	push	r16
     4e8:	1f 93       	push	r17
     4ea:	cf 93       	push	r28
     4ec:	df 93       	push	r29
     4ee:	cd b7       	in	r28, 0x3d	; 61
     4f0:	de b7       	in	r29, 0x3e	; 62
     4f2:	2c 97       	sbiw	r28, 0x0c	; 12
     4f4:	0f b6       	in	r0, 0x3f	; 63
     4f6:	f8 94       	cli
     4f8:	de bf       	out	0x3e, r29	; 62
     4fa:	0f be       	out	0x3f, r0	; 63
     4fc:	cd bf       	out	0x3d, r28	; 61
     4fe:	8b 01       	movw	r16, r22
_ZN15StringSumHelperC4EPKc():
     500:	6b e3       	ldi	r22, 0x3B	; 59
     502:	71 e0       	ldi	r23, 0x01	; 1
     504:	ce 01       	movw	r24, r28
     506:	07 96       	adiw	r24, 0x07	; 7
     508:	0e 94 c5 0d 	call	0x1b8a	; 0x1b8a <String::String(char const*)>
_ZN6BK32549volumeSetE6String():
     50c:	b8 01       	movw	r22, r16
     50e:	ce 01       	movw	r24, r28
     510:	07 96       	adiw	r24, 0x07	; 7
     512:	0e 94 96 0e 	call	0x1d2c	; 0x1d2c <operator+(StringSumHelper const&, String const&)>
     516:	6d e1       	ldi	r22, 0x1D	; 29
     518:	71 e0       	ldi	r23, 0x01	; 1
     51a:	0e 94 a9 0e 	call	0x1d52	; 0x1d52 <operator+(StringSumHelper const&, char const*)>
     51e:	bc 01       	movw	r22, r24
     520:	ce 01       	movw	r24, r28
     522:	01 96       	adiw	r24, 0x01	; 1
     524:	0e 94 1c 0e 	call	0x1c38	; 0x1c38 <String::String(String const&)>
_ZN6BK32544sendE6String():
     528:	be 01       	movw	r22, r28
     52a:	6f 5f       	subi	r22, 0xFF	; 255
     52c:	7f 4f       	sbci	r23, 0xFF	; 255
     52e:	80 e2       	ldi	r24, 0x20	; 32
     530:	93 e0       	ldi	r25, 0x03	; 3
     532:	0e 94 26 0d 	call	0x1a4c	; 0x1a4c <Print::print(String const&)>
_ZN6BK32549volumeSetE6String():
     536:	ce 01       	movw	r24, r28
     538:	01 96       	adiw	r24, 0x01	; 1
     53a:	0e 94 56 0d 	call	0x1aac	; 0x1aac <String::~String()>
_ZN15StringSumHelperD4Ev():
     53e:	ce 01       	movw	r24, r28
     540:	07 96       	adiw	r24, 0x07	; 7
     542:	0e 94 56 0d 	call	0x1aac	; 0x1aac <String::~String()>
_ZN6BK32549volumeSetE6String():
     546:	2c 96       	adiw	r28, 0x0c	; 12
     548:	0f b6       	in	r0, 0x3f	; 63
     54a:	f8 94       	cli
     54c:	de bf       	out	0x3e, r29	; 62
     54e:	0f be       	out	0x3f, r0	; 63
     550:	cd bf       	out	0x3d, r28	; 61
     552:	df 91       	pop	r29
     554:	cf 91       	pop	r28
     556:	1f 91       	pop	r17
     558:	0f 91       	pop	r16
     55a:	08 95       	ret

0000055c <BK3254::voicesOff()>:
_ZN6BK32549voicesOffEv():
     55c:	cf 93       	push	r28
     55e:	df 93       	push	r29
     560:	00 d0       	rcall	.+0      	; 0x562 <BK3254::voicesOff()+0x6>
     562:	00 d0       	rcall	.+0      	; 0x564 <BK3254::voicesOff()+0x8>
     564:	00 d0       	rcall	.+0      	; 0x566 <BK3254::voicesOff()+0xa>
     566:	cd b7       	in	r28, 0x3d	; 61
     568:	de b7       	in	r29, 0x3e	; 62
     56a:	6b e4       	ldi	r22, 0x4B	; 75
     56c:	71 e0       	ldi	r23, 0x01	; 1
     56e:	ce 01       	movw	r24, r28
     570:	01 96       	adiw	r24, 0x01	; 1
     572:	0e 94 c5 0d 	call	0x1b8a	; 0x1b8a <String::String(char const*)>
_ZN6BK32544sendE6String():
     576:	be 01       	movw	r22, r28
     578:	6f 5f       	subi	r22, 0xFF	; 255
     57a:	7f 4f       	sbci	r23, 0xFF	; 255
     57c:	80 e2       	ldi	r24, 0x20	; 32
     57e:	93 e0       	ldi	r25, 0x03	; 3
     580:	0e 94 26 0d 	call	0x1a4c	; 0x1a4c <Print::print(String const&)>
_ZN6BK32549voicesOffEv():
     584:	ce 01       	movw	r24, r28
     586:	01 96       	adiw	r24, 0x01	; 1
     588:	0e 94 56 0d 	call	0x1aac	; 0x1aac <String::~String()>
     58c:	26 96       	adiw	r28, 0x06	; 6
     58e:	0f b6       	in	r0, 0x3f	; 63
     590:	f8 94       	cli
     592:	de bf       	out	0x3e, r29	; 62
     594:	0f be       	out	0x3f, r0	; 63
     596:	cd bf       	out	0x3d, r28	; 61
     598:	df 91       	pop	r29
     59a:	cf 91       	pop	r28
     59c:	08 95       	ret

0000059e <BK3254::init()>:
_ZN6BK32544initEv():
     59e:	0f 93       	push	r16
     5a0:	1f 93       	push	r17
     5a2:	cf 93       	push	r28
     5a4:	df 93       	push	r29
     5a6:	00 d0       	rcall	.+0      	; 0x5a8 <BK3254::init()+0xa>
     5a8:	00 d0       	rcall	.+0      	; 0x5aa <BK3254::init()+0xc>
     5aa:	00 d0       	rcall	.+0      	; 0x5ac <BK3254::init()+0xe>
     5ac:	cd b7       	in	r28, 0x3d	; 61
     5ae:	de b7       	in	r29, 0x3e	; 62
     5b0:	8c 01       	movw	r16, r24
_ZN14HardwareSerial5beginEm():
     5b2:	26 e0       	ldi	r18, 0x06	; 6
     5b4:	40 e8       	ldi	r20, 0x80	; 128
     5b6:	55 e2       	ldi	r21, 0x25	; 37
     5b8:	60 e0       	ldi	r22, 0x00	; 0
     5ba:	70 e0       	ldi	r23, 0x00	; 0
     5bc:	80 e2       	ldi	r24, 0x20	; 32
     5be:	93 e0       	ldi	r25, 0x03	; 3
     5c0:	0e 94 88 0b 	call	0x1710	; 0x1710 <HardwareSerial::begin(unsigned long, unsigned char)>
_ZN6BK32544initEv():
     5c4:	64 e6       	ldi	r22, 0x64	; 100
     5c6:	70 e0       	ldi	r23, 0x00	; 0
     5c8:	80 e0       	ldi	r24, 0x00	; 0
     5ca:	90 e0       	ldi	r25, 0x00	; 0
     5cc:	0e 94 44 0f 	call	0x1e88	; 0x1e88 <delay>
     5d0:	c8 01       	movw	r24, r16
     5d2:	0e 94 ae 02 	call	0x55c	; 0x55c <BK3254::voicesOff()>
     5d6:	64 e6       	ldi	r22, 0x64	; 100
     5d8:	70 e0       	ldi	r23, 0x00	; 0
     5da:	80 e0       	ldi	r24, 0x00	; 0
     5dc:	90 e0       	ldi	r25, 0x00	; 0
     5de:	0e 94 44 0f 	call	0x1e88	; 0x1e88 <delay>
     5e2:	69 e5       	ldi	r22, 0x59	; 89
     5e4:	71 e0       	ldi	r23, 0x01	; 1
     5e6:	ce 01       	movw	r24, r28
     5e8:	01 96       	adiw	r24, 0x01	; 1
     5ea:	0e 94 c5 0d 	call	0x1b8a	; 0x1b8a <String::String(char const*)>
     5ee:	be 01       	movw	r22, r28
     5f0:	6f 5f       	subi	r22, 0xFF	; 255
     5f2:	7f 4f       	sbci	r23, 0xFF	; 255
     5f4:	c8 01       	movw	r24, r16
     5f6:	0e 94 73 02 	call	0x4e6	; 0x4e6 <BK3254::volumeSet(String)>
     5fa:	ce 01       	movw	r24, r28
     5fc:	01 96       	adiw	r24, 0x01	; 1
     5fe:	0e 94 56 0d 	call	0x1aac	; 0x1aac <String::~String()>
     602:	26 96       	adiw	r28, 0x06	; 6
     604:	0f b6       	in	r0, 0x3f	; 63
     606:	f8 94       	cli
     608:	de bf       	out	0x3e, r29	; 62
     60a:	0f be       	out	0x3f, r0	; 63
     60c:	cd bf       	out	0x3d, r28	; 61
     60e:	df 91       	pop	r29
     610:	cf 91       	pop	r28
     612:	1f 91       	pop	r17
     614:	0f 91       	pop	r16
     616:	08 95       	ret

00000618 <_GLOBAL__sub_I_bt>:
_GLOBAL__sub_I_bt():
     618:	cf 93       	push	r28
     61a:	df 93       	push	r29
_ZN6BK3254C4Ev():
C:\Users\mateu\Documents\GitHub\Audi-CDC-Emulator\Software\cdc_arduino_atmega328pb_bk3254/bk3254.h:87
#define BK3254_GET_CONNECTION_STATUS "MO" //Bluetooth connection status inquiry   connection succeeded: C1\r\n / no connection: C0\r\n
#define BK3254_GET_MUSIC_STATUS "MV" //Bluetooth playback status inquiry   Play: MB\r\n / time out: MA\r\n / disconnect: M0\r\n
#define BK3254_GET_HFP_STATUS "MY" //Bluetooth inquiry HFP status  disconnect: M0\r\n / connection: M1\r\n / Caller: M2\r\n / Outgoing: M3\r\n / calling: M4\r\n
#define BK3254_GET_SW_VERSION "MQ" //GET SW VERSION

class BK3254
     61c:	c0 eb       	ldi	r28, 0xB0	; 176
     61e:	d1 e0       	ldi	r29, 0x01	; 1
     620:	81 e0       	ldi	r24, 0x01	; 1
     622:	88 83       	st	Y, r24
     624:	93 e0       	ldi	r25, 0x03	; 3
     626:	99 83       	std	Y+1, r25	; 0x01
     628:	8a 83       	std	Y+2, r24	; 0x02
     62a:	1b 82       	std	Y+3, r1	; 0x03
     62c:	8c 83       	std	Y+4, r24	; 0x04
     62e:	8d 83       	std	Y+5, r24	; 0x05
     630:	88 e0       	ldi	r24, 0x08	; 8
     632:	8e 83       	std	Y+6, r24	; 0x06
     634:	18 86       	std	Y+8, r1	; 0x08
     636:	1f 82       	std	Y+7, r1	; 0x07
     638:	1c 86       	std	Y+12, r1	; 0x0c
     63a:	1b 86       	std	Y+11, r1	; 0x0b
     63c:	1d 86       	std	Y+13, r1	; 0x0d
     63e:	6f e1       	ldi	r22, 0x1F	; 31
     640:	71 e0       	ldi	r23, 0x01	; 1
     642:	8e eb       	ldi	r24, 0xBE	; 190
     644:	91 e0       	ldi	r25, 0x01	; 1
     646:	0e 94 c5 0d 	call	0x1b8a	; 0x1b8a <String::String(char const*)>
     64a:	1c 8a       	std	Y+20, r1	; 0x14
     64c:	6f e1       	ldi	r22, 0x1F	; 31
     64e:	71 e0       	ldi	r23, 0x01	; 1
     650:	85 ec       	ldi	r24, 0xC5	; 197
     652:	91 e0       	ldi	r25, 0x01	; 1
     654:	0e 94 c5 0d 	call	0x1b8a	; 0x1b8a <String::String(char const*)>
     658:	6f e1       	ldi	r22, 0x1F	; 31
     65a:	71 e0       	ldi	r23, 0x01	; 1
     65c:	8b ec       	ldi	r24, 0xCB	; 203
     65e:	91 e0       	ldi	r25, 0x01	; 1
     660:	0e 94 c5 0d 	call	0x1b8a	; 0x1b8a <String::String(char const*)>
     664:	6f e1       	ldi	r22, 0x1F	; 31
     666:	71 e0       	ldi	r23, 0x01	; 1
     668:	81 ed       	ldi	r24, 0xD1	; 209
     66a:	91 e0       	ldi	r25, 0x01	; 1
     66c:	0e 94 c5 0d 	call	0x1b8a	; 0x1b8a <String::String(char const*)>
     670:	6f e1       	ldi	r22, 0x1F	; 31
     672:	71 e0       	ldi	r23, 0x01	; 1
     674:	87 ed       	ldi	r24, 0xD7	; 215
     676:	91 e0       	ldi	r25, 0x01	; 1
_GLOBAL__sub_I_bt():
C:\Users\mateu\Documents\GitHub\Audi-CDC-Emulator\Software\cdc_arduino_atmega328pb_bk3254/bk3254.cpp:634
     678:	df 91       	pop	r29
     67a:	cf 91       	pop	r28
_ZN6BK3254C4Ev():
C:\Users\mateu\Documents\GitHub\Audi-CDC-Emulator\Software\cdc_arduino_atmega328pb_bk3254/bk3254.h:87
     67c:	0c 94 c5 0d 	jmp	0x1b8a	; 0x1b8a <String::String(char const*)>

00000680 <_GLOBAL__sub_D_bt>:
_ZN6BK3254D4Ev():
     680:	87 ed       	ldi	r24, 0xD7	; 215
     682:	91 e0       	ldi	r25, 0x01	; 1
     684:	0e 94 56 0d 	call	0x1aac	; 0x1aac <String::~String()>
     688:	81 ed       	ldi	r24, 0xD1	; 209
     68a:	91 e0       	ldi	r25, 0x01	; 1
     68c:	0e 94 56 0d 	call	0x1aac	; 0x1aac <String::~String()>
     690:	8b ec       	ldi	r24, 0xCB	; 203
     692:	91 e0       	ldi	r25, 0x01	; 1
     694:	0e 94 56 0d 	call	0x1aac	; 0x1aac <String::~String()>
     698:	85 ec       	ldi	r24, 0xC5	; 197
     69a:	91 e0       	ldi	r25, 0x01	; 1
     69c:	0e 94 56 0d 	call	0x1aac	; 0x1aac <String::~String()>
     6a0:	8e eb       	ldi	r24, 0xBE	; 190
     6a2:	91 e0       	ldi	r25, 0x01	; 1
     6a4:	0c 94 56 0d 	jmp	0x1aac	; 0x1aac <String::~String()>

000006a8 <BK3254::checkState()>:
_ZN6BK325410checkStateEv():
C:\Users\mateu\Documents\GitHub\Audi-CDC-Emulator\Software\cdc_arduino_atmega328pb_bk3254/bk3254.cpp:18
  voicesOff();
  delay(100);
  volumeSet("D");
}

void BK3254::checkState() {
     6a8:	cf 92       	push	r12
     6aa:	df 92       	push	r13
     6ac:	ef 92       	push	r14
     6ae:	ff 92       	push	r15
     6b0:	0f 93       	push	r16
     6b2:	1f 93       	push	r17
     6b4:	cf 93       	push	r28
     6b6:	df 93       	push	r29
     6b8:	00 d0       	rcall	.+0      	; 0x6ba <BK3254::checkState()+0x12>
     6ba:	00 d0       	rcall	.+0      	; 0x6bc <BK3254::checkState()+0x14>
     6bc:	00 d0       	rcall	.+0      	; 0x6be <BK3254::checkState()+0x16>
     6be:	cd b7       	in	r28, 0x3d	; 61
     6c0:	de b7       	in	r29, 0x3e	; 62
     6c2:	8c 01       	movw	r16, r24
C:\Users\mateu\Documents\GitHub\Audi-CDC-Emulator\Software\cdc_arduino_atmega328pb_bk3254/bk3254.cpp:19
  if(flag_250ms == true)  {
     6c4:	80 91 e5 01 	lds	r24, 0x01E5	; 0x8001e5 <flag_250ms>
     6c8:	81 30       	cpi	r24, 0x01	; 1
     6ca:	99 f4       	brne	.+38     	; 0x6f2 <BK3254::checkState()+0x4a>
C:\Users\mateu\Documents\GitHub\Audi-CDC-Emulator\Software\cdc_arduino_atmega328pb_bk3254/bk3254.cpp:20
    send("AT+MY\r\n");
     6cc:	63 e4       	ldi	r22, 0x43	; 67
     6ce:	71 e0       	ldi	r23, 0x01	; 1
     6d0:	ce 01       	movw	r24, r28
     6d2:	01 96       	adiw	r24, 0x01	; 1
     6d4:	0e 94 c5 0d 	call	0x1b8a	; 0x1b8a <String::String(char const*)>
_ZN6BK32544sendE6String():
C:\Users\mateu\Documents\GitHub\Audi-CDC-Emulator\Software\cdc_arduino_atmega328pb_bk3254/bk3254.cpp:79
      }
  return true;
}

void BK3254::send(String data)  {  
  Serial1.print(data);
     6d8:	be 01       	movw	r22, r28
     6da:	6f 5f       	subi	r22, 0xFF	; 255
     6dc:	7f 4f       	sbci	r23, 0xFF	; 255
     6de:	80 e2       	ldi	r24, 0x20	; 32
     6e0:	93 e0       	ldi	r25, 0x03	; 3
     6e2:	0e 94 26 0d 	call	0x1a4c	; 0x1a4c <Print::print(String const&)>
_ZN6BK325410checkStateEv():
C:\Users\mateu\Documents\GitHub\Audi-CDC-Emulator\Software\cdc_arduino_atmega328pb_bk3254/bk3254.cpp:20
  volumeSet("D");
}

void BK3254::checkState() {
  if(flag_250ms == true)  {
    send("AT+MY\r\n");
     6e6:	ce 01       	movw	r24, r28
     6e8:	01 96       	adiw	r24, 0x01	; 1
     6ea:	0e 94 56 0d 	call	0x1aac	; 0x1aac <String::~String()>
C:\Users\mateu\Documents\GitHub\Audi-CDC-Emulator\Software\cdc_arduino_atmega328pb_bk3254/bk3254.cpp:21
    flag_250ms = false;
     6ee:	10 92 e5 01 	sts	0x01E5, r1	; 0x8001e5 <flag_250ms>
C:\Users\mateu\Documents\GitHub\Audi-CDC-Emulator\Software\cdc_arduino_atmega328pb_bk3254/bk3254.cpp:24
  }

  if (Serial1.available() > 0) { // if we have something
     6f2:	80 e2       	ldi	r24, 0x20	; 32
     6f4:	93 e0       	ldi	r25, 0x03	; 3
     6f6:	0e 94 c3 0a 	call	0x1586	; 0x1586 <HardwareSerial::available()>
     6fa:	18 16       	cp	r1, r24
     6fc:	19 06       	cpc	r1, r25
     6fe:	dc f4       	brge	.+54     	; 0x736 <BK3254::checkState()+0x8e>
C:\Users\mateu\Documents\GitHub\Audi-CDC-Emulator\Software\cdc_arduino_atmega328pb_bk3254/bk3254.cpp:27
    while (Serial1.available())  {
      char sign2 = (char)Serial1.read();
      if((sign2 != '\r') || (sign2 != '\n')) bt_serial_data += sign2;  // skip \r 
     700:	68 01       	movw	r12, r16
     702:	8e e0       	ldi	r24, 0x0E	; 14
     704:	c8 0e       	add	r12, r24
     706:	d1 1c       	adc	r13, r1
C:\Users\mateu\Documents\GitHub\Audi-CDC-Emulator\Software\cdc_arduino_atmega328pb_bk3254/bk3254.cpp:29
      if(sign2 == '\n')  {
        bt_serial_data_ready = true;
     708:	ee 24       	eor	r14, r14
     70a:	e3 94       	inc	r14
C:\Users\mateu\Documents\GitHub\Audi-CDC-Emulator\Software\cdc_arduino_atmega328pb_bk3254/bk3254.cpp:25
    send("AT+MY\r\n");
    flag_250ms = false;
  }

  if (Serial1.available() > 0) { // if we have something
    while (Serial1.available())  {
     70c:	80 e2       	ldi	r24, 0x20	; 32
     70e:	93 e0       	ldi	r25, 0x03	; 3
     710:	0e 94 c3 0a 	call	0x1586	; 0x1586 <HardwareSerial::available()>
     714:	89 2b       	or	r24, r25
     716:	79 f0       	breq	.+30     	; 0x736 <BK3254::checkState()+0x8e>
C:\Users\mateu\Documents\GitHub\Audi-CDC-Emulator\Software\cdc_arduino_atmega328pb_bk3254/bk3254.cpp:26
      char sign2 = (char)Serial1.read();
     718:	80 e2       	ldi	r24, 0x20	; 32
     71a:	93 e0       	ldi	r25, 0x03	; 3
     71c:	0e 94 dd 0a 	call	0x15ba	; 0x15ba <HardwareSerial::read()>
     720:	f8 2e       	mov	r15, r24
_ZN6StringpLEc():
C:\Users\mateu\AppData\Local\Arduino15\packages\MiniCore\hardware\avr\2.0.9\cores\MCUdude_corefiles/WString.h:115

  // if there's not enough memory for the concatenated value, the string
  // will be left unchanged (but this isn't signalled in any way)
  String & operator += (const String &rhs)  {concat(rhs); return (*this);}
  String & operator += (const char *cstr)   {concat(cstr); return (*this);}
  String & operator += (char c)     {concat(c); return (*this);}
     722:	68 2f       	mov	r22, r24
     724:	c6 01       	movw	r24, r12
     726:	0e 94 83 0e 	call	0x1d06	; 0x1d06 <String::concat(char)>
_ZN6BK325410checkStateEv():
C:\Users\mateu\Documents\GitHub\Audi-CDC-Emulator\Software\cdc_arduino_atmega328pb_bk3254/bk3254.cpp:28
      if((sign2 != '\r') || (sign2 != '\n')) bt_serial_data += sign2;  // skip \r 
      if(sign2 == '\n')  {
     72a:	ea e0       	ldi	r30, 0x0A	; 10
     72c:	fe 12       	cpse	r15, r30
     72e:	ee cf       	rjmp	.-36     	; 0x70c <BK3254::checkState()+0x64>
C:\Users\mateu\Documents\GitHub\Audi-CDC-Emulator\Software\cdc_arduino_atmega328pb_bk3254/bk3254.cpp:29
        bt_serial_data_ready = true;
     730:	f8 01       	movw	r30, r16
     732:	e4 8a       	std	Z+20, r14	; 0x14
     734:	eb cf       	rjmp	.-42     	; 0x70c <BK3254::checkState()+0x64>
C:\Users\mateu\Documents\GitHub\Audi-CDC-Emulator\Software\cdc_arduino_atmega328pb_bk3254/bk3254.cpp:33
      }
    }
  }
  if(bt_serial_data_ready == true)  {
     736:	f8 01       	movw	r30, r16
     738:	84 89       	ldd	r24, Z+20	; 0x14
     73a:	88 23       	and	r24, r24
     73c:	d1 f0       	breq	.+52     	; 0x772 <BK3254::checkState()+0xca>
C:\Users\mateu\Documents\GitHub\Audi-CDC-Emulator\Software\cdc_arduino_atmega328pb_bk3254/bk3254.cpp:34
      simpleDecodeReceivedString(bt_serial_data);
     73e:	78 01       	movw	r14, r16
     740:	fe e0       	ldi	r31, 0x0E	; 14
     742:	ef 0e       	add	r14, r31
     744:	f1 1c       	adc	r15, r1
     746:	b7 01       	movw	r22, r14
     748:	ce 01       	movw	r24, r28
     74a:	01 96       	adiw	r24, 0x01	; 1
     74c:	0e 94 1c 0e 	call	0x1c38	; 0x1c38 <String::String(String const&)>
     750:	be 01       	movw	r22, r28
     752:	6f 5f       	subi	r22, 0xFF	; 255
     754:	7f 4f       	sbci	r23, 0xFF	; 255
     756:	c8 01       	movw	r24, r16
     758:	0e 94 28 01 	call	0x250	; 0x250 <BK3254::simpleDecodeReceivedString(String)>
     75c:	ce 01       	movw	r24, r28
     75e:	01 96       	adiw	r24, 0x01	; 1
     760:	0e 94 56 0d 	call	0x1aac	; 0x1aac <String::~String()>
C:\Users\mateu\Documents\GitHub\Audi-CDC-Emulator\Software\cdc_arduino_atmega328pb_bk3254/bk3254.cpp:35
      bt_serial_data_ready = false;
     764:	f8 01       	movw	r30, r16
     766:	14 8a       	std	Z+20, r1	; 0x14
C:\Users\mateu\Documents\GitHub\Audi-CDC-Emulator\Software\cdc_arduino_atmega328pb_bk3254/bk3254.cpp:36
      bt_serial_data = "";
     768:	6f e1       	ldi	r22, 0x1F	; 31
     76a:	71 e0       	ldi	r23, 0x01	; 1
     76c:	c7 01       	movw	r24, r14
     76e:	0e 94 25 0e 	call	0x1c4a	; 0x1c4a <String::operator=(char const*)>
C:\Users\mateu\Documents\GitHub\Audi-CDC-Emulator\Software\cdc_arduino_atmega328pb_bk3254/bk3254.cpp:38
    }  
}
     772:	26 96       	adiw	r28, 0x06	; 6
     774:	0f b6       	in	r0, 0x3f	; 63
     776:	f8 94       	cli
     778:	de bf       	out	0x3e, r29	; 62
     77a:	0f be       	out	0x3f, r0	; 63
     77c:	cd bf       	out	0x3d, r28	; 61
     77e:	df 91       	pop	r29
     780:	cf 91       	pop	r28
     782:	1f 91       	pop	r17
     784:	0f 91       	pop	r16
     786:	ff 90       	pop	r15
     788:	ef 90       	pop	r14
     78a:	df 90       	pop	r13
     78c:	cf 90       	pop	r12
     78e:	08 95       	ret

00000790 <main>:
_ZN14HardwareSerial5beginEm():
C:\Users\mateu\AppData\Local\Arduino15\packages\MiniCore\hardware\avr\2.0.9\cores\MCUdude_corefiles/HardwareSerial.h:121
  public:
    inline HardwareSerial(
      volatile uint8_t *ubrrh, volatile uint8_t *ubrrl,
      volatile uint8_t *ucsra, volatile uint8_t *ucsrb,
      volatile uint8_t *ucsrc, volatile uint8_t *udr);
    void begin(unsigned long baud) { begin(baud, SERIAL_8N1); }
     790:	26 e0       	ldi	r18, 0x06	; 6
     792:	40 e8       	ldi	r20, 0x80	; 128
     794:	55 e2       	ldi	r21, 0x25	; 37
     796:	60 e0       	ldi	r22, 0x00	; 0
     798:	70 e0       	ldi	r23, 0x00	; 0
     79a:	83 e8       	ldi	r24, 0x83	; 131
     79c:	92 e0       	ldi	r25, 0x02	; 2
     79e:	0e 94 88 0b 	call	0x1710	; 0x1710 <HardwareSerial::begin(unsigned long, unsigned char)>
main():
C:\Users\mateu\Documents\GitHub\Audi-CDC-Emulator\Software\cdc_arduino_atmega328pb_bk3254/cdc_arduino_atmega328pb_bk3254.ino:68

int main()
{
  Serial.begin(9600);
  
  bt.init();
     7a2:	80 eb       	ldi	r24, 0xB0	; 176
     7a4:	91 e0       	ldi	r25, 0x01	; 1
     7a6:	0e 94 cf 02 	call	0x59e	; 0x59e <BK3254::init()>
C:\Users\mateu\Documents\GitHub\Audi-CDC-Emulator\Software\cdc_arduino_atmega328pb_bk3254/cdc_arduino_atmega328pb_bk3254.ino:69
  Init_VWCDC();
     7aa:	0e 94 77 05 	call	0xaee	; 0xaee <Init_VWCDC()>
C:\Users\mateu\Documents\GitHub\Audi-CDC-Emulator\Software\cdc_arduino_atmega328pb_bk3254/cdc_arduino_atmega328pb_bk3254.ino:77 (discriminator 1)
    remote.initRemote();
  #endif

  while (1)
  {
    bt.checkState();
     7ae:	80 eb       	ldi	r24, 0xB0	; 176
     7b0:	91 e0       	ldi	r25, 0x01	; 1
     7b2:	0e 94 54 03 	call	0x6a8	; 0x6a8 <BK3254::checkState()>
C:\Users\mateu\Documents\GitHub\Audi-CDC-Emulator\Software\cdc_arduino_atmega328pb_bk3254/cdc_arduino_atmega328pb_bk3254.ino:78 (discriminator 1)
    CDC_Protocol();
     7b6:	0e 94 4b 07 	call	0xe96	; 0xe96 <CDC_Protocol()>
     7ba:	f9 cf       	rjmp	.-14     	; 0x7ae <main+0x1e>

000007bc <GetCaptureByte()>:
_ZL14GetCaptureBytev():
C:\Users\mateu\Documents\GitHub\Audi-CDC-Emulator\Software\cdc_arduino_atmega328pb_bk3254/cdc_function.cpp:1259

  uint8_t return_u8 = FALSE;

  // have we already caught up with capturer?

  if (fsr != capptr)
     7bc:	80 91 39 02 	lds	r24, 0x0239	; 0x800239 <fsr>
     7c0:	90 91 2a 02 	lds	r25, 0x022A	; 0x80022a <capptr>
     7c4:	89 17       	cp	r24, r25
     7c6:	89 f0       	breq	.+34     	; 0x7ea <GetCaptureByte()+0x2e>
C:\Users\mateu\Documents\GitHub\Audi-CDC-Emulator\Software\cdc_arduino_atmega328pb_bk3254/cdc_function.cpp:1263

  {

    scanbyte = capbuffer[fsr]; // get a byte from the capture buffer
     7c8:	e8 2f       	mov	r30, r24
     7ca:	f0 e0       	ldi	r31, 0x00	; 0
     7cc:	e7 51       	subi	r30, 0x17	; 23
     7ce:	fe 4f       	sbci	r31, 0xFE	; 254
     7d0:	90 81       	ld	r25, Z
     7d2:	90 93 38 02 	sts	0x0238, r25	; 0x800238 <scanbyte>
C:\Users\mateu\Documents\GitHub\Audi-CDC-Emulator\Software\cdc_arduino_atmega328pb_bk3254/cdc_function.cpp:1265

    fsr++;
     7d6:	8f 5f       	subi	r24, 0xFF	; 255
C:\Users\mateu\Documents\GitHub\Audi-CDC-Emulator\Software\cdc_arduino_atmega328pb_bk3254/cdc_function.cpp:1267

    if (fsr == CAP_BUFFER_END) // have we overflowed the
     7d8:	88 31       	cpi	r24, 0x18	; 24
     7da:	21 f0       	breq	.+8      	; 0x7e4 <GetCaptureByte()+0x28>
C:\Users\mateu\Documents\GitHub\Audi-CDC-Emulator\Software\cdc_arduino_atmega328pb_bk3254/cdc_function.cpp:1265

  {

    scanbyte = capbuffer[fsr]; // get a byte from the capture buffer

    fsr++;
     7dc:	80 93 39 02 	sts	0x0239, r24	; 0x800239 <fsr>
C:\Users\mateu\Documents\GitHub\Audi-CDC-Emulator\Software\cdc_arduino_atmega328pb_bk3254/cdc_function.cpp:1275

      fsr = 0;

    } // yes, roll over to beginning

    return_u8 = TRUE;
     7e0:	81 e0       	ldi	r24, 0x01	; 1
     7e2:	08 95       	ret
C:\Users\mateu\Documents\GitHub\Audi-CDC-Emulator\Software\cdc_arduino_atmega328pb_bk3254/cdc_function.cpp:1271

    if (fsr == CAP_BUFFER_END) // have we overflowed the

    { // capture buffer?

      fsr = 0;
     7e4:	10 92 39 02 	sts	0x0239, r1	; 0x800239 <fsr>
     7e8:	fb cf       	rjmp	.-10     	; 0x7e0 <GetCaptureByte()+0x24>
C:\Users\mateu\Documents\GitHub\Audi-CDC-Emulator\Software\cdc_arduino_atmega328pb_bk3254/cdc_function.cpp:1255

static uint8_t GetCaptureByte(void)

{

  uint8_t return_u8 = FALSE;
     7ea:	80 e0       	ldi	r24, 0x00	; 0
C:\Users\mateu\Documents\GitHub\Audi-CDC-Emulator\Software\cdc_arduino_atmega328pb_bk3254/cdc_function.cpp:1281

  }

  return return_u8;

}
     7ec:	08 95       	ret

000007ee <SetStateInitPlay()>:
_ZL16SetStateInitPlayv():
C:\Users\mateu\Documents\GitHub\Audi-CDC-Emulator\Software\cdc_arduino_atmega328pb_bk3254/cdc_function.cpp:1380

static void SetStateInitPlay(void)

{

  playing = TRUE;
     7ee:	81 e0       	ldi	r24, 0x01	; 1
     7f0:	80 93 33 02 	sts	0x0233, r24	; 0x800233 <playing>
C:\Users\mateu\Documents\GitHub\Audi-CDC-Emulator\Software\cdc_arduino_atmega328pb_bk3254/cdc_function.cpp:1382

  BIDIstate = StateInitPlay;
     7f4:	82 e0       	ldi	r24, 0x02	; 2
     7f6:	80 93 29 02 	sts	0x0229, r24	; 0x800229 <BIDIstate>
C:\Users\mateu\Documents\GitHub\Audi-CDC-Emulator\Software\cdc_arduino_atmega328pb_bk3254/cdc_function.cpp:1384

  discload = 0xD1; //0xFF - 0x2E
     7fa:	81 ed       	ldi	r24, 0xD1	; 209
     7fc:	80 93 26 02 	sts	0x0226, r24	; 0x800226 <discload>
C:\Users\mateu\Documents\GitHub\Audi-CDC-Emulator\Software\cdc_arduino_atmega328pb_bk3254/cdc_function.cpp:1386

  BIDIcount = -24;
     800:	88 ee       	ldi	r24, 0xE8	; 232
     802:	80 93 28 02 	sts	0x0228, r24	; 0x800228 <BIDIcount>
C:\Users\mateu\Documents\GitHub\Audi-CDC-Emulator\Software\cdc_arduino_atmega328pb_bk3254/cdc_function.cpp:1388

}
     806:	08 95       	ret

00000808 <EnqueueString(unsigned char const*)>:
_ZL13EnqueueStringPKh():
C:\Users\mateu\Documents\GitHub\Audi-CDC-Emulator\Software\cdc_arduino_atmega328pb_bk3254/cdc_function.cpp:1684

{

#ifndef JUST_HEX_TO_SERIAL

  txbuffer[txinptr] = addr;
     808:	20 91 22 02 	lds	r18, 0x0222	; 0x800222 <txinptr>
     80c:	e2 2f       	mov	r30, r18
     80e:	f0 e0       	ldi	r31, 0x00	; 0
     810:	ee 0f       	add	r30, r30
     812:	ff 1f       	adc	r31, r31
     814:	ef 5f       	subi	r30, 0xFF	; 255
     816:	fd 4f       	sbci	r31, 0xFD	; 253
     818:	91 83       	std	Z+1, r25	; 0x01
     81a:	80 83       	st	Z, r24
C:\Users\mateu\Documents\GitHub\Audi-CDC-Emulator\Software\cdc_arduino_atmega328pb_bk3254/cdc_function.cpp:1686

  txinptr++;
     81c:	2f 5f       	subi	r18, 0xFF	; 255
C:\Users\mateu\Documents\GitHub\Audi-CDC-Emulator\Software\cdc_arduino_atmega328pb_bk3254/cdc_function.cpp:1688

  if (txinptr == TX_BUFFER_END)
     81e:	2c 30       	cpi	r18, 0x0C	; 12
     820:	19 f0       	breq	.+6      	; 0x828 <EnqueueString(unsigned char const*)+0x20>
C:\Users\mateu\Documents\GitHub\Audi-CDC-Emulator\Software\cdc_arduino_atmega328pb_bk3254/cdc_function.cpp:1686

#ifndef JUST_HEX_TO_SERIAL

  txbuffer[txinptr] = addr;

  txinptr++;
     822:	20 93 22 02 	sts	0x0222, r18	; 0x800222 <txinptr>
     826:	08 95       	ret
C:\Users\mateu\Documents\GitHub\Audi-CDC-Emulator\Software\cdc_arduino_atmega328pb_bk3254/cdc_function.cpp:1692

  if (txinptr == TX_BUFFER_END)

  {

    txinptr = 0;
     828:	10 92 22 02 	sts	0x0222, r1	; 0x800222 <txinptr>
C:\Users\mateu\Documents\GitHub\Audi-CDC-Emulator\Software\cdc_arduino_atmega328pb_bk3254/cdc_function.cpp:1698

  }

#endif

}
     82c:	08 95       	ret

0000082e <EnqueueHex(unsigned char)>:
_ZL10EnqueueHexh():
C:\Users\mateu\Documents\GitHub\Audi-CDC-Emulator\Software\cdc_arduino_atmega328pb_bk3254/cdc_function.cpp:1714
*/
//-----------------------------------------------------------------------------

static void EnqueueHex(uint8_t hexbyte_u8)

{
     82e:	cf 93       	push	r28
     830:	c8 2f       	mov	r28, r24
C:\Users\mateu\Documents\GitHub\Audi-CDC-Emulator\Software\cdc_arduino_atmega328pb_bk3254/cdc_function.cpp:1720

  uint8_t nibble_u8;



  nibble_u8 = hexbyte_u8 >> 4; // send high nibble first
     832:	86 95       	lsr	r24
     834:	86 95       	lsr	r24
     836:	86 95       	lsr	r24
C:\Users\mateu\Documents\GitHub\Audi-CDC-Emulator\Software\cdc_arduino_atmega328pb_bk3254/cdc_function.cpp:1722

  nibble_u8 <<= 1; // multiply high nibble by 2
     838:	8e 71       	andi	r24, 0x1E	; 30
C:\Users\mateu\Documents\GitHub\Audi-CDC-Emulator\Software\cdc_arduino_atmega328pb_bk3254/cdc_function.cpp:1724

  EnqueueString(&sHEX[nibble_u8]);
     83a:	90 e0       	ldi	r25, 0x00	; 0
     83c:	8e 5f       	subi	r24, 0xFE	; 254
     83e:	9e 4f       	sbci	r25, 0xFE	; 254
     840:	0e 94 04 04 	call	0x808	; 0x808 <EnqueueString(unsigned char const*)>
C:\Users\mateu\Documents\GitHub\Audi-CDC-Emulator\Software\cdc_arduino_atmega328pb_bk3254/cdc_function.cpp:1730



  nibble_u8 = hexbyte_u8 & 0x0F; // prepare low nibble

  nibble_u8 <<= 1; // multiply low nibble by 2
     844:	cc 0f       	add	r28, r28
     846:	ce 71       	andi	r28, 0x1E	; 30
C:\Users\mateu\Documents\GitHub\Audi-CDC-Emulator\Software\cdc_arduino_atmega328pb_bk3254/cdc_function.cpp:1732

  EnqueueString(&sHEX[nibble_u8]);
     848:	8c 2f       	mov	r24, r28
     84a:	90 e0       	ldi	r25, 0x00	; 0
     84c:	8e 5f       	subi	r24, 0xFE	; 254
     84e:	9e 4f       	sbci	r25, 0xFE	; 254
C:\Users\mateu\Documents\GitHub\Audi-CDC-Emulator\Software\cdc_arduino_atmega328pb_bk3254/cdc_function.cpp:1734

}
     850:	cf 91       	pop	r28
C:\Users\mateu\Documents\GitHub\Audi-CDC-Emulator\Software\cdc_arduino_atmega328pb_bk3254/cdc_function.cpp:1732

  nibble_u8 = hexbyte_u8 & 0x0F; // prepare low nibble

  nibble_u8 <<= 1; // multiply low nibble by 2

  EnqueueString(&sHEX[nibble_u8]);
     852:	0c 94 04 04 	jmp	0x808	; 0x808 <EnqueueString(unsigned char const*)>

00000856 <DumpFullCommand()>:
_ZL15DumpFullCommandv():
C:\Users\mateu\Documents\GitHub\Audi-CDC-Emulator\Software\cdc_arduino_atmega328pb_bk3254/cdc_function.cpp:1198

static void DumpFullCommand(void)

{

  fsr = scanptr; // restart back at the beginning of the packet
     856:	80 91 3a 02 	lds	r24, 0x023A	; 0x80023a <scanptr>
     85a:	80 93 39 02 	sts	0x0239, r24	; 0x800239 <fsr>
C:\Users\mateu\Documents\GitHub\Audi-CDC-Emulator\Software\cdc_arduino_atmega328pb_bk3254/cdc_function.cpp:1200

  if (GetCaptureByte() == TRUE) // send byte 1
     85e:	0e 94 de 03 	call	0x7bc	; 0x7bc <GetCaptureByte()>
     862:	81 30       	cpi	r24, 0x01	; 1
     864:	21 f4       	brne	.+8      	; 0x86e <DumpFullCommand()+0x18>
C:\Users\mateu\Documents\GitHub\Audi-CDC-Emulator\Software\cdc_arduino_atmega328pb_bk3254/cdc_function.cpp:1204

  {

    EnqueueHex(scanbyte);
     866:	80 91 38 02 	lds	r24, 0x0238	; 0x800238 <scanbyte>
     86a:	0e 94 17 04 	call	0x82e	; 0x82e <EnqueueHex(unsigned char)>
C:\Users\mateu\Documents\GitHub\Audi-CDC-Emulator\Software\cdc_arduino_atmega328pb_bk3254/cdc_function.cpp:1208

  }

  if (GetCaptureByte() == TRUE) // send byte 2
     86e:	0e 94 de 03 	call	0x7bc	; 0x7bc <GetCaptureByte()>
     872:	81 30       	cpi	r24, 0x01	; 1
     874:	21 f4       	brne	.+8      	; 0x87e <DumpFullCommand()+0x28>
C:\Users\mateu\Documents\GitHub\Audi-CDC-Emulator\Software\cdc_arduino_atmega328pb_bk3254/cdc_function.cpp:1212

  {

    EnqueueHex(scanbyte);
     876:	80 91 38 02 	lds	r24, 0x0238	; 0x800238 <scanbyte>
     87a:	0e 94 17 04 	call	0x82e	; 0x82e <EnqueueHex(unsigned char)>
C:\Users\mateu\Documents\GitHub\Audi-CDC-Emulator\Software\cdc_arduino_atmega328pb_bk3254/cdc_function.cpp:1216

  }

  if (GetCaptureByte() == TRUE) // send byte 3
     87e:	0e 94 de 03 	call	0x7bc	; 0x7bc <GetCaptureByte()>
     882:	81 30       	cpi	r24, 0x01	; 1
     884:	21 f4       	brne	.+8      	; 0x88e <DumpFullCommand()+0x38>
C:\Users\mateu\Documents\GitHub\Audi-CDC-Emulator\Software\cdc_arduino_atmega328pb_bk3254/cdc_function.cpp:1220

  {

    EnqueueHex(scanbyte);
     886:	80 91 38 02 	lds	r24, 0x0238	; 0x800238 <scanbyte>
     88a:	0e 94 17 04 	call	0x82e	; 0x82e <EnqueueHex(unsigned char)>
C:\Users\mateu\Documents\GitHub\Audi-CDC-Emulator\Software\cdc_arduino_atmega328pb_bk3254/cdc_function.cpp:1224

  }

  if (GetCaptureByte() == TRUE) // send byte 4
     88e:	0e 94 de 03 	call	0x7bc	; 0x7bc <GetCaptureByte()>
     892:	81 30       	cpi	r24, 0x01	; 1
     894:	21 f4       	brne	.+8      	; 0x89e <DumpFullCommand()+0x48>
C:\Users\mateu\Documents\GitHub\Audi-CDC-Emulator\Software\cdc_arduino_atmega328pb_bk3254/cdc_function.cpp:1228

  {

    EnqueueHex(scanbyte);
     896:	80 91 38 02 	lds	r24, 0x0238	; 0x800238 <scanbyte>
     89a:	0e 94 17 04 	call	0x82e	; 0x82e <EnqueueHex(unsigned char)>
C:\Users\mateu\Documents\GitHub\Audi-CDC-Emulator\Software\cdc_arduino_atmega328pb_bk3254/cdc_function.cpp:1232

  }

  EnqueueString(sNEWLINE);
     89e:	85 e0       	ldi	r24, 0x05	; 5
     8a0:	91 e0       	ldi	r25, 0x01	; 1
     8a2:	0e 94 04 04 	call	0x808	; 0x808 <EnqueueString(unsigned char const*)>
C:\Users\mateu\Documents\GitHub\Audi-CDC-Emulator\Software\cdc_arduino_atmega328pb_bk3254/cdc_function.cpp:1234

  scanptr = fsr; // save scanptr, won't look at this byte again
     8a6:	80 91 39 02 	lds	r24, 0x0239	; 0x800239 <fsr>
     8aa:	80 93 3a 02 	sts	0x023A, r24	; 0x80023a <scanptr>
C:\Users\mateu\Documents\GitHub\Audi-CDC-Emulator\Software\cdc_arduino_atmega328pb_bk3254/cdc_function.cpp:1236

}
     8ae:	08 95       	ret

000008b0 <ResetTime()>:
_ZL9ResetTimev():
C:\Users\mateu\Documents\GitHub\Audi-CDC-Emulator\Software\cdc_arduino_atmega328pb_bk3254/cdc_function.cpp:1752

static void ResetTime(void)

{

  secondcount = SECONDWAIT;
     8b0:	8c ee       	ldi	r24, 0xEC	; 236
     8b2:	80 93 24 02 	sts	0x0224, r24	; 0x800224 <secondcount>
C:\Users\mateu\Documents\GitHub\Audi-CDC-Emulator\Software\cdc_arduino_atmega328pb_bk3254/cdc_function.cpp:1754

  second = 0;
     8b6:	10 92 3c 02 	sts	0x023C, r1	; 0x80023c <second>
C:\Users\mateu\Documents\GitHub\Audi-CDC-Emulator\Software\cdc_arduino_atmega328pb_bk3254/cdc_function.cpp:1756

  minute = 0;
     8ba:	10 92 3d 02 	sts	0x023D, r1	; 0x80023d <minute>
C:\Users\mateu\Documents\GitHub\Audi-CDC-Emulator\Software\cdc_arduino_atmega328pb_bk3254/cdc_function.cpp:1758

}
     8be:	08 95       	ret

000008c0 <SendByte(unsigned char)>:
_ZL8SendByteh():
C:\Users\mateu\Documents\GitHub\Audi-CDC-Emulator\Software\cdc_arduino_atmega328pb_bk3254/cdc_function.cpp:1649

  // 335us didn't work so good on late 2003 wolfsburg double din,

  // so we now wait 700us instead.

  display_byte_buffer_mau8[display_byte_counter_u8] = byte_u8;
     8c0:	90 91 e3 01 	lds	r25, 0x01E3	; 0x8001e3 <SendByte(unsigned char)::display_byte_counter_u8>
     8c4:	e9 2f       	mov	r30, r25
     8c6:	f0 e0       	ldi	r31, 0x00	; 0
     8c8:	e7 5e       	subi	r30, 0xE7	; 231
     8ca:	fd 4f       	sbci	r31, 0xFD	; 253
     8cc:	80 83       	st	Z, r24
C:\Users\mateu\Documents\GitHub\Audi-CDC-Emulator\Software\cdc_arduino_atmega328pb_bk3254/cdc_function.cpp:1651

  display_byte_counter_u8++;
     8ce:	9f 5f       	subi	r25, 0xFF	; 255
C:\Users\mateu\Documents\GitHub\Audi-CDC-Emulator\Software\cdc_arduino_atmega328pb_bk3254/cdc_function.cpp:1653

  if (display_byte_counter_u8 == 8)
     8d0:	98 30       	cpi	r25, 0x08	; 8
     8d2:	19 f0       	breq	.+6      	; 0x8da <SendByte(unsigned char)+0x1a>
C:\Users\mateu\Documents\GitHub\Audi-CDC-Emulator\Software\cdc_arduino_atmega328pb_bk3254/cdc_function.cpp:1651

  // so we now wait 700us instead.

  display_byte_buffer_mau8[display_byte_counter_u8] = byte_u8;

  display_byte_counter_u8++;
     8d4:	90 93 e3 01 	sts	0x01E3, r25	; 0x8001e3 <SendByte(unsigned char)::display_byte_counter_u8>
     8d8:	08 95       	ret
C:\Users\mateu\Documents\GitHub\Audi-CDC-Emulator\Software\cdc_arduino_atmega328pb_bk3254/cdc_function.cpp:1657

  if (display_byte_counter_u8 == 8)

  {

    display_byte_counter_u8 = 0;
     8da:	10 92 e3 01 	sts	0x01E3, r1	; 0x8001e3 <SendByte(unsigned char)::display_byte_counter_u8>
C:\Users\mateu\Documents\GitHub\Audi-CDC-Emulator\Software\cdc_arduino_atmega328pb_bk3254/cdc_function.cpp:1658
    TCCR2B |= _BV(CS22); // prescaler = 64 -> 1 timer clock tick is 4us long
     8de:	80 91 b1 00 	lds	r24, 0x00B1	; 0x8000b1 <__TEXT_REGION_LENGTH__+0x7f80b1>
     8e2:	84 60       	ori	r24, 0x04	; 4
     8e4:	80 93 b1 00 	sts	0x00B1, r24	; 0x8000b1 <__TEXT_REGION_LENGTH__+0x7f80b1>
C:\Users\mateu\Documents\GitHub\Audi-CDC-Emulator\Software\cdc_arduino_atmega328pb_bk3254/cdc_function.cpp:1663
    //TIMSK2 |= _BV(OCIE2A); // enable output compare interrupt on timer2

  }

}
     8e8:	08 95       	ret

000008ea <SendDisplayBytesInitCD()>:
_ZL22SendDisplayBytesInitCDv():
C:\Users\mateu\Documents\GitHub\Audi-CDC-Emulator\Software\cdc_arduino_atmega328pb_bk3254/cdc_function.cpp:1573

static void SendDisplayBytesInitCD(void)

{

  SendByte(0x99); // number of tracks total (99)?
     8ea:	89 e9       	ldi	r24, 0x99	; 153
     8ec:	0e 94 60 04 	call	0x8c0	; 0x8c0 <SendByte(unsigned char)>
C:\Users\mateu\Documents\GitHub\Audi-CDC-Emulator\Software\cdc_arduino_atmega328pb_bk3254/cdc_function.cpp:1575

  SendByte(0x99); // total minutes?
     8f0:	89 e9       	ldi	r24, 0x99	; 153
     8f2:	0e 94 60 04 	call	0x8c0	; 0x8c0 <SendByte(unsigned char)>
C:\Users\mateu\Documents\GitHub\Audi-CDC-Emulator\Software\cdc_arduino_atmega328pb_bk3254/cdc_function.cpp:1577

  SendByte(0x59); // total seconds?
     8f6:	89 e5       	ldi	r24, 0x59	; 89
     8f8:	0e 94 60 04 	call	0x8c0	; 0x8c0 <SendByte(unsigned char)>
C:\Users\mateu\Documents\GitHub\Audi-CDC-Emulator\Software\cdc_arduino_atmega328pb_bk3254/cdc_function.cpp:1579

  SendByte(0x49);//0xFF - 0xB7 = 48, 53, 31, 25, and 37 seen from real CDC,
     8fc:	89 e4       	ldi	r24, 0x49	; 73
     8fe:	0c 94 60 04 	jmp	0x8c0	; 0x8c0 <SendByte(unsigned char)>

00000902 <SendDisplayBytes()>:
_ZL16SendDisplayBytesv():
C:\Users\mateu\Documents\GitHub\Audi-CDC-Emulator\Software\cdc_arduino_atmega328pb_bk3254/cdc_function.cpp:1492

static void SendDisplayBytes(void)

{

  SendByte(disc); // disc display value
     902:	80 91 07 01 	lds	r24, 0x0107	; 0x800107 <disc>
     906:	0e 94 60 04 	call	0x8c0	; 0x8c0 <SendByte(unsigned char)>
SendDisplayBytesNoCD():
C:\Users\mateu\Documents\GitHub\Audi-CDC-Emulator\Software\cdc_arduino_atmega328pb_bk3254/cdc_function.cpp:1517

  uint8_t send_byte_u8 = 0;



  SendByte(track);
     90a:	80 91 06 01 	lds	r24, 0x0106	; 0x800106 <track>
     90e:	0e 94 60 04 	call	0x8c0	; 0x8c0 <SendByte(unsigned char)>
C:\Users\mateu\Documents\GitHub\Audi-CDC-Emulator\Software\cdc_arduino_atmega328pb_bk3254/cdc_function.cpp:1519

  SendByte(minute);
     912:	80 91 3d 02 	lds	r24, 0x023D	; 0x80023d <minute>
     916:	0e 94 60 04 	call	0x8c0	; 0x8c0 <SendByte(unsigned char)>
C:\Users\mateu\Documents\GitHub\Audi-CDC-Emulator\Software\cdc_arduino_atmega328pb_bk3254/cdc_function.cpp:1521

  SendByte(second);
     91a:	80 91 3c 02 	lds	r24, 0x023C	; 0x80023c <second>
     91e:	0e 94 60 04 	call	0x8c0	; 0x8c0 <SendByte(unsigned char)>
C:\Users\mateu\Documents\GitHub\Audi-CDC-Emulator\Software\cdc_arduino_atmega328pb_bk3254/cdc_function.cpp:1535

  // 00 - scan off, mix off



  if (mix == TRUE) // mode (scan/mix)
     922:	80 91 35 02 	lds	r24, 0x0235	; 0x800235 <mix>
     926:	81 30       	cpi	r24, 0x01	; 1
     928:	41 f4       	brne	.+16     	; 0x93a <SendDisplayBytes()+0x38>
C:\Users\mateu\Documents\GitHub\Audi-CDC-Emulator\Software\cdc_arduino_atmega328pb_bk3254/cdc_function.cpp:1539

  {

    send_byte_u8 |= 0x20; // turn on mix light
     92a:	80 e2       	ldi	r24, 0x20	; 32
C:\Users\mateu\Documents\GitHub\Audi-CDC-Emulator\Software\cdc_arduino_atmega328pb_bk3254/cdc_function.cpp:1543

  }

  if (scan == TRUE)
     92c:	90 91 34 02 	lds	r25, 0x0234	; 0x800234 <scan>
     930:	91 30       	cpi	r25, 0x01	; 1
     932:	09 f4       	brne	.+2      	; 0x936 <SendDisplayBytes()+0x34>
C:\Users\mateu\Documents\GitHub\Audi-CDC-Emulator\Software\cdc_arduino_atmega328pb_bk3254/cdc_function.cpp:1547

  {

    send_byte_u8 |= 0x10; // turn on scan display //this probably cose mute for few microsec.
     934:	80 61       	ori	r24, 0x10	; 16
C:\Users\mateu\Documents\GitHub\Audi-CDC-Emulator\Software\cdc_arduino_atmega328pb_bk3254/cdc_function.cpp:1551

  }

  SendByte(send_byte_u8);
     936:	0c 94 60 04 	jmp	0x8c0	; 0x8c0 <SendByte(unsigned char)>
C:\Users\mateu\Documents\GitHub\Audi-CDC-Emulator\Software\cdc_arduino_atmega328pb_bk3254/cdc_function.cpp:1513

static void SendDisplayBytesNoCD(void)

{

  uint8_t send_byte_u8 = 0;
     93a:	80 e0       	ldi	r24, 0x00	; 0
     93c:	f7 cf       	rjmp	.-18     	; 0x92c <SendDisplayBytes()+0x2a>

0000093e <SendFrameByte(unsigned char)>:
_ZL13SendFrameByteh():
C:\Users\mateu\Documents\GitHub\Audi-CDC-Emulator\Software\cdc_arduino_atmega328pb_bk3254/cdc_function.cpp:1603

static void SendFrameByte(uint8_t byte_u8)

{

  if (ACKcount == 0)
     93e:	90 91 27 02 	lds	r25, 0x0227	; 0x800227 <ACKcount>
     942:	91 11       	cpse	r25, r1
     944:	02 c0       	rjmp	.+4      	; 0x94a <SendFrameByte(unsigned char)+0xc>
C:\Users\mateu\Documents\GitHub\Audi-CDC-Emulator\Software\cdc_arduino_atmega328pb_bk3254/cdc_function.cpp:1619

    byte_u8 |= 0x20; // flag acknowledgement

    ACKcount++;

    SendByte(byte_u8);
     946:	0c 94 60 04 	jmp	0x8c0	; 0x8c0 <SendByte(unsigned char)>
C:\Users\mateu\Documents\GitHub\Audi-CDC-Emulator\Software\cdc_arduino_atmega328pb_bk3254/cdc_function.cpp:1617

  {

    byte_u8 |= 0x20; // flag acknowledgement

    ACKcount++;
     94a:	9f 5f       	subi	r25, 0xFF	; 255
     94c:	90 93 27 02 	sts	0x0227, r25	; 0x800227 <ACKcount>
C:\Users\mateu\Documents\GitHub\Audi-CDC-Emulator\Software\cdc_arduino_atmega328pb_bk3254/cdc_function.cpp:1619

    SendByte(byte_u8);
     950:	80 62       	ori	r24, 0x20	; 32
     952:	f9 cf       	rjmp	.-14     	; 0x946 <SendFrameByte(unsigned char)+0x8>

00000954 <SendStateInitPlayEnd()>:
_ZL20SendStateInitPlayEndv():
C:\Users\mateu\Documents\GitHub\Audi-CDC-Emulator\Software\cdc_arduino_atmega328pb_bk3254/cdc_function.cpp:1843

static void SendStateInitPlayEnd(void)

{

  SendFrameByte(0xC3);//FF - 0x3C
     954:	83 ec       	ldi	r24, 0xC3	; 195
     956:	0e 94 9f 04 	call	0x93e	; 0x93e <SendFrameByte(unsigned char)>
C:\Users\mateu\Documents\GitHub\Audi-CDC-Emulator\Software\cdc_arduino_atmega328pb_bk3254/cdc_function.cpp:1845

  BIDIcount++;
     95a:	80 91 28 02 	lds	r24, 0x0228	; 0x800228 <BIDIcount>
     95e:	8f 5f       	subi	r24, 0xFF	; 255
     960:	80 93 28 02 	sts	0x0228, r24	; 0x800228 <BIDIcount>
C:\Users\mateu\Documents\GitHub\Audi-CDC-Emulator\Software\cdc_arduino_atmega328pb_bk3254/cdc_function.cpp:1847

  if (BIDIcount == 0)
     964:	81 11       	cpse	r24, r1
     966:	09 c0       	rjmp	.+18     	; 0x97a <SendStateInitPlayEnd()+0x26>
SetStatePlayLeadIn():
C:\Users\mateu\Documents\GitHub\Audi-CDC-Emulator\Software\cdc_arduino_atmega328pb_bk3254/cdc_function.cpp:1414

static void SetStatePlayLeadIn(void)

{

  playing = TRUE;
     968:	81 e0       	ldi	r24, 0x01	; 1
     96a:	80 93 33 02 	sts	0x0233, r24	; 0x800233 <playing>
C:\Users\mateu\Documents\GitHub\Audi-CDC-Emulator\Software\cdc_arduino_atmega328pb_bk3254/cdc_function.cpp:1416

  BIDIstate = StatePlayLeadIn;
     96e:	85 e0       	ldi	r24, 0x05	; 5
     970:	80 93 29 02 	sts	0x0229, r24	; 0x800229 <BIDIstate>
C:\Users\mateu\Documents\GitHub\Audi-CDC-Emulator\Software\cdc_arduino_atmega328pb_bk3254/cdc_function.cpp:1418

  BIDIcount = -10;
     974:	86 ef       	ldi	r24, 0xF6	; 246
     976:	80 93 28 02 	sts	0x0228, r24	; 0x800228 <BIDIcount>
_ZL20SendStateInitPlayEndv():
C:\Users\mateu\Documents\GitHub\Audi-CDC-Emulator\Software\cdc_arduino_atmega328pb_bk3254/cdc_function.cpp:1855

    SetStatePlayLeadIn();

  }

}
     97a:	08 95       	ret

0000097c <SendStateIdle()>:
_ZL13SendStateIdlev():
C:\Users\mateu\Documents\GitHub\Audi-CDC-Emulator\Software\cdc_arduino_atmega328pb_bk3254/cdc_function.cpp:1776

static void SendStateIdle(void)

{

  secondcount = SECONDWAIT; // stop display from ticking time
     97c:	8c ee       	ldi	r24, 0xEC	; 236
     97e:	80 93 24 02 	sts	0x0224, r24	; 0x800224 <secondcount>
C:\Users\mateu\Documents\GitHub\Audi-CDC-Emulator\Software\cdc_arduino_atmega328pb_bk3254/cdc_function.cpp:1778

  SendFrameByte(0x8B);//FF - 0x74
     982:	8b e8       	ldi	r24, 0x8B	; 139
     984:	0e 94 9f 04 	call	0x93e	; 0x93e <SendFrameByte(unsigned char)>
C:\Users\mateu\Documents\GitHub\Audi-CDC-Emulator\Software\cdc_arduino_atmega328pb_bk3254/cdc_function.cpp:1780

  SendDisplayBytes();
     988:	0e 94 81 04 	call	0x902	; 0x902 <SendDisplayBytes()>
C:\Users\mateu\Documents\GitHub\Audi-CDC-Emulator\Software\cdc_arduino_atmega328pb_bk3254/cdc_function.cpp:1782

  SendByte(0x70);//FF - 0x8F, mutes audio on Monsoon head units
     98c:	80 e7       	ldi	r24, 0x70	; 112
     98e:	0e 94 60 04 	call	0x8c0	; 0x8c0 <SendByte(unsigned char)>
C:\Users\mateu\Documents\GitHub\Audi-CDC-Emulator\Software\cdc_arduino_atmega328pb_bk3254/cdc_function.cpp:1784

  SendFrameByte(0x83);//FF - 0x7C
     992:	83 e8       	ldi	r24, 0x83	; 131
     994:	0c 94 9f 04 	jmp	0x93e	; 0x93e <SendFrameByte(unsigned char)>

00000998 <SendStateInitPlayAnnounceCD()>:
_ZL27SendStateInitPlayAnnounceCDv():
C:\Users\mateu\Documents\GitHub\Audi-CDC-Emulator\Software\cdc_arduino_atmega328pb_bk3254/cdc_function.cpp:1883

  // 0x86..0x80: Slot Empty (made up)

  // 0xD6..0xD0: AUDIO CD Loaded. (seen on changer)

  SendByte(discload);
     998:	80 91 26 02 	lds	r24, 0x0226	; 0x800226 <discload>
     99c:	0e 94 60 04 	call	0x8c0	; 0x8c0 <SendByte(unsigned char)>
C:\Users\mateu\Documents\GitHub\Audi-CDC-Emulator\Software\cdc_arduino_atmega328pb_bk3254/cdc_function.cpp:1885

  if (discload == 0xD6)
     9a0:	80 91 26 02 	lds	r24, 0x0226	; 0x800226 <discload>
     9a4:	86 3d       	cpi	r24, 0xD6	; 214
     9a6:	51 f4       	brne	.+20     	; 0x9bc <SendStateInitPlayAnnounceCD()+0x24>
C:\Users\mateu\Documents\GitHub\Audi-CDC-Emulator\Software\cdc_arduino_atmega328pb_bk3254/cdc_function.cpp:1889

  {

    discload = 0xD1;
     9a8:	81 ed       	ldi	r24, 0xD1	; 209
C:\Users\mateu\Documents\GitHub\Audi-CDC-Emulator\Software\cdc_arduino_atmega328pb_bk3254/cdc_function.cpp:1897

  else

  {

    discload++;
     9aa:	80 93 26 02 	sts	0x0226, r24	; 0x800226 <discload>
C:\Users\mateu\Documents\GitHub\Audi-CDC-Emulator\Software\cdc_arduino_atmega328pb_bk3254/cdc_function.cpp:1901

  }

  SendDisplayBytesInitCD();
     9ae:	0e 94 75 04 	call	0x8ea	; 0x8ea <SendDisplayBytesInitCD()>
C:\Users\mateu\Documents\GitHub\Audi-CDC-Emulator\Software\cdc_arduino_atmega328pb_bk3254/cdc_function.cpp:1903

  SendByte(0x00);//0xFF - 0xFF
     9b2:	80 e0       	ldi	r24, 0x00	; 0
     9b4:	0e 94 60 04 	call	0x8c0	; 0x8c0 <SendByte(unsigned char)>
C:\Users\mateu\Documents\GitHub\Audi-CDC-Emulator\Software\cdc_arduino_atmega328pb_bk3254/cdc_function.cpp:1905

  SendStateInitPlayEnd();
     9b8:	0c 94 aa 04 	jmp	0x954	; 0x954 <SendStateInitPlayEnd()>
C:\Users\mateu\Documents\GitHub\Audi-CDC-Emulator\Software\cdc_arduino_atmega328pb_bk3254/cdc_function.cpp:1897

  else

  {

    discload++;
     9bc:	8f 5f       	subi	r24, 0xFF	; 255
     9be:	f5 cf       	rjmp	.-22     	; 0x9aa <SendStateInitPlayAnnounceCD()+0x12>

000009c0 <SendStatePlayLeadInEnd()>:
_ZL22SendStatePlayLeadInEndv():
C:\Users\mateu\Documents\GitHub\Audi-CDC-Emulator\Software\cdc_arduino_atmega328pb_bk3254/cdc_function.cpp:1813

static void SendStatePlayLeadInEnd(void)

{

  SendFrameByte(0xC3);//FF - 0x3C
     9c0:	83 ec       	ldi	r24, 0xC3	; 195
     9c2:	0e 94 9f 04 	call	0x93e	; 0x93e <SendFrameByte(unsigned char)>
C:\Users\mateu\Documents\GitHub\Audi-CDC-Emulator\Software\cdc_arduino_atmega328pb_bk3254/cdc_function.cpp:1815

  BIDIcount++;
     9c6:	80 91 28 02 	lds	r24, 0x0228	; 0x800228 <BIDIcount>
     9ca:	8f 5f       	subi	r24, 0xFF	; 255
     9cc:	80 93 28 02 	sts	0x0228, r24	; 0x800228 <BIDIcount>
C:\Users\mateu\Documents\GitHub\Audi-CDC-Emulator\Software\cdc_arduino_atmega328pb_bk3254/cdc_function.cpp:1817

  if (BIDIcount == 0)
     9d0:	81 11       	cpse	r24, r1
     9d2:	06 c0       	rjmp	.+12     	; 0x9e0 <SendStatePlayLeadInEnd()+0x20>
SetStatePlay():
C:\Users\mateu\Documents\GitHub\Audi-CDC-Emulator\Software\cdc_arduino_atmega328pb_bk3254/cdc_function.cpp:1358

static void SetStatePlay(void)

{

  playing = TRUE;
     9d4:	81 e0       	ldi	r24, 0x01	; 1
     9d6:	80 93 33 02 	sts	0x0233, r24	; 0x800233 <playing>
C:\Users\mateu\Documents\GitHub\Audi-CDC-Emulator\Software\cdc_arduino_atmega328pb_bk3254/cdc_function.cpp:1360

  BIDIstate = StatePlay;
     9da:	89 e0       	ldi	r24, 0x09	; 9
     9dc:	80 93 29 02 	sts	0x0229, r24	; 0x800229 <BIDIstate>
_ZL22SendStatePlayLeadInEndv():
C:\Users\mateu\Documents\GitHub\Audi-CDC-Emulator\Software\cdc_arduino_atmega328pb_bk3254/cdc_function.cpp:1825

    SetStatePlay();

  }

}
     9e0:	08 95       	ret

000009e2 <SendStatePlayLeadInAnnounceCD()>:
_ZL29SendStatePlayLeadInAnnounceCDv():
C:\Users\mateu\Documents\GitHub\Audi-CDC-Emulator\Software\cdc_arduino_atmega328pb_bk3254/cdc_function.cpp:1925

static void SendStatePlayLeadInAnnounceCD(void)

{

  SendByte((disc & 0x0F) | 0xD0);
     9e2:	80 91 07 01 	lds	r24, 0x0107	; 0x800107 <disc>
     9e6:	8f 70       	andi	r24, 0x0F	; 15
     9e8:	80 6d       	ori	r24, 0xD0	; 208
     9ea:	0e 94 60 04 	call	0x8c0	; 0x8c0 <SendByte(unsigned char)>
C:\Users\mateu\Documents\GitHub\Audi-CDC-Emulator\Software\cdc_arduino_atmega328pb_bk3254/cdc_function.cpp:1927

  SendDisplayBytesInitCD();
     9ee:	0e 94 75 04 	call	0x8ea	; 0x8ea <SendDisplayBytesInitCD()>
C:\Users\mateu\Documents\GitHub\Audi-CDC-Emulator\Software\cdc_arduino_atmega328pb_bk3254/cdc_function.cpp:1929

  SendByte(0x00);//0xFF - 0xFF
     9f2:	80 e0       	ldi	r24, 0x00	; 0
     9f4:	0e 94 60 04 	call	0x8c0	; 0x8c0 <SendByte(unsigned char)>
C:\Users\mateu\Documents\GitHub\Audi-CDC-Emulator\Software\cdc_arduino_atmega328pb_bk3254/cdc_function.cpp:1931

  SendStatePlayLeadInEnd();
     9f8:	0c 94 e0 04 	jmp	0x9c0	; 0x9c0 <SendStatePlayLeadInEnd()>

000009fc <SendPacket()>:
_ZL10SendPacketv():
C:\Users\mateu\Documents\GitHub\Audi-CDC-Emulator\Software\cdc_arduino_atmega328pb_bk3254/cdc_function.cpp:1951

static void SendPacket(void)

{

  switch (BIDIstate) {
     9fc:	e0 91 29 02 	lds	r30, 0x0229	; 0x800229 <BIDIstate>
     a00:	eb 30       	cpi	r30, 0x0B	; 11
     a02:	08 f0       	brcs	.+2      	; 0xa06 <SendPacket()+0xa>
     a04:	73 c0       	rjmp	.+230    	; 0xaec <SendPacket()+0xf0>
     a06:	f0 e0       	ldi	r31, 0x00	; 0
     a08:	e8 5f       	subi	r30, 0xF8	; 248
     a0a:	fa 4f       	sbci	r31, 0xFA	; 250
     a0c:	0c 94 a0 0f 	jmp	0x1f40	; 0x1f40 <__tablejump2__>
     a10:	2a 05       	cpc	r18, r10
     a12:	21 05       	cpc	r18, r1
     a14:	2c 05       	cpc	r18, r12
     a16:	3c 05       	cpc	r19, r12
     a18:	35 05       	cpc	r19, r5
     a1a:	3e 05       	cpc	r19, r14
     a1c:	4e 05       	cpc	r20, r14
     a1e:	47 05       	cpc	r20, r7
     a20:	50 05       	cpc	r21, r0
     a22:	6c 05       	cpc	r22, r12
     a24:	13 05       	cpc	r17, r3
SendStateTP():
C:\Users\mateu\Documents\GitHub\Audi-CDC-Emulator\Software\cdc_arduino_atmega328pb_bk3254/cdc_function.cpp:1790

}

static void SendStateTP(void)
{ //B4 BE EF FE DB FF DF BC
  secondcount = SECONDWAIT; // stop display from ticking time
     a26:	8c ee       	ldi	r24, 0xEC	; 236
     a28:	80 93 24 02 	sts	0x0224, r24	; 0x800224 <secondcount>
C:\Users\mateu\Documents\GitHub\Audi-CDC-Emulator\Software\cdc_arduino_atmega328pb_bk3254/cdc_function.cpp:1791
  SendFrameByte(0x4B);//FF - 0x4b
     a2c:	8b e4       	ldi	r24, 0x4B	; 75
     a2e:	0e 94 9f 04 	call	0x93e	; 0x93e <SendFrameByte(unsigned char)>
C:\Users\mateu\Documents\GitHub\Audi-CDC-Emulator\Software\cdc_arduino_atmega328pb_bk3254/cdc_function.cpp:1792
  SendDisplayBytes();
     a32:	0e 94 81 04 	call	0x902	; 0x902 <SendDisplayBytes()>
C:\Users\mateu\Documents\GitHub\Audi-CDC-Emulator\Software\cdc_arduino_atmega328pb_bk3254/cdc_function.cpp:1793
  SendByte(0x20);
     a36:	80 e2       	ldi	r24, 0x20	; 32
     a38:	0e 94 60 04 	call	0x8c0	; 0x8c0 <SendByte(unsigned char)>
C:\Users\mateu\Documents\GitHub\Audi-CDC-Emulator\Software\cdc_arduino_atmega328pb_bk3254/cdc_function.cpp:1794
  SendFrameByte(0x43);//FF - 0x7C
     a3c:	83 e4       	ldi	r24, 0x43	; 67
_ZL10SendPacketv():
C:\Users\mateu\Documents\GitHub\Audi-CDC-Emulator\Software\cdc_arduino_atmega328pb_bk3254/cdc_function.cpp:2055

    case StatePlay:
      SendFrameByte(0xCB);//0xFF - 0x34
      SendDisplayBytes();
      SendByte(0x30);//0xFF - 0xCF
      SendFrameByte(0xC3);//FF - 0x3C
     a3e:	0c 94 9f 04 	jmp	0x93e	; 0x93e <SendFrameByte(unsigned char)>
C:\Users\mateu\Documents\GitHub\Audi-CDC-Emulator\Software\cdc_arduino_atmega328pb_bk3254/cdc_function.cpp:1961
    case StateIdle:
      SendStateIdle();
      break;

    case StateIdleThenPlay:
      BIDIcount++;
     a42:	80 91 28 02 	lds	r24, 0x0228	; 0x800228 <BIDIcount>
     a46:	8f 5f       	subi	r24, 0xFF	; 255
     a48:	80 93 28 02 	sts	0x0228, r24	; 0x800228 <BIDIcount>
C:\Users\mateu\Documents\GitHub\Audi-CDC-Emulator\Software\cdc_arduino_atmega328pb_bk3254/cdc_function.cpp:1963

      if (BIDIcount == 0)
     a4c:	81 11       	cpse	r24, r1
     a4e:	02 c0       	rjmp	.+4      	; 0xa54 <SendPacket()+0x58>
C:\Users\mateu\Documents\GitHub\Audi-CDC-Emulator\Software\cdc_arduino_atmega328pb_bk3254/cdc_function.cpp:1965
      {
        SetStateInitPlay();
     a50:	0e 94 f7 03 	call	0x7ee	; 0x7ee <SetStateInitPlay()>
C:\Users\mateu\Documents\GitHub\Audi-CDC-Emulator\Software\cdc_arduino_atmega328pb_bk3254/cdc_function.cpp:1966
        SendStateIdle();
     a54:	0c 94 be 04 	jmp	0x97c	; 0x97c <SendStateIdle()>
C:\Users\mateu\Documents\GitHub\Audi-CDC-Emulator\Software\cdc_arduino_atmega328pb_bk3254/cdc_function.cpp:1988
    // 34 BE FE FF FF FF EF 3C
    // 34 69 00 FF FF FF FF 3C
    // 34 BE FE FF FF FF EF 3C

    case StateInitPlay:
      secondcount = SECONDWAIT; // stop display from ticking time
     a58:	8c ee       	ldi	r24, 0xEC	; 236
     a5a:	80 93 24 02 	sts	0x0224, r24	; 0x800224 <secondcount>
C:\Users\mateu\Documents\GitHub\Audi-CDC-Emulator\Software\cdc_arduino_atmega328pb_bk3254/cdc_function.cpp:1989
      SendFrameByte(0xCB);//0xFF - 0x34
     a5e:	8b ec       	ldi	r24, 0xCB	; 203
     a60:	0e 94 9f 04 	call	0x93e	; 0x93e <SendFrameByte(unsigned char)>
C:\Users\mateu\Documents\GitHub\Audi-CDC-Emulator\Software\cdc_arduino_atmega328pb_bk3254/cdc_function.cpp:1991

      if ((BIDIcount & 0x01) == 0)
     a64:	80 91 28 02 	lds	r24, 0x0228	; 0x800228 <BIDIcount>
     a68:	80 ff       	sbrs	r24, 0
C:\Users\mateu\Documents\GitHub\Audi-CDC-Emulator\Software\cdc_arduino_atmega328pb_bk3254/cdc_function.cpp:2004
    case StateInitPlayEnd:
      SendStateInitPlayEnd();
      break;

    case StateInitPlayAnnounceCD:
      SendStateInitPlayAnnounceCD();
     a6a:	0c 94 cc 04 	jmp	0x998	; 0x998 <SendStateInitPlayAnnounceCD()>
C:\Users\mateu\Documents\GitHub\Audi-CDC-Emulator\Software\cdc_arduino_atmega328pb_bk3254/cdc_function.cpp:1996
      if ((BIDIcount & 0x01) == 0)
      {
        SendStateInitPlayAnnounceCD();
        break;
      }
      SendDisplayBytes();
     a6e:	0e 94 81 04 	call	0x902	; 0x902 <SendDisplayBytes()>
C:\Users\mateu\Documents\GitHub\Audi-CDC-Emulator\Software\cdc_arduino_atmega328pb_bk3254/cdc_function.cpp:1997
      SendByte(0x10);//0xFF - 0xEF
     a72:	80 e1       	ldi	r24, 0x10	; 16
     a74:	0e 94 60 04 	call	0x8c0	; 0x8c0 <SendByte(unsigned char)>
C:\Users\mateu\Documents\GitHub\Audi-CDC-Emulator\Software\cdc_arduino_atmega328pb_bk3254/cdc_function.cpp:2000

    case StateInitPlayEnd:
      SendStateInitPlayEnd();
     a78:	0c 94 aa 04 	jmp	0x954	; 0x954 <SendStateInitPlayEnd()>
C:\Users\mateu\Documents\GitHub\Audi-CDC-Emulator\Software\cdc_arduino_atmega328pb_bk3254/cdc_function.cpp:2017
      // 34 BE FE FF FF FF AE 3C
      // 34 2E ED DE AF B7 FF 3C
      // 34 BE FE FF FF FF AE 3C
      // 34 2E ED DE AF B7 FF 3C
      // 34 BE FE FF FF FF AE 3C
      secondcount = SECONDWAIT; // stop display from ticking time
     a7c:	8c ee       	ldi	r24, 0xEC	; 236
     a7e:	80 93 24 02 	sts	0x0224, r24	; 0x800224 <secondcount>
C:\Users\mateu\Documents\GitHub\Audi-CDC-Emulator\Software\cdc_arduino_atmega328pb_bk3254/cdc_function.cpp:2018
      SendFrameByte(0xCB);//0xFF - 0x34
     a82:	8b ec       	ldi	r24, 0xCB	; 203
     a84:	0e 94 9f 04 	call	0x93e	; 0x93e <SendFrameByte(unsigned char)>
C:\Users\mateu\Documents\GitHub\Audi-CDC-Emulator\Software\cdc_arduino_atmega328pb_bk3254/cdc_function.cpp:2020

      if ((BIDIcount & 0x01) == 0)
     a88:	80 91 28 02 	lds	r24, 0x0228	; 0x800228 <BIDIcount>
     a8c:	80 ff       	sbrs	r24, 0
C:\Users\mateu\Documents\GitHub\Audi-CDC-Emulator\Software\cdc_arduino_atmega328pb_bk3254/cdc_function.cpp:2034
    case StatePlayLeadInEnd:
      SendStatePlayLeadInEnd();
      break;

    case StatePlayLeadInAnnounceCD:
      SendStatePlayLeadInAnnounceCD();
     a8e:	0c 94 f1 04 	jmp	0x9e2	; 0x9e2 <SendStatePlayLeadInAnnounceCD()>
C:\Users\mateu\Documents\GitHub\Audi-CDC-Emulator\Software\cdc_arduino_atmega328pb_bk3254/cdc_function.cpp:2026
      {
        SendStatePlayLeadInAnnounceCD();
        break;
      }

      SendDisplayBytes();
     a92:	0e 94 81 04 	call	0x902	; 0x902 <SendDisplayBytes()>
C:\Users\mateu\Documents\GitHub\Audi-CDC-Emulator\Software\cdc_arduino_atmega328pb_bk3254/cdc_function.cpp:2027
      SendByte(0x51);//0xFF - 0xAE
     a96:	81 e5       	ldi	r24, 0x51	; 81
     a98:	0e 94 60 04 	call	0x8c0	; 0x8c0 <SendByte(unsigned char)>
C:\Users\mateu\Documents\GitHub\Audi-CDC-Emulator\Software\cdc_arduino_atmega328pb_bk3254/cdc_function.cpp:2030

    case StatePlayLeadInEnd:
      SendStatePlayLeadInEnd();
     a9c:	0c 94 e0 04 	jmp	0x9c0	; 0x9c0 <SendStatePlayLeadInEnd()>
C:\Users\mateu\Documents\GitHub\Audi-CDC-Emulator\Software\cdc_arduino_atmega328pb_bk3254/cdc_function.cpp:2038
    case StatePlayLeadInAnnounceCD:
      SendStatePlayLeadInAnnounceCD();
      break;

    case StateTrackLeadIn:
      secondcount = SECONDWAIT; // stop display from ticking time
     aa0:	8c ee       	ldi	r24, 0xEC	; 236
     aa2:	80 93 24 02 	sts	0x0224, r24	; 0x800224 <secondcount>
C:\Users\mateu\Documents\GitHub\Audi-CDC-Emulator\Software\cdc_arduino_atmega328pb_bk3254/cdc_function.cpp:2039
      SendFrameByte(0xCB);//0xFF - 0x34
     aa6:	8b ec       	ldi	r24, 0xCB	; 203
     aa8:	0e 94 9f 04 	call	0x93e	; 0x93e <SendFrameByte(unsigned char)>
C:\Users\mateu\Documents\GitHub\Audi-CDC-Emulator\Software\cdc_arduino_atmega328pb_bk3254/cdc_function.cpp:2040
      SendDisplayBytes();
     aac:	0e 94 81 04 	call	0x902	; 0x902 <SendDisplayBytes()>
C:\Users\mateu\Documents\GitHub\Audi-CDC-Emulator\Software\cdc_arduino_atmega328pb_bk3254/cdc_function.cpp:2041
      SendByte(0x51);//0xFF - 0xAE
     ab0:	81 e5       	ldi	r24, 0x51	; 81
     ab2:	0e 94 60 04 	call	0x8c0	; 0x8c0 <SendByte(unsigned char)>
C:\Users\mateu\Documents\GitHub\Audi-CDC-Emulator\Software\cdc_arduino_atmega328pb_bk3254/cdc_function.cpp:2042
      SendFrameByte(0xC3);//0xFF - 0x3C
     ab6:	83 ec       	ldi	r24, 0xC3	; 195
     ab8:	0e 94 9f 04 	call	0x93e	; 0x93e <SendFrameByte(unsigned char)>
C:\Users\mateu\Documents\GitHub\Audi-CDC-Emulator\Software\cdc_arduino_atmega328pb_bk3254/cdc_function.cpp:2043
      BIDIcount++;
     abc:	80 91 28 02 	lds	r24, 0x0228	; 0x800228 <BIDIcount>
     ac0:	8f 5f       	subi	r24, 0xFF	; 255
     ac2:	80 93 28 02 	sts	0x0228, r24	; 0x800228 <BIDIcount>
C:\Users\mateu\Documents\GitHub\Audi-CDC-Emulator\Software\cdc_arduino_atmega328pb_bk3254/cdc_function.cpp:2044
      if (BIDIcount == 0)
     ac6:	88 23       	and	r24, r24
     ac8:	89 f0       	breq	.+34     	; 0xaec <SendPacket()+0xf0>
SetStatePlay():
C:\Users\mateu\Documents\GitHub\Audi-CDC-Emulator\Software\cdc_arduino_atmega328pb_bk3254/cdc_function.cpp:1358

static void SetStatePlay(void)

{

  playing = TRUE;
     aca:	81 e0       	ldi	r24, 0x01	; 1
     acc:	80 93 33 02 	sts	0x0233, r24	; 0x800233 <playing>
C:\Users\mateu\Documents\GitHub\Audi-CDC-Emulator\Software\cdc_arduino_atmega328pb_bk3254/cdc_function.cpp:1360

  BIDIstate = StatePlay;
     ad0:	89 e0       	ldi	r24, 0x09	; 9
     ad2:	80 93 29 02 	sts	0x0229, r24	; 0x800229 <BIDIstate>
     ad6:	08 95       	ret
_ZL10SendPacketv():
C:\Users\mateu\Documents\GitHub\Audi-CDC-Emulator\Software\cdc_arduino_atmega328pb_bk3254/cdc_function.cpp:2052
      }
      SetStatePlay();
      break;

    case StatePlay:
      SendFrameByte(0xCB);//0xFF - 0x34
     ad8:	8b ec       	ldi	r24, 0xCB	; 203
     ada:	0e 94 9f 04 	call	0x93e	; 0x93e <SendFrameByte(unsigned char)>
C:\Users\mateu\Documents\GitHub\Audi-CDC-Emulator\Software\cdc_arduino_atmega328pb_bk3254/cdc_function.cpp:2053
      SendDisplayBytes();
     ade:	0e 94 81 04 	call	0x902	; 0x902 <SendDisplayBytes()>
C:\Users\mateu\Documents\GitHub\Audi-CDC-Emulator\Software\cdc_arduino_atmega328pb_bk3254/cdc_function.cpp:2054
      SendByte(0x30);//0xFF - 0xCF
     ae2:	80 e3       	ldi	r24, 0x30	; 48
     ae4:	0e 94 60 04 	call	0x8c0	; 0x8c0 <SendByte(unsigned char)>
C:\Users\mateu\Documents\GitHub\Audi-CDC-Emulator\Software\cdc_arduino_atmega328pb_bk3254/cdc_function.cpp:2055
      SendFrameByte(0xC3);//FF - 0x3C
     ae8:	83 ec       	ldi	r24, 0xC3	; 195
     aea:	a9 cf       	rjmp	.-174    	; 0xa3e <SendPacket()+0x42>
C:\Users\mateu\Documents\GitHub\Audi-CDC-Emulator\Software\cdc_arduino_atmega328pb_bk3254/cdc_function.cpp:2060
      break;
    default:
      break;
  }
}
     aec:	08 95       	ret

00000aee <Init_VWCDC()>:
_Z10Init_VWCDCv():
C:\Users\mateu\Documents\GitHub\Audi-CDC-Emulator\Software\cdc_arduino_atmega328pb_bk3254/cdc_function.cpp:201
  \return     void
*/
//-----------------------------------------------------------------------------

void Init_VWCDC(void)
{
     aee:	cf 93       	push	r28
     af0:	df 93       	push	r29
C:\Users\mateu\Documents\GitHub\Audi-CDC-Emulator\Software\cdc_arduino_atmega328pb_bk3254/cdc_function.cpp:202
  Serial.println("Initialization");
     af2:	6b e5       	ldi	r22, 0x5B	; 91
     af4:	71 e0       	ldi	r23, 0x01	; 1
     af6:	83 e8       	ldi	r24, 0x83	; 131
     af8:	92 e0       	ldi	r25, 0x02	; 2
     afa:	0e 94 3f 0d 	call	0x1a7e	; 0x1a7e <Print::println(char const*)>
C:\Users\mateu\Documents\GitHub\Audi-CDC-Emulator\Software\cdc_arduino_atmega328pb_bk3254/cdc_function.cpp:203
  cli();  
     afe:	f8 94       	cli
C:\Users\mateu\Documents\GitHub\Audi-CDC-Emulator\Software\cdc_arduino_atmega328pb_bk3254/cdc_function.cpp:206
  

  TIMSK0 = 0x00; //on arduino timer0 is used for millis(), we change prescaler, but also need to disable overflow interrupt
     b00:	ce e6       	ldi	r28, 0x6E	; 110
     b02:	d0 e0       	ldi	r29, 0x00	; 0
     b04:	18 82       	st	Y, r1
C:\Users\mateu\Documents\GitHub\Audi-CDC-Emulator\Software\cdc_arduino_atmega328pb_bk3254/cdc_function.cpp:207
  RADIO_CLOCK_DDR |= _BV(RADIO_CLOCK);
     b06:	57 9a       	sbi	0x0a, 7	; 10
C:\Users\mateu\Documents\GitHub\Audi-CDC-Emulator\Software\cdc_arduino_atmega328pb_bk3254/cdc_function.cpp:208
  RADIO_DATA_DDR  |= _BV(RADIO_DATA);
     b08:	21 9a       	sbi	0x04, 1	; 4
C:\Users\mateu\Documents\GitHub\Audi-CDC-Emulator\Software\cdc_arduino_atmega328pb_bk3254/cdc_function.cpp:209
  RADIO_COMMAND_DDR &= ~_BV(RADIO_COMMAND); // input capture as input
     b0a:	20 98       	cbi	0x04, 0	; 4
C:\Users\mateu\Documents\GitHub\Audi-CDC-Emulator\Software\cdc_arduino_atmega328pb_bk3254/cdc_function.cpp:210
  RADIO_COMMAND_PORT |= _BV(RADIO_COMMAND); // enable pull up
     b0c:	28 9a       	sbi	0x05, 0	; 5
C:\Users\mateu\Documents\GitHub\Audi-CDC-Emulator\Software\cdc_arduino_atmega328pb_bk3254/cdc_function.cpp:214

  //Timer1 init
  //Used for timing the incoming commands from headunit
  TCCR1A = 0x00; // Normal port operation, OC1A/OC1B/OC1C disconnected
     b0e:	10 92 80 00 	sts	0x0080, r1	; 0x800080 <__TEXT_REGION_LENGTH__+0x7f8080>
C:\Users\mateu\Documents\GitHub\Audi-CDC-Emulator\Software\cdc_arduino_atmega328pb_bk3254/cdc_function.cpp:215
  TCCR1B = _BV(ICNC1); // noise canceler, int on falling edge
     b12:	e1 e8       	ldi	r30, 0x81	; 129
     b14:	f0 e0       	ldi	r31, 0x00	; 0
     b16:	80 e8       	ldi	r24, 0x80	; 128
     b18:	80 83       	st	Z, r24
C:\Users\mateu\Documents\GitHub\Audi-CDC-Emulator\Software\cdc_arduino_atmega328pb_bk3254/cdc_function.cpp:216
  TCCR1B |= _BV(CS11); // prescaler = 8 -> 1 timer clock tick is 0.5µs long
     b1a:	80 81       	ld	r24, Z
     b1c:	82 60       	ori	r24, 0x02	; 2
     b1e:	80 83       	st	Z, r24
C:\Users\mateu\Documents\GitHub\Audi-CDC-Emulator\Software\cdc_arduino_atmega328pb_bk3254/cdc_function.cpp:217
  TIFR1 |= _BV(ICF1); // clear pending interrupt
     b20:	b5 9a       	sbi	0x16, 5	; 22
C:\Users\mateu\Documents\GitHub\Audi-CDC-Emulator\Software\cdc_arduino_atmega328pb_bk3254/cdc_function.cpp:218
  TIMSK1 |= _BV(ICIE1); // enable input capture interrupt on timer1
     b22:	ef e6       	ldi	r30, 0x6F	; 111
     b24:	f0 e0       	ldi	r31, 0x00	; 0
     b26:	80 81       	ld	r24, Z
     b28:	80 62       	ori	r24, 0x20	; 32
     b2a:	80 83       	st	Z, r24
C:\Users\mateu\Documents\GitHub\Audi-CDC-Emulator\Software\cdc_arduino_atmega328pb_bk3254/cdc_function.cpp:222

  //Timer 2 Init
  //Timer 2 used to time the intervals between package bytes
  OCR2A = 175; // 4µs x 175 = 700µs
     b2c:	8f ea       	ldi	r24, 0xAF	; 175
     b2e:	80 93 b3 00 	sts	0x00B3, r24	; 0x8000b3 <__TEXT_REGION_LENGTH__+0x7f80b3>
C:\Users\mateu\Documents\GitHub\Audi-CDC-Emulator\Software\cdc_arduino_atmega328pb_bk3254/cdc_function.cpp:223
  TCCR2A = _BV(WGM21); // Timer2 in CTC Mode
     b32:	82 e0       	ldi	r24, 0x02	; 2
     b34:	80 93 b0 00 	sts	0x00B0, r24	; 0x8000b0 <__TEXT_REGION_LENGTH__+0x7f80b0>
C:\Users\mateu\Documents\GitHub\Audi-CDC-Emulator\Software\cdc_arduino_atmega328pb_bk3254/cdc_function.cpp:224
  TCCR2B = _BV(CS22); // prescaler = 64 -> 1 timer clock tick is 4us long
     b38:	84 e0       	ldi	r24, 0x04	; 4
     b3a:	80 93 b1 00 	sts	0x00B1, r24	; 0x8000b1 <__TEXT_REGION_LENGTH__+0x7f80b1>
C:\Users\mateu\Documents\GitHub\Audi-CDC-Emulator\Software\cdc_arduino_atmega328pb_bk3254/cdc_function.cpp:225
  TIMSK2 |= _BV(OCIE2A);
     b3e:	e0 e7       	ldi	r30, 0x70	; 112
     b40:	f0 e0       	ldi	r31, 0x00	; 0
     b42:	80 81       	ld	r24, Z
     b44:	82 60       	ori	r24, 0x02	; 2
     b46:	80 83       	st	Z, r24
C:\Users\mateu\Documents\GitHub\Audi-CDC-Emulator\Software\cdc_arduino_atmega328pb_bk3254/cdc_function.cpp:227
  
  capptr = 0; // indirect pointer to capture buffer
     b48:	10 92 2a 02 	sts	0x022A, r1	; 0x80022a <capptr>
C:\Users\mateu\Documents\GitHub\Audi-CDC-Emulator\Software\cdc_arduino_atmega328pb_bk3254/cdc_function.cpp:228
  scanptr = 0;
     b4c:	10 92 3a 02 	sts	0x023A, r1	; 0x80023a <scanptr>
C:\Users\mateu\Documents\GitHub\Audi-CDC-Emulator\Software\cdc_arduino_atmega328pb_bk3254/cdc_function.cpp:229
  capbit = -8;
     b50:	88 ef       	ldi	r24, 0xF8	; 248
     b52:	80 93 2c 02 	sts	0x022C, r24	; 0x80022c <capbit>
C:\Users\mateu\Documents\GitHub\Audi-CDC-Emulator\Software\cdc_arduino_atmega328pb_bk3254/cdc_function.cpp:230
  txinptr = 0; // queue pointers
     b56:	10 92 22 02 	sts	0x0222, r1	; 0x800222 <txinptr>
C:\Users\mateu\Documents\GitHub\Audi-CDC-Emulator\Software\cdc_arduino_atmega328pb_bk3254/cdc_function.cpp:231
  txoutptr = 0;
     b5a:	10 92 21 02 	sts	0x0221, r1	; 0x800221 <txoutptr>
C:\Users\mateu\Documents\GitHub\Audi-CDC-Emulator\Software\cdc_arduino_atmega328pb_bk3254/cdc_function.cpp:233

  capbusy = FALSE; // reset flags
     b5e:	10 92 36 02 	sts	0x0236, r1	; 0x800236 <capbusy>
C:\Users\mateu\Documents\GitHub\Audi-CDC-Emulator\Software\cdc_arduino_atmega328pb_bk3254/cdc_function.cpp:234
  mix = FALSE;
     b62:	10 92 35 02 	sts	0x0235, r1	; 0x800235 <mix>
C:\Users\mateu\Documents\GitHub\Audi-CDC-Emulator\Software\cdc_arduino_atmega328pb_bk3254/cdc_function.cpp:235
  scan = FALSE;
     b66:	10 92 34 02 	sts	0x0234, r1	; 0x800234 <scan>
C:\Users\mateu\Documents\GitHub\Audi-CDC-Emulator\Software\cdc_arduino_atmega328pb_bk3254/cdc_function.cpp:236
  playing = FALSE;
     b6a:	10 92 33 02 	sts	0x0233, r1	; 0x800233 <playing>
C:\Users\mateu\Documents\GitHub\Audi-CDC-Emulator\Software\cdc_arduino_atmega328pb_bk3254/cdc_function.cpp:237
  overflow = FALSE;
     b6e:	10 92 30 02 	sts	0x0230, r1	; 0x800230 <overflow>
C:\Users\mateu\Documents\GitHub\Audi-CDC-Emulator\Software\cdc_arduino_atmega328pb_bk3254/cdc_function.cpp:238
  dataerr = FALSE;
     b72:	10 92 2f 02 	sts	0x022F, r1	; 0x80022f <dataerr>
C:\Users\mateu\Documents\GitHub\Audi-CDC-Emulator\Software\cdc_arduino_atmega328pb_bk3254/cdc_function.cpp:243

#ifdef DUMPMODE
  startbit = FALSE;
#endif
  ACKcount = 0;
     b76:	10 92 27 02 	sts	0x0227, r1	; 0x800227 <ACKcount>
C:\Users\mateu\Documents\GitHub\Audi-CDC-Emulator\Software\cdc_arduino_atmega328pb_bk3254/cdc_function.cpp:247

  // these values can be set depending on the state of mp3
  // it has to be evaluated wether CD number can be grater than 6
  disc = 0x41; // CD 1
     b7a:	81 e4       	ldi	r24, 0x41	; 65
     b7c:	80 93 07 01 	sts	0x0107, r24	; 0x800107 <disc>
C:\Users\mateu\Documents\GitHub\Audi-CDC-Emulator\Software\cdc_arduino_atmega328pb_bk3254/cdc_function.cpp:248
  track = 0x01; // track 1
     b80:	81 e0       	ldi	r24, 0x01	; 1
     b82:	80 93 06 01 	sts	0x0106, r24	; 0x800106 <track>
C:\Users\mateu\Documents\GitHub\Audi-CDC-Emulator\Software\cdc_arduino_atmega328pb_bk3254/cdc_function.cpp:250

  poweridentcount = POWERIDENTWAIT;
     b86:	86 ef       	ldi	r24, 0xF6	; 246
     b88:	80 93 25 02 	sts	0x0225, r24	; 0x800225 <poweridentcount>
C:\Users\mateu\Documents\GitHub\Audi-CDC-Emulator\Software\cdc_arduino_atmega328pb_bk3254/cdc_function.cpp:252

  ResetTime();
     b8c:	0e 94 58 04 	call	0x8b0	; 0x8b0 <ResetTime()>
SetStateIdle():
C:\Users\mateu\Documents\GitHub\Audi-CDC-Emulator\Software\cdc_arduino_atmega328pb_bk3254/cdc_function.cpp:1305

static void SetStateIdle(void)

{

  playing = FALSE;
     b90:	10 92 33 02 	sts	0x0233, r1	; 0x800233 <playing>
C:\Users\mateu\Documents\GitHub\Audi-CDC-Emulator\Software\cdc_arduino_atmega328pb_bk3254/cdc_function.cpp:1307

  BIDIstate = StateIdle;
     b94:	10 92 29 02 	sts	0x0229, r1	; 0x800229 <BIDIstate>
_Z10Init_VWCDCv():
C:\Users\mateu\Documents\GitHub\Audi-CDC-Emulator\Software\cdc_arduino_atmega328pb_bk3254/cdc_function.cpp:255
  poweridentcount = POWERIDENTWAIT;

  ResetTime();
  SetStateIdle(); //start at idle!!! no idle then play!!

  EnqueueString(sIDENTIFY);
     b98:	88 e0       	ldi	r24, 0x08	; 8
     b9a:	91 e0       	ldi	r25, 0x01	; 1
     b9c:	0e 94 04 04 	call	0x808	; 0x808 <EnqueueString(unsigned char const*)>
C:\Users\mateu\Documents\GitHub\Audi-CDC-Emulator\Software\cdc_arduino_atmega328pb_bk3254/cdc_function.cpp:256
  EnqueueString(sVERSION);
     ba0:	8d ef       	ldi	r24, 0xFD	; 253
     ba2:	90 e0       	ldi	r25, 0x00	; 0
     ba4:	0e 94 04 04 	call	0x808	; 0x808 <EnqueueString(unsigned char const*)>
C:\Users\mateu\Documents\GitHub\Audi-CDC-Emulator\Software\cdc_arduino_atmega328pb_bk3254/cdc_function.cpp:257
  EnqueueString(sNEWLINE);
     ba8:	85 e0       	ldi	r24, 0x05	; 5
     baa:	91 e0       	ldi	r25, 0x01	; 1
     bac:	0e 94 04 04 	call	0x808	; 0x808 <EnqueueString(unsigned char const*)>
C:\Users\mateu\Documents\GitHub\Audi-CDC-Emulator\Software\cdc_arduino_atmega328pb_bk3254/cdc_function.cpp:258
  EnqueueString(sRING);
     bb0:	89 e3       	ldi	r24, 0x39	; 57
     bb2:	91 e0       	ldi	r25, 0x01	; 1
     bb4:	0e 94 04 04 	call	0x808	; 0x808 <EnqueueString(unsigned char const*)>
C:\Users\mateu\Documents\GitHub\Audi-CDC-Emulator\Software\cdc_arduino_atmega328pb_bk3254/cdc_function.cpp:270
  //timer0 overflow after 256counts, oveflow interup routine is fired every 1024us (4*256)
  //we need 50 overflows to count to 50ms
#define _TIMER0_OVERFLOW_COUNTS 50

#else
  OCR0A = _10MS; // 10ms Intervall
     bb8:	8c e9       	ldi	r24, 0x9C	; 156
     bba:	87 bd       	out	0x27, r24	; 39
C:\Users\mateu\Documents\GitHub\Audi-CDC-Emulator\Software\cdc_arduino_atmega328pb_bk3254/cdc_function.cpp:271
  TCCR0A = 0x00; // Normal port operation, OC0 disconnected
     bbc:	14 bc       	out	0x24, r1	; 36
C:\Users\mateu\Documents\GitHub\Audi-CDC-Emulator\Software\cdc_arduino_atmega328pb_bk3254/cdc_function.cpp:272
  TCCR0A |= _BV(WGM01); // CTC mode
     bbe:	84 b5       	in	r24, 0x24	; 36
     bc0:	82 60       	ori	r24, 0x02	; 2
     bc2:	84 bd       	out	0x24, r24	; 36
C:\Users\mateu\Documents\GitHub\Audi-CDC-Emulator\Software\cdc_arduino_atmega328pb_bk3254/cdc_function.cpp:273
  TCCR0B |= _BV(CS00) | _BV(CS02); // prescaler = 1024 -> 1 timer clock tick is 64us long
     bc4:	85 b5       	in	r24, 0x25	; 37
     bc6:	85 60       	ori	r24, 0x05	; 5
     bc8:	85 bd       	out	0x25, r24	; 37
C:\Users\mateu\Documents\GitHub\Audi-CDC-Emulator\Software\cdc_arduino_atmega328pb_bk3254/cdc_function.cpp:274
  TIMSK0 |= _BV(OCIE0A); // enable output compare interrupt on timer0
     bca:	88 81       	ld	r24, Y
     bcc:	82 60       	ori	r24, 0x02	; 2
     bce:	88 83       	st	Y, r24
C:\Users\mateu\Documents\GitHub\Audi-CDC-Emulator\Software\cdc_arduino_atmega328pb_bk3254/cdc_function.cpp:276
#endif
  SendPacket(); // force first display update packet
     bd0:	0e 94 fe 04 	call	0x9fc	; 0x9fc <SendPacket()>
C:\Users\mateu\Documents\GitHub\Audi-CDC-Emulator\Software\cdc_arduino_atmega328pb_bk3254/cdc_function.cpp:277
  sei();
     bd4:	78 94       	sei
C:\Users\mateu\Documents\GitHub\Audi-CDC-Emulator\Software\cdc_arduino_atmega328pb_bk3254/cdc_function.cpp:278
  Serial.println("Ready");
     bd6:	6a e6       	ldi	r22, 0x6A	; 106
     bd8:	71 e0       	ldi	r23, 0x01	; 1
     bda:	83 e8       	ldi	r24, 0x83	; 131
     bdc:	92 e0       	ldi	r25, 0x02	; 2
C:\Users\mateu\Documents\GitHub\Audi-CDC-Emulator\Software\cdc_arduino_atmega328pb_bk3254/cdc_function.cpp:280
  //    SREG |= 0x80;   // enable interrupts
}
     bde:	df 91       	pop	r29
     be0:	cf 91       	pop	r28
C:\Users\mateu\Documents\GitHub\Audi-CDC-Emulator\Software\cdc_arduino_atmega328pb_bk3254/cdc_function.cpp:278
  TCCR0B |= _BV(CS00) | _BV(CS02); // prescaler = 1024 -> 1 timer clock tick is 64us long
  TIMSK0 |= _BV(OCIE0A); // enable output compare interrupt on timer0
#endif
  SendPacket(); // force first display update packet
  sei();
  Serial.println("Ready");
     be2:	0c 94 3f 0d 	jmp	0x1a7e	; 0x1a7e <Print::println(char const*)>

00000be6 <__vector_7>:
__vector_7():
C:\Users\mateu\Documents\GitHub\Audi-CDC-Emulator\Software\cdc_arduino_atmega328pb_bk3254/cdc_function.cpp:296
  \return     none
*/
//-----------------------------------------------------------------------------

ISR(TIMER2_COMPA_vect)
{
     be6:	1f 92       	push	r1
     be8:	0f 92       	push	r0
     bea:	0f b6       	in	r0, 0x3f	; 63
     bec:	0f 92       	push	r0
     bee:	11 24       	eor	r1, r1
     bf0:	2f 93       	push	r18
     bf2:	8f 93       	push	r24
     bf4:	9f 93       	push	r25
     bf6:	ef 93       	push	r30
     bf8:	ff 93       	push	r31
C:\Users\mateu\Documents\GitHub\Audi-CDC-Emulator\Software\cdc_arduino_atmega328pb_bk3254/cdc_function.cpp:302
  
  static uint8_t display_byte_counter_u8 = 0;
  uint8_t byte_u8;
  //TCCR2B &= ~_BV(CS20); //set to 0 already
  //TCCR2B &= ~_BV(CS21); //set to 0 already
  TCCR2B &= ~_BV(CS22); // stop Timer2, CS22 was set, prescaler 64
     bfa:	80 91 b1 00 	lds	r24, 0x00B1	; 0x8000b1 <__TEXT_REGION_LENGTH__+0x7f80b1>
     bfe:	8b 7f       	andi	r24, 0xFB	; 251
     c00:	80 93 b1 00 	sts	0x00B1, r24	; 0x8000b1 <__TEXT_REGION_LENGTH__+0x7f80b1>
C:\Users\mateu\Documents\GitHub\Audi-CDC-Emulator\Software\cdc_arduino_atmega328pb_bk3254/cdc_function.cpp:306
  //TCNT2 = 0; // clear Timer2
  //TIFR2 |= _BV(OCF2A); //no need to do this

  if (display_byte_counter_u8 < 8)
     c04:	e0 91 e4 01 	lds	r30, 0x01E4	; 0x8001e4 <__vector_7::display_byte_counter_u8>
     c08:	e8 30       	cpi	r30, 0x08	; 8
     c0a:	a0 f5       	brcc	.+104    	; 0xc74 <__vector_7+0x8e>
C:\Users\mateu\Documents\GitHub\Audi-CDC-Emulator\Software\cdc_arduino_atmega328pb_bk3254/cdc_function.cpp:308
  {
    byte_u8 = display_byte_buffer_mau8[display_byte_counter_u8];
     c0c:	f0 e0       	ldi	r31, 0x00	; 0
     c0e:	e7 5e       	subi	r30, 0xE7	; 231
     c10:	fd 4f       	sbci	r31, 0xFD	; 253
     c12:	90 81       	ld	r25, Z
C:\Users\mateu\Documents\GitHub\Audi-CDC-Emulator\Software\cdc_arduino_atmega328pb_bk3254/cdc_function.cpp:316
    Serial.print("|");
    Serial.print(byte_u8, HEX);
    Serial.print("|");
#endif

    for (sendbitcount = -8; sendbitcount != 0; sendbitcount++)
     c14:	88 ef       	ldi	r24, 0xF8	; 248
     c16:	80 93 3e 02 	sts	0x023E, r24	; 0x80023e <sendbitcount>
_delay_loop_1():
c:\users\mateu\appdata\local\arduino15\packages\arduino\tools\avr-gcc\7.3.0-atmel3.6.1-arduino7\avr\include\util/delay_basic.h:88
	__asm__ volatile (
		"1: dec %0" "\n\t"
		"brne 1b"
		: "=r" (__count)
		: "0" (__count)
	);
     c1a:	25 e0       	ldi	r18, 0x05	; 5
__vector_7():
C:\Users\mateu\Documents\GitHub\Audi-CDC-Emulator\Software\cdc_arduino_atmega328pb_bk3254/cdc_function.cpp:316 (discriminator 1)
     c1c:	80 91 3e 02 	lds	r24, 0x023E	; 0x80023e <sendbitcount>
     c20:	88 23       	and	r24, r24
     c22:	a1 f0       	breq	.+40     	; 0xc4c <__vector_7+0x66>
C:\Users\mateu\Documents\GitHub\Audi-CDC-Emulator\Software\cdc_arduino_atmega328pb_bk3254/cdc_function.cpp:318
    {
      RADIO_CLOCK_PORT |= _BV(RADIO_CLOCK); // SCLK high
     c24:	5f 9a       	sbi	0x0b, 7	; 11
_delay_loop_1():
c:\users\mateu\appdata\local\arduino15\packages\arduino\tools\avr-gcc\7.3.0-atmel3.6.1-arduino7\avr\include\util/delay_basic.h:88
     c26:	82 2f       	mov	r24, r18
     c28:	8a 95       	dec	r24
     c2a:	f1 f7       	brne	.-4      	; 0xc28 <__vector_7+0x42>
__vector_7():
C:\Users\mateu\Documents\GitHub\Audi-CDC-Emulator\Software\cdc_arduino_atmega328pb_bk3254/cdc_function.cpp:320
      _delay_loop_1(5);
      if ((byte_u8 & 0x80) == 0) // mask highest bit and test if set
     c2c:	97 fd       	sbrc	r25, 7
     c2e:	0c c0       	rjmp	.+24     	; 0xc48 <__vector_7+0x62>
C:\Users\mateu\Documents\GitHub\Audi-CDC-Emulator\Software\cdc_arduino_atmega328pb_bk3254/cdc_function.cpp:322
      {
        RADIO_DATA_PORT |= _BV(RADIO_DATA); // DATA high
     c30:	29 9a       	sbi	0x05, 1	; 5
C:\Users\mateu\Documents\GitHub\Audi-CDC-Emulator\Software\cdc_arduino_atmega328pb_bk3254/cdc_function.cpp:328 (discriminator 2)
      }
      else
      {
        RADIO_DATA_PORT &= ~_BV(RADIO_DATA); // DATA low
      }
      byte_u8 <<= 1; // load the next bit
     c32:	99 0f       	add	r25, r25
C:\Users\mateu\Documents\GitHub\Audi-CDC-Emulator\Software\cdc_arduino_atmega328pb_bk3254/cdc_function.cpp:329 (discriminator 2)
      RADIO_CLOCK_PORT &= ~_BV(RADIO_CLOCK); // SCLK low
     c34:	5f 98       	cbi	0x0b, 7	; 11
_delay_loop_1():
c:\users\mateu\appdata\local\arduino15\packages\arduino\tools\avr-gcc\7.3.0-atmel3.6.1-arduino7\avr\include\util/delay_basic.h:88 (discriminator 2)
     c36:	82 2f       	mov	r24, r18
     c38:	8a 95       	dec	r24
     c3a:	f1 f7       	brne	.-4      	; 0xc38 <__vector_7+0x52>
__vector_7():
C:\Users\mateu\Documents\GitHub\Audi-CDC-Emulator\Software\cdc_arduino_atmega328pb_bk3254/cdc_function.cpp:316 (discriminator 2)
    Serial.print("|");
    Serial.print(byte_u8, HEX);
    Serial.print("|");
#endif

    for (sendbitcount = -8; sendbitcount != 0; sendbitcount++)
     c3c:	80 91 3e 02 	lds	r24, 0x023E	; 0x80023e <sendbitcount>
     c40:	8f 5f       	subi	r24, 0xFF	; 255
     c42:	80 93 3e 02 	sts	0x023E, r24	; 0x80023e <sendbitcount>
     c46:	ea cf       	rjmp	.-44     	; 0xc1c <__vector_7+0x36>
C:\Users\mateu\Documents\GitHub\Audi-CDC-Emulator\Software\cdc_arduino_atmega328pb_bk3254/cdc_function.cpp:326
      {
        RADIO_DATA_PORT |= _BV(RADIO_DATA); // DATA high
      }
      else
      {
        RADIO_DATA_PORT &= ~_BV(RADIO_DATA); // DATA low
     c48:	29 98       	cbi	0x05, 1	; 5
     c4a:	f3 cf       	rjmp	.-26     	; 0xc32 <__vector_7+0x4c>
C:\Users\mateu\Documents\GitHub\Audi-CDC-Emulator\Software\cdc_arduino_atmega328pb_bk3254/cdc_function.cpp:333
      byte_u8 <<= 1; // load the next bit
      RADIO_CLOCK_PORT &= ~_BV(RADIO_CLOCK); // SCLK low
      _delay_loop_1(5);
    }

    display_byte_counter_u8++;
     c4c:	80 91 e4 01 	lds	r24, 0x01E4	; 0x8001e4 <__vector_7::display_byte_counter_u8>
     c50:	8f 5f       	subi	r24, 0xFF	; 255
     c52:	80 93 e4 01 	sts	0x01E4, r24	; 0x8001e4 <__vector_7::display_byte_counter_u8>
C:\Users\mateu\Documents\GitHub\Audi-CDC-Emulator\Software\cdc_arduino_atmega328pb_bk3254/cdc_function.cpp:335

    TCCR2B |= _BV(CS22); // prescaler = 64 -> 1 timer clock tick is 4us long
     c56:	80 91 b1 00 	lds	r24, 0x00B1	; 0x8000b1 <__TEXT_REGION_LENGTH__+0x7f80b1>
     c5a:	84 60       	ori	r24, 0x04	; 4
     c5c:	80 93 b1 00 	sts	0x00B1, r24	; 0x8000b1 <__TEXT_REGION_LENGTH__+0x7f80b1>
C:\Users\mateu\Documents\GitHub\Audi-CDC-Emulator\Software\cdc_arduino_atmega328pb_bk3254/cdc_function.cpp:346
    Serial.println();
#endif
    display_byte_counter_u8 = 0;
    //TIMSK2 &= ~_BV(OCIE2A); // disable output compare interrupt on timer2
  }
}
     c60:	ff 91       	pop	r31
     c62:	ef 91       	pop	r30
     c64:	9f 91       	pop	r25
     c66:	8f 91       	pop	r24
     c68:	2f 91       	pop	r18
     c6a:	0f 90       	pop	r0
     c6c:	0f be       	out	0x3f, r0	; 63
     c6e:	0f 90       	pop	r0
     c70:	1f 90       	pop	r1
     c72:	18 95       	reti
C:\Users\mateu\Documents\GitHub\Audi-CDC-Emulator\Software\cdc_arduino_atmega328pb_bk3254/cdc_function.cpp:343
  else
  { //display_byte_counter_u8 is ==8
#ifdef DUMPMODE2
    Serial.println();
#endif
    display_byte_counter_u8 = 0;
     c74:	10 92 e4 01 	sts	0x01E4, r1	; 0x8001e4 <__vector_7::display_byte_counter_u8>
C:\Users\mateu\Documents\GitHub\Audi-CDC-Emulator\Software\cdc_arduino_atmega328pb_bk3254/cdc_function.cpp:346
    //TIMSK2 &= ~_BV(OCIE2A); // disable output compare interrupt on timer2
  }
}
     c78:	f3 cf       	rjmp	.-26     	; 0xc60 <__vector_7+0x7a>

00000c7a <__vector_14>:
__vector_14():
C:\Users\mateu\Documents\GitHub\Audi-CDC-Emulator\Software\cdc_arduino_atmega328pb_bk3254/cdc_function.cpp:379
}

#else

ISR(TIMER0_COMPA_vect)
{
     c7a:	1f 92       	push	r1
     c7c:	0f 92       	push	r0
     c7e:	0f b6       	in	r0, 0x3f	; 63
     c80:	0f 92       	push	r0
     c82:	11 24       	eor	r1, r1
     c84:	8f 93       	push	r24
     c86:	9f 93       	push	r25
C:\Users\mateu\Documents\GitHub\Audi-CDC-Emulator\Software\cdc_arduino_atmega328pb_bk3254/cdc_function.cpp:380
  counter_10ms_u8++;
     c88:	90 91 e8 01 	lds	r25, 0x01E8	; 0x8001e8 <counter_10ms_u8>
     c8c:	9f 5f       	subi	r25, 0xFF	; 255
     c8e:	90 93 e8 01 	sts	0x01E8, r25	; 0x8001e8 <counter_10ms_u8>
C:\Users\mateu\Documents\GitHub\Audi-CDC-Emulator\Software\cdc_arduino_atmega328pb_bk3254/cdc_function.cpp:381
  my_counter1++;
     c92:	80 91 e6 01 	lds	r24, 0x01E6	; 0x8001e6 <my_counter1>
     c96:	8f 5f       	subi	r24, 0xFF	; 255
     c98:	80 93 e6 01 	sts	0x01E6, r24	; 0x8001e6 <my_counter1>
C:\Users\mateu\Documents\GitHub\Audi-CDC-Emulator\Software\cdc_arduino_atmega328pb_bk3254/cdc_function.cpp:383

  if (counter_10ms_u8 == 5) //50ms
     c9c:	95 30       	cpi	r25, 0x05	; 5
     c9e:	29 f4       	brne	.+10     	; 0xcaa <__vector_14+0x30>
C:\Users\mateu\Documents\GitHub\Audi-CDC-Emulator\Software\cdc_arduino_atmega328pb_bk3254/cdc_function.cpp:385
  {
    counter_10ms_u8 = 0;
     ca0:	10 92 e8 01 	sts	0x01E8, r1	; 0x8001e8 <counter_10ms_u8>
C:\Users\mateu\Documents\GitHub\Audi-CDC-Emulator\Software\cdc_arduino_atmega328pb_bk3254/cdc_function.cpp:386
    flag_50ms = TRUE;
     ca4:	91 e0       	ldi	r25, 0x01	; 1
     ca6:	90 93 e7 01 	sts	0x01E7, r25	; 0x8001e7 <flag_50ms>
C:\Users\mateu\Documents\GitHub\Audi-CDC-Emulator\Software\cdc_arduino_atmega328pb_bk3254/cdc_function.cpp:388
  }
  if (my_counter1 == 25)  //250ms
     caa:	89 31       	cpi	r24, 0x19	; 25
     cac:	29 f4       	brne	.+10     	; 0xcb8 <__vector_14+0x3e>
C:\Users\mateu\Documents\GitHub\Audi-CDC-Emulator\Software\cdc_arduino_atmega328pb_bk3254/cdc_function.cpp:390
  {
    my_counter1 = 0;
     cae:	10 92 e6 01 	sts	0x01E6, r1	; 0x8001e6 <my_counter1>
C:\Users\mateu\Documents\GitHub\Audi-CDC-Emulator\Software\cdc_arduino_atmega328pb_bk3254/cdc_function.cpp:391
    flag_250ms = TRUE;
     cb2:	81 e0       	ldi	r24, 0x01	; 1
     cb4:	80 93 e5 01 	sts	0x01E5, r24	; 0x8001e5 <flag_250ms>
C:\Users\mateu\Documents\GitHub\Audi-CDC-Emulator\Software\cdc_arduino_atmega328pb_bk3254/cdc_function.cpp:393
  }
}
     cb8:	9f 91       	pop	r25
     cba:	8f 91       	pop	r24
     cbc:	0f 90       	pop	r0
     cbe:	0f be       	out	0x3f, r0	; 63
     cc0:	0f 90       	pop	r0
     cc2:	1f 90       	pop	r1
     cc4:	18 95       	reti

00000cc6 <__vector_13>:
__vector_13():
C:\Users\mateu\Documents\GitHub\Audi-CDC-Emulator\Software\cdc_arduino_atmega328pb_bk3254/cdc_function.cpp:409
  \return     void
*/
//-----------------------------------------------------------------------------

ISR(TIMER1_OVF_vect)
{
     cc6:	1f 92       	push	r1
     cc8:	0f 92       	push	r0
     cca:	0f b6       	in	r0, 0x3f	; 63
     ccc:	0f 92       	push	r0
     cce:	11 24       	eor	r1, r1
     cd0:	2f 93       	push	r18
     cd2:	8f 93       	push	r24
     cd4:	9f 93       	push	r25
     cd6:	ef 93       	push	r30
     cd8:	ff 93       	push	r31
C:\Users\mateu\Documents\GitHub\Audi-CDC-Emulator\Software\cdc_arduino_atmega328pb_bk3254/cdc_function.cpp:410
  TIMSK1 &= ~_BV(TOIE1); // disable further timer 1 interrupts
     cda:	80 91 6f 00 	lds	r24, 0x006F	; 0x80006f <__TEXT_REGION_LENGTH__+0x7f806f>
     cde:	8e 7f       	andi	r24, 0xFE	; 254
     ce0:	80 93 6f 00 	sts	0x006F, r24	; 0x80006f <__TEXT_REGION_LENGTH__+0x7f806f>
C:\Users\mateu\Documents\GitHub\Audi-CDC-Emulator\Software\cdc_arduino_atmega328pb_bk3254/cdc_function.cpp:411
  capbusy = FALSE; // set flag signifying packet capture done
     ce4:	10 92 36 02 	sts	0x0236, r1	; 0x800236 <capbusy>
C:\Users\mateu\Documents\GitHub\Audi-CDC-Emulator\Software\cdc_arduino_atmega328pb_bk3254/cdc_function.cpp:413

  if (capbit > -8) // are we already capturing on a blank byte?
     ce8:	90 91 2c 02 	lds	r25, 0x022C	; 0x80022c <capbit>
     cec:	99 3f       	cpi	r25, 0xF9	; 249
     cee:	0c f1       	brlt	.+66     	; 0xd32 <__vector_13+0x6c>
C:\Users\mateu\Documents\GitHub\Audi-CDC-Emulator\Software\cdc_arduino_atmega328pb_bk3254/cdc_function.cpp:415
  {
    dataerr = TRUE;
     cf0:	81 e0       	ldi	r24, 0x01	; 1
     cf2:	80 93 2f 02 	sts	0x022F, r24	; 0x80022f <dataerr>
C:\Users\mateu\Documents\GitHub\Audi-CDC-Emulator\Software\cdc_arduino_atmega328pb_bk3254/cdc_function.cpp:424
    // if the capture bits were not a complete 8 bits, we need to finish
    // rotating the bits upward so that the data is nicely formatted

    while (capbit != 0) // have we finished rotating all bits up?
    {
      capbuffer[capptr] <<= 1; // rotate in 0 bit
     cf6:	80 91 2a 02 	lds	r24, 0x022A	; 0x80022a <capptr>
     cfa:	e8 2f       	mov	r30, r24
     cfc:	f0 e0       	ldi	r31, 0x00	; 0
     cfe:	e7 51       	subi	r30, 0x17	; 23
     d00:	fe 4f       	sbci	r31, 0xFE	; 254
C:\Users\mateu\Documents\GitHub\Audi-CDC-Emulator\Software\cdc_arduino_atmega328pb_bk3254/cdc_function.cpp:422
    //        command strings with error free data.
    //
    // if the capture bits were not a complete 8 bits, we need to finish
    // rotating the bits upward so that the data is nicely formatted

    while (capbit != 0) // have we finished rotating all bits up?
     d02:	99 23       	and	r25, r25
     d04:	29 f0       	breq	.+10     	; 0xd10 <__vector_13+0x4a>
C:\Users\mateu\Documents\GitHub\Audi-CDC-Emulator\Software\cdc_arduino_atmega328pb_bk3254/cdc_function.cpp:424
    {
      capbuffer[capptr] <<= 1; // rotate in 0 bit
     d06:	20 81       	ld	r18, Z
     d08:	22 0f       	add	r18, r18
     d0a:	20 83       	st	Z, r18
     d0c:	9f 5f       	subi	r25, 0xFF	; 255
C:\Users\mateu\Documents\GitHub\Audi-CDC-Emulator\Software\cdc_arduino_atmega328pb_bk3254/cdc_function.cpp:422
    //        command strings with error free data.
    //
    // if the capture bits were not a complete 8 bits, we need to finish
    // rotating the bits upward so that the data is nicely formatted

    while (capbit != 0) // have we finished rotating all bits up?
     d0e:	f9 cf       	rjmp	.-14     	; 0xd02 <__vector_13+0x3c>
C:\Users\mateu\Documents\GitHub\Audi-CDC-Emulator\Software\cdc_arduino_atmega328pb_bk3254/cdc_function.cpp:428
    {
      capbuffer[capptr] <<= 1; // rotate in 0 bit
      capbit++;
    }

    capbit = -8;
     d10:	98 ef       	ldi	r25, 0xF8	; 248
     d12:	90 93 2c 02 	sts	0x022C, r25	; 0x80022c <capbit>
C:\Users\mateu\Documents\GitHub\Audi-CDC-Emulator\Software\cdc_arduino_atmega328pb_bk3254/cdc_function.cpp:429
    capptr++; // move to new capture byte
     d16:	8f 5f       	subi	r24, 0xFF	; 255
C:\Users\mateu\Documents\GitHub\Audi-CDC-Emulator\Software\cdc_arduino_atmega328pb_bk3254/cdc_function.cpp:431

    if (capptr == CAP_BUFFER_END) // have we gone past the end of the
     d18:	88 31       	cpi	r24, 0x18	; 24
     d1a:	a9 f0       	breq	.+42     	; 0xd46 <__vector_13+0x80>
C:\Users\mateu\Documents\GitHub\Audi-CDC-Emulator\Software\cdc_arduino_atmega328pb_bk3254/cdc_function.cpp:429
      capbuffer[capptr] <<= 1; // rotate in 0 bit
      capbit++;
    }

    capbit = -8;
    capptr++; // move to new capture byte
     d1c:	80 93 2a 02 	sts	0x022A, r24	; 0x80022a <capptr>
C:\Users\mateu\Documents\GitHub\Audi-CDC-Emulator\Software\cdc_arduino_atmega328pb_bk3254/cdc_function.cpp:436
    if (capptr == CAP_BUFFER_END) // have we gone past the end of the
    { // capture buffer?
      capptr = 0; // yes, roll over to beginning
    }

    if (capptr == scanptr) // have we overflowed the capture queue?
     d20:	90 91 2a 02 	lds	r25, 0x022A	; 0x80022a <capptr>
     d24:	80 91 3a 02 	lds	r24, 0x023A	; 0x80023a <scanptr>
     d28:	98 13       	cpse	r25, r24
     d2a:	03 c0       	rjmp	.+6      	; 0xd32 <__vector_13+0x6c>
C:\Users\mateu\Documents\GitHub\Audi-CDC-Emulator\Software\cdc_arduino_atmega328pb_bk3254/cdc_function.cpp:438
    {
      overflow = TRUE; // yes, set error flag
     d2c:	81 e0       	ldi	r24, 0x01	; 1
     d2e:	80 93 30 02 	sts	0x0230, r24	; 0x800230 <overflow>
C:\Users\mateu\Documents\GitHub\Audi-CDC-Emulator\Software\cdc_arduino_atmega328pb_bk3254/cdc_function.cpp:441
    }
  }
}
     d32:	ff 91       	pop	r31
     d34:	ef 91       	pop	r30
     d36:	9f 91       	pop	r25
     d38:	8f 91       	pop	r24
     d3a:	2f 91       	pop	r18
     d3c:	0f 90       	pop	r0
     d3e:	0f be       	out	0x3f, r0	; 63
     d40:	0f 90       	pop	r0
     d42:	1f 90       	pop	r1
     d44:	18 95       	reti
C:\Users\mateu\Documents\GitHub\Audi-CDC-Emulator\Software\cdc_arduino_atmega328pb_bk3254/cdc_function.cpp:433
    capbit = -8;
    capptr++; // move to new capture byte

    if (capptr == CAP_BUFFER_END) // have we gone past the end of the
    { // capture buffer?
      capptr = 0; // yes, roll over to beginning
     d46:	10 92 2a 02 	sts	0x022A, r1	; 0x80022a <capptr>
     d4a:	ea cf       	rjmp	.-44     	; 0xd20 <__vector_13+0x5a>

00000d4c <__vector_10>:
__vector_10():
C:\Users\mateu\Documents\GitHub\Audi-CDC-Emulator\Software\cdc_arduino_atmega328pb_bk3254/cdc_function.cpp:458
  \return     void
*/
//-----------------------------------------------------------------------------

ISR(TIMER1_CAPT_vect)
{
     d4c:	1f 92       	push	r1
     d4e:	0f 92       	push	r0
     d50:	0f b6       	in	r0, 0x3f	; 63
     d52:	0f 92       	push	r0
     d54:	11 24       	eor	r1, r1
     d56:	2f 93       	push	r18
     d58:	3f 93       	push	r19
     d5a:	4f 93       	push	r20
     d5c:	8f 93       	push	r24
     d5e:	9f 93       	push	r25
     d60:	ef 93       	push	r30
     d62:	ff 93       	push	r31
C:\Users\mateu\Documents\GitHub\Audi-CDC-Emulator\Software\cdc_arduino_atmega328pb_bk3254/cdc_function.cpp:459
  captime = ICR1; // save a copy of current TMR1 count
     d64:	80 91 86 00 	lds	r24, 0x0086	; 0x800086 <__TEXT_REGION_LENGTH__+0x7f8086>
     d68:	90 91 87 00 	lds	r25, 0x0087	; 0x800087 <__TEXT_REGION_LENGTH__+0x7f8087>
     d6c:	90 93 2e 02 	sts	0x022E, r25	; 0x80022e <captime+0x1>
     d70:	80 93 2d 02 	sts	0x022D, r24	; 0x80022d <captime>
C:\Users\mateu\Documents\GitHub\Audi-CDC-Emulator\Software\cdc_arduino_atmega328pb_bk3254/cdc_function.cpp:461
  // in case PWTXCaptureBit needs it
  TCNT1 = 0; // clear timer1
     d74:	10 92 85 00 	sts	0x0085, r1	; 0x800085 <__TEXT_REGION_LENGTH__+0x7f8085>
     d78:	10 92 84 00 	sts	0x0084, r1	; 0x800084 <__TEXT_REGION_LENGTH__+0x7f8084>
C:\Users\mateu\Documents\GitHub\Audi-CDC-Emulator\Software\cdc_arduino_atmega328pb_bk3254/cdc_function.cpp:463

  if ((RADIO_COMMAND_PIN & _BV(RADIO_COMMAND)) == 0)
     d7c:	18 99       	sbic	0x03, 0	; 3
     d7e:	18 c0       	rjmp	.+48     	; 0xdb0 <__vector_10+0x64>
C:\Users\mateu\Documents\GitHub\Audi-CDC-Emulator\Software\cdc_arduino_atmega328pb_bk3254/cdc_function.cpp:467
  {
    // We have interrupted at beginning of low pulse (falling edge)
    // Low pulse length must be timed to determine bit value
    TIFR1 |= _BV(TOV1); // clear timer1 overflow flag
     d80:	b0 9a       	sbi	0x16, 0	; 22
C:\Users\mateu\Documents\GitHub\Audi-CDC-Emulator\Software\cdc_arduino_atmega328pb_bk3254/cdc_function.cpp:468
    TIMSK1 |= _BV(TOIE1); // enable timer1 interrupt on overflow
     d82:	80 91 6f 00 	lds	r24, 0x006F	; 0x80006f <__TEXT_REGION_LENGTH__+0x7f806f>
     d86:	81 60       	ori	r24, 0x01	; 1
     d88:	80 93 6f 00 	sts	0x006F, r24	; 0x80006f <__TEXT_REGION_LENGTH__+0x7f806f>
C:\Users\mateu\Documents\GitHub\Audi-CDC-Emulator\Software\cdc_arduino_atmega328pb_bk3254/cdc_function.cpp:469
    TCCR1B |= _BV(ICES1); // change input capture to rising edge
     d8c:	80 91 81 00 	lds	r24, 0x0081	; 0x800081 <__TEXT_REGION_LENGTH__+0x7f8081>
     d90:	80 64       	ori	r24, 0x40	; 64
     d92:	80 93 81 00 	sts	0x0081, r24	; 0x800081 <__TEXT_REGION_LENGTH__+0x7f8081>
C:\Users\mateu\Documents\GitHub\Audi-CDC-Emulator\Software\cdc_arduino_atmega328pb_bk3254/cdc_function.cpp:470
    TIFR1 |= _BV(ICF1); // clear input capture interrupt request flag
     d96:	b5 9a       	sbi	0x16, 5	; 22
C:\Users\mateu\Documents\GitHub\Audi-CDC-Emulator\Software\cdc_arduino_atmega328pb_bk3254/cdc_function.cpp:564
          }
        }
      }
    }
  }
}
     d98:	ff 91       	pop	r31
     d9a:	ef 91       	pop	r30
     d9c:	9f 91       	pop	r25
     d9e:	8f 91       	pop	r24
     da0:	4f 91       	pop	r20
     da2:	3f 91       	pop	r19
     da4:	2f 91       	pop	r18
     da6:	0f 90       	pop	r0
     da8:	0f be       	out	0x3f, r0	; 63
     daa:	0f 90       	pop	r0
     dac:	1f 90       	pop	r1
     dae:	18 95       	reti
C:\Users\mateu\Documents\GitHub\Audi-CDC-Emulator\Software\cdc_arduino_atmega328pb_bk3254/cdc_function.cpp:478
  {
    // We have interrupted at beginning of high pulse (rising edge)
    // High pulse length doesn't matter. We need to check out
    // captured low pulse width if we are capturing data at the moment

    capbusy = TRUE;
     db0:	81 e0       	ldi	r24, 0x01	; 1
     db2:	80 93 36 02 	sts	0x0236, r24	; 0x800236 <capbusy>
C:\Users\mateu\Documents\GitHub\Audi-CDC-Emulator\Software\cdc_arduino_atmega328pb_bk3254/cdc_function.cpp:479
    TCCR1B &= ~_BV(ICES1); // change input capture to falling edge
     db6:	90 91 81 00 	lds	r25, 0x0081	; 0x800081 <__TEXT_REGION_LENGTH__+0x7f8081>
     dba:	9f 7b       	andi	r25, 0xBF	; 191
     dbc:	90 93 81 00 	sts	0x0081, r25	; 0x800081 <__TEXT_REGION_LENGTH__+0x7f8081>
C:\Users\mateu\Documents\GitHub\Audi-CDC-Emulator\Software\cdc_arduino_atmega328pb_bk3254/cdc_function.cpp:480
    TIFR1 |= _BV(ICF1); // clear input capture interrupt request flag
     dc0:	b5 9a       	sbi	0x16, 5	; 22
C:\Users\mateu\Documents\GitHub\Audi-CDC-Emulator\Software\cdc_arduino_atmega328pb_bk3254/cdc_function.cpp:482

    if (TIMSK1 & _BV(TOIE1)) // are we trying to capture data?
     dc2:	90 91 6f 00 	lds	r25, 0x006F	; 0x80006f <__TEXT_REGION_LENGTH__+0x7f806f>
     dc6:	90 ff       	sbrs	r25, 0
     dc8:	e7 cf       	rjmp	.-50     	; 0xd98 <__vector_10+0x4c>
C:\Users\mateu\Documents\GitHub\Audi-CDC-Emulator\Software\cdc_arduino_atmega328pb_bk3254/cdc_function.cpp:484
    {
      capbusy = TRUE;
     dca:	80 93 36 02 	sts	0x0236, r24	; 0x800236 <capbusy>
C:\Users\mateu\Documents\GitHub\Audi-CDC-Emulator\Software\cdc_arduino_atmega328pb_bk3254/cdc_function.cpp:485
      TIMSK1 &= ~_BV(TOIE1); // turn off capturing time for high pulse
     dce:	90 91 6f 00 	lds	r25, 0x006F	; 0x80006f <__TEXT_REGION_LENGTH__+0x7f806f>
     dd2:	9e 7f       	andi	r25, 0xFE	; 254
     dd4:	90 93 6f 00 	sts	0x006F, r25	; 0x80006f <__TEXT_REGION_LENGTH__+0x7f806f>
C:\Users\mateu\Documents\GitHub\Audi-CDC-Emulator\Software\cdc_arduino_atmega328pb_bk3254/cdc_function.cpp:487

      if (captime > STARTTHRESHOLD)
     dd8:	20 91 2d 02 	lds	r18, 0x022D	; 0x80022d <captime>
     ddc:	30 91 2e 02 	lds	r19, 0x022E	; 0x80022e <captime+0x1>
     de0:	21 30       	cpi	r18, 0x01	; 1
     de2:	49 e1       	ldi	r20, 0x19	; 25
     de4:	34 07       	cpc	r19, r20
     de6:	58 f1       	brcs	.+86     	; 0xe3e <__vector_10+0xf2>
C:\Users\mateu\Documents\GitHub\Audi-CDC-Emulator\Software\cdc_arduino_atmega328pb_bk3254/cdc_function.cpp:492
      { // yes, start bit
#ifdef DUMPMODE
        startbit = TRUE;
#endif
        capbitpacket = PKTSIZE;
     de8:	90 ee       	ldi	r25, 0xE0	; 224
     dea:	90 93 2b 02 	sts	0x022B, r25	; 0x80022b <capbitpacket>
C:\Users\mateu\Documents\GitHub\Audi-CDC-Emulator\Software\cdc_arduino_atmega328pb_bk3254/cdc_function.cpp:495

        // don't store start bits, just frame around them
        if (capbit > -8) // are we already capturing on a blank byte?
     dee:	90 91 2c 02 	lds	r25, 0x022C	; 0x80022c <capbit>
     df2:	99 3f       	cpi	r25, 0xF9	; 249
     df4:	8c f2       	brlt	.-94     	; 0xd98 <__vector_10+0x4c>
C:\Users\mateu\Documents\GitHub\Audi-CDC-Emulator\Software\cdc_arduino_atmega328pb_bk3254/cdc_function.cpp:497
        {
          dataerr = TRUE;
     df6:	80 93 2f 02 	sts	0x022F, r24	; 0x80022f <dataerr>
C:\Users\mateu\Documents\GitHub\Audi-CDC-Emulator\Software\cdc_arduino_atmega328pb_bk3254/cdc_function.cpp:506
          // if the capture bits were not a complete 8 bits, we need to finish
          // rotating the bits upward so that the data is nicely formatted

          while (capbit != 0) // have we finished rotating all bits up?
          {
            capbuffer[capptr] <<= 1; // rotate in 0 bit
     dfa:	80 91 2a 02 	lds	r24, 0x022A	; 0x80022a <capptr>
     dfe:	e8 2f       	mov	r30, r24
     e00:	f0 e0       	ldi	r31, 0x00	; 0
     e02:	e7 51       	subi	r30, 0x17	; 23
     e04:	fe 4f       	sbci	r31, 0xFE	; 254
C:\Users\mateu\Documents\GitHub\Audi-CDC-Emulator\Software\cdc_arduino_atmega328pb_bk3254/cdc_function.cpp:504
          //       command strings with error free data.
          //
          // if the capture bits were not a complete 8 bits, we need to finish
          // rotating the bits upward so that the data is nicely formatted

          while (capbit != 0) // have we finished rotating all bits up?
     e06:	99 23       	and	r25, r25
     e08:	29 f0       	breq	.+10     	; 0xe14 <__vector_10+0xc8>
C:\Users\mateu\Documents\GitHub\Audi-CDC-Emulator\Software\cdc_arduino_atmega328pb_bk3254/cdc_function.cpp:506
          {
            capbuffer[capptr] <<= 1; // rotate in 0 bit
     e0a:	20 81       	ld	r18, Z
     e0c:	22 0f       	add	r18, r18
     e0e:	20 83       	st	Z, r18
     e10:	9f 5f       	subi	r25, 0xFF	; 255
C:\Users\mateu\Documents\GitHub\Audi-CDC-Emulator\Software\cdc_arduino_atmega328pb_bk3254/cdc_function.cpp:504
          //       command strings with error free data.
          //
          // if the capture bits were not a complete 8 bits, we need to finish
          // rotating the bits upward so that the data is nicely formatted

          while (capbit != 0) // have we finished rotating all bits up?
     e12:	f9 cf       	rjmp	.-14     	; 0xe06 <__vector_10+0xba>
C:\Users\mateu\Documents\GitHub\Audi-CDC-Emulator\Software\cdc_arduino_atmega328pb_bk3254/cdc_function.cpp:509
          {
            capbuffer[capptr] <<= 1; // rotate in 0 bit
            capbit++;
          }
          capbit = -8;
     e14:	98 ef       	ldi	r25, 0xF8	; 248
     e16:	90 93 2c 02 	sts	0x022C, r25	; 0x80022c <capbit>
C:\Users\mateu\Documents\GitHub\Audi-CDC-Emulator\Software\cdc_arduino_atmega328pb_bk3254/cdc_function.cpp:510
          capptr++; // move to new capture byte
     e1a:	8f 5f       	subi	r24, 0xFF	; 255
C:\Users\mateu\Documents\GitHub\Audi-CDC-Emulator\Software\cdc_arduino_atmega328pb_bk3254/cdc_function.cpp:512

          if (capptr == CAP_BUFFER_END) // have we gone past the end of the
     e1c:	88 31       	cpi	r24, 0x18	; 24
     e1e:	61 f0       	breq	.+24     	; 0xe38 <__vector_10+0xec>
C:\Users\mateu\Documents\GitHub\Audi-CDC-Emulator\Software\cdc_arduino_atmega328pb_bk3254/cdc_function.cpp:510
          {
            capbuffer[capptr] <<= 1; // rotate in 0 bit
            capbit++;
          }
          capbit = -8;
          capptr++; // move to new capture byte
     e20:	80 93 2a 02 	sts	0x022A, r24	; 0x80022a <capptr>
C:\Users\mateu\Documents\GitHub\Audi-CDC-Emulator\Software\cdc_arduino_atmega328pb_bk3254/cdc_function.cpp:517
          if (capptr == CAP_BUFFER_END) // have we gone past the end of the
          { // capture buffer?
            capptr = 0; // yes, roll over to beginning
          }

          if (capptr == scanptr) // have we overflowed the capture queue?
     e24:	90 91 2a 02 	lds	r25, 0x022A	; 0x80022a <capptr>
     e28:	80 91 3a 02 	lds	r24, 0x023A	; 0x80023a <scanptr>
     e2c:	98 13       	cpse	r25, r24
     e2e:	b4 cf       	rjmp	.-152    	; 0xd98 <__vector_10+0x4c>
C:\Users\mateu\Documents\GitHub\Audi-CDC-Emulator\Software\cdc_arduino_atmega328pb_bk3254/cdc_function.cpp:519
          {
            overflow = TRUE; // yes, set error flag
     e30:	81 e0       	ldi	r24, 0x01	; 1
     e32:	80 93 30 02 	sts	0x0230, r24	; 0x800230 <overflow>
     e36:	b0 cf       	rjmp	.-160    	; 0xd98 <__vector_10+0x4c>
C:\Users\mateu\Documents\GitHub\Audi-CDC-Emulator\Software\cdc_arduino_atmega328pb_bk3254/cdc_function.cpp:514
          capbit = -8;
          capptr++; // move to new capture byte

          if (capptr == CAP_BUFFER_END) // have we gone past the end of the
          { // capture buffer?
            capptr = 0; // yes, roll over to beginning
     e38:	10 92 2a 02 	sts	0x022A, r1	; 0x80022a <capptr>
     e3c:	f3 cf       	rjmp	.-26     	; 0xe24 <__vector_10+0xd8>
C:\Users\mateu\Documents\GitHub\Audi-CDC-Emulator\Software\cdc_arduino_atmega328pb_bk3254/cdc_function.cpp:525
          }
        }
      }
      else
      { // no, just a regular data bit
        if (captime > LOWTHRESHOLD)
     e3e:	21 30       	cpi	r18, 0x01	; 1
     e40:	82 e0       	ldi	r24, 0x02	; 2
     e42:	38 07       	cpc	r19, r24
     e44:	08 f4       	brcc	.+2      	; 0xe48 <__vector_10+0xfc>
     e46:	a8 cf       	rjmp	.-176    	; 0xd98 <__vector_10+0x4c>
C:\Users\mateu\Documents\GitHub\Audi-CDC-Emulator\Software\cdc_arduino_atmega328pb_bk3254/cdc_function.cpp:527
        { // yes, go ahead and store this data
          capbuffer[capptr] <<= 1; // nope
     e48:	90 91 2a 02 	lds	r25, 0x022A	; 0x80022a <capptr>
     e4c:	e9 2f       	mov	r30, r25
     e4e:	f0 e0       	ldi	r31, 0x00	; 0
     e50:	e7 51       	subi	r30, 0x17	; 23
     e52:	fe 4f       	sbci	r31, 0xFE	; 254
     e54:	80 81       	ld	r24, Z
     e56:	88 0f       	add	r24, r24
C:\Users\mateu\Documents\GitHub\Audi-CDC-Emulator\Software\cdc_arduino_atmega328pb_bk3254/cdc_function.cpp:529

          if (captime > HIGHTHRESHOLD)
     e58:	21 3c       	cpi	r18, 0xC1	; 193
     e5a:	39 40       	sbci	r19, 0x09	; 9
     e5c:	88 f4       	brcc	.+34     	; 0xe80 <__vector_10+0x134>
C:\Users\mateu\Documents\GitHub\Audi-CDC-Emulator\Software\cdc_arduino_atmega328pb_bk3254/cdc_function.cpp:531
          {
            capbuffer[capptr] |= 1;
     e5e:	80 83       	st	Z, r24
C:\Users\mateu\Documents\GitHub\Audi-CDC-Emulator\Software\cdc_arduino_atmega328pb_bk3254/cdc_function.cpp:534
          }

          capbitpacket++;
     e60:	80 91 2b 02 	lds	r24, 0x022B	; 0x80022b <capbitpacket>
     e64:	8f 5f       	subi	r24, 0xFF	; 255
     e66:	80 93 2b 02 	sts	0x022B, r24	; 0x80022b <capbitpacket>
C:\Users\mateu\Documents\GitHub\Audi-CDC-Emulator\Software\cdc_arduino_atmega328pb_bk3254/cdc_function.cpp:536

          if (capbitpacket == 0)
     e6a:	81 11       	cpse	r24, r1
     e6c:	02 c0       	rjmp	.+4      	; 0xe72 <__vector_10+0x126>
C:\Users\mateu\Documents\GitHub\Audi-CDC-Emulator\Software\cdc_arduino_atmega328pb_bk3254/cdc_function.cpp:540
          {
            // we've received PKTSIZE number of bits, so let's assume that we're done
            // capturing bits for now.
            capbusy = FALSE; // clear capture busy flag
     e6e:	10 92 36 02 	sts	0x0236, r1	; 0x800236 <capbusy>
C:\Users\mateu\Documents\GitHub\Audi-CDC-Emulator\Software\cdc_arduino_atmega328pb_bk3254/cdc_function.cpp:543
          }

          capbit++;
     e72:	80 91 2c 02 	lds	r24, 0x022C	; 0x80022c <capbit>
     e76:	8f 5f       	subi	r24, 0xFF	; 255
C:\Users\mateu\Documents\GitHub\Audi-CDC-Emulator\Software\cdc_arduino_atmega328pb_bk3254/cdc_function.cpp:545

          if (capbit == 0) // have we collected all 8 bits?
     e78:	29 f0       	breq	.+10     	; 0xe84 <__vector_10+0x138>
C:\Users\mateu\Documents\GitHub\Audi-CDC-Emulator\Software\cdc_arduino_atmega328pb_bk3254/cdc_function.cpp:543
            // we've received PKTSIZE number of bits, so let's assume that we're done
            // capturing bits for now.
            capbusy = FALSE; // clear capture busy flag
          }

          capbit++;
     e7a:	80 93 2c 02 	sts	0x022C, r24	; 0x80022c <capbit>
     e7e:	8c cf       	rjmp	.-232    	; 0xd98 <__vector_10+0x4c>
C:\Users\mateu\Documents\GitHub\Audi-CDC-Emulator\Software\cdc_arduino_atmega328pb_bk3254/cdc_function.cpp:531
        { // yes, go ahead and store this data
          capbuffer[capptr] <<= 1; // nope

          if (captime > HIGHTHRESHOLD)
          {
            capbuffer[capptr] |= 1;
     e80:	81 60       	ori	r24, 0x01	; 1
     e82:	ed cf       	rjmp	.-38     	; 0xe5e <__vector_10+0x112>
C:\Users\mateu\Documents\GitHub\Audi-CDC-Emulator\Software\cdc_arduino_atmega328pb_bk3254/cdc_function.cpp:547

          capbit++;

          if (capbit == 0) // have we collected all 8 bits?
          { // yep, get ready to capture next 8 bits
            capbit = -8;
     e84:	88 ef       	ldi	r24, 0xF8	; 248
     e86:	80 93 2c 02 	sts	0x022C, r24	; 0x80022c <capbit>
C:\Users\mateu\Documents\GitHub\Audi-CDC-Emulator\Software\cdc_arduino_atmega328pb_bk3254/cdc_function.cpp:548
            capptr++; // move to new capture byte
     e8a:	9f 5f       	subi	r25, 0xFF	; 255
C:\Users\mateu\Documents\GitHub\Audi-CDC-Emulator\Software\cdc_arduino_atmega328pb_bk3254/cdc_function.cpp:550

            if (capptr == CAP_BUFFER_END) // have we gone past the end of the
     e8c:	98 31       	cpi	r25, 0x18	; 24
     e8e:	a1 f2       	breq	.-88     	; 0xe38 <__vector_10+0xec>
C:\Users\mateu\Documents\GitHub\Audi-CDC-Emulator\Software\cdc_arduino_atmega328pb_bk3254/cdc_function.cpp:548
          capbit++;

          if (capbit == 0) // have we collected all 8 bits?
          { // yep, get ready to capture next 8 bits
            capbit = -8;
            capptr++; // move to new capture byte
     e90:	90 93 2a 02 	sts	0x022A, r25	; 0x80022a <capptr>
     e94:	c7 cf       	rjmp	.-114    	; 0xe24 <__vector_10+0xd8>

00000e96 <CDC_Protocol()>:
_Z12CDC_Protocolv():
C:\Users\mateu\Documents\GitHub\Audi-CDC-Emulator\Software\cdc_arduino_atmega328pb_bk3254/cdc_function.cpp:579
  \return     void
*/
//-----------------------------------------------------------------------------

void CDC_Protocol(void)
{
     e96:	ef 92       	push	r14
     e98:	ff 92       	push	r15
     e9a:	1f 93       	push	r17
     e9c:	cf 93       	push	r28
     e9e:	df 93       	push	r29
     ea0:	00 d0       	rcall	.+0      	; 0xea2 <CDC_Protocol()+0xc>
     ea2:	00 d0       	rcall	.+0      	; 0xea4 <CDC_Protocol()+0xe>
     ea4:	00 d0       	rcall	.+0      	; 0xea6 <CDC_Protocol()+0x10>
     ea6:	cd b7       	in	r28, 0x3d	; 61
     ea8:	de b7       	in	r29, 0x3e	; 62
C:\Users\mateu\Documents\GitHub\Audi-CDC-Emulator\Software\cdc_arduino_atmega328pb_bk3254/cdc_function.cpp:582
  uint8_t decimal_adjust_u8;

  if (flag_50ms == TRUE)
     eaa:	80 91 e7 01 	lds	r24, 0x01E7	; 0x8001e7 <flag_50ms>
     eae:	81 30       	cpi	r24, 0x01	; 1
     eb0:	81 f4       	brne	.+32     	; 0xed2 <CDC_Protocol()+0x3c>
C:\Users\mateu\Documents\GitHub\Audi-CDC-Emulator\Software\cdc_arduino_atmega328pb_bk3254/cdc_function.cpp:584
  {
    flag_50ms = FALSE;
     eb2:	10 92 e7 01 	sts	0x01E7, r1	; 0x8001e7 <flag_50ms>
C:\Users\mateu\Documents\GitHub\Audi-CDC-Emulator\Software\cdc_arduino_atmega328pb_bk3254/cdc_function.cpp:585
    SendPacket();
     eb6:	0e 94 fe 04 	call	0x9fc	; 0x9fc <SendPacket()>
C:\Users\mateu\Documents\GitHub\Audi-CDC-Emulator\Software\cdc_arduino_atmega328pb_bk3254/cdc_function.cpp:586
    scancount++;
     eba:	80 91 23 02 	lds	r24, 0x0223	; 0x800223 <scancount>
     ebe:	8f 5f       	subi	r24, 0xFF	; 255
C:\Users\mateu\Documents\GitHub\Audi-CDC-Emulator\Software\cdc_arduino_atmega328pb_bk3254/cdc_function.cpp:587
    if (scancount == 0)
     ec0:	89 f1       	breq	.+98     	; 0xf24 <CDC_Protocol()+0x8e>
C:\Users\mateu\Documents\GitHub\Audi-CDC-Emulator\Software\cdc_arduino_atmega328pb_bk3254/cdc_function.cpp:586

  if (flag_50ms == TRUE)
  {
    flag_50ms = FALSE;
    SendPacket();
    scancount++;
     ec2:	80 93 23 02 	sts	0x0223, r24	; 0x800223 <scancount>
C:\Users\mateu\Documents\GitHub\Audi-CDC-Emulator\Software\cdc_arduino_atmega328pb_bk3254/cdc_function.cpp:593
    {
      scancount = SCANWAIT;
      scan = FALSE; // turn off scan display
      leds &= 0xEF;
    }
    secondcount++;
     ec6:	80 91 24 02 	lds	r24, 0x0224	; 0x800224 <secondcount>
     eca:	8f 5f       	subi	r24, 0xFF	; 255
C:\Users\mateu\Documents\GitHub\Audi-CDC-Emulator\Software\cdc_arduino_atmega328pb_bk3254/cdc_function.cpp:594
    if (secondcount == 0)
     ecc:	b1 f1       	breq	.+108    	; 0xf3a <CDC_Protocol()+0xa4>
C:\Users\mateu\Documents\GitHub\Audi-CDC-Emulator\Software\cdc_arduino_atmega328pb_bk3254/cdc_function.cpp:593
    {
      scancount = SCANWAIT;
      scan = FALSE; // turn off scan display
      leds &= 0xEF;
    }
    secondcount++;
     ece:	80 93 24 02 	sts	0x0224, r24	; 0x800224 <secondcount>
C:\Users\mateu\Documents\GitHub\Audi-CDC-Emulator\Software\cdc_arduino_atmega328pb_bk3254/cdc_function.cpp:632
        }
      }
    }
  }

  if (overflow == TRUE) // has the command receive code detected
     ed2:	80 91 30 02 	lds	r24, 0x0230	; 0x800230 <overflow>
     ed6:	81 30       	cpi	r24, 0x01	; 1
     ed8:	31 f4       	brne	.+12     	; 0xee6 <CDC_Protocol()+0x50>
C:\Users\mateu\Documents\GitHub\Audi-CDC-Emulator\Software\cdc_arduino_atmega328pb_bk3254/cdc_function.cpp:634
  { // an overflow error?
    overflow = FALSE; // clear error flag
     eda:	10 92 30 02 	sts	0x0230, r1	; 0x800230 <overflow>
C:\Users\mateu\Documents\GitHub\Audi-CDC-Emulator\Software\cdc_arduino_atmega328pb_bk3254/cdc_function.cpp:635
    EnqueueString(sOVERFLOW);
     ede:	8b e8       	ldi	r24, 0x8B	; 139
     ee0:	91 e0       	ldi	r25, 0x01	; 1
     ee2:	0e 94 04 04 	call	0x808	; 0x808 <EnqueueString(unsigned char const*)>
C:\Users\mateu\Documents\GitHub\Audi-CDC-Emulator\Software\cdc_arduino_atmega328pb_bk3254/cdc_function.cpp:638
  }

  if (dataerr == TRUE) // has the command receive code detected
     ee6:	80 91 2f 02 	lds	r24, 0x022F	; 0x80022f <dataerr>
     eea:	81 30       	cpi	r24, 0x01	; 1
     eec:	31 f4       	brne	.+12     	; 0xefa <CDC_Protocol()+0x64>
C:\Users\mateu\Documents\GitHub\Audi-CDC-Emulator\Software\cdc_arduino_atmega328pb_bk3254/cdc_function.cpp:640
  { // a framing type data error?
    dataerr = FALSE; // clear error flag
     eee:	10 92 2f 02 	sts	0x022F, r1	; 0x80022f <dataerr>
C:\Users\mateu\Documents\GitHub\Audi-CDC-Emulator\Software\cdc_arduino_atmega328pb_bk3254/cdc_function.cpp:641
    EnqueueString(sDATAERR);
     ef2:	8c e8       	ldi	r24, 0x8C	; 140
     ef4:	91 e0       	ldi	r25, 0x01	; 1
     ef6:	0e 94 04 04 	call	0x808	; 0x808 <EnqueueString(unsigned char const*)>
ScanCommandBytes():
C:\Users\mateu\Documents\GitHub\Audi-CDC-Emulator\Software\cdc_arduino_atmega328pb_bk3254/cdc_function.cpp:1020

{



  fsr = scanptr;
     efa:	80 91 3a 02 	lds	r24, 0x023A	; 0x80023a <scanptr>
     efe:	80 93 39 02 	sts	0x0239, r24	; 0x800239 <fsr>
C:\Users\mateu\Documents\GitHub\Audi-CDC-Emulator\Software\cdc_arduino_atmega328pb_bk3254/cdc_function.cpp:1028

FirstByteLoop:

  //printstr_p(PSTR("1"),DEBUG);

  if (GetCaptureByte() == FALSE)
     f02:	0e 94 de 03 	call	0x7bc	; 0x7bc <GetCaptureByte()>
     f06:	88 23       	and	r24, r24
     f08:	09 f4       	brne	.+2      	; 0xf0c <CDC_Protocol()+0x76>
     f0a:	8c c1       	rjmp	.+792    	; 0x1224 <CDC_Protocol()+0x38e>
C:\Users\mateu\Documents\GitHub\Audi-CDC-Emulator\Software\cdc_arduino_atmega328pb_bk3254/cdc_function.cpp:1042

FirstByteTest:

  //printstr_p(PSTR("2"),DEBUG);

  if (scanbyte == 0x53)
     f0c:	80 91 38 02 	lds	r24, 0x0238	; 0x800238 <scanbyte>
     f10:	83 35       	cpi	r24, 0x53	; 83
     f12:	09 f4       	brne	.+2      	; 0xf16 <CDC_Protocol()+0x80>
     f14:	48 c0       	rjmp	.+144    	; 0xfa6 <CDC_Protocol()+0x110>
C:\Users\mateu\Documents\GitHub\Audi-CDC-Emulator\Software\cdc_arduino_atmega328pb_bk3254/cdc_function.cpp:1052

  }

  // this byte doesn't match the beginning of a normal command packet,

  EnqueueHex(scanbyte);
     f16:	0e 94 17 04 	call	0x82e	; 0x82e <EnqueueHex(unsigned char)>
C:\Users\mateu\Documents\GitHub\Audi-CDC-Emulator\Software\cdc_arduino_atmega328pb_bk3254/cdc_function.cpp:1054

  scanptr = fsr; // save scanptr, won't look at this byte again
     f1a:	80 91 39 02 	lds	r24, 0x0239	; 0x800239 <fsr>
     f1e:	80 93 3a 02 	sts	0x023A, r24	; 0x80023a <scanptr>
     f22:	ef cf       	rjmp	.-34     	; 0xf02 <CDC_Protocol()+0x6c>
_Z12CDC_Protocolv():
C:\Users\mateu\Documents\GitHub\Audi-CDC-Emulator\Software\cdc_arduino_atmega328pb_bk3254/cdc_function.cpp:589
    flag_50ms = FALSE;
    SendPacket();
    scancount++;
    if (scancount == 0)
    {
      scancount = SCANWAIT;
     f24:	8c e9       	ldi	r24, 0x9C	; 156
     f26:	80 93 23 02 	sts	0x0223, r24	; 0x800223 <scancount>
C:\Users\mateu\Documents\GitHub\Audi-CDC-Emulator\Software\cdc_arduino_atmega328pb_bk3254/cdc_function.cpp:590
      scan = FALSE; // turn off scan display
     f2a:	10 92 34 02 	sts	0x0234, r1	; 0x800234 <scan>
C:\Users\mateu\Documents\GitHub\Audi-CDC-Emulator\Software\cdc_arduino_atmega328pb_bk3254/cdc_function.cpp:591
      leds &= 0xEF;
     f2e:	80 91 3b 02 	lds	r24, 0x023B	; 0x80023b <leds>
     f32:	8f 7e       	andi	r24, 0xEF	; 239
     f34:	80 93 3b 02 	sts	0x023B, r24	; 0x80023b <leds>
     f38:	c6 cf       	rjmp	.-116    	; 0xec6 <CDC_Protocol()+0x30>
C:\Users\mateu\Documents\GitHub\Audi-CDC-Emulator\Software\cdc_arduino_atmega328pb_bk3254/cdc_function.cpp:596
    }
    secondcount++;
    if (secondcount == 0)
    {
      secondcount = SECONDWAIT;
     f3a:	8c ee       	ldi	r24, 0xEC	; 236
     f3c:	80 93 24 02 	sts	0x0224, r24	; 0x800224 <secondcount>
C:\Users\mateu\Documents\GitHub\Audi-CDC-Emulator\Software\cdc_arduino_atmega328pb_bk3254/cdc_function.cpp:597
      poweridentcount++;
     f40:	80 91 25 02 	lds	r24, 0x0225	; 0x800225 <poweridentcount>
     f44:	8f 5f       	subi	r24, 0xFF	; 255
C:\Users\mateu\Documents\GitHub\Audi-CDC-Emulator\Software\cdc_arduino_atmega328pb_bk3254/cdc_function.cpp:599

      if (poweridentcount == 0)
     f46:	29 f1       	breq	.+74     	; 0xf92 <CDC_Protocol()+0xfc>
C:\Users\mateu\Documents\GitHub\Audi-CDC-Emulator\Software\cdc_arduino_atmega328pb_bk3254/cdc_function.cpp:601
      {
        poweridentcount = POWERIDENTWAIT;
     f48:	80 93 25 02 	sts	0x0225, r24	; 0x800225 <poweridentcount>
C:\Users\mateu\Documents\GitHub\Audi-CDC-Emulator\Software\cdc_arduino_atmega328pb_bk3254/cdc_function.cpp:607
        //EnqueueString(sIDENTIFY);
        //EnqueueString(sVERSION);
        //EnqueueString(sNEWLINE);
      }

      second++; // increment the time display
     f4c:	80 91 3c 02 	lds	r24, 0x023C	; 0x80023c <second>
     f50:	91 e0       	ldi	r25, 0x01	; 1
     f52:	98 0f       	add	r25, r24
C:\Users\mateu\Documents\GitHub\Audi-CDC-Emulator\Software\cdc_arduino_atmega328pb_bk3254/cdc_function.cpp:608
      decimal_adjust_u8 = second & 0x0F; // skip past hexidecimal codes
     f54:	29 2f       	mov	r18, r25
     f56:	2f 70       	andi	r18, 0x0F	; 15
C:\Users\mateu\Documents\GitHub\Audi-CDC-Emulator\Software\cdc_arduino_atmega328pb_bk3254/cdc_function.cpp:609
      if (decimal_adjust_u8 == 0x0A) // are with at xA?
     f58:	2a 30       	cpi	r18, 0x0A	; 10
     f5a:	e9 f0       	breq	.+58     	; 0xf96 <CDC_Protocol()+0x100>
C:\Users\mateu\Documents\GitHub\Audi-CDC-Emulator\Software\cdc_arduino_atmega328pb_bk3254/cdc_function.cpp:607
        //EnqueueString(sIDENTIFY);
        //EnqueueString(sVERSION);
        //EnqueueString(sNEWLINE);
      }

      second++; // increment the time display
     f5c:	90 93 3c 02 	sts	0x023C, r25	; 0x80023c <second>
C:\Users\mateu\Documents\GitHub\Audi-CDC-Emulator\Software\cdc_arduino_atmega328pb_bk3254/cdc_function.cpp:614
      if (decimal_adjust_u8 == 0x0A) // are with at xA?
      {
        second += 6; // yes, add 6 and we'll be at x0 instead
      }

      if (second == 0x60)
     f60:	80 91 3c 02 	lds	r24, 0x023C	; 0x80023c <second>
     f64:	80 36       	cpi	r24, 0x60	; 96
     f66:	09 f0       	breq	.+2      	; 0xf6a <CDC_Protocol()+0xd4>
     f68:	b4 cf       	rjmp	.-152    	; 0xed2 <CDC_Protocol()+0x3c>
C:\Users\mateu\Documents\GitHub\Audi-CDC-Emulator\Software\cdc_arduino_atmega328pb_bk3254/cdc_function.cpp:616
      {
        second = 0;
     f6a:	10 92 3c 02 	sts	0x023C, r1	; 0x80023c <second>
C:\Users\mateu\Documents\GitHub\Audi-CDC-Emulator\Software\cdc_arduino_atmega328pb_bk3254/cdc_function.cpp:617
        minute++;
     f6e:	80 91 3d 02 	lds	r24, 0x023D	; 0x80023d <minute>
     f72:	91 e0       	ldi	r25, 0x01	; 1
     f74:	98 0f       	add	r25, r24
C:\Users\mateu\Documents\GitHub\Audi-CDC-Emulator\Software\cdc_arduino_atmega328pb_bk3254/cdc_function.cpp:618
        decimal_adjust_u8 = minute & 0x0F; // skip past hexidecimal codes
     f76:	29 2f       	mov	r18, r25
     f78:	2f 70       	andi	r18, 0x0F	; 15
C:\Users\mateu\Documents\GitHub\Audi-CDC-Emulator\Software\cdc_arduino_atmega328pb_bk3254/cdc_function.cpp:619
        if (decimal_adjust_u8 == 0x0A) // are with at xA?
     f7a:	2a 30       	cpi	r18, 0x0A	; 10
     f7c:	81 f0       	breq	.+32     	; 0xf9e <CDC_Protocol()+0x108>
C:\Users\mateu\Documents\GitHub\Audi-CDC-Emulator\Software\cdc_arduino_atmega328pb_bk3254/cdc_function.cpp:617
      }

      if (second == 0x60)
      {
        second = 0;
        minute++;
     f7e:	90 93 3d 02 	sts	0x023D, r25	; 0x80023d <minute>
C:\Users\mateu\Documents\GitHub\Audi-CDC-Emulator\Software\cdc_arduino_atmega328pb_bk3254/cdc_function.cpp:624
        if (decimal_adjust_u8 == 0x0A) // are with at xA?
        {
          minute += 6; // yes, add 6 and we'll be at x0 instead
        }

        if (minute == 0xA0) // have we gone beyond 99 minutes?
     f82:	80 91 3d 02 	lds	r24, 0x023D	; 0x80023d <minute>
     f86:	80 3a       	cpi	r24, 0xA0	; 160
     f88:	09 f0       	breq	.+2      	; 0xf8c <CDC_Protocol()+0xf6>
     f8a:	a3 cf       	rjmp	.-186    	; 0xed2 <CDC_Protocol()+0x3c>
C:\Users\mateu\Documents\GitHub\Audi-CDC-Emulator\Software\cdc_arduino_atmega328pb_bk3254/cdc_function.cpp:626
        {
          minute = 0;
     f8c:	10 92 3d 02 	sts	0x023D, r1	; 0x80023d <minute>
     f90:	a0 cf       	rjmp	.-192    	; 0xed2 <CDC_Protocol()+0x3c>
C:\Users\mateu\Documents\GitHub\Audi-CDC-Emulator\Software\cdc_arduino_atmega328pb_bk3254/cdc_function.cpp:601
      secondcount = SECONDWAIT;
      poweridentcount++;

      if (poweridentcount == 0)
      {
        poweridentcount = POWERIDENTWAIT;
     f92:	86 ef       	ldi	r24, 0xF6	; 246
     f94:	d9 cf       	rjmp	.-78     	; 0xf48 <CDC_Protocol()+0xb2>
C:\Users\mateu\Documents\GitHub\Audi-CDC-Emulator\Software\cdc_arduino_atmega328pb_bk3254/cdc_function.cpp:611

      second++; // increment the time display
      decimal_adjust_u8 = second & 0x0F; // skip past hexidecimal codes
      if (decimal_adjust_u8 == 0x0A) // are with at xA?
      {
        second += 6; // yes, add 6 and we'll be at x0 instead
     f96:	89 5f       	subi	r24, 0xF9	; 249
     f98:	80 93 3c 02 	sts	0x023C, r24	; 0x80023c <second>
     f9c:	e1 cf       	rjmp	.-62     	; 0xf60 <CDC_Protocol()+0xca>
C:\Users\mateu\Documents\GitHub\Audi-CDC-Emulator\Software\cdc_arduino_atmega328pb_bk3254/cdc_function.cpp:621
        second = 0;
        minute++;
        decimal_adjust_u8 = minute & 0x0F; // skip past hexidecimal codes
        if (decimal_adjust_u8 == 0x0A) // are with at xA?
        {
          minute += 6; // yes, add 6 and we'll be at x0 instead
     f9e:	89 5f       	subi	r24, 0xF9	; 249
     fa0:	80 93 3d 02 	sts	0x023D, r24	; 0x80023d <minute>
     fa4:	ee cf       	rjmp	.-36     	; 0xf82 <CDC_Protocol()+0xec>
ScanCommandBytes():
C:\Users\mateu\Documents\GitHub\Audi-CDC-Emulator\Software\cdc_arduino_atmega328pb_bk3254/cdc_function.cpp:1064

SecondByte:

  //printstr_p(PSTR("3"),DEBUG);

  if (GetCaptureByte() == FALSE)
     fa6:	0e 94 de 03 	call	0x7bc	; 0x7bc <GetCaptureByte()>
     faa:	88 23       	and	r24, r24
     fac:	09 f4       	brne	.+2      	; 0xfb0 <CDC_Protocol()+0x11a>
     fae:	3a c1       	rjmp	.+628    	; 0x1224 <CDC_Protocol()+0x38e>
C:\Users\mateu\Documents\GitHub\Audi-CDC-Emulator\Software\cdc_arduino_atmega328pb_bk3254/cdc_function.cpp:1072

    return;

  }

  if (scanbyte == 0x2C) // verify that byte 2 is 0x2C)
     fb0:	80 91 38 02 	lds	r24, 0x0238	; 0x800238 <scanbyte>
     fb4:	8c 32       	cpi	r24, 0x2C	; 44
     fb6:	21 f0       	breq	.+8      	; 0xfc0 <CDC_Protocol()+0x12a>
C:\Users\mateu\Documents\GitHub\Audi-CDC-Emulator\Software\cdc_arduino_atmega328pb_bk3254/cdc_function.cpp:1084

  // the first byte was a match, but the second byte failed.

  // dump first byte and then see if this one is the real first byte.

  EnqueueHex(0x53);
     fb8:	83 e5       	ldi	r24, 0x53	; 83
     fba:	0e 94 17 04 	call	0x82e	; 0x82e <EnqueueHex(unsigned char)>
     fbe:	a6 cf       	rjmp	.-180    	; 0xf0c <CDC_Protocol()+0x76>
C:\Users\mateu\Documents\GitHub\Audi-CDC-Emulator\Software\cdc_arduino_atmega328pb_bk3254/cdc_function.cpp:1094

ThirdByte:

  //printstr_p(PSTR("4"),DEBUG);

  if (GetCaptureByte() == FALSE)
     fc0:	0e 94 de 03 	call	0x7bc	; 0x7bc <GetCaptureByte()>
     fc4:	88 23       	and	r24, r24
     fc6:	09 f4       	brne	.+2      	; 0xfca <CDC_Protocol()+0x134>
     fc8:	2d c1       	rjmp	.+602    	; 0x1224 <CDC_Protocol()+0x38e>
C:\Users\mateu\Documents\GitHub\Audi-CDC-Emulator\Software\cdc_arduino_atmega328pb_bk3254/cdc_function.cpp:1102

    return;

  }

  cmdcode = scanbyte; // save command code for later use.
     fca:	80 91 38 02 	lds	r24, 0x0238	; 0x800238 <scanbyte>
     fce:	80 93 37 02 	sts	0x0237, r24	; 0x800237 <cmdcode>
C:\Users\mateu\Documents\GitHub\Audi-CDC-Emulator\Software\cdc_arduino_atmega328pb_bk3254/cdc_function.cpp:1110

FourthByte:

  //printstr_p(PSTR("5"),DEBUG);

  if (GetCaptureByte() == FALSE)
     fd2:	0e 94 de 03 	call	0x7bc	; 0x7bc <GetCaptureByte()>
     fd6:	88 23       	and	r24, r24
     fd8:	09 f4       	brne	.+2      	; 0xfdc <CDC_Protocol()+0x146>
     fda:	24 c1       	rjmp	.+584    	; 0x1224 <CDC_Protocol()+0x38e>
C:\Users\mateu\Documents\GitHub\Audi-CDC-Emulator\Software\cdc_arduino_atmega328pb_bk3254/cdc_function.cpp:1126



  // verify that (Byte 3 + Byte 4) = 0xFF

  if ((cmdcode + scanbyte) == 0xFF)
     fdc:	80 91 37 02 	lds	r24, 0x0237	; 0x800237 <cmdcode>
     fe0:	20 91 38 02 	lds	r18, 0x0238	; 0x800238 <scanbyte>
     fe4:	28 0f       	add	r18, r24
     fe6:	33 27       	eor	r19, r19
     fe8:	33 1f       	adc	r19, r19
     fea:	2f 3f       	cpi	r18, 0xFF	; 255
     fec:	31 05       	cpc	r19, r1
     fee:	09 f0       	breq	.+2      	; 0xff2 <CDC_Protocol()+0x15c>
     ff0:	38 c2       	rjmp	.+1136   	; 0x1462 <CDC_Protocol()+0x5cc>
C:\Users\mateu\Documents\GitHub\Audi-CDC-Emulator\Software\cdc_arduino_atmega328pb_bk3254/cdc_function.cpp:1134

    //printstr_p(PSTR("6"),DEBUG);



    if ((cmdcode & 0x03) == 0) // verify that Byte 3 is a multiple of 4
     ff2:	98 2f       	mov	r25, r24
     ff4:	93 70       	andi	r25, 0x03	; 3
     ff6:	09 f0       	breq	.+2      	; 0xffa <CDC_Protocol()+0x164>
     ff8:	34 c2       	rjmp	.+1128   	; 0x1462 <CDC_Protocol()+0x5cc>
C:\Users\mateu\Documents\GitHub\Audi-CDC-Emulator\Software\cdc_arduino_atmega328pb_bk3254/cdc_function.cpp:1142

      //printstr_p(PSTR("7"),DEBUG);



      ACKcount = -4; // acknowledge command
     ffa:	9c ef       	ldi	r25, 0xFC	; 252
     ffc:	90 93 27 02 	sts	0x0227, r25	; 0x800227 <ACKcount>
C:\Users\mateu\Documents\GitHub\Audi-CDC-Emulator\Software\cdc_arduino_atmega328pb_bk3254/cdc_function.cpp:1144

      scanptr = fsr; // save scanptr, won't look at this byte again
    1000:	90 91 39 02 	lds	r25, 0x0239	; 0x800239 <fsr>
    1004:	90 93 3a 02 	sts	0x023A, r25	; 0x80023a <scanptr>
DecodeCommand():
C:\Users\mateu\Documents\GitHub\Audi-CDC-Emulator\Software\cdc_arduino_atmega328pb_bk3254/cdc_function.cpp:730

#ifdef JUST_HEX_TO_SERIAL
  Serial.write(cmdcode);
#endif

  switch (cmdcode) {
    1008:	88 35       	cpi	r24, 0x58	; 88
    100a:	09 f4       	brne	.+2      	; 0x100e <CDC_Protocol()+0x178>
    100c:	4c c1       	rjmp	.+664    	; 0x12a6 <CDC_Protocol()+0x410>
    100e:	08 f0       	brcs	.+2      	; 0x1012 <CDC_Protocol()+0x17c>
    1010:	7f c0       	rjmp	.+254    	; 0x1110 <CDC_Protocol()+0x27a>
    1012:	84 31       	cpi	r24, 0x14	; 20
    1014:	09 f4       	brne	.+2      	; 0x1018 <CDC_Protocol()+0x182>
    1016:	04 c1       	rjmp	.+520    	; 0x1220 <CDC_Protocol()+0x38a>
    1018:	38 f5       	brcc	.+78     	; 0x1068 <CDC_Protocol()+0x1d2>
    101a:	88 30       	cpi	r24, 0x08	; 8
    101c:	09 f4       	brne	.+2      	; 0x1020 <CDC_Protocol()+0x18a>
    101e:	21 c1       	rjmp	.+578    	; 0x1262 <CDC_Protocol()+0x3cc>
    1020:	88 f4       	brcc	.+34     	; 0x1044 <CDC_Protocol()+0x1ae>
    1022:	81 30       	cpi	r24, 0x01	; 1
    1024:	09 f4       	brne	.+2      	; 0x1028 <CDC_Protocol()+0x192>
    1026:	32 c1       	rjmp	.+612    	; 0x128c <CDC_Protocol()+0x3f6>
    1028:	83 30       	cpi	r24, 0x03	; 3
    102a:	09 f4       	brne	.+2      	; 0x102e <CDC_Protocol()+0x198>
    102c:	68 c1       	rjmp	.+720    	; 0x12fe <CDC_Protocol()+0x468>
C:\Users\mateu\Documents\GitHub\Audi-CDC-Emulator\Software\cdc_arduino_atmega328pb_bk3254/cdc_function.cpp:985
         one that we understand.

         Dump the unknown command code for the user to view.
      */

      EnqueueString(sDASH);
    102e:	83 e0       	ldi	r24, 0x03	; 3
    1030:	91 e0       	ldi	r25, 0x01	; 1
    1032:	0e 94 04 04 	call	0x808	; 0x808 <EnqueueString(unsigned char const*)>
C:\Users\mateu\Documents\GitHub\Audi-CDC-Emulator\Software\cdc_arduino_atmega328pb_bk3254/cdc_function.cpp:986
      EnqueueHex(cmdcode);
    1036:	80 91 37 02 	lds	r24, 0x0237	; 0x800237 <cmdcode>
    103a:	0e 94 17 04 	call	0x82e	; 0x82e <EnqueueHex(unsigned char)>
C:\Users\mateu\Documents\GitHub\Audi-CDC-Emulator\Software\cdc_arduino_atmega328pb_bk3254/cdc_function.cpp:987
      EnqueueString(sNEWLINE);
    103e:	85 e0       	ldi	r24, 0x05	; 5
    1040:	91 e0       	ldi	r25, 0x01	; 1
    1042:	2e c1       	rjmp	.+604    	; 0x12a0 <CDC_Protocol()+0x40a>
C:\Users\mateu\Documents\GitHub\Audi-CDC-Emulator\Software\cdc_arduino_atmega328pb_bk3254/cdc_function.cpp:730

#ifdef JUST_HEX_TO_SERIAL
  Serial.write(cmdcode);
#endif

  switch (cmdcode) {
    1044:	8c 30       	cpi	r24, 0x0C	; 12
    1046:	09 f4       	brne	.+2      	; 0x104a <CDC_Protocol()+0x1b4>
    1048:	87 c1       	rjmp	.+782    	; 0x1358 <CDC_Protocol()+0x4c2>
    104a:	80 31       	cpi	r24, 0x10	; 16
    104c:	81 f7       	brne	.-32     	; 0x102e <CDC_Protocol()+0x198>
SetStateIdle():
C:\Users\mateu\Documents\GitHub\Audi-CDC-Emulator\Software\cdc_arduino_atmega328pb_bk3254/cdc_function.cpp:1305

static void SetStateIdle(void)

{

  playing = FALSE;
    104e:	10 92 33 02 	sts	0x0233, r1	; 0x800233 <playing>
C:\Users\mateu\Documents\GitHub\Audi-CDC-Emulator\Software\cdc_arduino_atmega328pb_bk3254/cdc_function.cpp:1307

  BIDIstate = StateIdle;
    1052:	10 92 29 02 	sts	0x0229, r1	; 0x800229 <BIDIstate>
DecodeCommand():
C:\Users\mateu\Documents\GitHub\Audi-CDC-Emulator\Software\cdc_arduino_atmega328pb_bk3254/cdc_function.cpp:768
    case Do_DISABLE:
      SetStateIdle(); // skip this if we're already in idle mode
#ifndef DISC_TRACK_NUMBER_FROM_MPD
      //      disc = 0x41; // set back to CD 1
#endif
      EnqueueString(sMDISABLE);
    1056:	8a e8       	ldi	r24, 0x8A	; 138
    1058:	91 e0       	ldi	r25, 0x01	; 1
    105a:	0e 94 04 04 	call	0x808	; 0x808 <EnqueueString(unsigned char const*)>
C:\Users\mateu\Documents\GitHub\Audi-CDC-Emulator\Software\cdc_arduino_atmega328pb_bk3254/cdc_function.cpp:770
      #ifdef BLUETOOTH
        bt.musicStop();
    105e:	80 eb       	ldi	r24, 0xB0	; 176
    1060:	91 e0       	ldi	r25, 0x01	; 1
    1062:	0e 94 10 02 	call	0x420	; 0x420 <BK3254::musicStop()>
    1066:	de c0       	rjmp	.+444    	; 0x1224 <CDC_Protocol()+0x38e>
C:\Users\mateu\Documents\GitHub\Audi-CDC-Emulator\Software\cdc_arduino_atmega328pb_bk3254/cdc_function.cpp:730

#ifdef JUST_HEX_TO_SERIAL
  Serial.write(cmdcode);
#endif

  switch (cmdcode) {
    1068:	80 33       	cpi	r24, 0x30	; 48
    106a:	09 f4       	brne	.+2      	; 0x106e <CDC_Protocol()+0x1d8>
    106c:	ed c1       	rjmp	.+986    	; 0x1448 <CDC_Protocol()+0x5b2>
    106e:	30 f5       	brcc	.+76     	; 0x10bc <CDC_Protocol()+0x226>
    1070:	88 31       	cpi	r24, 0x18	; 24
    1072:	09 f4       	brne	.+2      	; 0x1076 <CDC_Protocol()+0x1e0>
    1074:	18 c1       	rjmp	.+560    	; 0x12a6 <CDC_Protocol()+0x410>
    1076:	8c 32       	cpi	r24, 0x2C	; 44
    1078:	d1 f6       	brne	.-76     	; 0x102e <CDC_Protocol()+0x198>
C:\Users\mateu\Documents\GitHub\Audi-CDC-Emulator\Software\cdc_arduino_atmega328pb_bk3254/cdc_function.cpp:952
      if (cdButtonPushed(4))
          EnqueueString(sLIST4);
      break;

    case Do_CD5:
      cd_button = TRUE; // mk store cd button pressed
    107a:	81 e0       	ldi	r24, 0x01	; 1
    107c:	80 93 32 02 	sts	0x0232, r24	; 0x800232 <cd_button>
C:\Users\mateu\Documents\GitHub\Audi-CDC-Emulator\Software\cdc_arduino_atmega328pb_bk3254/cdc_function.cpp:954
#ifndef DISC_TRACK_NUMBER_FROM_MPD
      disc = 0x45; // set CD 5
    1080:	85 e4       	ldi	r24, 0x45	; 69
    1082:	80 93 07 01 	sts	0x0107, r24	; 0x800107 <disc>
cdButtonPushed():
C:\Users\mateu\Documents\GitHub\Audi-CDC-Emulator\Software\cdc_arduino_atmega328pb_bk3254/cdc_function.cpp:2089
        if (++cd4pushed == 6)
          cd4pushed = 0;
        return cd4pushed;

      case 5:
        cd1pushed = cd2pushed = cd3pushed = cd4pushed = cd6pushed;
    1086:	80 91 dd 01 	lds	r24, 0x01DD	; 0x8001dd <cdButtonPushed(unsigned char)::cd6pushed>
    108a:	80 93 df 01 	sts	0x01DF, r24	; 0x8001df <cdButtonPushed(unsigned char)::cd4pushed>
    108e:	80 93 e0 01 	sts	0x01E0, r24	; 0x8001e0 <cdButtonPushed(unsigned char)::cd3pushed>
    1092:	80 93 e1 01 	sts	0x01E1, r24	; 0x8001e1 <cdButtonPushed(unsigned char)::cd2pushed>
    1096:	80 93 e2 01 	sts	0x01E2, r24	; 0x8001e2 <cdButtonPushed(unsigned char)::cd1pushed>
C:\Users\mateu\Documents\GitHub\Audi-CDC-Emulator\Software\cdc_arduino_atmega328pb_bk3254/cdc_function.cpp:2090
        if (++cd5pushed == 6)
    109a:	80 91 de 01 	lds	r24, 0x01DE	; 0x8001de <cdButtonPushed(unsigned char)::cd5pushed>
    109e:	8f 5f       	subi	r24, 0xFF	; 255
    10a0:	80 93 de 01 	sts	0x01DE, r24	; 0x8001de <cdButtonPushed(unsigned char)::cd5pushed>
    10a4:	86 30       	cpi	r24, 0x06	; 6
    10a6:	11 f4       	brne	.+4      	; 0x10ac <CDC_Protocol()+0x216>
C:\Users\mateu\Documents\GitHub\Audi-CDC-Emulator\Software\cdc_arduino_atmega328pb_bk3254/cdc_function.cpp:2091
          cd5pushed = 0;
    10a8:	10 92 de 01 	sts	0x01DE, r1	; 0x8001de <cdButtonPushed(unsigned char)::cd5pushed>
DecodeCommand():
C:\Users\mateu\Documents\GitHub\Audi-CDC-Emulator\Software\cdc_arduino_atmega328pb_bk3254/cdc_function.cpp:956
    case Do_CD5:
      cd_button = TRUE; // mk store cd button pressed
#ifndef DISC_TRACK_NUMBER_FROM_MPD
      disc = 0x45; // set CD 5
#endif
      if (cdButtonPushed(5))
    10ac:	80 91 de 01 	lds	r24, 0x01DE	; 0x8001de <cdButtonPushed(unsigned char)::cd5pushed>
    10b0:	88 23       	and	r24, r24
    10b2:	09 f4       	brne	.+2      	; 0x10b6 <CDC_Protocol()+0x220>
    10b4:	b7 c0       	rjmp	.+366    	; 0x1224 <CDC_Protocol()+0x38e>
C:\Users\mateu\Documents\GitHub\Audi-CDC-Emulator\Software\cdc_arduino_atmega328pb_bk3254/cdc_function.cpp:957
          EnqueueString(sLIST5);
    10b6:	86 e6       	ldi	r24, 0x66	; 102
    10b8:	91 e0       	ldi	r25, 0x01	; 1
    10ba:	f2 c0       	rjmp	.+484    	; 0x12a0 <CDC_Protocol()+0x40a>
C:\Users\mateu\Documents\GitHub\Audi-CDC-Emulator\Software\cdc_arduino_atmega328pb_bk3254/cdc_function.cpp:730

#ifdef JUST_HEX_TO_SERIAL
  Serial.write(cmdcode);
#endif

  switch (cmdcode) {
    10bc:	88 33       	cpi	r24, 0x38	; 56
    10be:	09 f4       	brne	.+2      	; 0x10c2 <CDC_Protocol()+0x22c>
    10c0:	04 c1       	rjmp	.+520    	; 0x12ca <CDC_Protocol()+0x434>
    10c2:	8c 34       	cpi	r24, 0x4C	; 76
    10c4:	09 f0       	breq	.+2      	; 0x10c8 <CDC_Protocol()+0x232>
    10c6:	b3 cf       	rjmp	.-154    	; 0x102e <CDC_Protocol()+0x198>
C:\Users\mateu\Documents\GitHub\Audi-CDC-Emulator\Software\cdc_arduino_atmega328pb_bk3254/cdc_function.cpp:931
        bt.send("COM+MUD\r\n");
      #endif
      break;

    case Do_CD3:
      cd_button = TRUE; // mk store cd button pressed
    10c8:	81 e0       	ldi	r24, 0x01	; 1
    10ca:	80 93 32 02 	sts	0x0232, r24	; 0x800232 <cd_button>
C:\Users\mateu\Documents\GitHub\Audi-CDC-Emulator\Software\cdc_arduino_atmega328pb_bk3254/cdc_function.cpp:933
#ifndef DISC_TRACK_NUMBER_FROM_MPD
      disc = 0x43; // set CD 3
    10ce:	83 e4       	ldi	r24, 0x43	; 67
    10d0:	80 93 07 01 	sts	0x0107, r24	; 0x800107 <disc>
cdButtonPushed():
C:\Users\mateu\Documents\GitHub\Audi-CDC-Emulator\Software\cdc_arduino_atmega328pb_bk3254/cdc_function.cpp:2077
      if (++cd2pushed == 6)
        cd2pushed = 0;
        return cd2pushed;

      case 3:
        cd1pushed = cd2pushed = cd4pushed = cd5pushed = cd6pushed;
    10d4:	80 91 dd 01 	lds	r24, 0x01DD	; 0x8001dd <cdButtonPushed(unsigned char)::cd6pushed>
    10d8:	80 93 de 01 	sts	0x01DE, r24	; 0x8001de <cdButtonPushed(unsigned char)::cd5pushed>
    10dc:	80 93 df 01 	sts	0x01DF, r24	; 0x8001df <cdButtonPushed(unsigned char)::cd4pushed>
    10e0:	80 93 e1 01 	sts	0x01E1, r24	; 0x8001e1 <cdButtonPushed(unsigned char)::cd2pushed>
    10e4:	80 93 e2 01 	sts	0x01E2, r24	; 0x8001e2 <cdButtonPushed(unsigned char)::cd1pushed>
C:\Users\mateu\Documents\GitHub\Audi-CDC-Emulator\Software\cdc_arduino_atmega328pb_bk3254/cdc_function.cpp:2078
        if (++cd3pushed == 6)
    10e8:	80 91 e0 01 	lds	r24, 0x01E0	; 0x8001e0 <cdButtonPushed(unsigned char)::cd3pushed>
    10ec:	8f 5f       	subi	r24, 0xFF	; 255
    10ee:	80 93 e0 01 	sts	0x01E0, r24	; 0x8001e0 <cdButtonPushed(unsigned char)::cd3pushed>
    10f2:	86 30       	cpi	r24, 0x06	; 6
    10f4:	11 f4       	brne	.+4      	; 0x10fa <CDC_Protocol()+0x264>
C:\Users\mateu\Documents\GitHub\Audi-CDC-Emulator\Software\cdc_arduino_atmega328pb_bk3254/cdc_function.cpp:2079
          cd3pushed = 0;
    10f6:	10 92 e0 01 	sts	0x01E0, r1	; 0x8001e0 <cdButtonPushed(unsigned char)::cd3pushed>
DecodeCommand():
C:\Users\mateu\Documents\GitHub\Audi-CDC-Emulator\Software\cdc_arduino_atmega328pb_bk3254/cdc_function.cpp:935
    case Do_CD3:
      cd_button = TRUE; // mk store cd button pressed
#ifndef DISC_TRACK_NUMBER_FROM_MPD
      disc = 0x43; // set CD 3
#endif
      if (cdButtonPushed(3))
    10fa:	80 91 e0 01 	lds	r24, 0x01E0	; 0x8001e0 <cdButtonPushed(unsigned char)::cd3pushed>
    10fe:	88 23       	and	r24, r24
    1100:	21 f0       	breq	.+8      	; 0x110a <CDC_Protocol()+0x274>
C:\Users\mateu\Documents\GitHub\Audi-CDC-Emulator\Software\cdc_arduino_atmega328pb_bk3254/cdc_function.cpp:936
          EnqueueString(sLIST3);
    1102:	88 e6       	ldi	r24, 0x68	; 104
    1104:	91 e0       	ldi	r25, 0x01	; 1
    1106:	0e 94 04 04 	call	0x808	; 0x808 <EnqueueString(unsigned char const*)>
C:\Users\mateu\Documents\GitHub\Audi-CDC-Emulator\Software\cdc_arduino_atmega328pb_bk3254/cdc_function.cpp:938
      #ifdef BLUETOOTH
        bt.send("COM+MAX\r\n");
    110a:	64 e8       	ldi	r22, 0x84	; 132
    110c:	71 e0       	ldi	r23, 0x01	; 1
    110e:	47 c1       	rjmp	.+654    	; 0x139e <CDC_Protocol()+0x508>
C:\Users\mateu\Documents\GitHub\Audi-CDC-Emulator\Software\cdc_arduino_atmega328pb_bk3254/cdc_function.cpp:730

#ifdef JUST_HEX_TO_SERIAL
  Serial.write(cmdcode);
#endif

  switch (cmdcode) {
    1110:	88 3a       	cpi	r24, 0xA8	; 168
    1112:	09 f4       	brne	.+2      	; 0x1116 <CDC_Protocol()+0x280>
    1114:	fa c0       	rjmp	.+500    	; 0x130a <CDC_Protocol()+0x474>
    1116:	08 f0       	brcs	.+2      	; 0x111a <CDC_Protocol()+0x284>
    1118:	45 c0       	rjmp	.+138    	; 0x11a4 <CDC_Protocol()+0x30e>
    111a:	88 37       	cpi	r24, 0x78	; 120
    111c:	09 f4       	brne	.+2      	; 0x1120 <CDC_Protocol()+0x28a>
    111e:	f5 c0       	rjmp	.+490    	; 0x130a <CDC_Protocol()+0x474>
    1120:	70 f5       	brcc	.+92     	; 0x117e <CDC_Protocol()+0x2e8>
    1122:	80 36       	cpi	r24, 0x60	; 96
    1124:	09 f4       	brne	.+2      	; 0x1128 <CDC_Protocol()+0x292>
    1126:	70 c0       	rjmp	.+224    	; 0x1208 <CDC_Protocol()+0x372>
    1128:	88 36       	cpi	r24, 0x68	; 104
    112a:	09 f0       	breq	.+2      	; 0x112e <CDC_Protocol()+0x298>
    112c:	80 cf       	rjmp	.-256    	; 0x102e <CDC_Protocol()+0x198>
C:\Users\mateu\Documents\GitHub\Audi-CDC-Emulator\Software\cdc_arduino_atmega328pb_bk3254/cdc_function.cpp:858
#endif
      break;

    case Do_UP:
    case Do_UP_MK3:
      if (playing == TRUE) // skip track lead-in if not in play mode
    112e:	80 91 33 02 	lds	r24, 0x0233	; 0x800233 <playing>
    1132:	81 30       	cpi	r24, 0x01	; 1
    1134:	31 f4       	brne	.+12     	; 0x1142 <CDC_Protocol()+0x2ac>
SetStateTrackLeadIn():
C:\Users\mateu\Documents\GitHub\Audi-CDC-Emulator\Software\cdc_arduino_atmega328pb_bk3254/cdc_function.cpp:1460

{

  playing = TRUE;

  BIDIstate = StateTrackLeadIn;
    1136:	88 e0       	ldi	r24, 0x08	; 8
    1138:	80 93 29 02 	sts	0x0229, r24	; 0x800229 <BIDIstate>
C:\Users\mateu\Documents\GitHub\Audi-CDC-Emulator\Software\cdc_arduino_atmega328pb_bk3254/cdc_function.cpp:1462

  BIDIcount = -12;
    113c:	84 ef       	ldi	r24, 0xF4	; 244
    113e:	80 93 28 02 	sts	0x0228, r24	; 0x800228 <BIDIcount>
DecodeCommand():
C:\Users\mateu\Documents\GitHub\Audi-CDC-Emulator\Software\cdc_arduino_atmega328pb_bk3254/cdc_function.cpp:862
    case Do_UP_MK3:
      if (playing == TRUE) // skip track lead-in if not in play mode
      {
        SetStateTrackLeadIn();
      }
      ResetTime();
    1142:	0e 94 58 04 	call	0x8b0	; 0x8b0 <ResetTime()>
C:\Users\mateu\Documents\GitHub\Audi-CDC-Emulator\Software\cdc_arduino_atmega328pb_bk3254/cdc_function.cpp:864
#ifndef DISC_TRACK_NUMBER_FROM_MPD
      track++;
    1146:	80 91 06 01 	lds	r24, 0x0106	; 0x800106 <track>
    114a:	91 e0       	ldi	r25, 0x01	; 1
    114c:	98 0f       	add	r25, r24
    114e:	90 93 06 01 	sts	0x0106, r25	; 0x800106 <track>
C:\Users\mateu\Documents\GitHub\Audi-CDC-Emulator\Software\cdc_arduino_atmega328pb_bk3254/cdc_function.cpp:865
      decimal_adjust_u8 = track & 0x0F; // skip past hexidecimal codes
    1152:	9f 70       	andi	r25, 0x0F	; 15
C:\Users\mateu\Documents\GitHub\Audi-CDC-Emulator\Software\cdc_arduino_atmega328pb_bk3254/cdc_function.cpp:866
      if (decimal_adjust_u8 == 0x0A) // are with at xA?
    1154:	9a 30       	cpi	r25, 0x0A	; 10
    1156:	19 f4       	brne	.+6      	; 0x115e <CDC_Protocol()+0x2c8>
C:\Users\mateu\Documents\GitHub\Audi-CDC-Emulator\Software\cdc_arduino_atmega328pb_bk3254/cdc_function.cpp:868
      {
        track += 6; // yes, add 6 and we'll be at x0 instead
    1158:	89 5f       	subi	r24, 0xF9	; 249
    115a:	80 93 06 01 	sts	0x0106, r24	; 0x800106 <track>
C:\Users\mateu\Documents\GitHub\Audi-CDC-Emulator\Software\cdc_arduino_atmega328pb_bk3254/cdc_function.cpp:870
      }
      if (track == 0xA0) // have we gone beyond Track 99?
    115e:	80 91 06 01 	lds	r24, 0x0106	; 0x800106 <track>
    1162:	80 3a       	cpi	r24, 0xA0	; 160
    1164:	19 f4       	brne	.+6      	; 0x116c <CDC_Protocol()+0x2d6>
C:\Users\mateu\Documents\GitHub\Audi-CDC-Emulator\Software\cdc_arduino_atmega328pb_bk3254/cdc_function.cpp:872
      { // yes, rollover to Track 01 so that jog wheels
        track = 1; // can continue rolling (Audi Concert II)
    1166:	81 e0       	ldi	r24, 0x01	; 1
    1168:	80 93 06 01 	sts	0x0106, r24	; 0x800106 <track>
C:\Users\mateu\Documents\GitHub\Audi-CDC-Emulator\Software\cdc_arduino_atmega328pb_bk3254/cdc_function.cpp:875
      }
#endif
      EnqueueString(sNEXT);
    116c:	89 e4       	ldi	r24, 0x49	; 73
    116e:	91 e0       	ldi	r25, 0x01	; 1
    1170:	0e 94 04 04 	call	0x808	; 0x808 <EnqueueString(unsigned char const*)>
C:\Users\mateu\Documents\GitHub\Audi-CDC-Emulator\Software\cdc_arduino_atmega328pb_bk3254/cdc_function.cpp:877
      #ifdef BLUETOOTH
        bt.musicNextTrack();
    1174:	80 eb       	ldi	r24, 0xB0	; 176
    1176:	91 e0       	ldi	r25, 0x01	; 1
    1178:	0e 94 31 02 	call	0x462	; 0x462 <BK3254::musicNextTrack()>
    117c:	53 c0       	rjmp	.+166    	; 0x1224 <CDC_Protocol()+0x38e>
C:\Users\mateu\Documents\GitHub\Audi-CDC-Emulator\Software\cdc_arduino_atmega328pb_bk3254/cdc_function.cpp:730

#ifdef JUST_HEX_TO_SERIAL
  Serial.write(cmdcode);
#endif

  switch (cmdcode) {
    117e:	8c 38       	cpi	r24, 0x8C	; 140
    1180:	09 f4       	brne	.+2      	; 0x1184 <CDC_Protocol()+0x2ee>
    1182:	1d c1       	rjmp	.+570    	; 0x13be <CDC_Protocol()+0x528>
    1184:	80 3a       	cpi	r24, 0xA0	; 160
    1186:	09 f0       	breq	.+2      	; 0x118a <CDC_Protocol()+0x2f4>
    1188:	52 cf       	rjmp	.-348    	; 0x102e <CDC_Protocol()+0x198>
C:\Users\mateu\Documents\GitHub\Audi-CDC-Emulator\Software\cdc_arduino_atmega328pb_bk3254/cdc_function.cpp:836
      EnqueueString(sPLAY); // this will make the PJRC play/pause
      break;

    case Do_SCAN:

      scancount = SCANWAIT;
    118a:	8c e9       	ldi	r24, 0x9C	; 156
    118c:	80 93 23 02 	sts	0x0223, r24	; 0x800223 <scancount>
C:\Users\mateu\Documents\GitHub\Audi-CDC-Emulator\Software\cdc_arduino_atmega328pb_bk3254/cdc_function.cpp:838
#ifndef DISC_TRACK_NUMBER_FROM_MPD
      if (scan == FALSE)
    1190:	80 91 34 02 	lds	r24, 0x0234	; 0x800234 <scan>
    1194:	81 11       	cpse	r24, r1
    1196:	b6 c0       	rjmp	.+364    	; 0x1304 <CDC_Protocol()+0x46e>
C:\Users\mateu\Documents\GitHub\Audi-CDC-Emulator\Software\cdc_arduino_atmega328pb_bk3254/cdc_function.cpp:840
      {
        scan = TRUE;
    1198:	81 e0       	ldi	r24, 0x01	; 1
    119a:	80 93 34 02 	sts	0x0234, r24	; 0x800234 <scan>
C:\Users\mateu\Documents\GitHub\Audi-CDC-Emulator\Software\cdc_arduino_atmega328pb_bk3254/cdc_function.cpp:852
#endif

#ifdef PJRC
      EnqueueString(sPLAY); // this will make the PJRC play/pause
#else
      EnqueueString(sSCAN);
    119e:	82 e5       	ldi	r24, 0x52	; 82
    11a0:	91 e0       	ldi	r25, 0x01	; 1
    11a2:	7e c0       	rjmp	.+252    	; 0x12a0 <CDC_Protocol()+0x40a>
C:\Users\mateu\Documents\GitHub\Audi-CDC-Emulator\Software\cdc_arduino_atmega328pb_bk3254/cdc_function.cpp:730

#ifdef JUST_HEX_TO_SERIAL
  Serial.write(cmdcode);
#endif

  switch (cmdcode) {
    11a4:	88 3d       	cpi	r24, 0xD8	; 216
    11a6:	09 f4       	brne	.+2      	; 0x11aa <CDC_Protocol()+0x314>
    11a8:	90 c0       	rjmp	.+288    	; 0x12ca <CDC_Protocol()+0x434>
    11aa:	30 f5       	brcc	.+76     	; 0x11f8 <CDC_Protocol()+0x362>
    11ac:	8c 3a       	cpi	r24, 0xAC	; 172
    11ae:	09 f4       	brne	.+2      	; 0x11b2 <CDC_Protocol()+0x31c>
    11b0:	2a c1       	rjmp	.+596    	; 0x1406 <CDC_Protocol()+0x570>
    11b2:	8c 3c       	cpi	r24, 0xCC	; 204
    11b4:	09 f0       	breq	.+2      	; 0x11b8 <CDC_Protocol()+0x322>
    11b6:	3b cf       	rjmp	.-394    	; 0x102e <CDC_Protocol()+0x198>
C:\Users\mateu\Documents\GitHub\Audi-CDC-Emulator\Software\cdc_arduino_atmega328pb_bk3254/cdc_function.cpp:943
        bt.send("COM+MAX\r\n");
      #endif
      break;

    case Do_CD4:
      cd_button = TRUE; // mk store cd button pressed
    11b8:	81 e0       	ldi	r24, 0x01	; 1
    11ba:	80 93 32 02 	sts	0x0232, r24	; 0x800232 <cd_button>
C:\Users\mateu\Documents\GitHub\Audi-CDC-Emulator\Software\cdc_arduino_atmega328pb_bk3254/cdc_function.cpp:945
#ifndef DISC_TRACK_NUMBER_FROM_MPD
      disc = 0x44; // set CD 4
    11be:	84 e4       	ldi	r24, 0x44	; 68
    11c0:	80 93 07 01 	sts	0x0107, r24	; 0x800107 <disc>
cdButtonPushed():
C:\Users\mateu\Documents\GitHub\Audi-CDC-Emulator\Software\cdc_arduino_atmega328pb_bk3254/cdc_function.cpp:2083
        if (++cd3pushed == 6)
          cd3pushed = 0;
        return cd3pushed;

      case 4:
        cd1pushed = cd2pushed = cd3pushed = cd5pushed = cd6pushed;
    11c4:	80 91 dd 01 	lds	r24, 0x01DD	; 0x8001dd <cdButtonPushed(unsigned char)::cd6pushed>
    11c8:	80 93 de 01 	sts	0x01DE, r24	; 0x8001de <cdButtonPushed(unsigned char)::cd5pushed>
    11cc:	80 93 e0 01 	sts	0x01E0, r24	; 0x8001e0 <cdButtonPushed(unsigned char)::cd3pushed>
    11d0:	80 93 e1 01 	sts	0x01E1, r24	; 0x8001e1 <cdButtonPushed(unsigned char)::cd2pushed>
    11d4:	80 93 e2 01 	sts	0x01E2, r24	; 0x8001e2 <cdButtonPushed(unsigned char)::cd1pushed>
C:\Users\mateu\Documents\GitHub\Audi-CDC-Emulator\Software\cdc_arduino_atmega328pb_bk3254/cdc_function.cpp:2084
        if (++cd4pushed == 6)
    11d8:	80 91 df 01 	lds	r24, 0x01DF	; 0x8001df <cdButtonPushed(unsigned char)::cd4pushed>
    11dc:	8f 5f       	subi	r24, 0xFF	; 255
    11de:	80 93 df 01 	sts	0x01DF, r24	; 0x8001df <cdButtonPushed(unsigned char)::cd4pushed>
    11e2:	86 30       	cpi	r24, 0x06	; 6
    11e4:	11 f4       	brne	.+4      	; 0x11ea <CDC_Protocol()+0x354>
C:\Users\mateu\Documents\GitHub\Audi-CDC-Emulator\Software\cdc_arduino_atmega328pb_bk3254/cdc_function.cpp:2085
          cd4pushed = 0;
    11e6:	10 92 df 01 	sts	0x01DF, r1	; 0x8001df <cdButtonPushed(unsigned char)::cd4pushed>
DecodeCommand():
C:\Users\mateu\Documents\GitHub\Audi-CDC-Emulator\Software\cdc_arduino_atmega328pb_bk3254/cdc_function.cpp:947
    case Do_CD4:
      cd_button = TRUE; // mk store cd button pressed
#ifndef DISC_TRACK_NUMBER_FROM_MPD
      disc = 0x44; // set CD 4
#endif
      if (cdButtonPushed(4))
    11ea:	80 91 df 01 	lds	r24, 0x01DF	; 0x8001df <cdButtonPushed(unsigned char)::cd4pushed>
    11ee:	88 23       	and	r24, r24
    11f0:	c9 f0       	breq	.+50     	; 0x1224 <CDC_Protocol()+0x38e>
C:\Users\mateu\Documents\GitHub\Audi-CDC-Emulator\Software\cdc_arduino_atmega328pb_bk3254/cdc_function.cpp:948
          EnqueueString(sLIST4);
    11f2:	87 e6       	ldi	r24, 0x67	; 103
    11f4:	91 e0       	ldi	r25, 0x01	; 1
    11f6:	54 c0       	rjmp	.+168    	; 0x12a0 <CDC_Protocol()+0x40a>
C:\Users\mateu\Documents\GitHub\Audi-CDC-Emulator\Software\cdc_arduino_atmega328pb_bk3254/cdc_function.cpp:730

#ifdef JUST_HEX_TO_SERIAL
  Serial.write(cmdcode);
#endif

  switch (cmdcode) {
    11f8:	84 3e       	cpi	r24, 0xE4	; 228
    11fa:	99 f1       	breq	.+102    	; 0x1262 <CDC_Protocol()+0x3cc>
    11fc:	88 3f       	cpi	r24, 0xF8	; 248
    11fe:	09 f4       	brne	.+2      	; 0x1202 <CDC_Protocol()+0x36c>
    1200:	96 cf       	rjmp	.-212    	; 0x112e <CDC_Protocol()+0x298>
    1202:	80 3e       	cpi	r24, 0xE0	; 224
    1204:	09 f0       	breq	.+2      	; 0x1208 <CDC_Protocol()+0x372>
    1206:	13 cf       	rjmp	.-474    	; 0x102e <CDC_Protocol()+0x198>
C:\Users\mateu\Documents\GitHub\Audi-CDC-Emulator\Software\cdc_arduino_atmega328pb_bk3254/cdc_function.cpp:816
      }
      break;

    case Do_MIX:
    case Do_MIX_CD:
      mix_button = 1;
    1208:	81 e0       	ldi	r24, 0x01	; 1
    120a:	80 93 31 02 	sts	0x0231, r24	; 0x800231 <mix_button>
C:\Users\mateu\Documents\GitHub\Audi-CDC-Emulator\Software\cdc_arduino_atmega328pb_bk3254/cdc_function.cpp:818
#ifndef DISC_TRACK_NUMBER_FROM_MPD
      if (mix == FALSE)
    120e:	90 91 35 02 	lds	r25, 0x0235	; 0x800235 <mix>
    1212:	91 11       	cpse	r25, r1
    1214:	71 c0       	rjmp	.+226    	; 0x12f8 <CDC_Protocol()+0x462>
C:\Users\mateu\Documents\GitHub\Audi-CDC-Emulator\Software\cdc_arduino_atmega328pb_bk3254/cdc_function.cpp:820
      {
        mix = TRUE;
    1216:	80 93 35 02 	sts	0x0235, r24	; 0x800235 <mix>
C:\Users\mateu\Documents\GitHub\Audi-CDC-Emulator\Software\cdc_arduino_atmega328pb_bk3254/cdc_function.cpp:827
      else
      {
        mix = FALSE;
      }
#endif
      EnqueueString(sRANDOM);
    121a:	8c e5       	ldi	r24, 0x5C	; 92
    121c:	91 e0       	ldi	r25, 0x01	; 1
    121e:	40 c0       	rjmp	.+128    	; 0x12a0 <CDC_Protocol()+0x40a>
C:\Users\mateu\Documents\GitHub\Audi-CDC-Emulator\Software\cdc_arduino_atmega328pb_bk3254/cdc_function.cpp:734

  switch (cmdcode) {
    case Do_CHANGECD:
      // Head unit seems to send this after each CDx number change
      // but the CD Changer seems to completely ignore (doesn't even ACK it).
      ACKcount = 0; // do not ack this command
    1220:	10 92 27 02 	sts	0x0227, r1	; 0x800227 <ACKcount>
_Z12CDC_Protocolv():
C:\Users\mateu\Documents\GitHub\Audi-CDC-Emulator\Software\cdc_arduino_atmega328pb_bk3254/cdc_function.cpp:664
    EnqueueHex(scanbyte);
  }

#endif

  while (txoutptr != txinptr)
    1224:	e0 91 21 02 	lds	r30, 0x0221	; 0x800221 <txoutptr>
    1228:	80 91 22 02 	lds	r24, 0x0222	; 0x800222 <txinptr>
    122c:	e8 17       	cp	r30, r24
    122e:	09 f4       	brne	.+2      	; 0x1232 <CDC_Protocol()+0x39c>
    1230:	26 c1       	rjmp	.+588    	; 0x147e <CDC_Protocol()+0x5e8>
C:\Users\mateu\Documents\GitHub\Audi-CDC-Emulator\Software\cdc_arduino_atmega328pb_bk3254/cdc_function.cpp:666
  {
    printstr_p((char*) txbuffer[txoutptr]);
    1232:	f0 e0       	ldi	r31, 0x00	; 0
    1234:	ee 0f       	add	r30, r30
    1236:	ff 1f       	adc	r31, r31
    1238:	ef 5f       	subi	r30, 0xFF	; 255
    123a:	fd 4f       	sbci	r31, 0xFD	; 253
    123c:	e0 80       	ld	r14, Z
    123e:	f1 80       	ldd	r15, Z+1	; 0x01
printstr_p():
C:\Users\mateu\Documents\GitHub\Audi-CDC-Emulator\Software\cdc_arduino_atmega328pb_bk3254/cdc_function.cpp:993
      break;
  }
}
static void printstr_p(const char *s) {
  char c;
  for (c = pgm_read_byte(s); c; ++s, c = pgm_read_byte(s))
    1240:	f7 01       	movw	r30, r14
    1242:	14 91       	lpm	r17, Z
    1244:	11 23       	and	r17, r17
    1246:	09 f4       	brne	.+2      	; 0x124a <CDC_Protocol()+0x3b4>
    1248:	0f c1       	rjmp	.+542    	; 0x1468 <CDC_Protocol()+0x5d2>
C:\Users\mateu\Documents\GitHub\Audi-CDC-Emulator\Software\cdc_arduino_atmega328pb_bk3254/cdc_function.cpp:995
  {
    Serial.print(c);
    124a:	61 2f       	mov	r22, r17
    124c:	83 e8       	ldi	r24, 0x83	; 131
    124e:	92 e0       	ldi	r25, 0x02	; 2
    1250:	0e 94 34 0d 	call	0x1a68	; 0x1a68 <Print::print(char)>
C:\Users\mateu\Documents\GitHub\Audi-CDC-Emulator\Software\cdc_arduino_atmega328pb_bk3254/cdc_function.cpp:996
    if (c == '\n')
    1254:	1a 30       	cpi	r17, 0x0A	; 10
    1256:	09 f4       	brne	.+2      	; 0x125a <CDC_Protocol()+0x3c4>
    1258:	07 c1       	rjmp	.+526    	; 0x1468 <CDC_Protocol()+0x5d2>
C:\Users\mateu\Documents\GitHub\Audi-CDC-Emulator\Software\cdc_arduino_atmega328pb_bk3254/cdc_function.cpp:993
      break;
  }
}
static void printstr_p(const char *s) {
  char c;
  for (c = pgm_read_byte(s); c; ++s, c = pgm_read_byte(s))
    125a:	ff ef       	ldi	r31, 0xFF	; 255
    125c:	ef 1a       	sub	r14, r31
    125e:	ff 0a       	sbc	r15, r31
    1260:	ef cf       	rjmp	.-34     	; 0x1240 <CDC_Protocol()+0x3aa>
DecodeCommand():
C:\Users\mateu\Documents\GitHub\Audi-CDC-Emulator\Software\cdc_arduino_atmega328pb_bk3254/cdc_function.cpp:742
#endif
      break;

    case Do_ENABLE:
    case Do_ENABLE_MK:
      mix = FALSE;
    1262:	10 92 35 02 	sts	0x0235, r1	; 0x800235 <mix>
C:\Users\mateu\Documents\GitHub\Audi-CDC-Emulator\Software\cdc_arduino_atmega328pb_bk3254/cdc_function.cpp:743
      if (playing == FALSE)
    1266:	80 91 33 02 	lds	r24, 0x0233	; 0x800233 <playing>
    126a:	81 11       	cpse	r24, r1
    126c:	02 c0       	rjmp	.+4      	; 0x1272 <CDC_Protocol()+0x3dc>
C:\Users\mateu\Documents\GitHub\Audi-CDC-Emulator\Software\cdc_arduino_atmega328pb_bk3254/cdc_function.cpp:745
      {
        SetStateInitPlay(); // skip this if already playing
    126e:	0e 94 f7 03 	call	0x7ee	; 0x7ee <SetStateInitPlay()>
C:\Users\mateu\Documents\GitHub\Audi-CDC-Emulator\Software\cdc_arduino_atmega328pb_bk3254/cdc_function.cpp:747
      }
      if (!mix_button)
    1272:	80 91 31 02 	lds	r24, 0x0231	; 0x800231 <mix_button>
    1276:	81 11       	cpse	r24, r1
    1278:	04 c0       	rjmp	.+8      	; 0x1282 <CDC_Protocol()+0x3ec>
C:\Users\mateu\Documents\GitHub\Audi-CDC-Emulator\Software\cdc_arduino_atmega328pb_bk3254/cdc_function.cpp:748
        EnqueueString(sMENABLE);
    127a:	89 e8       	ldi	r24, 0x89	; 137
    127c:	91 e0       	ldi	r25, 0x01	; 1
    127e:	0e 94 04 04 	call	0x808	; 0x808 <EnqueueString(unsigned char const*)>
C:\Users\mateu\Documents\GitHub\Audi-CDC-Emulator\Software\cdc_arduino_atmega328pb_bk3254/cdc_function.cpp:750
      #ifdef BLUETOOTH
        bt.musicPlay();
    1282:	80 eb       	ldi	r24, 0xB0	; 176
    1284:	91 e0       	ldi	r25, 0x01	; 1
    1286:	0e 94 ef 01 	call	0x3de	; 0x3de <BK3254::musicPlay()>
    128a:	cc cf       	rjmp	.-104    	; 0x1224 <CDC_Protocol()+0x38e>
C:\Users\mateu\Documents\GitHub\Audi-CDC-Emulator\Software\cdc_arduino_atmega328pb_bk3254/cdc_function.cpp:755
      #endif
      break;

    case Do_LOADCD:
      if (playing == TRUE)
    128c:	80 91 33 02 	lds	r24, 0x0233	; 0x800233 <playing>
    1290:	81 30       	cpi	r24, 0x01	; 1
    1292:	11 f4       	brne	.+4      	; 0x1298 <CDC_Protocol()+0x402>
C:\Users\mateu\Documents\GitHub\Audi-CDC-Emulator\Software\cdc_arduino_atmega328pb_bk3254/cdc_function.cpp:757
      {
        SetStateInitPlay(); // skip this if we're in idle mode
    1294:	0e 94 f7 03 	call	0x7ee	; 0x7ee <SetStateInitPlay()>
C:\Users\mateu\Documents\GitHub\Audi-CDC-Emulator\Software\cdc_arduino_atmega328pb_bk3254/cdc_function.cpp:759
      }
      ResetTime();
    1298:	0e 94 58 04 	call	0x8b0	; 0x8b0 <ResetTime()>
C:\Users\mateu\Documents\GitHub\Audi-CDC-Emulator\Software\cdc_arduino_atmega328pb_bk3254/cdc_function.cpp:760
      EnqueueString(sMINQUIRY);
    129c:	88 e8       	ldi	r24, 0x88	; 136
    129e:	91 e0       	ldi	r25, 0x01	; 1
C:\Users\mateu\Documents\GitHub\Audi-CDC-Emulator\Software\cdc_arduino_atmega328pb_bk3254/cdc_function.cpp:987
         Dump the unknown command code for the user to view.
      */

      EnqueueString(sDASH);
      EnqueueHex(cmdcode);
      EnqueueString(sNEWLINE);
    12a0:	0e 94 04 04 	call	0x808	; 0x808 <EnqueueString(unsigned char const*)>
    12a4:	bf cf       	rjmp	.-130    	; 0x1224 <CDC_Protocol()+0x38e>
C:\Users\mateu\Documents\GitHub\Audi-CDC-Emulator\Software\cdc_arduino_atmega328pb_bk3254/cdc_function.cpp:776
      #endif
      break;

    case Do_SEEKBACK:
    case Do_PREVCD:
      ResetTime();
    12a6:	0e 94 58 04 	call	0x8b0	; 0x8b0 <ResetTime()>
C:\Users\mateu\Documents\GitHub\Audi-CDC-Emulator\Software\cdc_arduino_atmega328pb_bk3254/cdc_function.cpp:777
      EnqueueString(sPRV_LIST);
    12aa:	87 e8       	ldi	r24, 0x87	; 135
    12ac:	91 e0       	ldi	r25, 0x01	; 1
    12ae:	0e 94 04 04 	call	0x808	; 0x808 <EnqueueString(unsigned char const*)>
C:\Users\mateu\Documents\GitHub\Audi-CDC-Emulator\Software\cdc_arduino_atmega328pb_bk3254/cdc_function.cpp:779
#ifndef DISC_TRACK_NUMBER_FROM_MPD
      disc--;
    12b2:	80 91 07 01 	lds	r24, 0x0107	; 0x800107 <disc>
    12b6:	81 50       	subi	r24, 0x01	; 1
    12b8:	80 93 07 01 	sts	0x0107, r24	; 0x800107 <disc>
C:\Users\mateu\Documents\GitHub\Audi-CDC-Emulator\Software\cdc_arduino_atmega328pb_bk3254/cdc_function.cpp:780
      if ((disc & 0x0F) == 0)
    12bc:	8f 70       	andi	r24, 0x0F	; 15
    12be:	09 f0       	breq	.+2      	; 0x12c2 <CDC_Protocol()+0x42c>
    12c0:	b1 cf       	rjmp	.-158    	; 0x1224 <CDC_Protocol()+0x38e>
C:\Users\mateu\Documents\GitHub\Audi-CDC-Emulator\Software\cdc_arduino_atmega328pb_bk3254/cdc_function.cpp:782
      {
        disc = 0x46; // set back to CD 1
    12c2:	86 e4       	ldi	r24, 0x46	; 70
C:\Users\mateu\Documents\GitHub\Audi-CDC-Emulator\Software\cdc_arduino_atmega328pb_bk3254/cdc_function.cpp:797
        EnqueueString(sNXT_LIST);
#ifndef DISC_TRACK_NUMBER_FROM_MPD
        disc++;
        if (disc > 0x46)
        {
          disc = 0x41;
    12c4:	80 93 07 01 	sts	0x0107, r24	; 0x800107 <disc>
    12c8:	ad cf       	rjmp	.-166    	; 0x1224 <CDC_Protocol()+0x38e>
C:\Users\mateu\Documents\GitHub\Audi-CDC-Emulator\Software\cdc_arduino_atmega328pb_bk3254/cdc_function.cpp:789
#endif
      break;

    case Do_SEEKFORWARD:
    case Do_SEEKFORWARD_MK:
      ResetTime();
    12ca:	0e 94 58 04 	call	0x8b0	; 0x8b0 <ResetTime()>
C:\Users\mateu\Documents\GitHub\Audi-CDC-Emulator\Software\cdc_arduino_atmega328pb_bk3254/cdc_function.cpp:790
      if (cd_button == FALSE) // mk don't increment when previous command was a cd button
    12ce:	80 91 32 02 	lds	r24, 0x0232	; 0x800232 <cd_button>
    12d2:	81 11       	cpse	r24, r1
    12d4:	0e c0       	rjmp	.+28     	; 0x12f2 <CDC_Protocol()+0x45c>
C:\Users\mateu\Documents\GitHub\Audi-CDC-Emulator\Software\cdc_arduino_atmega328pb_bk3254/cdc_function.cpp:792
      {
        EnqueueString(sNXT_LIST);
    12d6:	86 e8       	ldi	r24, 0x86	; 134
    12d8:	91 e0       	ldi	r25, 0x01	; 1
    12da:	0e 94 04 04 	call	0x808	; 0x808 <EnqueueString(unsigned char const*)>
C:\Users\mateu\Documents\GitHub\Audi-CDC-Emulator\Software\cdc_arduino_atmega328pb_bk3254/cdc_function.cpp:794
#ifndef DISC_TRACK_NUMBER_FROM_MPD
        disc++;
    12de:	80 91 07 01 	lds	r24, 0x0107	; 0x800107 <disc>
    12e2:	8f 5f       	subi	r24, 0xFF	; 255
    12e4:	80 93 07 01 	sts	0x0107, r24	; 0x800107 <disc>
C:\Users\mateu\Documents\GitHub\Audi-CDC-Emulator\Software\cdc_arduino_atmega328pb_bk3254/cdc_function.cpp:795
        if (disc > 0x46)
    12e8:	87 34       	cpi	r24, 0x47	; 71
    12ea:	08 f4       	brcc	.+2      	; 0x12ee <CDC_Protocol()+0x458>
    12ec:	9b cf       	rjmp	.-202    	; 0x1224 <CDC_Protocol()+0x38e>
C:\Users\mateu\Documents\GitHub\Audi-CDC-Emulator\Software\cdc_arduino_atmega328pb_bk3254/cdc_function.cpp:797
        {
          disc = 0x41;
    12ee:	81 e4       	ldi	r24, 0x41	; 65
    12f0:	e9 cf       	rjmp	.-46     	; 0x12c4 <CDC_Protocol()+0x42e>
C:\Users\mateu\Documents\GitHub\Audi-CDC-Emulator\Software\cdc_arduino_atmega328pb_bk3254/cdc_function.cpp:810
        // However, going beyond CD6 mutes audio on monsoon head unit, so we
        // definitely don't want to do that.
      }
      else
      {
        cd_button = FALSE; // mk clear cd button flag
    12f2:	10 92 32 02 	sts	0x0232, r1	; 0x800232 <cd_button>
    12f6:	96 cf       	rjmp	.-212    	; 0x1224 <CDC_Protocol()+0x38e>
C:\Users\mateu\Documents\GitHub\Audi-CDC-Emulator\Software\cdc_arduino_atmega328pb_bk3254/cdc_function.cpp:824
      {
        mix = TRUE;
      }
      else
      {
        mix = FALSE;
    12f8:	10 92 35 02 	sts	0x0235, r1	; 0x800235 <mix>
    12fc:	8e cf       	rjmp	.-228    	; 0x121a <CDC_Protocol()+0x384>
C:\Users\mateu\Documents\GitHub\Audi-CDC-Emulator\Software\cdc_arduino_atmega328pb_bk3254/cdc_function.cpp:831
#endif
      EnqueueString(sRANDOM);
      break;

    case Do_PLAY:
      EnqueueString(sPLAY); // this will make the PJRC play/pause
    12fe:	83 e5       	ldi	r24, 0x53	; 83
    1300:	91 e0       	ldi	r25, 0x01	; 1
    1302:	ce cf       	rjmp	.-100    	; 0x12a0 <CDC_Protocol()+0x40a>
C:\Users\mateu\Documents\GitHub\Audi-CDC-Emulator\Software\cdc_arduino_atmega328pb_bk3254/cdc_function.cpp:844
      {
        scan = TRUE;
      }
      else
      {
        scan = FALSE;
    1304:	10 92 34 02 	sts	0x0234, r1	; 0x800234 <scan>
    1308:	4a cf       	rjmp	.-364    	; 0x119e <CDC_Protocol()+0x308>
C:\Users\mateu\Documents\GitHub\Audi-CDC-Emulator\Software\cdc_arduino_atmega328pb_bk3254/cdc_function.cpp:883
      #endif
      break;

    case Do_DOWN:
    case Do_DOWN_MK3:
      if (playing == TRUE) // skip track lead-in if not in play mode
    130a:	80 91 33 02 	lds	r24, 0x0233	; 0x800233 <playing>
    130e:	81 30       	cpi	r24, 0x01	; 1
    1310:	31 f4       	brne	.+12     	; 0x131e <CDC_Protocol()+0x488>
SetStateTrackLeadIn():
C:\Users\mateu\Documents\GitHub\Audi-CDC-Emulator\Software\cdc_arduino_atmega328pb_bk3254/cdc_function.cpp:1460

{

  playing = TRUE;

  BIDIstate = StateTrackLeadIn;
    1312:	88 e0       	ldi	r24, 0x08	; 8
    1314:	80 93 29 02 	sts	0x0229, r24	; 0x800229 <BIDIstate>
C:\Users\mateu\Documents\GitHub\Audi-CDC-Emulator\Software\cdc_arduino_atmega328pb_bk3254/cdc_function.cpp:1462

  BIDIcount = -12;
    1318:	84 ef       	ldi	r24, 0xF4	; 244
    131a:	80 93 28 02 	sts	0x0228, r24	; 0x800228 <BIDIcount>
DecodeCommand():
C:\Users\mateu\Documents\GitHub\Audi-CDC-Emulator\Software\cdc_arduino_atmega328pb_bk3254/cdc_function.cpp:887
    case Do_DOWN_MK3:
      if (playing == TRUE) // skip track lead-in if not in play mode
      {
        SetStateTrackLeadIn();
      }
      ResetTime();
    131e:	0e 94 58 04 	call	0x8b0	; 0x8b0 <ResetTime()>
C:\Users\mateu\Documents\GitHub\Audi-CDC-Emulator\Software\cdc_arduino_atmega328pb_bk3254/cdc_function.cpp:889
#ifndef DISC_TRACK_NUMBER_FROM_MPD
      decimal_adjust_u8 = track & 0x0F; // skip past hexidecimal codes
    1322:	80 91 06 01 	lds	r24, 0x0106	; 0x800106 <track>
    1326:	98 2f       	mov	r25, r24
    1328:	9f 70       	andi	r25, 0x0F	; 15
C:\Users\mateu\Documents\GitHub\Audi-CDC-Emulator\Software\cdc_arduino_atmega328pb_bk3254/cdc_function.cpp:890
      if (decimal_adjust_u8 == 0) // are we at x0?
    132a:	19 f4       	brne	.+6      	; 0x1332 <CDC_Protocol()+0x49c>
C:\Users\mateu\Documents\GitHub\Audi-CDC-Emulator\Software\cdc_arduino_atmega328pb_bk3254/cdc_function.cpp:892
      {
        track -= 6; // yes, subtract 6 and we'll be at x9 instead
    132c:	86 50       	subi	r24, 0x06	; 6
    132e:	80 93 06 01 	sts	0x0106, r24	; 0x800106 <track>
C:\Users\mateu\Documents\GitHub\Audi-CDC-Emulator\Software\cdc_arduino_atmega328pb_bk3254/cdc_function.cpp:894
      }
      track--;
    1332:	80 91 06 01 	lds	r24, 0x0106	; 0x800106 <track>
    1336:	81 50       	subi	r24, 0x01	; 1
    1338:	80 93 06 01 	sts	0x0106, r24	; 0x800106 <track>
C:\Users\mateu\Documents\GitHub\Audi-CDC-Emulator\Software\cdc_arduino_atmega328pb_bk3254/cdc_function.cpp:895
      if (track == 0) // have we gone below Track 1?
    133c:	81 11       	cpse	r24, r1
    133e:	03 c0       	rjmp	.+6      	; 0x1346 <CDC_Protocol()+0x4b0>
C:\Users\mateu\Documents\GitHub\Audi-CDC-Emulator\Software\cdc_arduino_atmega328pb_bk3254/cdc_function.cpp:897
      { // yes, rollover to Track 99 so that jog wheels
        track = 0x99; // can continue rolling (Audi Concert II)
    1340:	89 e9       	ldi	r24, 0x99	; 153
    1342:	80 93 06 01 	sts	0x0106, r24	; 0x800106 <track>
C:\Users\mateu\Documents\GitHub\Audi-CDC-Emulator\Software\cdc_arduino_atmega328pb_bk3254/cdc_function.cpp:900
      }
#endif
      EnqueueString(sPREVIOUS);
    1346:	80 e4       	ldi	r24, 0x40	; 64
    1348:	91 e0       	ldi	r25, 0x01	; 1
    134a:	0e 94 04 04 	call	0x808	; 0x808 <EnqueueString(unsigned char const*)>
C:\Users\mateu\Documents\GitHub\Audi-CDC-Emulator\Software\cdc_arduino_atmega328pb_bk3254/cdc_function.cpp:902
      #ifdef BLUETOOTH
        bt.musicPreviousTrack();
    134e:	80 eb       	ldi	r24, 0xB0	; 176
    1350:	91 e0       	ldi	r25, 0x01	; 1
    1352:	0e 94 52 02 	call	0x4a4	; 0x4a4 <BK3254::musicPreviousTrack()>
    1356:	66 cf       	rjmp	.-308    	; 0x1224 <CDC_Protocol()+0x38e>
C:\Users\mateu\Documents\GitHub\Audi-CDC-Emulator\Software\cdc_arduino_atmega328pb_bk3254/cdc_function.cpp:907
      #endif
      break;

    case Do_CD1:
      cd_button = TRUE; // mk store cd button pressed
    1358:	81 e0       	ldi	r24, 0x01	; 1
    135a:	80 93 32 02 	sts	0x0232, r24	; 0x800232 <cd_button>
C:\Users\mateu\Documents\GitHub\Audi-CDC-Emulator\Software\cdc_arduino_atmega328pb_bk3254/cdc_function.cpp:909
#ifndef DISC_TRACK_NUMBER_FROM_MPD
      disc = 0x41; // set CD 1
    135e:	81 e4       	ldi	r24, 0x41	; 65
    1360:	80 93 07 01 	sts	0x0107, r24	; 0x800107 <disc>
cdButtonPushed():
C:\Users\mateu\Documents\GitHub\Audi-CDC-Emulator\Software\cdc_arduino_atmega328pb_bk3254/cdc_function.cpp:2066

static uint8_t cdButtonPushed(uint8_t cdnumber) {
  static uint8_t cd1pushed, cd2pushed, cd3pushed, cd4pushed, cd5pushed, cd6pushed = 0; //variable to cound how many times we pressed button for spectial actions
  switch (cdnumber) {
    case 1:
      cd2pushed = cd3pushed = cd4pushed = cd5pushed = cd6pushed;
    1364:	80 91 dd 01 	lds	r24, 0x01DD	; 0x8001dd <cdButtonPushed(unsigned char)::cd6pushed>
    1368:	80 93 de 01 	sts	0x01DE, r24	; 0x8001de <cdButtonPushed(unsigned char)::cd5pushed>
    136c:	80 93 df 01 	sts	0x01DF, r24	; 0x8001df <cdButtonPushed(unsigned char)::cd4pushed>
    1370:	80 93 e0 01 	sts	0x01E0, r24	; 0x8001e0 <cdButtonPushed(unsigned char)::cd3pushed>
    1374:	80 93 e1 01 	sts	0x01E1, r24	; 0x8001e1 <cdButtonPushed(unsigned char)::cd2pushed>
C:\Users\mateu\Documents\GitHub\Audi-CDC-Emulator\Software\cdc_arduino_atmega328pb_bk3254/cdc_function.cpp:2067
      if (++cd1pushed == 6)
    1378:	80 91 e2 01 	lds	r24, 0x01E2	; 0x8001e2 <cdButtonPushed(unsigned char)::cd1pushed>
    137c:	8f 5f       	subi	r24, 0xFF	; 255
    137e:	80 93 e2 01 	sts	0x01E2, r24	; 0x8001e2 <cdButtonPushed(unsigned char)::cd1pushed>
    1382:	86 30       	cpi	r24, 0x06	; 6
    1384:	11 f4       	brne	.+4      	; 0x138a <CDC_Protocol()+0x4f4>
C:\Users\mateu\Documents\GitHub\Audi-CDC-Emulator\Software\cdc_arduino_atmega328pb_bk3254/cdc_function.cpp:2068
        cd1pushed = 0;
    1386:	10 92 e2 01 	sts	0x01E2, r1	; 0x8001e2 <cdButtonPushed(unsigned char)::cd1pushed>
DecodeCommand():
C:\Users\mateu\Documents\GitHub\Audi-CDC-Emulator\Software\cdc_arduino_atmega328pb_bk3254/cdc_function.cpp:911
    case Do_CD1:
      cd_button = TRUE; // mk store cd button pressed
#ifndef DISC_TRACK_NUMBER_FROM_MPD
      disc = 0x41; // set CD 1
#endif
      if (cdButtonPushed(1))
    138a:	80 91 e2 01 	lds	r24, 0x01E2	; 0x8001e2 <cdButtonPushed(unsigned char)::cd1pushed>
    138e:	88 23       	and	r24, r24
    1390:	21 f0       	breq	.+8      	; 0x139a <CDC_Protocol()+0x504>
C:\Users\mateu\Documents\GitHub\Audi-CDC-Emulator\Software\cdc_arduino_atmega328pb_bk3254/cdc_function.cpp:912
          EnqueueString(sLIST1);
    1392:	8c e7       	ldi	r24, 0x7C	; 124
    1394:	91 e0       	ldi	r25, 0x01	; 1
    1396:	0e 94 04 04 	call	0x808	; 0x808 <EnqueueString(unsigned char const*)>
C:\Users\mateu\Documents\GitHub\Audi-CDC-Emulator\Software\cdc_arduino_atmega328pb_bk3254/cdc_function.cpp:914
      #ifdef BLUETOOTH
        bt.send("COM+MBT\r\n");
    139a:	60 e7       	ldi	r22, 0x70	; 112
    139c:	71 e0       	ldi	r23, 0x01	; 1
C:\Users\mateu\Documents\GitHub\Audi-CDC-Emulator\Software\cdc_arduino_atmega328pb_bk3254/cdc_function.cpp:938
      disc = 0x43; // set CD 3
#endif
      if (cdButtonPushed(3))
          EnqueueString(sLIST3);
      #ifdef BLUETOOTH
        bt.send("COM+MAX\r\n");
    139e:	ce 01       	movw	r24, r28
    13a0:	01 96       	adiw	r24, 0x01	; 1
    13a2:	0e 94 c5 0d 	call	0x1b8a	; 0x1b8a <String::String(char const*)>
    13a6:	be 01       	movw	r22, r28
    13a8:	6f 5f       	subi	r22, 0xFF	; 255
    13aa:	7f 4f       	sbci	r23, 0xFF	; 255
    13ac:	80 eb       	ldi	r24, 0xB0	; 176
    13ae:	91 e0       	ldi	r25, 0x01	; 1
    13b0:	0e 94 24 01 	call	0x248	; 0x248 <BK3254::send(String)>
    13b4:	ce 01       	movw	r24, r28
    13b6:	01 96       	adiw	r24, 0x01	; 1
    13b8:	0e 94 56 0d 	call	0x1aac	; 0x1aac <String::~String()>
    13bc:	33 cf       	rjmp	.-410    	; 0x1224 <CDC_Protocol()+0x38e>
C:\Users\mateu\Documents\GitHub\Audi-CDC-Emulator\Software\cdc_arduino_atmega328pb_bk3254/cdc_function.cpp:919
        bt.send("COM+MBT\r\n");
      #endif
      break;

    case Do_CD2:
      cd_button = TRUE; // mk store cd button pressed
    13be:	81 e0       	ldi	r24, 0x01	; 1
    13c0:	80 93 32 02 	sts	0x0232, r24	; 0x800232 <cd_button>
C:\Users\mateu\Documents\GitHub\Audi-CDC-Emulator\Software\cdc_arduino_atmega328pb_bk3254/cdc_function.cpp:921
#ifndef DISC_TRACK_NUMBER_FROM_MPD
      disc = 0x42; // set CD 2
    13c4:	82 e4       	ldi	r24, 0x42	; 66
    13c6:	80 93 07 01 	sts	0x0107, r24	; 0x800107 <disc>
cdButtonPushed():
C:\Users\mateu\Documents\GitHub\Audi-CDC-Emulator\Software\cdc_arduino_atmega328pb_bk3254/cdc_function.cpp:2066

static uint8_t cdButtonPushed(uint8_t cdnumber) {
  static uint8_t cd1pushed, cd2pushed, cd3pushed, cd4pushed, cd5pushed, cd6pushed = 0; //variable to cound how many times we pressed button for spectial actions
  switch (cdnumber) {
    case 1:
      cd2pushed = cd3pushed = cd4pushed = cd5pushed = cd6pushed;
    13ca:	80 91 dd 01 	lds	r24, 0x01DD	; 0x8001dd <cdButtonPushed(unsigned char)::cd6pushed>
    13ce:	80 93 de 01 	sts	0x01DE, r24	; 0x8001de <cdButtonPushed(unsigned char)::cd5pushed>
    13d2:	80 93 df 01 	sts	0x01DF, r24	; 0x8001df <cdButtonPushed(unsigned char)::cd4pushed>
    13d6:	80 93 e0 01 	sts	0x01E0, r24	; 0x8001e0 <cdButtonPushed(unsigned char)::cd3pushed>
    13da:	80 93 e1 01 	sts	0x01E1, r24	; 0x8001e1 <cdButtonPushed(unsigned char)::cd2pushed>
C:\Users\mateu\Documents\GitHub\Audi-CDC-Emulator\Software\cdc_arduino_atmega328pb_bk3254/cdc_function.cpp:2067
      if (++cd1pushed == 6)
    13de:	80 91 e2 01 	lds	r24, 0x01E2	; 0x8001e2 <cdButtonPushed(unsigned char)::cd1pushed>
    13e2:	8f 5f       	subi	r24, 0xFF	; 255
    13e4:	80 93 e2 01 	sts	0x01E2, r24	; 0x8001e2 <cdButtonPushed(unsigned char)::cd1pushed>
    13e8:	86 30       	cpi	r24, 0x06	; 6
    13ea:	11 f4       	brne	.+4      	; 0x13f0 <CDC_Protocol()+0x55a>
C:\Users\mateu\Documents\GitHub\Audi-CDC-Emulator\Software\cdc_arduino_atmega328pb_bk3254/cdc_function.cpp:2068
        cd1pushed = 0;
    13ec:	10 92 e2 01 	sts	0x01E2, r1	; 0x8001e2 <cdButtonPushed(unsigned char)::cd1pushed>
DecodeCommand():
C:\Users\mateu\Documents\GitHub\Audi-CDC-Emulator\Software\cdc_arduino_atmega328pb_bk3254/cdc_function.cpp:923
    case Do_CD2:
      cd_button = TRUE; // mk store cd button pressed
#ifndef DISC_TRACK_NUMBER_FROM_MPD
      disc = 0x42; // set CD 2
#endif
      if (cdButtonPushed(1))
    13f0:	80 91 e2 01 	lds	r24, 0x01E2	; 0x8001e2 <cdButtonPushed(unsigned char)::cd1pushed>
    13f4:	88 23       	and	r24, r24
    13f6:	21 f0       	breq	.+8      	; 0x1400 <CDC_Protocol()+0x56a>
C:\Users\mateu\Documents\GitHub\Audi-CDC-Emulator\Software\cdc_arduino_atmega328pb_bk3254/cdc_function.cpp:924
      EnqueueString(sLIST2);
    13f8:	82 e7       	ldi	r24, 0x72	; 114
    13fa:	91 e0       	ldi	r25, 0x01	; 1
    13fc:	0e 94 04 04 	call	0x808	; 0x808 <EnqueueString(unsigned char const*)>
C:\Users\mateu\Documents\GitHub\Audi-CDC-Emulator\Software\cdc_arduino_atmega328pb_bk3254/cdc_function.cpp:926
      #ifdef BLUETOOTH
        bt.send("COM+MUD\r\n");
    1400:	6a e7       	ldi	r22, 0x7A	; 122
    1402:	71 e0       	ldi	r23, 0x01	; 1
    1404:	cc cf       	rjmp	.-104    	; 0x139e <CDC_Protocol()+0x508>
C:\Users\mateu\Documents\GitHub\Audi-CDC-Emulator\Software\cdc_arduino_atmega328pb_bk3254/cdc_function.cpp:961
      if (cdButtonPushed(5))
          EnqueueString(sLIST5);
      break;

    case Do_CD6:
      cd_button = TRUE; // mk store cd button pressed
    1406:	81 e0       	ldi	r24, 0x01	; 1
    1408:	80 93 32 02 	sts	0x0232, r24	; 0x800232 <cd_button>
C:\Users\mateu\Documents\GitHub\Audi-CDC-Emulator\Software\cdc_arduino_atmega328pb_bk3254/cdc_function.cpp:963
#ifndef DISC_TRACK_NUMBER_FROM_MPD
      disc = 0x46; // set CD 6
    140c:	86 e4       	ldi	r24, 0x46	; 70
    140e:	80 93 07 01 	sts	0x0107, r24	; 0x800107 <disc>
cdButtonPushed():
C:\Users\mateu\Documents\GitHub\Audi-CDC-Emulator\Software\cdc_arduino_atmega328pb_bk3254/cdc_function.cpp:2095
        if (++cd5pushed == 6)
          cd5pushed = 0;
        return cd5pushed;

      case 6:
        cd1pushed = cd2pushed = cd3pushed = cd4pushed = cd5pushed;
    1412:	80 91 de 01 	lds	r24, 0x01DE	; 0x8001de <cdButtonPushed(unsigned char)::cd5pushed>
    1416:	80 93 df 01 	sts	0x01DF, r24	; 0x8001df <cdButtonPushed(unsigned char)::cd4pushed>
    141a:	80 93 e0 01 	sts	0x01E0, r24	; 0x8001e0 <cdButtonPushed(unsigned char)::cd3pushed>
    141e:	80 93 e1 01 	sts	0x01E1, r24	; 0x8001e1 <cdButtonPushed(unsigned char)::cd2pushed>
    1422:	80 93 e2 01 	sts	0x01E2, r24	; 0x8001e2 <cdButtonPushed(unsigned char)::cd1pushed>
C:\Users\mateu\Documents\GitHub\Audi-CDC-Emulator\Software\cdc_arduino_atmega328pb_bk3254/cdc_function.cpp:2096
        if (++cd6pushed == 6)
    1426:	80 91 dd 01 	lds	r24, 0x01DD	; 0x8001dd <cdButtonPushed(unsigned char)::cd6pushed>
    142a:	8f 5f       	subi	r24, 0xFF	; 255
    142c:	80 93 dd 01 	sts	0x01DD, r24	; 0x8001dd <cdButtonPushed(unsigned char)::cd6pushed>
    1430:	86 30       	cpi	r24, 0x06	; 6
    1432:	11 f4       	brne	.+4      	; 0x1438 <CDC_Protocol()+0x5a2>
C:\Users\mateu\Documents\GitHub\Audi-CDC-Emulator\Software\cdc_arduino_atmega328pb_bk3254/cdc_function.cpp:2097
          cd5pushed = 0;
    1434:	10 92 de 01 	sts	0x01DE, r1	; 0x8001de <cdButtonPushed(unsigned char)::cd5pushed>
DecodeCommand():
C:\Users\mateu\Documents\GitHub\Audi-CDC-Emulator\Software\cdc_arduino_atmega328pb_bk3254/cdc_function.cpp:965
    case Do_CD6:
      cd_button = TRUE; // mk store cd button pressed
#ifndef DISC_TRACK_NUMBER_FROM_MPD
      disc = 0x46; // set CD 6
#endif
      if (cdButtonPushed(6))
    1438:	80 91 de 01 	lds	r24, 0x01DE	; 0x8001de <cdButtonPushed(unsigned char)::cd5pushed>
    143c:	88 23       	and	r24, r24
    143e:	09 f4       	brne	.+2      	; 0x1442 <CDC_Protocol()+0x5ac>
    1440:	f1 ce       	rjmp	.-542    	; 0x1224 <CDC_Protocol()+0x38e>
C:\Users\mateu\Documents\GitHub\Audi-CDC-Emulator\Software\cdc_arduino_atmega328pb_bk3254/cdc_function.cpp:966
          EnqueueString(sLIST6);
    1442:	85 e6       	ldi	r24, 0x65	; 101
    1444:	91 e0       	ldi	r25, 0x01	; 1
    1446:	2c cf       	rjmp	.-424    	; 0x12a0 <CDC_Protocol()+0x40a>
C:\Users\mateu\Documents\GitHub\Audi-CDC-Emulator\Software\cdc_arduino_atmega328pb_bk3254/cdc_function.cpp:970
      break;

    case Do_TP:
      if (playing == TRUE) {
    1448:	80 91 33 02 	lds	r24, 0x0233	; 0x800233 <playing>
    144c:	81 30       	cpi	r24, 0x01	; 1
    144e:	31 f4       	brne	.+12     	; 0x145c <CDC_Protocol()+0x5c6>
SetStateTP():
C:\Users\mateu\Documents\GitHub\Audi-CDC-Emulator\Software\cdc_arduino_atmega328pb_bk3254/cdc_function.cpp:1312
  BIDIstate = StateIdle;

}
static void SetStateTP(void)
{
  playing = FALSE;
    1450:	10 92 33 02 	sts	0x0233, r1	; 0x800233 <playing>
C:\Users\mateu\Documents\GitHub\Audi-CDC-Emulator\Software\cdc_arduino_atmega328pb_bk3254/cdc_function.cpp:1313
  BIDIstate = StateTP;
    1454:	8a e0       	ldi	r24, 0x0A	; 10
    1456:	80 93 29 02 	sts	0x0229, r24	; 0x800229 <BIDIstate>
    145a:	e4 ce       	rjmp	.-568    	; 0x1224 <CDC_Protocol()+0x38e>
DecodeCommand():
C:\Users\mateu\Documents\GitHub\Audi-CDC-Emulator\Software\cdc_arduino_atmega328pb_bk3254/cdc_function.cpp:973

    case Do_TP:
      if (playing == TRUE) {
        SetStateTP();
      } else {
        SetStateInitPlay();
    145c:	0e 94 f7 03 	call	0x7ee	; 0x7ee <SetStateInitPlay()>
    1460:	e1 ce       	rjmp	.-574    	; 0x1224 <CDC_Protocol()+0x38e>
ScanCommandBytes():
C:\Users\mateu\Documents\GitHub\Audi-CDC-Emulator\Software\cdc_arduino_atmega328pb_bk3254/cdc_function.cpp:1166

    else

    {

      DumpFullCommand(); // ABORT: dump invalid packet for display
    1462:	0e 94 2b 04 	call	0x856	; 0x856 <DumpFullCommand()>
    1466:	de ce       	rjmp	.-580    	; 0x1224 <CDC_Protocol()+0x38e>
_Z12CDC_Protocolv():
C:\Users\mateu\Documents\GitHub\Audi-CDC-Emulator\Software\cdc_arduino_atmega328pb_bk3254/cdc_function.cpp:667
#endif

  while (txoutptr != txinptr)
  {
    printstr_p((char*) txbuffer[txoutptr]);
    txoutptr++;
    1468:	80 91 21 02 	lds	r24, 0x0221	; 0x800221 <txoutptr>
    146c:	8f 5f       	subi	r24, 0xFF	; 255
    146e:	80 93 21 02 	sts	0x0221, r24	; 0x800221 <txoutptr>
C:\Users\mateu\Documents\GitHub\Audi-CDC-Emulator\Software\cdc_arduino_atmega328pb_bk3254/cdc_function.cpp:668
    if (txoutptr == TX_BUFFER_END)
    1472:	8c 30       	cpi	r24, 0x0C	; 12
    1474:	09 f0       	breq	.+2      	; 0x1478 <CDC_Protocol()+0x5e2>
    1476:	d6 ce       	rjmp	.-596    	; 0x1224 <CDC_Protocol()+0x38e>
C:\Users\mateu\Documents\GitHub\Audi-CDC-Emulator\Software\cdc_arduino_atmega328pb_bk3254/cdc_function.cpp:670
    {
      txoutptr = 0;
    1478:	10 92 21 02 	sts	0x0221, r1	; 0x800221 <txoutptr>
    147c:	d3 ce       	rjmp	.-602    	; 0x1224 <CDC_Protocol()+0x38e>
C:\Users\mateu\Documents\GitHub\Audi-CDC-Emulator\Software\cdc_arduino_atmega328pb_bk3254/cdc_function.cpp:673
    }
  }
}
    147e:	26 96       	adiw	r28, 0x06	; 6
    1480:	0f b6       	in	r0, 0x3f	; 63
    1482:	f8 94       	cli
    1484:	de bf       	out	0x3e, r29	; 62
    1486:	0f be       	out	0x3f, r0	; 63
    1488:	cd bf       	out	0x3d, r28	; 61
    148a:	df 91       	pop	r29
    148c:	cf 91       	pop	r28
    148e:	1f 91       	pop	r17
    1490:	ff 90       	pop	r15
    1492:	ef 90       	pop	r14
    1494:	08 95       	ret

00001496 <__vector_27>:
__vector_3():
C:\Users\mateu\AppData\Local\Arduino15\packages\MiniCore\hardware\avr\2.0.9\libraries\SoftwareSerial\src/SoftwareSerial.cpp:239
  }
}

#if defined(PCINT0_vect)
ISR(PCINT0_vect)
{
    1496:	1f 92       	push	r1
    1498:	0f 92       	push	r0
    149a:	0f b6       	in	r0, 0x3f	; 63
    149c:	0f 92       	push	r0
    149e:	11 24       	eor	r1, r1
    14a0:	2f 93       	push	r18
    14a2:	3f 93       	push	r19
    14a4:	4f 93       	push	r20
    14a6:	5f 93       	push	r21
    14a8:	6f 93       	push	r22
    14aa:	7f 93       	push	r23
    14ac:	8f 93       	push	r24
    14ae:	9f 93       	push	r25
    14b0:	af 93       	push	r26
    14b2:	bf 93       	push	r27
    14b4:	ef 93       	push	r30
    14b6:	ff 93       	push	r31
_ZN14SoftwareSerial16handle_interruptEv():
C:\Users\mateu\AppData\Local\Arduino15\packages\MiniCore\hardware\avr\2.0.9\libraries\SoftwareSerial\src/SoftwareSerial.cpp:231
#endif

/* static */
inline void SoftwareSerial::handle_interrupt()
{
  if (active_object)
    14b8:	e0 91 81 02 	lds	r30, 0x0281	; 0x800281 <SoftwareSerial::active_object>
    14bc:	f0 91 82 02 	lds	r31, 0x0282	; 0x800282 <SoftwareSerial::active_object+0x1>
    14c0:	30 97       	sbiw	r30, 0x00	; 0
    14c2:	49 f0       	breq	.+18     	; 0x14d6 <__vector_27+0x40>
    14c4:	a6 85       	ldd	r26, Z+14	; 0x0e
    14c6:	b7 85       	ldd	r27, Z+15	; 0x0f
    14c8:	85 85       	ldd	r24, Z+13	; 0x0d
_ZN14SoftwareSerial4recvEv():
C:\Users\mateu\AppData\Local\Arduino15\packages\MiniCore\hardware\avr\2.0.9\libraries\SoftwareSerial\src/SoftwareSerial.cpp:148

  uint8_t d = 0;

  // If RX line is high, then we don't see any start bit
  // so interrupt is probably not for us
  if (_inverse_logic ? rx_pin_read() : !rx_pin_read())
    14ca:	96 8d       	ldd	r25, Z+30	; 0x1e
    14cc:	91 ff       	sbrs	r25, 1
    14ce:	14 c0       	rjmp	.+40     	; 0x14f8 <__vector_27+0x62>
_ZN14SoftwareSerial11rx_pin_readEv():
C:\Users\mateu\AppData\Local\Arduino15\packages\MiniCore\hardware\avr\2.0.9\libraries\SoftwareSerial\src/SoftwareSerial.cpp:213
#endif
}

uint8_t SoftwareSerial::rx_pin_read()
{
  return *_receivePortRegister & _receiveBitMask;
    14d0:	9c 91       	ld	r25, X
    14d2:	89 23       	and	r24, r25
_ZN14SoftwareSerial4recvEv():
C:\Users\mateu\AppData\Local\Arduino15\packages\MiniCore\hardware\avr\2.0.9\libraries\SoftwareSerial\src/SoftwareSerial.cpp:148

  uint8_t d = 0;

  // If RX line is high, then we don't see any start bit
  // so interrupt is probably not for us
  if (_inverse_logic ? rx_pin_read() : !rx_pin_read())
    14d4:	a1 f4       	brne	.+40     	; 0x14fe <__vector_27+0x68>
__vector_3():
C:\Users\mateu\AppData\Local\Arduino15\packages\MiniCore\hardware\avr\2.0.9\libraries\SoftwareSerial\src/SoftwareSerial.cpp:241

#if defined(PCINT0_vect)
ISR(PCINT0_vect)
{
  SoftwareSerial::handle_interrupt();
}
    14d6:	ff 91       	pop	r31
    14d8:	ef 91       	pop	r30
    14da:	bf 91       	pop	r27
    14dc:	af 91       	pop	r26
    14de:	9f 91       	pop	r25
    14e0:	8f 91       	pop	r24
    14e2:	7f 91       	pop	r23
    14e4:	6f 91       	pop	r22
    14e6:	5f 91       	pop	r21
    14e8:	4f 91       	pop	r20
    14ea:	3f 91       	pop	r19
    14ec:	2f 91       	pop	r18
    14ee:	0f 90       	pop	r0
    14f0:	0f be       	out	0x3f, r0	; 63
    14f2:	0f 90       	pop	r0
    14f4:	1f 90       	pop	r1
    14f6:	18 95       	reti
_ZN14SoftwareSerial11rx_pin_readEv():
C:\Users\mateu\AppData\Local\Arduino15\packages\MiniCore\hardware\avr\2.0.9\libraries\SoftwareSerial\src/SoftwareSerial.cpp:213
#endif
}

uint8_t SoftwareSerial::rx_pin_read()
{
  return *_receivePortRegister & _receiveBitMask;
    14f8:	9c 91       	ld	r25, X
    14fa:	89 23       	and	r24, r25
_ZN14SoftwareSerial4recvEv():
C:\Users\mateu\AppData\Local\Arduino15\packages\MiniCore\hardware\avr\2.0.9\libraries\SoftwareSerial\src/SoftwareSerial.cpp:148

  uint8_t d = 0;

  // If RX line is high, then we don't see any start bit
  // so interrupt is probably not for us
  if (_inverse_logic ? rx_pin_read() : !rx_pin_read())
    14fc:	61 f7       	brne	.-40     	; 0x14d6 <__vector_27+0x40>
_ZN14SoftwareSerial11setRxIntMskEb():
C:\Users\mateu\AppData\Local\Arduino15\packages\MiniCore\hardware\avr\2.0.9\libraries\SoftwareSerial\src/SoftwareSerial.cpp:442
void SoftwareSerial::setRxIntMsk(bool enable)
{
    if (enable)
      *_pcint_maskreg |= _pcint_maskvalue;
    else
      *_pcint_maskreg &= ~_pcint_maskvalue;
    14fe:	a3 89       	ldd	r26, Z+19	; 0x13
    1500:	b4 89       	ldd	r27, Z+20	; 0x14
    1502:	9c 91       	ld	r25, X
    1504:	85 89       	ldd	r24, Z+21	; 0x15
    1506:	80 95       	com	r24
    1508:	89 23       	and	r24, r25
    150a:	8c 93       	st	X, r24
_delay_loop_2():
c:\users\mateu\appdata\local\arduino15\packages\arduino\tools\avr-gcc\7.3.0-atmel3.6.1-arduino7\avr\include\util/delay_basic.h:110
	__asm__ volatile (
		"1: sbiw %0,1" "\n\t"
		"brne 1b"
		: "=w" (__count)
		: "0" (__count)
	);
    150c:	86 89       	ldd	r24, Z+22	; 0x16
    150e:	97 89       	ldd	r25, Z+23	; 0x17
    1510:	01 97       	sbiw	r24, 0x01	; 1
    1512:	f1 f7       	brne	.-4      	; 0x1510 <__vector_27+0x7a>
_ZN14SoftwareSerial4recvEv():
C:\Users\mateu\AppData\Local\Arduino15\packages\MiniCore\hardware\avr\2.0.9\libraries\SoftwareSerial\src/SoftwareSerial.cpp:162
    DebugPulse(_DEBUG_PIN2, 1);

    // Read each of the 8 bits
    for (uint8_t i=8; i > 0; --i)
    {
      tunedDelay(_rx_delay_intrabit);
    1514:	60 8d       	ldd	r22, Z+24	; 0x18
    1516:	71 8d       	ldd	r23, Z+25	; 0x19
_ZN14SoftwareSerial11rx_pin_readEv():
C:\Users\mateu\AppData\Local\Arduino15\packages\MiniCore\hardware\avr\2.0.9\libraries\SoftwareSerial\src/SoftwareSerial.cpp:213
#endif
}

uint8_t SoftwareSerial::rx_pin_read()
{
  return *_receivePortRegister & _receiveBitMask;
    1518:	a6 85       	ldd	r26, Z+14	; 0x0e
    151a:	b7 85       	ldd	r27, Z+15	; 0x0f
    151c:	55 85       	ldd	r21, Z+13	; 0x0d
    151e:	38 e0       	ldi	r19, 0x08	; 8
_ZN14SoftwareSerial4recvEv():
C:\Users\mateu\AppData\Local\Arduino15\packages\MiniCore\hardware\avr\2.0.9\libraries\SoftwareSerial\src/SoftwareSerial.cpp:144
    "push r26 \n\t"
    "push r27 \n\t"
    ::);
#endif  

  uint8_t d = 0;
    1520:	20 e0       	ldi	r18, 0x00	; 0
_delay_loop_2():
c:\users\mateu\appdata\local\arduino15\packages\arduino\tools\avr-gcc\7.3.0-atmel3.6.1-arduino7\avr\include\util/delay_basic.h:110
    1522:	cb 01       	movw	r24, r22
    1524:	01 97       	sbiw	r24, 0x01	; 1
    1526:	f1 f7       	brne	.-4      	; 0x1524 <__vector_27+0x8e>
_ZN14SoftwareSerial4recvEv():
C:\Users\mateu\AppData\Local\Arduino15\packages\MiniCore\hardware\avr\2.0.9\libraries\SoftwareSerial\src/SoftwareSerial.cpp:163

    // Read each of the 8 bits
    for (uint8_t i=8; i > 0; --i)
    {
      tunedDelay(_rx_delay_intrabit);
      d >>= 1;
    1528:	82 2f       	mov	r24, r18
    152a:	90 e0       	ldi	r25, 0x00	; 0
    152c:	95 95       	asr	r25
    152e:	87 95       	ror	r24
    1530:	28 2f       	mov	r18, r24
_ZN14SoftwareSerial11rx_pin_readEv():
C:\Users\mateu\AppData\Local\Arduino15\packages\MiniCore\hardware\avr\2.0.9\libraries\SoftwareSerial\src/SoftwareSerial.cpp:213
#endif
}

uint8_t SoftwareSerial::rx_pin_read()
{
  return *_receivePortRegister & _receiveBitMask;
    1532:	4c 91       	ld	r20, X
    1534:	45 23       	and	r20, r21
_ZN14SoftwareSerial4recvEv():
C:\Users\mateu\AppData\Local\Arduino15\packages\MiniCore\hardware\avr\2.0.9\libraries\SoftwareSerial\src/SoftwareSerial.cpp:165
    for (uint8_t i=8; i > 0; --i)
    {
      tunedDelay(_rx_delay_intrabit);
      d >>= 1;
      DebugPulse(_DEBUG_PIN2, 1);
      if (rx_pin_read())
    1536:	09 f0       	breq	.+2      	; 0x153a <__vector_27+0xa4>
C:\Users\mateu\AppData\Local\Arduino15\packages\MiniCore\hardware\avr\2.0.9\libraries\SoftwareSerial\src/SoftwareSerial.cpp:166
        d |= 0x80;
    1538:	20 68       	ori	r18, 0x80	; 128
    153a:	31 50       	subi	r19, 0x01	; 1
C:\Users\mateu\AppData\Local\Arduino15\packages\MiniCore\hardware\avr\2.0.9\libraries\SoftwareSerial\src/SoftwareSerial.cpp:160
    // Wait approximately 1/2 of a bit width to "center" the sample
    tunedDelay(_rx_delay_centering);
    DebugPulse(_DEBUG_PIN2, 1);

    // Read each of the 8 bits
    for (uint8_t i=8; i > 0; --i)
    153c:	91 f7       	brne	.-28     	; 0x1522 <__vector_27+0x8c>
C:\Users\mateu\AppData\Local\Arduino15\packages\MiniCore\hardware\avr\2.0.9\libraries\SoftwareSerial\src/SoftwareSerial.cpp:169
      DebugPulse(_DEBUG_PIN2, 1);
      if (rx_pin_read())
        d |= 0x80;
    }

    if (_inverse_logic)
    153e:	86 8d       	ldd	r24, Z+30	; 0x1e
    1540:	81 fd       	sbrc	r24, 1
C:\Users\mateu\AppData\Local\Arduino15\packages\MiniCore\hardware\avr\2.0.9\libraries\SoftwareSerial\src/SoftwareSerial.cpp:170
      d = ~d;
    1542:	20 95       	com	r18
C:\Users\mateu\AppData\Local\Arduino15\packages\MiniCore\hardware\avr\2.0.9\libraries\SoftwareSerial\src/SoftwareSerial.cpp:173

    // if buffer full, set the overflow flag and return
    uint8_t next = (_receive_buffer_tail + 1) % _SS_MAX_RX_BUFF;
    1544:	80 91 40 02 	lds	r24, 0x0240	; 0x800240 <SoftwareSerial::_receive_buffer_tail>
    1548:	90 e0       	ldi	r25, 0x00	; 0
    154a:	01 96       	adiw	r24, 0x01	; 1
    154c:	8f 73       	andi	r24, 0x3F	; 63
    154e:	99 27       	eor	r25, r25
C:\Users\mateu\AppData\Local\Arduino15\packages\MiniCore\hardware\avr\2.0.9\libraries\SoftwareSerial\src/SoftwareSerial.cpp:174
    if (next != _receive_buffer_head)
    1550:	30 91 3f 02 	lds	r19, 0x023F	; 0x80023f <SoftwareSerial::_receive_buffer_head>
    1554:	38 17       	cp	r19, r24
    1556:	99 f0       	breq	.+38     	; 0x157e <__vector_27+0xe8>
C:\Users\mateu\AppData\Local\Arduino15\packages\MiniCore\hardware\avr\2.0.9\libraries\SoftwareSerial\src/SoftwareSerial.cpp:177
    {
      // save new data in buffer: tail points to where byte goes
      _receive_buffer[_receive_buffer_tail] = d; // save new byte
    1558:	a0 91 40 02 	lds	r26, 0x0240	; 0x800240 <SoftwareSerial::_receive_buffer_tail>
    155c:	b0 e0       	ldi	r27, 0x00	; 0
    155e:	af 5b       	subi	r26, 0xBF	; 191
    1560:	bd 4f       	sbci	r27, 0xFD	; 253
    1562:	2c 93       	st	X, r18
C:\Users\mateu\AppData\Local\Arduino15\packages\MiniCore\hardware\avr\2.0.9\libraries\SoftwareSerial\src/SoftwareSerial.cpp:178
      _receive_buffer_tail = next;
    1564:	80 93 40 02 	sts	0x0240, r24	; 0x800240 <SoftwareSerial::_receive_buffer_tail>
_delay_loop_2():
c:\users\mateu\appdata\local\arduino15\packages\arduino\tools\avr-gcc\7.3.0-atmel3.6.1-arduino7\avr\include\util/delay_basic.h:110
    1568:	82 8d       	ldd	r24, Z+26	; 0x1a
    156a:	93 8d       	ldd	r25, Z+27	; 0x1b
    156c:	01 97       	sbiw	r24, 0x01	; 1
    156e:	f1 f7       	brne	.-4      	; 0x156c <__vector_27+0xd6>
_ZN14SoftwareSerial11setRxIntMskEb():
C:\Users\mateu\AppData\Local\Arduino15\packages\MiniCore\hardware\avr\2.0.9\libraries\SoftwareSerial\src/SoftwareSerial.cpp:440
}

void SoftwareSerial::setRxIntMsk(bool enable)
{
    if (enable)
      *_pcint_maskreg |= _pcint_maskvalue;
    1570:	a3 89       	ldd	r26, Z+19	; 0x13
    1572:	b4 89       	ldd	r27, Z+20	; 0x14
    1574:	8c 91       	ld	r24, X
    1576:	95 89       	ldd	r25, Z+21	; 0x15
    1578:	89 2b       	or	r24, r25
    157a:	8c 93       	st	X, r24
__vector_3():
C:\Users\mateu\AppData\Local\Arduino15\packages\MiniCore\hardware\avr\2.0.9\libraries\SoftwareSerial\src/SoftwareSerial.cpp:241

#if defined(PCINT0_vect)
ISR(PCINT0_vect)
{
  SoftwareSerial::handle_interrupt();
}
    157c:	ac cf       	rjmp	.-168    	; 0x14d6 <__vector_27+0x40>
_ZN14SoftwareSerial4recvEv():
C:\Users\mateu\AppData\Local\Arduino15\packages\MiniCore\hardware\avr\2.0.9\libraries\SoftwareSerial\src/SoftwareSerial.cpp:183
      _receive_buffer_tail = next;
    } 
    else 
    {
      DebugPulse(_DEBUG_PIN1, 1);
      _buffer_overflow = true;
    157e:	86 8d       	ldd	r24, Z+30	; 0x1e
    1580:	81 60       	ori	r24, 0x01	; 1
    1582:	86 8f       	std	Z+30, r24	; 0x1e
    1584:	f1 cf       	rjmp	.-30     	; 0x1568 <__vector_27+0xd2>

00001586 <HardwareSerial::available()>:
_ZN14HardwareSerial9availableEv():
C:\Users\mateu\AppData\Local\Arduino15\packages\MiniCore\hardware\avr\2.0.9\cores\MCUdude_corefiles/HardwareSerial.cpp:77
  if (Serial2_available && serialEvent2 && Serial2_available()) serialEvent2();
#endif
#if defined(HAVE_HWSERIAL3)
  if (Serial3_available && serialEvent3 && Serial3_available()) serialEvent3();
#endif
}
    1586:	fc 01       	movw	r30, r24
    1588:	91 8d       	ldd	r25, Z+25	; 0x19
    158a:	22 8d       	ldd	r18, Z+26	; 0x1a
    158c:	89 2f       	mov	r24, r25
    158e:	90 e0       	ldi	r25, 0x00	; 0
    1590:	80 5c       	subi	r24, 0xC0	; 192
    1592:	9f 4f       	sbci	r25, 0xFF	; 255
    1594:	82 1b       	sub	r24, r18
    1596:	91 09       	sbc	r25, r1
    1598:	8f 73       	andi	r24, 0x3F	; 63
    159a:	99 27       	eor	r25, r25
    159c:	08 95       	ret

0000159e <HardwareSerial::peek()>:
_ZN14HardwareSerial4peekEv():
    159e:	fc 01       	movw	r30, r24
    15a0:	91 8d       	ldd	r25, Z+25	; 0x19
    15a2:	82 8d       	ldd	r24, Z+26	; 0x1a
    15a4:	98 17       	cp	r25, r24
    15a6:	31 f0       	breq	.+12     	; 0x15b4 <HardwareSerial::peek()+0x16>
    15a8:	82 8d       	ldd	r24, Z+26	; 0x1a
    15aa:	e8 0f       	add	r30, r24
    15ac:	f1 1d       	adc	r31, r1
    15ae:	85 8d       	ldd	r24, Z+29	; 0x1d
    15b0:	90 e0       	ldi	r25, 0x00	; 0
    15b2:	08 95       	ret
    15b4:	8f ef       	ldi	r24, 0xFF	; 255
    15b6:	9f ef       	ldi	r25, 0xFF	; 255
    15b8:	08 95       	ret

000015ba <HardwareSerial::read()>:
_ZN14HardwareSerial4readEv():
    15ba:	fc 01       	movw	r30, r24
    15bc:	91 8d       	ldd	r25, Z+25	; 0x19
    15be:	82 8d       	ldd	r24, Z+26	; 0x1a
    15c0:	98 17       	cp	r25, r24
    15c2:	61 f0       	breq	.+24     	; 0x15dc <HardwareSerial::read()+0x22>
    15c4:	a2 8d       	ldd	r26, Z+26	; 0x1a
    15c6:	ae 0f       	add	r26, r30
    15c8:	bf 2f       	mov	r27, r31
    15ca:	b1 1d       	adc	r27, r1
    15cc:	5d 96       	adiw	r26, 0x1d	; 29
    15ce:	8c 91       	ld	r24, X
    15d0:	92 8d       	ldd	r25, Z+26	; 0x1a
    15d2:	9f 5f       	subi	r25, 0xFF	; 255
    15d4:	9f 73       	andi	r25, 0x3F	; 63
    15d6:	92 8f       	std	Z+26, r25	; 0x1a
    15d8:	90 e0       	ldi	r25, 0x00	; 0
    15da:	08 95       	ret
    15dc:	8f ef       	ldi	r24, 0xFF	; 255
    15de:	9f ef       	ldi	r25, 0xFF	; 255
    15e0:	08 95       	ret

000015e2 <HardwareSerial::availableForWrite()>:
_ZN14HardwareSerial17availableForWriteEv():
    15e2:	fc 01       	movw	r30, r24
    15e4:	53 8d       	ldd	r21, Z+27	; 0x1b
    15e6:	44 8d       	ldd	r20, Z+28	; 0x1c
    15e8:	25 2f       	mov	r18, r21
    15ea:	30 e0       	ldi	r19, 0x00	; 0
    15ec:	84 2f       	mov	r24, r20
    15ee:	90 e0       	ldi	r25, 0x00	; 0
    15f0:	82 1b       	sub	r24, r18
    15f2:	93 0b       	sbc	r25, r19
    15f4:	54 17       	cp	r21, r20
    15f6:	10 f0       	brcs	.+4      	; 0x15fc <HardwareSerial::availableForWrite()+0x1a>
    15f8:	cf 96       	adiw	r24, 0x3f	; 63
    15fa:	08 95       	ret
    15fc:	01 97       	sbiw	r24, 0x01	; 1
    15fe:	08 95       	ret

00001600 <HardwareSerial::_tx_udr_empty_irq()>:
_ZN14HardwareSerial17_tx_udr_empty_irqEv():
C:\Users\mateu\AppData\Local\Arduino15\packages\MiniCore\hardware\avr\2.0.9\cores\MCUdude_corefiles/HardwareSerial.cpp:82

// Actual interrupt handlers //////////////////////////////////////////////////////////////

void HardwareSerial::_tx_udr_empty_irq(void)
{
    1600:	fc 01       	movw	r30, r24
C:\Users\mateu\AppData\Local\Arduino15\packages\MiniCore\hardware\avr\2.0.9\cores\MCUdude_corefiles/HardwareSerial.cpp:85
  // If interrupts are enabled, there must be more data in the output
  // buffer. Send the next byte
  unsigned char c = _tx_buffer[_tx_buffer_tail];
    1602:	a4 8d       	ldd	r26, Z+28	; 0x1c
    1604:	a8 0f       	add	r26, r24
    1606:	b9 2f       	mov	r27, r25
    1608:	b1 1d       	adc	r27, r1
    160a:	a3 5a       	subi	r26, 0xA3	; 163
    160c:	bf 4f       	sbci	r27, 0xFF	; 255
    160e:	2c 91       	ld	r18, X
C:\Users\mateu\AppData\Local\Arduino15\packages\MiniCore\hardware\avr\2.0.9\cores\MCUdude_corefiles/HardwareSerial.cpp:86
  _tx_buffer_tail = (_tx_buffer_tail + 1) % SERIAL_TX_BUFFER_SIZE;
    1610:	84 8d       	ldd	r24, Z+28	; 0x1c
    1612:	90 e0       	ldi	r25, 0x00	; 0
    1614:	01 96       	adiw	r24, 0x01	; 1
    1616:	8f 73       	andi	r24, 0x3F	; 63
    1618:	99 27       	eor	r25, r25
    161a:	84 8f       	std	Z+28, r24	; 0x1c
C:\Users\mateu\AppData\Local\Arduino15\packages\MiniCore\hardware\avr\2.0.9\cores\MCUdude_corefiles/HardwareSerial.cpp:88

  *_udr = c;
    161c:	a6 89       	ldd	r26, Z+22	; 0x16
    161e:	b7 89       	ldd	r27, Z+23	; 0x17
    1620:	2c 93       	st	X, r18
C:\Users\mateu\AppData\Local\Arduino15\packages\MiniCore\hardware\avr\2.0.9\cores\MCUdude_corefiles/HardwareSerial.cpp:93

  // clear the TXC bit -- "can be cleared by writing a one to its bit
  // location". This makes sure flush() won't return until the bytes
  // actually got written
  *_ucsra |= _BV(TXC0);
    1622:	a0 89       	ldd	r26, Z+16	; 0x10
    1624:	b1 89       	ldd	r27, Z+17	; 0x11
    1626:	8c 91       	ld	r24, X
    1628:	80 64       	ori	r24, 0x40	; 64
    162a:	8c 93       	st	X, r24
C:\Users\mateu\AppData\Local\Arduino15\packages\MiniCore\hardware\avr\2.0.9\cores\MCUdude_corefiles/HardwareSerial.cpp:95

  if (_tx_buffer_head == _tx_buffer_tail) {
    162c:	93 8d       	ldd	r25, Z+27	; 0x1b
    162e:	84 8d       	ldd	r24, Z+28	; 0x1c
    1630:	98 13       	cpse	r25, r24
    1632:	06 c0       	rjmp	.+12     	; 0x1640 <HardwareSerial::_tx_udr_empty_irq()+0x40>
C:\Users\mateu\AppData\Local\Arduino15\packages\MiniCore\hardware\avr\2.0.9\cores\MCUdude_corefiles/HardwareSerial.cpp:97
    // Buffer empty, so disable interrupts
    *_ucsrb &= ~_BV(UDRIE0);
    1634:	02 88       	ldd	r0, Z+18	; 0x12
    1636:	f3 89       	ldd	r31, Z+19	; 0x13
    1638:	e0 2d       	mov	r30, r0
    163a:	80 81       	ld	r24, Z
    163c:	8f 7d       	andi	r24, 0xDF	; 223
    163e:	80 83       	st	Z, r24
C:\Users\mateu\AppData\Local\Arduino15\packages\MiniCore\hardware\avr\2.0.9\cores\MCUdude_corefiles/HardwareSerial.cpp:99
  }
}
    1640:	08 95       	ret

00001642 <HardwareSerial::flush()>:
_ZN14HardwareSerial5flushEv():
C:\Users\mateu\AppData\Local\Arduino15\packages\MiniCore\hardware\avr\2.0.9\cores\MCUdude_corefiles/HardwareSerial.cpp:191
  if (head >= tail) return SERIAL_TX_BUFFER_SIZE - 1 - head + tail;
  return tail - head - 1;
}

void HardwareSerial::flush()
{
    1642:	cf 93       	push	r28
    1644:	df 93       	push	r29
    1646:	ec 01       	movw	r28, r24
C:\Users\mateu\AppData\Local\Arduino15\packages\MiniCore\hardware\avr\2.0.9\cores\MCUdude_corefiles/HardwareSerial.cpp:195
  // If we have never written a byte, no need to flush. This special
  // case is needed since there is no way to force the TXC (transmit
  // complete) bit to 1 during initialization
  if (!_written)
    1648:	88 8d       	ldd	r24, Y+24	; 0x18
    164a:	88 23       	and	r24, r24
    164c:	b9 f0       	breq	.+46     	; 0x167c <HardwareSerial::flush()+0x3a>
C:\Users\mateu\AppData\Local\Arduino15\packages\MiniCore\hardware\avr\2.0.9\cores\MCUdude_corefiles/HardwareSerial.cpp:198
    return;

  while (bit_is_set(*_ucsrb, UDRIE0) || bit_is_clear(*_ucsra, TXC0)) {
    164e:	aa 89       	ldd	r26, Y+18	; 0x12
    1650:	bb 89       	ldd	r27, Y+19	; 0x13
    1652:	e8 89       	ldd	r30, Y+16	; 0x10
    1654:	f9 89       	ldd	r31, Y+17	; 0x11
    1656:	8c 91       	ld	r24, X
    1658:	85 fd       	sbrc	r24, 5
    165a:	03 c0       	rjmp	.+6      	; 0x1662 <HardwareSerial::flush()+0x20>
    165c:	80 81       	ld	r24, Z
    165e:	86 fd       	sbrc	r24, 6
    1660:	0d c0       	rjmp	.+26     	; 0x167c <HardwareSerial::flush()+0x3a>
C:\Users\mateu\AppData\Local\Arduino15\packages\MiniCore\hardware\avr\2.0.9\cores\MCUdude_corefiles/HardwareSerial.cpp:199
    if (bit_is_clear(SREG, SREG_I) && bit_is_set(*_ucsrb, UDRIE0))
    1662:	0f b6       	in	r0, 0x3f	; 63
    1664:	07 fc       	sbrc	r0, 7
    1666:	f7 cf       	rjmp	.-18     	; 0x1656 <HardwareSerial::flush()+0x14>
    1668:	8c 91       	ld	r24, X
    166a:	85 ff       	sbrs	r24, 5
    166c:	f2 cf       	rjmp	.-28     	; 0x1652 <HardwareSerial::flush()+0x10>
C:\Users\mateu\AppData\Local\Arduino15\packages\MiniCore\hardware\avr\2.0.9\cores\MCUdude_corefiles/HardwareSerial.cpp:203
      // Interrupts are globally disabled, but the DR empty
      // interrupt should be enabled, so poll the DR empty flag to
      // prevent deadlock
      if (bit_is_set(*_ucsra, UDRE0))
    166e:	80 81       	ld	r24, Z
    1670:	85 ff       	sbrs	r24, 5
    1672:	ed cf       	rjmp	.-38     	; 0x164e <HardwareSerial::flush()+0xc>
C:\Users\mateu\AppData\Local\Arduino15\packages\MiniCore\hardware\avr\2.0.9\cores\MCUdude_corefiles/HardwareSerial.cpp:204
        _tx_udr_empty_irq();
    1674:	ce 01       	movw	r24, r28
    1676:	0e 94 00 0b 	call	0x1600	; 0x1600 <HardwareSerial::_tx_udr_empty_irq()>
    167a:	e9 cf       	rjmp	.-46     	; 0x164e <HardwareSerial::flush()+0xc>
C:\Users\mateu\AppData\Local\Arduino15\packages\MiniCore\hardware\avr\2.0.9\cores\MCUdude_corefiles/HardwareSerial.cpp:208
  }
  // If we get here, nothing is queued anymore (DRIE is disabled) and
  // the hardware finished tranmission (TXC is set).
}
    167c:	df 91       	pop	r29
    167e:	cf 91       	pop	r28
    1680:	08 95       	ret

00001682 <HardwareSerial::write(unsigned char)>:
_ZN14HardwareSerial5writeEh():
C:\Users\mateu\AppData\Local\Arduino15\packages\MiniCore\hardware\avr\2.0.9\cores\MCUdude_corefiles/HardwareSerial.cpp:211

size_t HardwareSerial::write(uint8_t c)
{
    1682:	ef 92       	push	r14
    1684:	ff 92       	push	r15
    1686:	0f 93       	push	r16
    1688:	1f 93       	push	r17
    168a:	cf 93       	push	r28
    168c:	df 93       	push	r29
    168e:	ec 01       	movw	r28, r24
C:\Users\mateu\AppData\Local\Arduino15\packages\MiniCore\hardware\avr\2.0.9\cores\MCUdude_corefiles/HardwareSerial.cpp:212
  _written = true;
    1690:	81 e0       	ldi	r24, 0x01	; 1
    1692:	88 8f       	std	Y+24, r24	; 0x18
C:\Users\mateu\AppData\Local\Arduino15\packages\MiniCore\hardware\avr\2.0.9\cores\MCUdude_corefiles/HardwareSerial.cpp:217
  // If the buffer and the data register is empty, just write the byte
  // to the data register and be done. This shortcut helps
  // significantly improve the effective datarate at high (>
  // 500kbit/s) bitrates, where interrupt overhead becomes a slowdown.
  if (_tx_buffer_head == _tx_buffer_tail && bit_is_set(*_ucsra, UDRE0)) {
    1694:	9b 8d       	ldd	r25, Y+27	; 0x1b
    1696:	8c 8d       	ldd	r24, Y+28	; 0x1c
    1698:	98 13       	cpse	r25, r24
    169a:	16 c0       	rjmp	.+44     	; 0x16c8 <HardwareSerial::write(unsigned char)+0x46>
C:\Users\mateu\AppData\Local\Arduino15\packages\MiniCore\hardware\avr\2.0.9\cores\MCUdude_corefiles/HardwareSerial.cpp:217 (discriminator 1)
    169c:	e8 89       	ldd	r30, Y+16	; 0x10
    169e:	f9 89       	ldd	r31, Y+17	; 0x11
    16a0:	80 81       	ld	r24, Z
    16a2:	85 ff       	sbrs	r24, 5
    16a4:	11 c0       	rjmp	.+34     	; 0x16c8 <HardwareSerial::write(unsigned char)+0x46>
C:\Users\mateu\AppData\Local\Arduino15\packages\MiniCore\hardware\avr\2.0.9\cores\MCUdude_corefiles/HardwareSerial.cpp:218
    *_udr = c;
    16a6:	ee 89       	ldd	r30, Y+22	; 0x16
    16a8:	ff 89       	ldd	r31, Y+23	; 0x17
    16aa:	60 83       	st	Z, r22
C:\Users\mateu\AppData\Local\Arduino15\packages\MiniCore\hardware\avr\2.0.9\cores\MCUdude_corefiles/HardwareSerial.cpp:219
    *_ucsra |= _BV(TXC0);
    16ac:	e8 89       	ldd	r30, Y+16	; 0x10
    16ae:	f9 89       	ldd	r31, Y+17	; 0x11
    16b0:	80 81       	ld	r24, Z
    16b2:	80 64       	ori	r24, 0x40	; 64
C:\Users\mateu\AppData\Local\Arduino15\packages\MiniCore\hardware\avr\2.0.9\cores\MCUdude_corefiles/HardwareSerial.cpp:242
  }

  _tx_buffer[_tx_buffer_head] = c;
  _tx_buffer_head = i;

  *_ucsrb |= _BV(UDRIE0);
    16b4:	80 83       	st	Z, r24
C:\Users\mateu\AppData\Local\Arduino15\packages\MiniCore\hardware\avr\2.0.9\cores\MCUdude_corefiles/HardwareSerial.cpp:245
  
  return 1;
}
    16b6:	81 e0       	ldi	r24, 0x01	; 1
    16b8:	90 e0       	ldi	r25, 0x00	; 0
    16ba:	df 91       	pop	r29
    16bc:	cf 91       	pop	r28
    16be:	1f 91       	pop	r17
    16c0:	0f 91       	pop	r16
    16c2:	ff 90       	pop	r15
    16c4:	ef 90       	pop	r14
    16c6:	08 95       	ret
    16c8:	f6 2e       	mov	r15, r22
C:\Users\mateu\AppData\Local\Arduino15\packages\MiniCore\hardware\avr\2.0.9\cores\MCUdude_corefiles/HardwareSerial.cpp:222
  if (_tx_buffer_head == _tx_buffer_tail && bit_is_set(*_ucsra, UDRE0)) {
    *_udr = c;
    *_ucsra |= _BV(TXC0);
    return 1;
  }
  tx_buffer_index_t i = (_tx_buffer_head + 1) % SERIAL_TX_BUFFER_SIZE;
    16ca:	0b 8d       	ldd	r16, Y+27	; 0x1b
    16cc:	10 e0       	ldi	r17, 0x00	; 0
    16ce:	0f 5f       	subi	r16, 0xFF	; 255
    16d0:	1f 4f       	sbci	r17, 0xFF	; 255
    16d2:	0f 73       	andi	r16, 0x3F	; 63
    16d4:	11 27       	eor	r17, r17
    16d6:	e0 2e       	mov	r14, r16
C:\Users\mateu\AppData\Local\Arduino15\packages\MiniCore\hardware\avr\2.0.9\cores\MCUdude_corefiles/HardwareSerial.cpp:226

  // If the output buffer is full, there's nothing for it other than to 
  // wait for the interrupt handler to empty it a bit
  while (i == _tx_buffer_tail) {
    16d8:	8c 8d       	ldd	r24, Y+28	; 0x1c
    16da:	8e 11       	cpse	r24, r14
    16dc:	0c c0       	rjmp	.+24     	; 0x16f6 <HardwareSerial::write(unsigned char)+0x74>
C:\Users\mateu\AppData\Local\Arduino15\packages\MiniCore\hardware\avr\2.0.9\cores\MCUdude_corefiles/HardwareSerial.cpp:227
    if (bit_is_clear(SREG, SREG_I)) {
    16de:	0f b6       	in	r0, 0x3f	; 63
    16e0:	07 fc       	sbrc	r0, 7
    16e2:	fa cf       	rjmp	.-12     	; 0x16d8 <HardwareSerial::write(unsigned char)+0x56>
C:\Users\mateu\AppData\Local\Arduino15\packages\MiniCore\hardware\avr\2.0.9\cores\MCUdude_corefiles/HardwareSerial.cpp:232
      // Interrupts are disabled, so we'll have to poll the data
      // register empty flag ourselves. If it is set, pretend an
      // interrupt has happened and call the handler to free up
      // space for us.
      if(bit_is_set(*_ucsra, UDRE0))
    16e4:	e8 89       	ldd	r30, Y+16	; 0x10
    16e6:	f9 89       	ldd	r31, Y+17	; 0x11
    16e8:	80 81       	ld	r24, Z
    16ea:	85 ff       	sbrs	r24, 5
    16ec:	f5 cf       	rjmp	.-22     	; 0x16d8 <HardwareSerial::write(unsigned char)+0x56>
C:\Users\mateu\AppData\Local\Arduino15\packages\MiniCore\hardware\avr\2.0.9\cores\MCUdude_corefiles/HardwareSerial.cpp:233
        _tx_udr_empty_irq();
    16ee:	ce 01       	movw	r24, r28
    16f0:	0e 94 00 0b 	call	0x1600	; 0x1600 <HardwareSerial::_tx_udr_empty_irq()>
    16f4:	f1 cf       	rjmp	.-30     	; 0x16d8 <HardwareSerial::write(unsigned char)+0x56>
C:\Users\mateu\AppData\Local\Arduino15\packages\MiniCore\hardware\avr\2.0.9\cores\MCUdude_corefiles/HardwareSerial.cpp:239
    } else {
      // nop, the interrupt handler will free up space for us
    }
  }

  _tx_buffer[_tx_buffer_head] = c;
    16f6:	eb 8d       	ldd	r30, Y+27	; 0x1b
    16f8:	ec 0f       	add	r30, r28
    16fa:	fd 2f       	mov	r31, r29
    16fc:	f1 1d       	adc	r31, r1
    16fe:	e3 5a       	subi	r30, 0xA3	; 163
    1700:	ff 4f       	sbci	r31, 0xFF	; 255
    1702:	f0 82       	st	Z, r15
C:\Users\mateu\AppData\Local\Arduino15\packages\MiniCore\hardware\avr\2.0.9\cores\MCUdude_corefiles/HardwareSerial.cpp:240
  _tx_buffer_head = i;
    1704:	0b 8f       	std	Y+27, r16	; 0x1b
C:\Users\mateu\AppData\Local\Arduino15\packages\MiniCore\hardware\avr\2.0.9\cores\MCUdude_corefiles/HardwareSerial.cpp:242

  *_ucsrb |= _BV(UDRIE0);
    1706:	ea 89       	ldd	r30, Y+18	; 0x12
    1708:	fb 89       	ldd	r31, Y+19	; 0x13
    170a:	80 81       	ld	r24, Z
    170c:	80 62       	ori	r24, 0x20	; 32
    170e:	d2 cf       	rjmp	.-92     	; 0x16b4 <HardwareSerial::write(unsigned char)+0x32>

00001710 <HardwareSerial::begin(unsigned long, unsigned char)>:
_ZN14HardwareSerial5beginEmh():
C:\Users\mateu\AppData\Local\Arduino15\packages\MiniCore\hardware\avr\2.0.9\cores\MCUdude_corefiles/HardwareSerial.cpp:104
}

// Public Methods //////////////////////////////////////////////////////////////

void HardwareSerial::begin(unsigned long baud, byte config)
{
    1710:	cf 92       	push	r12
    1712:	df 92       	push	r13
    1714:	ef 92       	push	r14
    1716:	ff 92       	push	r15
    1718:	1f 93       	push	r17
    171a:	cf 93       	push	r28
    171c:	df 93       	push	r29
    171e:	ec 01       	movw	r28, r24
    1720:	6a 01       	movw	r12, r20
    1722:	7b 01       	movw	r14, r22
    1724:	12 2f       	mov	r17, r18
C:\Users\mateu\AppData\Local\Arduino15\packages\MiniCore\hardware\avr\2.0.9\cores\MCUdude_corefiles/HardwareSerial.cpp:107
  // Try u2x mode first
  uint16_t baud_setting = (F_CPU / 4 / baud - 1) / 2;
  *_ucsra = 1 << U2X0;
    1726:	e8 89       	ldd	r30, Y+16	; 0x10
    1728:	f9 89       	ldd	r31, Y+17	; 0x11
    172a:	82 e0       	ldi	r24, 0x02	; 2
    172c:	80 83       	st	Z, r24
C:\Users\mateu\AppData\Local\Arduino15\packages\MiniCore\hardware\avr\2.0.9\cores\MCUdude_corefiles/HardwareSerial.cpp:114
  // hardcoded exception for 57600 for compatibility with the bootloader
  // shipped with the Duemilanove and previous boards and the firmware
  // on the 8U2 on the Uno and Mega 2560. Also, The baud_setting cannot
  // be > 4095, so switch back to non-u2x mode if the baud rate is too
  // low.
  if (((F_CPU == 16000000UL) && (baud == 57600)) || (baud_setting >4095))
    172e:	c1 14       	cp	r12, r1
    1730:	81 ee       	ldi	r24, 0xE1	; 225
    1732:	d8 06       	cpc	r13, r24
    1734:	e1 04       	cpc	r14, r1
    1736:	f1 04       	cpc	r15, r1
    1738:	a1 f0       	breq	.+40     	; 0x1762 <HardwareSerial::begin(unsigned long, unsigned char)+0x52>
C:\Users\mateu\AppData\Local\Arduino15\packages\MiniCore\hardware\avr\2.0.9\cores\MCUdude_corefiles/HardwareSerial.cpp:106 (discriminator 1)
// Public Methods //////////////////////////////////////////////////////////////

void HardwareSerial::begin(unsigned long baud, byte config)
{
  // Try u2x mode first
  uint16_t baud_setting = (F_CPU / 4 / baud - 1) / 2;
    173a:	60 e0       	ldi	r22, 0x00	; 0
    173c:	79 e0       	ldi	r23, 0x09	; 9
    173e:	8d e3       	ldi	r24, 0x3D	; 61
    1740:	90 e0       	ldi	r25, 0x00	; 0
    1742:	a7 01       	movw	r20, r14
    1744:	96 01       	movw	r18, r12
    1746:	0e 94 7e 0f 	call	0x1efc	; 0x1efc <__udivmodsi4>
    174a:	21 50       	subi	r18, 0x01	; 1
    174c:	31 09       	sbc	r19, r1
    174e:	41 09       	sbc	r20, r1
    1750:	51 09       	sbc	r21, r1
    1752:	56 95       	lsr	r21
    1754:	47 95       	ror	r20
    1756:	37 95       	ror	r19
    1758:	27 95       	ror	r18
C:\Users\mateu\AppData\Local\Arduino15\packages\MiniCore\hardware\avr\2.0.9\cores\MCUdude_corefiles/HardwareSerial.cpp:114 (discriminator 1)
  // hardcoded exception for 57600 for compatibility with the bootloader
  // shipped with the Duemilanove and previous boards and the firmware
  // on the 8U2 on the Uno and Mega 2560. Also, The baud_setting cannot
  // be > 4095, so switch back to non-u2x mode if the baud rate is too
  // low.
  if (((F_CPU == 16000000UL) && (baud == 57600)) || (baud_setting >4095))
    175a:	21 15       	cp	r18, r1
    175c:	80 e1       	ldi	r24, 0x10	; 16
    175e:	38 07       	cpc	r19, r24
    1760:	98 f0       	brcs	.+38     	; 0x1788 <HardwareSerial::begin(unsigned long, unsigned char)+0x78>
C:\Users\mateu\AppData\Local\Arduino15\packages\MiniCore\hardware\avr\2.0.9\cores\MCUdude_corefiles/HardwareSerial.cpp:116
  {
    *_ucsra = 0;
    1762:	e8 89       	ldd	r30, Y+16	; 0x10
    1764:	f9 89       	ldd	r31, Y+17	; 0x11
    1766:	10 82       	st	Z, r1
C:\Users\mateu\AppData\Local\Arduino15\packages\MiniCore\hardware\avr\2.0.9\cores\MCUdude_corefiles/HardwareSerial.cpp:117
    baud_setting = (F_CPU / 8 / baud - 1) / 2;
    1768:	60 e8       	ldi	r22, 0x80	; 128
    176a:	74 e8       	ldi	r23, 0x84	; 132
    176c:	8e e1       	ldi	r24, 0x1E	; 30
    176e:	90 e0       	ldi	r25, 0x00	; 0
    1770:	a7 01       	movw	r20, r14
    1772:	96 01       	movw	r18, r12
    1774:	0e 94 7e 0f 	call	0x1efc	; 0x1efc <__udivmodsi4>
    1778:	21 50       	subi	r18, 0x01	; 1
    177a:	31 09       	sbc	r19, r1
    177c:	41 09       	sbc	r20, r1
    177e:	51 09       	sbc	r21, r1
    1780:	56 95       	lsr	r21
    1782:	47 95       	ror	r20
    1784:	37 95       	ror	r19
    1786:	27 95       	ror	r18
C:\Users\mateu\AppData\Local\Arduino15\packages\MiniCore\hardware\avr\2.0.9\cores\MCUdude_corefiles/HardwareSerial.cpp:121
  }

  // assign the baud_setting, a.k.a. ubrr (USART Baud Rate Register)
  *_ubrrh = baud_setting >> 8;
    1788:	ec 85       	ldd	r30, Y+12	; 0x0c
    178a:	fd 85       	ldd	r31, Y+13	; 0x0d
    178c:	30 83       	st	Z, r19
C:\Users\mateu\AppData\Local\Arduino15\packages\MiniCore\hardware\avr\2.0.9\cores\MCUdude_corefiles/HardwareSerial.cpp:122
  *_ubrrl = baud_setting;
    178e:	ee 85       	ldd	r30, Y+14	; 0x0e
    1790:	ff 85       	ldd	r31, Y+15	; 0x0f
    1792:	20 83       	st	Z, r18
C:\Users\mateu\AppData\Local\Arduino15\packages\MiniCore\hardware\avr\2.0.9\cores\MCUdude_corefiles/HardwareSerial.cpp:124

  _written = false;
    1794:	18 8e       	std	Y+24, r1	; 0x18
C:\Users\mateu\AppData\Local\Arduino15\packages\MiniCore\hardware\avr\2.0.9\cores\MCUdude_corefiles/HardwareSerial.cpp:132
#if defined(__AVR_ATmega8__) || defined(__AVR_ATmega8515__) || defined(__AVR_ATmega162__) \
|| defined(__AVR_ATmega8535__) || defined(__AVR_ATmega16__)|| defined(__AVR_ATmega32__)   \
|| defined(__AVR_ATmega162__)
  config |= 0x80; // select UCSRC register (shared with UBRRH)
#endif
  *_ucsrc = config;
    1796:	ec 89       	ldd	r30, Y+20	; 0x14
    1798:	fd 89       	ldd	r31, Y+21	; 0x15
    179a:	10 83       	st	Z, r17
C:\Users\mateu\AppData\Local\Arduino15\packages\MiniCore\hardware\avr\2.0.9\cores\MCUdude_corefiles/HardwareSerial.cpp:134
  
  *_ucsrb |= _BV(RXEN0) | _BV(TXEN0) | _BV(RXCIE0);
    179c:	ea 89       	ldd	r30, Y+18	; 0x12
    179e:	fb 89       	ldd	r31, Y+19	; 0x13
    17a0:	80 81       	ld	r24, Z
    17a2:	88 69       	ori	r24, 0x98	; 152
    17a4:	80 83       	st	Z, r24
C:\Users\mateu\AppData\Local\Arduino15\packages\MiniCore\hardware\avr\2.0.9\cores\MCUdude_corefiles/HardwareSerial.cpp:135
  *_ucsrb &= ~_BV(UDRIE0);
    17a6:	ea 89       	ldd	r30, Y+18	; 0x12
    17a8:	fb 89       	ldd	r31, Y+19	; 0x13
    17aa:	80 81       	ld	r24, Z
    17ac:	8f 7d       	andi	r24, 0xDF	; 223
    17ae:	80 83       	st	Z, r24
C:\Users\mateu\AppData\Local\Arduino15\packages\MiniCore\hardware\avr\2.0.9\cores\MCUdude_corefiles/HardwareSerial.cpp:136
}
    17b0:	df 91       	pop	r29
    17b2:	cf 91       	pop	r28
    17b4:	1f 91       	pop	r17
    17b6:	ff 90       	pop	r15
    17b8:	ef 90       	pop	r14
    17ba:	df 90       	pop	r13
    17bc:	cf 90       	pop	r12
    17be:	08 95       	ret

000017c0 <__vector_18>:
__vector_18():
C:\Users\mateu\AppData\Local\Arduino15\packages\MiniCore\hardware\avr\2.0.9\cores\MCUdude_corefiles/HardwareSerial0.cpp:77

// Function that can be weakly referenced by serialEventRun to prevent
// pulling in this file if it's not otherwise used.
bool Serial0_available() {
  return Serial.available();
}
    17c0:	1f 92       	push	r1
    17c2:	0f 92       	push	r0
    17c4:	0f b6       	in	r0, 0x3f	; 63
    17c6:	0f 92       	push	r0
    17c8:	11 24       	eor	r1, r1
    17ca:	2f 93       	push	r18
    17cc:	8f 93       	push	r24
    17ce:	9f 93       	push	r25
    17d0:	ef 93       	push	r30
    17d2:	ff 93       	push	r31
_ZN14HardwareSerial16_rx_complete_irqEv():
    17d4:	e0 91 93 02 	lds	r30, 0x0293	; 0x800293 <Serial+0x10>
    17d8:	f0 91 94 02 	lds	r31, 0x0294	; 0x800294 <Serial+0x11>
    17dc:	80 81       	ld	r24, Z
    17de:	e0 91 99 02 	lds	r30, 0x0299	; 0x800299 <Serial+0x16>
    17e2:	f0 91 9a 02 	lds	r31, 0x029A	; 0x80029a <Serial+0x17>
    17e6:	82 fd       	sbrc	r24, 2
    17e8:	1b c0       	rjmp	.+54     	; 0x1820 <__vector_18+0x60>
    17ea:	90 81       	ld	r25, Z
    17ec:	80 91 9c 02 	lds	r24, 0x029C	; 0x80029c <Serial+0x19>
    17f0:	8f 5f       	subi	r24, 0xFF	; 255
    17f2:	8f 73       	andi	r24, 0x3F	; 63
    17f4:	20 91 9d 02 	lds	r18, 0x029D	; 0x80029d <Serial+0x1a>
    17f8:	82 17       	cp	r24, r18
    17fa:	41 f0       	breq	.+16     	; 0x180c <__vector_18+0x4c>
    17fc:	e0 91 9c 02 	lds	r30, 0x029C	; 0x80029c <Serial+0x19>
    1800:	f0 e0       	ldi	r31, 0x00	; 0
    1802:	ed 57       	subi	r30, 0x7D	; 125
    1804:	fd 4f       	sbci	r31, 0xFD	; 253
    1806:	95 8f       	std	Z+29, r25	; 0x1d
    1808:	80 93 9c 02 	sts	0x029C, r24	; 0x80029c <Serial+0x19>
__vector_18():
    180c:	ff 91       	pop	r31
    180e:	ef 91       	pop	r30
    1810:	9f 91       	pop	r25
    1812:	8f 91       	pop	r24
    1814:	2f 91       	pop	r18
    1816:	0f 90       	pop	r0
    1818:	0f be       	out	0x3f, r0	; 63
    181a:	0f 90       	pop	r0
    181c:	1f 90       	pop	r1
    181e:	18 95       	reti
_ZN14HardwareSerial16_rx_complete_irqEv():
    1820:	80 81       	ld	r24, Z
__vector_18():
    1822:	f4 cf       	rjmp	.-24     	; 0x180c <__vector_18+0x4c>

00001824 <__vector_19>:
__vector_19():
    1824:	1f 92       	push	r1
    1826:	0f 92       	push	r0
    1828:	0f b6       	in	r0, 0x3f	; 63
    182a:	0f 92       	push	r0
    182c:	11 24       	eor	r1, r1
    182e:	2f 93       	push	r18
    1830:	3f 93       	push	r19
    1832:	4f 93       	push	r20
    1834:	5f 93       	push	r21
    1836:	6f 93       	push	r22
    1838:	7f 93       	push	r23
    183a:	8f 93       	push	r24
    183c:	9f 93       	push	r25
    183e:	af 93       	push	r26
    1840:	bf 93       	push	r27
    1842:	ef 93       	push	r30
    1844:	ff 93       	push	r31
    1846:	83 e8       	ldi	r24, 0x83	; 131
    1848:	92 e0       	ldi	r25, 0x02	; 2
    184a:	0e 94 00 0b 	call	0x1600	; 0x1600 <HardwareSerial::_tx_udr_empty_irq()>
    184e:	ff 91       	pop	r31
    1850:	ef 91       	pop	r30
    1852:	bf 91       	pop	r27
    1854:	af 91       	pop	r26
    1856:	9f 91       	pop	r25
    1858:	8f 91       	pop	r24
    185a:	7f 91       	pop	r23
    185c:	6f 91       	pop	r22
    185e:	5f 91       	pop	r21
    1860:	4f 91       	pop	r20
    1862:	3f 91       	pop	r19
    1864:	2f 91       	pop	r18
    1866:	0f 90       	pop	r0
    1868:	0f be       	out	0x3f, r0	; 63
    186a:	0f 90       	pop	r0
    186c:	1f 90       	pop	r1
    186e:	18 95       	reti

00001870 <_GLOBAL__sub_I___vector_18>:
_ZN5PrintC4Ev():
C:\Users\mateu\AppData\Local\Arduino15\packages\MiniCore\hardware\avr\2.0.9\cores\MCUdude_corefiles/Print.h:46
    size_t printNumber(unsigned long, uint8_t);
    size_t printFloat(double, uint8_t);
  protected:
    void setWriteError(int err = 1) { write_error = err; }
  public:
    Print() : write_error(0) {}
    1870:	e3 e8       	ldi	r30, 0x83	; 131
    1872:	f2 e0       	ldi	r31, 0x02	; 2
    1874:	13 82       	std	Z+3, r1	; 0x03
    1876:	12 82       	std	Z+2, r1	; 0x02
_ZN6StreamC4Ev():
C:\Users\mateu\AppData\Local\Arduino15\packages\MiniCore\hardware\avr\2.0.9\cores\MCUdude_corefiles/Stream.h:63
  public:
    virtual int available() = 0;
    virtual int read() = 0;
    virtual int peek() = 0;

    Stream() {_timeout=1000;}
    1878:	88 ee       	ldi	r24, 0xE8	; 232
    187a:	93 e0       	ldi	r25, 0x03	; 3
    187c:	a0 e0       	ldi	r26, 0x00	; 0
    187e:	b0 e0       	ldi	r27, 0x00	; 0
    1880:	84 83       	std	Z+4, r24	; 0x04
    1882:	95 83       	std	Z+5, r25	; 0x05
    1884:	a6 83       	std	Z+6, r26	; 0x06
    1886:	b7 83       	std	Z+7, r27	; 0x07
_ZN14HardwareSerialC4EPVhS1_S1_S1_S1_S1_():
C:\Users\mateu\AppData\Local\Arduino15\packages\MiniCore\hardware\avr\2.0.9\cores\MCUdude_corefiles/HardwareSerial_private.h:95
  volatile uint8_t *ucsrc, volatile uint8_t *udr) :
    _ubrrh(ubrrh), _ubrrl(ubrrl),
    _ucsra(ucsra), _ucsrb(ucsrb), _ucsrc(ucsrc),
    _udr(udr),
    _rx_buffer_head(0), _rx_buffer_tail(0),
    _tx_buffer_head(0), _tx_buffer_tail(0)
    1888:	82 e9       	ldi	r24, 0x92	; 146
    188a:	91 e0       	ldi	r25, 0x01	; 1
    188c:	91 83       	std	Z+1, r25	; 0x01
    188e:	80 83       	st	Z, r24
    1890:	85 ec       	ldi	r24, 0xC5	; 197
    1892:	90 e0       	ldi	r25, 0x00	; 0
    1894:	95 87       	std	Z+13, r25	; 0x0d
    1896:	84 87       	std	Z+12, r24	; 0x0c
    1898:	84 ec       	ldi	r24, 0xC4	; 196
    189a:	90 e0       	ldi	r25, 0x00	; 0
    189c:	97 87       	std	Z+15, r25	; 0x0f
    189e:	86 87       	std	Z+14, r24	; 0x0e
    18a0:	80 ec       	ldi	r24, 0xC0	; 192
    18a2:	90 e0       	ldi	r25, 0x00	; 0
    18a4:	91 8b       	std	Z+17, r25	; 0x11
    18a6:	80 8b       	std	Z+16, r24	; 0x10
    18a8:	81 ec       	ldi	r24, 0xC1	; 193
    18aa:	90 e0       	ldi	r25, 0x00	; 0
    18ac:	93 8b       	std	Z+19, r25	; 0x13
    18ae:	82 8b       	std	Z+18, r24	; 0x12
    18b0:	82 ec       	ldi	r24, 0xC2	; 194
    18b2:	90 e0       	ldi	r25, 0x00	; 0
    18b4:	95 8b       	std	Z+21, r25	; 0x15
    18b6:	84 8b       	std	Z+20, r24	; 0x14
    18b8:	86 ec       	ldi	r24, 0xC6	; 198
    18ba:	90 e0       	ldi	r25, 0x00	; 0
    18bc:	97 8b       	std	Z+23, r25	; 0x17
    18be:	86 8b       	std	Z+22, r24	; 0x16
    18c0:	11 8e       	std	Z+25, r1	; 0x19
    18c2:	12 8e       	std	Z+26, r1	; 0x1a
    18c4:	13 8e       	std	Z+27, r1	; 0x1b
    18c6:	14 8e       	std	Z+28, r1	; 0x1c
_GLOBAL__sub_I___vector_18():
C:\Users\mateu\AppData\Local\Arduino15\packages\MiniCore\hardware\avr\2.0.9\cores\MCUdude_corefiles/HardwareSerial0.cpp:77
    18c8:	08 95       	ret

000018ca <__vector_28>:
__vector_28():
C:\Users\mateu\AppData\Local\Arduino15\packages\MiniCore\hardware\avr\2.0.9\cores\MCUdude_corefiles/HardwareSerial1.cpp:69

// Function that can be weakly referenced by serialEventRun to prevent
// pulling in this file if it's not otherwise used.
bool Serial1_available() {
  return Serial1.available();
}
    18ca:	1f 92       	push	r1
    18cc:	0f 92       	push	r0
    18ce:	0f b6       	in	r0, 0x3f	; 63
    18d0:	0f 92       	push	r0
    18d2:	11 24       	eor	r1, r1
    18d4:	2f 93       	push	r18
    18d6:	8f 93       	push	r24
    18d8:	9f 93       	push	r25
    18da:	ef 93       	push	r30
    18dc:	ff 93       	push	r31
_ZN14HardwareSerial16_rx_complete_irqEv():
    18de:	e0 91 30 03 	lds	r30, 0x0330	; 0x800330 <Serial1+0x10>
    18e2:	f0 91 31 03 	lds	r31, 0x0331	; 0x800331 <Serial1+0x11>
    18e6:	80 81       	ld	r24, Z
    18e8:	e0 91 36 03 	lds	r30, 0x0336	; 0x800336 <Serial1+0x16>
    18ec:	f0 91 37 03 	lds	r31, 0x0337	; 0x800337 <Serial1+0x17>
    18f0:	82 fd       	sbrc	r24, 2
    18f2:	1b c0       	rjmp	.+54     	; 0x192a <__vector_28+0x60>
    18f4:	90 81       	ld	r25, Z
    18f6:	80 91 39 03 	lds	r24, 0x0339	; 0x800339 <Serial1+0x19>
    18fa:	8f 5f       	subi	r24, 0xFF	; 255
    18fc:	8f 73       	andi	r24, 0x3F	; 63
    18fe:	20 91 3a 03 	lds	r18, 0x033A	; 0x80033a <Serial1+0x1a>
    1902:	82 17       	cp	r24, r18
    1904:	41 f0       	breq	.+16     	; 0x1916 <__vector_28+0x4c>
    1906:	e0 91 39 03 	lds	r30, 0x0339	; 0x800339 <Serial1+0x19>
    190a:	f0 e0       	ldi	r31, 0x00	; 0
    190c:	e0 5e       	subi	r30, 0xE0	; 224
    190e:	fc 4f       	sbci	r31, 0xFC	; 252
    1910:	95 8f       	std	Z+29, r25	; 0x1d
    1912:	80 93 39 03 	sts	0x0339, r24	; 0x800339 <Serial1+0x19>
__vector_28():
    1916:	ff 91       	pop	r31
    1918:	ef 91       	pop	r30
    191a:	9f 91       	pop	r25
    191c:	8f 91       	pop	r24
    191e:	2f 91       	pop	r18
    1920:	0f 90       	pop	r0
    1922:	0f be       	out	0x3f, r0	; 63
    1924:	0f 90       	pop	r0
    1926:	1f 90       	pop	r1
    1928:	18 95       	reti
_ZN14HardwareSerial16_rx_complete_irqEv():
    192a:	80 81       	ld	r24, Z
__vector_28():
    192c:	f4 cf       	rjmp	.-24     	; 0x1916 <__vector_28+0x4c>

0000192e <__vector_29>:
__vector_29():
    192e:	1f 92       	push	r1
    1930:	0f 92       	push	r0
    1932:	0f b6       	in	r0, 0x3f	; 63
    1934:	0f 92       	push	r0
    1936:	11 24       	eor	r1, r1
    1938:	2f 93       	push	r18
    193a:	3f 93       	push	r19
    193c:	4f 93       	push	r20
    193e:	5f 93       	push	r21
    1940:	6f 93       	push	r22
    1942:	7f 93       	push	r23
    1944:	8f 93       	push	r24
    1946:	9f 93       	push	r25
    1948:	af 93       	push	r26
    194a:	bf 93       	push	r27
    194c:	ef 93       	push	r30
    194e:	ff 93       	push	r31
    1950:	80 e2       	ldi	r24, 0x20	; 32
    1952:	93 e0       	ldi	r25, 0x03	; 3
    1954:	0e 94 00 0b 	call	0x1600	; 0x1600 <HardwareSerial::_tx_udr_empty_irq()>
    1958:	ff 91       	pop	r31
    195a:	ef 91       	pop	r30
    195c:	bf 91       	pop	r27
    195e:	af 91       	pop	r26
    1960:	9f 91       	pop	r25
    1962:	8f 91       	pop	r24
    1964:	7f 91       	pop	r23
    1966:	6f 91       	pop	r22
    1968:	5f 91       	pop	r21
    196a:	4f 91       	pop	r20
    196c:	3f 91       	pop	r19
    196e:	2f 91       	pop	r18
    1970:	0f 90       	pop	r0
    1972:	0f be       	out	0x3f, r0	; 63
    1974:	0f 90       	pop	r0
    1976:	1f 90       	pop	r1
    1978:	18 95       	reti

0000197a <_GLOBAL__sub_I___vector_28>:
_ZN5PrintC4Ev():
C:\Users\mateu\AppData\Local\Arduino15\packages\MiniCore\hardware\avr\2.0.9\cores\MCUdude_corefiles/Print.h:46
    197a:	e0 e2       	ldi	r30, 0x20	; 32
    197c:	f3 e0       	ldi	r31, 0x03	; 3
    197e:	13 82       	std	Z+3, r1	; 0x03
    1980:	12 82       	std	Z+2, r1	; 0x02
_ZN6StreamC4Ev():
C:\Users\mateu\AppData\Local\Arduino15\packages\MiniCore\hardware\avr\2.0.9\cores\MCUdude_corefiles/Stream.h:63
    1982:	88 ee       	ldi	r24, 0xE8	; 232
    1984:	93 e0       	ldi	r25, 0x03	; 3
    1986:	a0 e0       	ldi	r26, 0x00	; 0
    1988:	b0 e0       	ldi	r27, 0x00	; 0
    198a:	84 83       	std	Z+4, r24	; 0x04
    198c:	95 83       	std	Z+5, r25	; 0x05
    198e:	a6 83       	std	Z+6, r26	; 0x06
    1990:	b7 83       	std	Z+7, r27	; 0x07
_ZN14HardwareSerialC4EPVhS1_S1_S1_S1_S1_():
C:\Users\mateu\AppData\Local\Arduino15\packages\MiniCore\hardware\avr\2.0.9\cores\MCUdude_corefiles/HardwareSerial_private.h:95
    1992:	82 e9       	ldi	r24, 0x92	; 146
    1994:	91 e0       	ldi	r25, 0x01	; 1
    1996:	91 83       	std	Z+1, r25	; 0x01
    1998:	80 83       	st	Z, r24
    199a:	8d ec       	ldi	r24, 0xCD	; 205
    199c:	90 e0       	ldi	r25, 0x00	; 0
    199e:	95 87       	std	Z+13, r25	; 0x0d
    19a0:	84 87       	std	Z+12, r24	; 0x0c
    19a2:	8c ec       	ldi	r24, 0xCC	; 204
    19a4:	90 e0       	ldi	r25, 0x00	; 0
    19a6:	97 87       	std	Z+15, r25	; 0x0f
    19a8:	86 87       	std	Z+14, r24	; 0x0e
    19aa:	88 ec       	ldi	r24, 0xC8	; 200
    19ac:	90 e0       	ldi	r25, 0x00	; 0
    19ae:	91 8b       	std	Z+17, r25	; 0x11
    19b0:	80 8b       	std	Z+16, r24	; 0x10
    19b2:	89 ec       	ldi	r24, 0xC9	; 201
    19b4:	90 e0       	ldi	r25, 0x00	; 0
    19b6:	93 8b       	std	Z+19, r25	; 0x13
    19b8:	82 8b       	std	Z+18, r24	; 0x12
    19ba:	8a ec       	ldi	r24, 0xCA	; 202
    19bc:	90 e0       	ldi	r25, 0x00	; 0
    19be:	95 8b       	std	Z+21, r25	; 0x15
    19c0:	84 8b       	std	Z+20, r24	; 0x14
    19c2:	8e ec       	ldi	r24, 0xCE	; 206
    19c4:	90 e0       	ldi	r25, 0x00	; 0
    19c6:	97 8b       	std	Z+23, r25	; 0x17
    19c8:	86 8b       	std	Z+22, r24	; 0x16
    19ca:	11 8e       	std	Z+25, r1	; 0x19
    19cc:	12 8e       	std	Z+26, r1	; 0x1a
    19ce:	13 8e       	std	Z+27, r1	; 0x1b
    19d0:	14 8e       	std	Z+28, r1	; 0x1c
_GLOBAL__sub_I___vector_28():
C:\Users\mateu\AppData\Local\Arduino15\packages\MiniCore\hardware\avr\2.0.9\cores\MCUdude_corefiles/HardwareSerial1.cpp:69
    19d2:	08 95       	ret

000019d4 <Print::write(unsigned char const*, unsigned int)>:
_ZN5Print5writeEPKhj():
C:\Users\mateu\AppData\Local\Arduino15\packages\MiniCore\hardware\avr\2.0.9\cores\MCUdude_corefiles/Print.cpp:136
size_t Print::println(const String &s)
{
  size_t n = print(s);
  n += println();
  return n;
}
    19d4:	af 92       	push	r10
    19d6:	bf 92       	push	r11
    19d8:	cf 92       	push	r12
    19da:	df 92       	push	r13
    19dc:	ef 92       	push	r14
    19de:	ff 92       	push	r15
    19e0:	0f 93       	push	r16
    19e2:	1f 93       	push	r17
    19e4:	cf 93       	push	r28
    19e6:	df 93       	push	r29
    19e8:	6c 01       	movw	r12, r24
    19ea:	7b 01       	movw	r14, r22
    19ec:	8b 01       	movw	r16, r22
    19ee:	04 0f       	add	r16, r20
    19f0:	15 1f       	adc	r17, r21
    19f2:	eb 01       	movw	r28, r22
    19f4:	5e 01       	movw	r10, r28
    19f6:	ae 18       	sub	r10, r14
    19f8:	bf 08       	sbc	r11, r15
    19fa:	c0 17       	cp	r28, r16
    19fc:	d1 07       	cpc	r29, r17
    19fe:	59 f0       	breq	.+22     	; 0x1a16 <Print::write(unsigned char const*, unsigned int)+0x42>
    1a00:	69 91       	ld	r22, Y+
    1a02:	d6 01       	movw	r26, r12
    1a04:	ed 91       	ld	r30, X+
    1a06:	fc 91       	ld	r31, X
    1a08:	01 90       	ld	r0, Z+
    1a0a:	f0 81       	ld	r31, Z
    1a0c:	e0 2d       	mov	r30, r0
    1a0e:	c6 01       	movw	r24, r12
    1a10:	09 95       	icall
    1a12:	89 2b       	or	r24, r25
    1a14:	79 f7       	brne	.-34     	; 0x19f4 <Print::write(unsigned char const*, unsigned int)+0x20>
    1a16:	c5 01       	movw	r24, r10
    1a18:	df 91       	pop	r29
    1a1a:	cf 91       	pop	r28
    1a1c:	1f 91       	pop	r17
    1a1e:	0f 91       	pop	r16
    1a20:	ff 90       	pop	r15
    1a22:	ef 90       	pop	r14
    1a24:	df 90       	pop	r13
    1a26:	cf 90       	pop	r12
    1a28:	bf 90       	pop	r11
    1a2a:	af 90       	pop	r10
    1a2c:	08 95       	ret

00001a2e <Print::write(char const*) [clone .part.2]>:
_ZN5Print5writeEPKc():
    1a2e:	fb 01       	movw	r30, r22
    1a30:	01 90       	ld	r0, Z+
    1a32:	00 20       	and	r0, r0
    1a34:	e9 f7       	brne	.-6      	; 0x1a30 <Print::write(char const*) [clone .part.2]+0x2>
    1a36:	31 97       	sbiw	r30, 0x01	; 1
    1a38:	af 01       	movw	r20, r30
    1a3a:	46 1b       	sub	r20, r22
    1a3c:	57 0b       	sbc	r21, r23
    1a3e:	dc 01       	movw	r26, r24
    1a40:	ed 91       	ld	r30, X+
    1a42:	fc 91       	ld	r31, X
    1a44:	02 80       	ldd	r0, Z+2	; 0x02
    1a46:	f3 81       	ldd	r31, Z+3	; 0x03
    1a48:	e0 2d       	mov	r30, r0
    1a4a:	09 94       	ijmp

00001a4c <Print::print(String const&)>:
_ZN5Print5writeEPKcj():
    1a4c:	db 01       	movw	r26, r22
    1a4e:	14 96       	adiw	r26, 0x04	; 4
    1a50:	4d 91       	ld	r20, X+
    1a52:	5c 91       	ld	r21, X
    1a54:	15 97       	sbiw	r26, 0x05	; 5
    1a56:	6d 91       	ld	r22, X+
    1a58:	7c 91       	ld	r23, X
    1a5a:	dc 01       	movw	r26, r24
    1a5c:	ed 91       	ld	r30, X+
    1a5e:	fc 91       	ld	r31, X
    1a60:	02 80       	ldd	r0, Z+2	; 0x02
    1a62:	f3 81       	ldd	r31, Z+3	; 0x03
    1a64:	e0 2d       	mov	r30, r0
    1a66:	09 94       	ijmp

00001a68 <Print::print(char)>:
_ZN5Print5printEc():
    1a68:	dc 01       	movw	r26, r24
    1a6a:	ed 91       	ld	r30, X+
    1a6c:	fc 91       	ld	r31, X
    1a6e:	01 90       	ld	r0, Z+
    1a70:	f0 81       	ld	r31, Z
    1a72:	e0 2d       	mov	r30, r0
    1a74:	09 94       	ijmp

00001a76 <Print::println()>:
_ZN5Print5writeEPKc():
    1a76:	6d e1       	ldi	r22, 0x1D	; 29
    1a78:	71 e0       	ldi	r23, 0x01	; 1
    1a7a:	0c 94 17 0d 	jmp	0x1a2e	; 0x1a2e <Print::write(char const*) [clone .part.2]>

00001a7e <Print::println(char const*)>:
_ZN5Print7printlnEPKc():
C:\Users\mateu\AppData\Local\Arduino15\packages\MiniCore\hardware\avr\2.0.9\cores\MCUdude_corefiles/Print.cpp:139

size_t Print::println(const char c[])
{
    1a7e:	0f 93       	push	r16
    1a80:	1f 93       	push	r17
    1a82:	cf 93       	push	r28
    1a84:	df 93       	push	r29
    1a86:	8c 01       	movw	r16, r24
_ZN5Print5writeEPKc():
C:\Users\mateu\AppData\Local\Arduino15\packages\MiniCore\hardware\avr\2.0.9\cores\MCUdude_corefiles/Print.h:53
    int getWriteError() { return write_error; }
    void clearWriteError() { setWriteError(0); }
  
    virtual size_t write(uint8_t) = 0;
    size_t write(const char *str) {
      if (str == NULL) return 0;
    1a88:	d0 e0       	ldi	r29, 0x00	; 0
    1a8a:	c0 e0       	ldi	r28, 0x00	; 0
    1a8c:	61 15       	cp	r22, r1
    1a8e:	71 05       	cpc	r23, r1
    1a90:	19 f0       	breq	.+6      	; 0x1a98 <Print::println(char const*)+0x1a>
    1a92:	0e 94 17 0d 	call	0x1a2e	; 0x1a2e <Print::write(char const*) [clone .part.2]>
    1a96:	ec 01       	movw	r28, r24
_ZN5Print7printlnEPKc():
C:\Users\mateu\AppData\Local\Arduino15\packages\MiniCore\hardware\avr\2.0.9\cores\MCUdude_corefiles/Print.cpp:141
  size_t n = print(c);
  n += println();
    1a98:	c8 01       	movw	r24, r16
    1a9a:	0e 94 3b 0d 	call	0x1a76	; 0x1a76 <Print::println()>
C:\Users\mateu\AppData\Local\Arduino15\packages\MiniCore\hardware\avr\2.0.9\cores\MCUdude_corefiles/Print.cpp:143
  return n;
}
    1a9e:	8c 0f       	add	r24, r28
    1aa0:	9d 1f       	adc	r25, r29
    1aa2:	df 91       	pop	r29
    1aa4:	cf 91       	pop	r28
    1aa6:	1f 91       	pop	r17
    1aa8:	0f 91       	pop	r16
    1aaa:	08 95       	ret

00001aac <String::~String()>:
_ZN6StringD2Ev():
C:\Users\mateu\AppData\Local\Arduino15\packages\MiniCore\hardware\avr\2.0.9\cores\MCUdude_corefiles/WString.cpp:519
}

void String::setCharAt(unsigned int loc, char c) 
{
  if (loc < len) buffer[loc] = c;
}
    1aac:	fc 01       	movw	r30, r24
    1aae:	80 81       	ld	r24, Z
    1ab0:	91 81       	ldd	r25, Z+1	; 0x01
    1ab2:	0c 94 42 10 	jmp	0x2084	; 0x2084 <free>

00001ab6 <String::invalidate()>:
_ZN6String10invalidateEv():
    1ab6:	cf 93       	push	r28
    1ab8:	df 93       	push	r29
    1aba:	ec 01       	movw	r28, r24
    1abc:	88 81       	ld	r24, Y
    1abe:	99 81       	ldd	r25, Y+1	; 0x01
    1ac0:	00 97       	sbiw	r24, 0x00	; 0
    1ac2:	11 f0       	breq	.+4      	; 0x1ac8 <String::invalidate()+0x12>
    1ac4:	0e 94 42 10 	call	0x2084	; 0x2084 <free>
    1ac8:	19 82       	std	Y+1, r1	; 0x01
    1aca:	18 82       	st	Y, r1
    1acc:	1d 82       	std	Y+5, r1	; 0x05
    1ace:	1c 82       	std	Y+4, r1	; 0x04
    1ad0:	1b 82       	std	Y+3, r1	; 0x03
    1ad2:	1a 82       	std	Y+2, r1	; 0x02
    1ad4:	df 91       	pop	r29
    1ad6:	cf 91       	pop	r28
    1ad8:	08 95       	ret

00001ada <String::changeBuffer(unsigned int)>:
_ZN6String12changeBufferEj():
    1ada:	0f 93       	push	r16
    1adc:	1f 93       	push	r17
    1ade:	cf 93       	push	r28
    1ae0:	df 93       	push	r29
    1ae2:	ec 01       	movw	r28, r24
    1ae4:	8b 01       	movw	r16, r22
    1ae6:	6f 5f       	subi	r22, 0xFF	; 255
    1ae8:	7f 4f       	sbci	r23, 0xFF	; 255
    1aea:	88 81       	ld	r24, Y
    1aec:	99 81       	ldd	r25, Y+1	; 0x01
    1aee:	0e 94 cb 10 	call	0x2196	; 0x2196 <realloc>
    1af2:	00 97       	sbiw	r24, 0x00	; 0
    1af4:	51 f0       	breq	.+20     	; 0x1b0a <String::changeBuffer(unsigned int)+0x30>
    1af6:	99 83       	std	Y+1, r25	; 0x01
    1af8:	88 83       	st	Y, r24
    1afa:	1b 83       	std	Y+3, r17	; 0x03
    1afc:	0a 83       	std	Y+2, r16	; 0x02
    1afe:	81 e0       	ldi	r24, 0x01	; 1
    1b00:	df 91       	pop	r29
    1b02:	cf 91       	pop	r28
    1b04:	1f 91       	pop	r17
    1b06:	0f 91       	pop	r16
    1b08:	08 95       	ret
    1b0a:	80 e0       	ldi	r24, 0x00	; 0
    1b0c:	f9 cf       	rjmp	.-14     	; 0x1b00 <String::changeBuffer(unsigned int)+0x26>

00001b0e <String::reserve(unsigned int)>:
_ZN6String7reserveEj():
    1b0e:	cf 93       	push	r28
    1b10:	df 93       	push	r29
    1b12:	ec 01       	movw	r28, r24
    1b14:	88 81       	ld	r24, Y
    1b16:	99 81       	ldd	r25, Y+1	; 0x01
    1b18:	89 2b       	or	r24, r25
    1b1a:	49 f0       	breq	.+18     	; 0x1b2e <String::reserve(unsigned int)+0x20>
    1b1c:	8a 81       	ldd	r24, Y+2	; 0x02
    1b1e:	9b 81       	ldd	r25, Y+3	; 0x03
    1b20:	86 17       	cp	r24, r22
    1b22:	97 07       	cpc	r25, r23
    1b24:	20 f0       	brcs	.+8      	; 0x1b2e <String::reserve(unsigned int)+0x20>
    1b26:	81 e0       	ldi	r24, 0x01	; 1
    1b28:	df 91       	pop	r29
    1b2a:	cf 91       	pop	r28
    1b2c:	08 95       	ret
    1b2e:	ce 01       	movw	r24, r28
    1b30:	0e 94 6d 0d 	call	0x1ada	; 0x1ada <String::changeBuffer(unsigned int)>
    1b34:	88 23       	and	r24, r24
    1b36:	c1 f3       	breq	.-16     	; 0x1b28 <String::reserve(unsigned int)+0x1a>
    1b38:	8c 81       	ldd	r24, Y+4	; 0x04
    1b3a:	9d 81       	ldd	r25, Y+5	; 0x05
    1b3c:	89 2b       	or	r24, r25
    1b3e:	99 f7       	brne	.-26     	; 0x1b26 <String::reserve(unsigned int)+0x18>
    1b40:	e8 81       	ld	r30, Y
    1b42:	f9 81       	ldd	r31, Y+1	; 0x01
    1b44:	10 82       	st	Z, r1
    1b46:	ef cf       	rjmp	.-34     	; 0x1b26 <String::reserve(unsigned int)+0x18>

00001b48 <String::copy(char const*, unsigned int)>:
_ZN6String4copyEPKcj():
    1b48:	ef 92       	push	r14
    1b4a:	ff 92       	push	r15
    1b4c:	0f 93       	push	r16
    1b4e:	1f 93       	push	r17
    1b50:	cf 93       	push	r28
    1b52:	df 93       	push	r29
    1b54:	ec 01       	movw	r28, r24
    1b56:	7b 01       	movw	r14, r22
    1b58:	8a 01       	movw	r16, r20
    1b5a:	ba 01       	movw	r22, r20
    1b5c:	0e 94 87 0d 	call	0x1b0e	; 0x1b0e <String::reserve(unsigned int)>
    1b60:	81 11       	cpse	r24, r1
    1b62:	0b c0       	rjmp	.+22     	; 0x1b7a <String::copy(char const*, unsigned int)+0x32>
    1b64:	ce 01       	movw	r24, r28
    1b66:	0e 94 5b 0d 	call	0x1ab6	; 0x1ab6 <String::invalidate()>
    1b6a:	ce 01       	movw	r24, r28
    1b6c:	df 91       	pop	r29
    1b6e:	cf 91       	pop	r28
    1b70:	1f 91       	pop	r17
    1b72:	0f 91       	pop	r16
    1b74:	ff 90       	pop	r15
    1b76:	ef 90       	pop	r14
    1b78:	08 95       	ret
    1b7a:	1d 83       	std	Y+5, r17	; 0x05
    1b7c:	0c 83       	std	Y+4, r16	; 0x04
    1b7e:	b7 01       	movw	r22, r14
    1b80:	88 81       	ld	r24, Y
    1b82:	99 81       	ldd	r25, Y+1	; 0x01
    1b84:	0e 94 ae 11 	call	0x235c	; 0x235c <strcpy>
    1b88:	f0 cf       	rjmp	.-32     	; 0x1b6a <String::copy(char const*, unsigned int)+0x22>

00001b8a <String::String(char const*)>:
_ZN6String4initEv():
    1b8a:	fc 01       	movw	r30, r24
    1b8c:	11 82       	std	Z+1, r1	; 0x01
    1b8e:	10 82       	st	Z, r1
    1b90:	13 82       	std	Z+3, r1	; 0x03
    1b92:	12 82       	std	Z+2, r1	; 0x02
    1b94:	15 82       	std	Z+5, r1	; 0x05
    1b96:	14 82       	std	Z+4, r1	; 0x04
_ZN6StringC2EPKc():
    1b98:	61 15       	cp	r22, r1
    1b9a:	71 05       	cpc	r23, r1
    1b9c:	51 f0       	breq	.+20     	; 0x1bb2 <String::String(char const*)+0x28>
    1b9e:	fb 01       	movw	r30, r22
    1ba0:	01 90       	ld	r0, Z+
    1ba2:	00 20       	and	r0, r0
    1ba4:	e9 f7       	brne	.-6      	; 0x1ba0 <String::String(char const*)+0x16>
    1ba6:	31 97       	sbiw	r30, 0x01	; 1
    1ba8:	af 01       	movw	r20, r30
    1baa:	46 1b       	sub	r20, r22
    1bac:	57 0b       	sbc	r21, r23
    1bae:	0c 94 a4 0d 	jmp	0x1b48	; 0x1b48 <String::copy(char const*, unsigned int)>
    1bb2:	08 95       	ret

00001bb4 <String::operator=(char const*) [clone .part.3]>:
_ZN6StringaSEPKc():
    1bb4:	fb 01       	movw	r30, r22
    1bb6:	01 90       	ld	r0, Z+
    1bb8:	00 20       	and	r0, r0
    1bba:	e9 f7       	brne	.-6      	; 0x1bb6 <String::operator=(char const*) [clone .part.3]+0x2>
    1bbc:	31 97       	sbiw	r30, 0x01	; 1
    1bbe:	af 01       	movw	r20, r30
    1bc0:	46 1b       	sub	r20, r22
    1bc2:	57 0b       	sbc	r21, r23
    1bc4:	0c 94 a4 0d 	jmp	0x1b48	; 0x1b48 <String::copy(char const*, unsigned int)>

00001bc8 <String::copy(__FlashStringHelper const*, unsigned int)>:
_ZN6String4copyEPK19__FlashStringHelperj():
    1bc8:	ef 92       	push	r14
    1bca:	ff 92       	push	r15
    1bcc:	0f 93       	push	r16
    1bce:	1f 93       	push	r17
    1bd0:	cf 93       	push	r28
    1bd2:	df 93       	push	r29
    1bd4:	ec 01       	movw	r28, r24
    1bd6:	7b 01       	movw	r14, r22
    1bd8:	8a 01       	movw	r16, r20
    1bda:	ba 01       	movw	r22, r20
    1bdc:	0e 94 87 0d 	call	0x1b0e	; 0x1b0e <String::reserve(unsigned int)>
    1be0:	81 11       	cpse	r24, r1
    1be2:	0b c0       	rjmp	.+22     	; 0x1bfa <String::copy(__FlashStringHelper const*, unsigned int)+0x32>
    1be4:	ce 01       	movw	r24, r28
    1be6:	0e 94 5b 0d 	call	0x1ab6	; 0x1ab6 <String::invalidate()>
    1bea:	ce 01       	movw	r24, r28
    1bec:	df 91       	pop	r29
    1bee:	cf 91       	pop	r28
    1bf0:	1f 91       	pop	r17
    1bf2:	0f 91       	pop	r16
    1bf4:	ff 90       	pop	r15
    1bf6:	ef 90       	pop	r14
    1bf8:	08 95       	ret
    1bfa:	1d 83       	std	Y+5, r17	; 0x05
    1bfc:	0c 83       	std	Y+4, r16	; 0x04
    1bfe:	b7 01       	movw	r22, r14
    1c00:	88 81       	ld	r24, Y
    1c02:	99 81       	ldd	r25, Y+1	; 0x01
    1c04:	0e 94 88 11 	call	0x2310	; 0x2310 <strcpy_P>
    1c08:	f0 cf       	rjmp	.-32     	; 0x1bea <String::copy(__FlashStringHelper const*, unsigned int)+0x22>

00001c0a <String::operator=(String const&)>:
_ZN6StringaSERKS_():
    1c0a:	cf 93       	push	r28
    1c0c:	df 93       	push	r29
    1c0e:	ec 01       	movw	r28, r24
    1c10:	fb 01       	movw	r30, r22
    1c12:	86 17       	cp	r24, r22
    1c14:	97 07       	cpc	r25, r23
    1c16:	49 f0       	breq	.+18     	; 0x1c2a <String::operator=(String const&)+0x20>
    1c18:	60 81       	ld	r22, Z
    1c1a:	71 81       	ldd	r23, Z+1	; 0x01
    1c1c:	61 15       	cp	r22, r1
    1c1e:	71 05       	cpc	r23, r1
    1c20:	41 f0       	breq	.+16     	; 0x1c32 <String::operator=(String const&)+0x28>
    1c22:	44 81       	ldd	r20, Z+4	; 0x04
    1c24:	55 81       	ldd	r21, Z+5	; 0x05
    1c26:	0e 94 a4 0d 	call	0x1b48	; 0x1b48 <String::copy(char const*, unsigned int)>
    1c2a:	ce 01       	movw	r24, r28
    1c2c:	df 91       	pop	r29
    1c2e:	cf 91       	pop	r28
    1c30:	08 95       	ret
    1c32:	0e 94 5b 0d 	call	0x1ab6	; 0x1ab6 <String::invalidate()>
    1c36:	f9 cf       	rjmp	.-14     	; 0x1c2a <String::operator=(String const&)+0x20>

00001c38 <String::String(String const&)>:
_ZN6String4initEv():
    1c38:	fc 01       	movw	r30, r24
    1c3a:	11 82       	std	Z+1, r1	; 0x01
    1c3c:	10 82       	st	Z, r1
    1c3e:	13 82       	std	Z+3, r1	; 0x03
    1c40:	12 82       	std	Z+2, r1	; 0x02
    1c42:	15 82       	std	Z+5, r1	; 0x05
    1c44:	14 82       	std	Z+4, r1	; 0x04
_ZN6StringC2ERKS_():
    1c46:	0c 94 05 0e 	jmp	0x1c0a	; 0x1c0a <String::operator=(String const&)>

00001c4a <String::operator=(char const*)>:
_ZN6StringaSEPKc():
    1c4a:	cf 93       	push	r28
    1c4c:	df 93       	push	r29
    1c4e:	ec 01       	movw	r28, r24
    1c50:	61 15       	cp	r22, r1
    1c52:	71 05       	cpc	r23, r1
    1c54:	31 f0       	breq	.+12     	; 0x1c62 <String::operator=(char const*)+0x18>
    1c56:	0e 94 da 0d 	call	0x1bb4	; 0x1bb4 <String::operator=(char const*) [clone .part.3]>
    1c5a:	ce 01       	movw	r24, r28
    1c5c:	df 91       	pop	r29
    1c5e:	cf 91       	pop	r28
    1c60:	08 95       	ret
    1c62:	0e 94 5b 0d 	call	0x1ab6	; 0x1ab6 <String::invalidate()>
    1c66:	f9 cf       	rjmp	.-14     	; 0x1c5a <String::operator=(char const*)+0x10>

00001c68 <String::operator=(__FlashStringHelper const*)>:
_ZN6StringaSEPK19__FlashStringHelper():
    1c68:	0f 93       	push	r16
    1c6a:	1f 93       	push	r17
    1c6c:	cf 93       	push	r28
    1c6e:	df 93       	push	r29
    1c70:	ec 01       	movw	r28, r24
    1c72:	8b 01       	movw	r16, r22
    1c74:	61 15       	cp	r22, r1
    1c76:	71 05       	cpc	r23, r1
    1c78:	71 f0       	breq	.+28     	; 0x1c96 <String::operator=(__FlashStringHelper const*)+0x2e>
strlen_P():
    1c7a:	cb 01       	movw	r24, r22
    1c7c:	0e 94 8f 11 	call	0x231e	; 0x231e <__strlen_P>
_ZN6StringaSEPK19__FlashStringHelper():
    1c80:	ac 01       	movw	r20, r24
    1c82:	b8 01       	movw	r22, r16
    1c84:	ce 01       	movw	r24, r28
    1c86:	0e 94 e4 0d 	call	0x1bc8	; 0x1bc8 <String::copy(__FlashStringHelper const*, unsigned int)>
    1c8a:	ce 01       	movw	r24, r28
    1c8c:	df 91       	pop	r29
    1c8e:	cf 91       	pop	r28
    1c90:	1f 91       	pop	r17
    1c92:	0f 91       	pop	r16
    1c94:	08 95       	ret
    1c96:	0e 94 5b 0d 	call	0x1ab6	; 0x1ab6 <String::invalidate()>
    1c9a:	f7 cf       	rjmp	.-18     	; 0x1c8a <String::operator=(__FlashStringHelper const*)+0x22>

00001c9c <String::String(__FlashStringHelper const*)>:
_ZN6String4initEv():
    1c9c:	fc 01       	movw	r30, r24
    1c9e:	11 82       	std	Z+1, r1	; 0x01
    1ca0:	10 82       	st	Z, r1
    1ca2:	13 82       	std	Z+3, r1	; 0x03
    1ca4:	12 82       	std	Z+2, r1	; 0x02
    1ca6:	15 82       	std	Z+5, r1	; 0x05
    1ca8:	14 82       	std	Z+4, r1	; 0x04
_ZN6StringC2EPK19__FlashStringHelper():
    1caa:	0c 94 34 0e 	jmp	0x1c68	; 0x1c68 <String::operator=(__FlashStringHelper const*)>

00001cae <String::concat(char const*, unsigned int)>:
_ZN6String6concatEPKcj():
    1cae:	ef 92       	push	r14
    1cb0:	ff 92       	push	r15
    1cb2:	0f 93       	push	r16
    1cb4:	1f 93       	push	r17
    1cb6:	cf 93       	push	r28
    1cb8:	df 93       	push	r29
    1cba:	61 15       	cp	r22, r1
    1cbc:	71 05       	cpc	r23, r1
    1cbe:	41 f4       	brne	.+16     	; 0x1cd0 <String::concat(char const*, unsigned int)+0x22>
    1cc0:	80 e0       	ldi	r24, 0x00	; 0
    1cc2:	df 91       	pop	r29
    1cc4:	cf 91       	pop	r28
    1cc6:	1f 91       	pop	r17
    1cc8:	0f 91       	pop	r16
    1cca:	ff 90       	pop	r15
    1ccc:	ef 90       	pop	r14
    1cce:	08 95       	ret
    1cd0:	41 15       	cp	r20, r1
    1cd2:	51 05       	cpc	r21, r1
    1cd4:	b1 f0       	breq	.+44     	; 0x1d02 <String::concat(char const*, unsigned int)+0x54>
    1cd6:	7b 01       	movw	r14, r22
    1cd8:	ec 01       	movw	r28, r24
    1cda:	0c 81       	ldd	r16, Y+4	; 0x04
    1cdc:	1d 81       	ldd	r17, Y+5	; 0x05
    1cde:	04 0f       	add	r16, r20
    1ce0:	15 1f       	adc	r17, r21
    1ce2:	b8 01       	movw	r22, r16
    1ce4:	0e 94 87 0d 	call	0x1b0e	; 0x1b0e <String::reserve(unsigned int)>
    1ce8:	88 23       	and	r24, r24
    1cea:	51 f3       	breq	.-44     	; 0x1cc0 <String::concat(char const*, unsigned int)+0x12>
    1cec:	28 81       	ld	r18, Y
    1cee:	39 81       	ldd	r19, Y+1	; 0x01
    1cf0:	8c 81       	ldd	r24, Y+4	; 0x04
    1cf2:	9d 81       	ldd	r25, Y+5	; 0x05
    1cf4:	b7 01       	movw	r22, r14
    1cf6:	82 0f       	add	r24, r18
    1cf8:	93 1f       	adc	r25, r19
    1cfa:	0e 94 ae 11 	call	0x235c	; 0x235c <strcpy>
    1cfe:	1d 83       	std	Y+5, r17	; 0x05
    1d00:	0c 83       	std	Y+4, r16	; 0x04
    1d02:	81 e0       	ldi	r24, 0x01	; 1
    1d04:	de cf       	rjmp	.-68     	; 0x1cc2 <String::concat(char const*, unsigned int)+0x14>

00001d06 <String::concat(char)>:
_ZN6String6concatEc():
    1d06:	cf 93       	push	r28
    1d08:	df 93       	push	r29
    1d0a:	00 d0       	rcall	.+0      	; 0x1d0c <String::concat(char)+0x6>
    1d0c:	cd b7       	in	r28, 0x3d	; 61
    1d0e:	de b7       	in	r29, 0x3e	; 62
    1d10:	69 83       	std	Y+1, r22	; 0x01
    1d12:	1a 82       	std	Y+2, r1	; 0x02
    1d14:	41 e0       	ldi	r20, 0x01	; 1
    1d16:	50 e0       	ldi	r21, 0x00	; 0
    1d18:	be 01       	movw	r22, r28
    1d1a:	6f 5f       	subi	r22, 0xFF	; 255
    1d1c:	7f 4f       	sbci	r23, 0xFF	; 255
    1d1e:	0e 94 57 0e 	call	0x1cae	; 0x1cae <String::concat(char const*, unsigned int)>
    1d22:	0f 90       	pop	r0
    1d24:	0f 90       	pop	r0
    1d26:	df 91       	pop	r29
    1d28:	cf 91       	pop	r28
    1d2a:	08 95       	ret

00001d2c <operator+(StringSumHelper const&, String const&)>:
_ZplRK15StringSumHelperRK6String():
    1d2c:	cf 93       	push	r28
    1d2e:	df 93       	push	r29
    1d30:	ec 01       	movw	r28, r24
    1d32:	fb 01       	movw	r30, r22
    1d34:	44 81       	ldd	r20, Z+4	; 0x04
    1d36:	55 81       	ldd	r21, Z+5	; 0x05
    1d38:	60 81       	ld	r22, Z
    1d3a:	71 81       	ldd	r23, Z+1	; 0x01
    1d3c:	0e 94 57 0e 	call	0x1cae	; 0x1cae <String::concat(char const*, unsigned int)>
    1d40:	81 11       	cpse	r24, r1
    1d42:	03 c0       	rjmp	.+6      	; 0x1d4a <operator+(StringSumHelper const&, String const&)+0x1e>
    1d44:	ce 01       	movw	r24, r28
    1d46:	0e 94 5b 0d 	call	0x1ab6	; 0x1ab6 <String::invalidate()>
    1d4a:	ce 01       	movw	r24, r28
    1d4c:	df 91       	pop	r29
    1d4e:	cf 91       	pop	r28
    1d50:	08 95       	ret

00001d52 <operator+(StringSumHelper const&, char const*)>:
_ZplRK15StringSumHelperPKc():
    1d52:	cf 93       	push	r28
    1d54:	df 93       	push	r29
    1d56:	ec 01       	movw	r28, r24
    1d58:	61 15       	cp	r22, r1
    1d5a:	71 05       	cpc	r23, r1
    1d5c:	39 f4       	brne	.+14     	; 0x1d6c <operator+(StringSumHelper const&, char const*)+0x1a>
    1d5e:	ce 01       	movw	r24, r28
    1d60:	0e 94 5b 0d 	call	0x1ab6	; 0x1ab6 <String::invalidate()>
    1d64:	ce 01       	movw	r24, r28
    1d66:	df 91       	pop	r29
    1d68:	cf 91       	pop	r28
    1d6a:	08 95       	ret
    1d6c:	fb 01       	movw	r30, r22
    1d6e:	01 90       	ld	r0, Z+
    1d70:	00 20       	and	r0, r0
    1d72:	e9 f7       	brne	.-6      	; 0x1d6e <operator+(StringSumHelper const&, char const*)+0x1c>
    1d74:	31 97       	sbiw	r30, 0x01	; 1
    1d76:	af 01       	movw	r20, r30
    1d78:	46 1b       	sub	r20, r22
    1d7a:	57 0b       	sbc	r21, r23
    1d7c:	0e 94 57 0e 	call	0x1cae	; 0x1cae <String::concat(char const*, unsigned int)>
    1d80:	88 23       	and	r24, r24
    1d82:	69 f3       	breq	.-38     	; 0x1d5e <operator+(StringSumHelper const&, char const*)+0xc>
    1d84:	ef cf       	rjmp	.-34     	; 0x1d64 <operator+(StringSumHelper const&, char const*)+0x12>

00001d86 <String::operator[](unsigned int)>:
_ZN6StringixEj():
C:\Users\mateu\AppData\Local\Arduino15\packages\MiniCore\hardware\avr\2.0.9\cores\MCUdude_corefiles/WString.cpp:524

char & String::operator[](unsigned int index)
{
  static char dummy_writable_char;
  if (index >= len || !buffer) {
    1d86:	fc 01       	movw	r30, r24
    1d88:	24 81       	ldd	r18, Z+4	; 0x04
    1d8a:	35 81       	ldd	r19, Z+5	; 0x05
    1d8c:	62 17       	cp	r22, r18
    1d8e:	73 07       	cpc	r23, r19
    1d90:	20 f4       	brcc	.+8      	; 0x1d9a <String::operator[](unsigned int)+0x14>
C:\Users\mateu\AppData\Local\Arduino15\packages\MiniCore\hardware\avr\2.0.9\cores\MCUdude_corefiles/WString.cpp:524 (discriminator 1)
    1d92:	80 81       	ld	r24, Z
    1d94:	91 81       	ldd	r25, Z+1	; 0x01
    1d96:	00 97       	sbiw	r24, 0x00	; 0
    1d98:	29 f4       	brne	.+10     	; 0x1da4 <String::operator[](unsigned int)+0x1e>
C:\Users\mateu\AppData\Local\Arduino15\packages\MiniCore\hardware\avr\2.0.9\cores\MCUdude_corefiles/WString.cpp:525
    dummy_writable_char = 0;
    1d9a:	10 92 bd 03 	sts	0x03BD, r1	; 0x8003bd <String::operator[](unsigned int)::dummy_writable_char>
C:\Users\mateu\AppData\Local\Arduino15\packages\MiniCore\hardware\avr\2.0.9\cores\MCUdude_corefiles/WString.cpp:526
    return dummy_writable_char;
    1d9e:	8d eb       	ldi	r24, 0xBD	; 189
    1da0:	93 e0       	ldi	r25, 0x03	; 3
    1da2:	08 95       	ret
C:\Users\mateu\AppData\Local\Arduino15\packages\MiniCore\hardware\avr\2.0.9\cores\MCUdude_corefiles/WString.cpp:528
  }
  return buffer[index];
    1da4:	86 0f       	add	r24, r22
    1da6:	97 1f       	adc	r25, r23
C:\Users\mateu\AppData\Local\Arduino15\packages\MiniCore\hardware\avr\2.0.9\cores\MCUdude_corefiles/WString.cpp:529
}
    1da8:	08 95       	ret

00001daa <__vector_16>:
__vector_16():
C:\Users\mateu\AppData\Local\Arduino15\packages\MiniCore\hardware\avr\2.0.9\cores\MCUdude_corefiles/wiring.c:87
  cli();
  m = timer0_millis;
  SREG = oldSREG;

  return m;
}
    1daa:	1f 92       	push	r1
    1dac:	0f 92       	push	r0
    1dae:	0f b6       	in	r0, 0x3f	; 63
    1db0:	0f 92       	push	r0
    1db2:	11 24       	eor	r1, r1
    1db4:	2f 93       	push	r18
    1db6:	3f 93       	push	r19
    1db8:	8f 93       	push	r24
    1dba:	9f 93       	push	r25
    1dbc:	af 93       	push	r26
    1dbe:	bf 93       	push	r27
    1dc0:	80 91 bf 03 	lds	r24, 0x03BF	; 0x8003bf <timer0_millis>
    1dc4:	90 91 c0 03 	lds	r25, 0x03C0	; 0x8003c0 <timer0_millis+0x1>
    1dc8:	a0 91 c1 03 	lds	r26, 0x03C1	; 0x8003c1 <timer0_millis+0x2>
    1dcc:	b0 91 c2 03 	lds	r27, 0x03C2	; 0x8003c2 <timer0_millis+0x3>
    1dd0:	30 91 be 03 	lds	r19, 0x03BE	; 0x8003be <timer0_fract>
    1dd4:	23 e0       	ldi	r18, 0x03	; 3
    1dd6:	23 0f       	add	r18, r19
    1dd8:	2d 37       	cpi	r18, 0x7D	; 125
    1dda:	58 f5       	brcc	.+86     	; 0x1e32 <__vector_16+0x88>
    1ddc:	01 96       	adiw	r24, 0x01	; 1
    1dde:	a1 1d       	adc	r26, r1
    1de0:	b1 1d       	adc	r27, r1
    1de2:	20 93 be 03 	sts	0x03BE, r18	; 0x8003be <timer0_fract>
    1de6:	80 93 bf 03 	sts	0x03BF, r24	; 0x8003bf <timer0_millis>
    1dea:	90 93 c0 03 	sts	0x03C0, r25	; 0x8003c0 <timer0_millis+0x1>
    1dee:	a0 93 c1 03 	sts	0x03C1, r26	; 0x8003c1 <timer0_millis+0x2>
    1df2:	b0 93 c2 03 	sts	0x03C2, r27	; 0x8003c2 <timer0_millis+0x3>
    1df6:	80 91 c3 03 	lds	r24, 0x03C3	; 0x8003c3 <timer0_overflow_count>
    1dfa:	90 91 c4 03 	lds	r25, 0x03C4	; 0x8003c4 <timer0_overflow_count+0x1>
    1dfe:	a0 91 c5 03 	lds	r26, 0x03C5	; 0x8003c5 <timer0_overflow_count+0x2>
    1e02:	b0 91 c6 03 	lds	r27, 0x03C6	; 0x8003c6 <timer0_overflow_count+0x3>
    1e06:	01 96       	adiw	r24, 0x01	; 1
    1e08:	a1 1d       	adc	r26, r1
    1e0a:	b1 1d       	adc	r27, r1
    1e0c:	80 93 c3 03 	sts	0x03C3, r24	; 0x8003c3 <timer0_overflow_count>
    1e10:	90 93 c4 03 	sts	0x03C4, r25	; 0x8003c4 <timer0_overflow_count+0x1>
    1e14:	a0 93 c5 03 	sts	0x03C5, r26	; 0x8003c5 <timer0_overflow_count+0x2>
    1e18:	b0 93 c6 03 	sts	0x03C6, r27	; 0x8003c6 <timer0_overflow_count+0x3>
    1e1c:	bf 91       	pop	r27
    1e1e:	af 91       	pop	r26
    1e20:	9f 91       	pop	r25
    1e22:	8f 91       	pop	r24
    1e24:	3f 91       	pop	r19
    1e26:	2f 91       	pop	r18
    1e28:	0f 90       	pop	r0
    1e2a:	0f be       	out	0x3f, r0	; 63
    1e2c:	0f 90       	pop	r0
    1e2e:	1f 90       	pop	r1
    1e30:	18 95       	reti
    1e32:	26 e8       	ldi	r18, 0x86	; 134
    1e34:	23 0f       	add	r18, r19
    1e36:	02 96       	adiw	r24, 0x02	; 2
    1e38:	a1 1d       	adc	r26, r1
    1e3a:	b1 1d       	adc	r27, r1
    1e3c:	d2 cf       	rjmp	.-92     	; 0x1de2 <__vector_16+0x38>

00001e3e <micros>:
micros():
C:\Users\mateu\AppData\Local\Arduino15\packages\MiniCore\hardware\avr\2.0.9\cores\MCUdude_corefiles/wiring.c:91

unsigned long micros() {
  unsigned long m;
  uint8_t oldSREG = SREG;
    1e3e:	3f b7       	in	r19, 0x3f	; 63
C:\Users\mateu\AppData\Local\Arduino15\packages\MiniCore\hardware\avr\2.0.9\cores\MCUdude_corefiles/wiring.c:96
  // t will be the number where the timer0 counter stopped
  uint8_t t;

  // Stop all interrupts
  cli();
    1e40:	f8 94       	cli
C:\Users\mateu\AppData\Local\Arduino15\packages\MiniCore\hardware\avr\2.0.9\cores\MCUdude_corefiles/wiring.c:97
  m = timer0_overflow_count;
    1e42:	80 91 c3 03 	lds	r24, 0x03C3	; 0x8003c3 <timer0_overflow_count>
    1e46:	90 91 c4 03 	lds	r25, 0x03C4	; 0x8003c4 <timer0_overflow_count+0x1>
    1e4a:	a0 91 c5 03 	lds	r26, 0x03C5	; 0x8003c5 <timer0_overflow_count+0x2>
    1e4e:	b0 91 c6 03 	lds	r27, 0x03C6	; 0x8003c6 <timer0_overflow_count+0x3>
C:\Users\mateu\AppData\Local\Arduino15\packages\MiniCore\hardware\avr\2.0.9\cores\MCUdude_corefiles/wiring.c:101

  // TCNT0 : The Timer Counter Register
#if defined(TCNT0)
  t = TCNT0;
    1e52:	26 b5       	in	r18, 0x26	; 38
C:\Users\mateu\AppData\Local\Arduino15\packages\MiniCore\hardware\avr\2.0.9\cores\MCUdude_corefiles/wiring.c:110
  #error TIMER 0 not defined
#endif

  // Timer0 Interrupt Flag Register
#ifdef TIFR0
  if ((TIFR0 & _BV(TOV0)) && (t < 255))
    1e54:	a8 9b       	sbis	0x15, 0	; 21
    1e56:	05 c0       	rjmp	.+10     	; 0x1e62 <micros+0x24>
C:\Users\mateu\AppData\Local\Arduino15\packages\MiniCore\hardware\avr\2.0.9\cores\MCUdude_corefiles/wiring.c:110 (discriminator 1)
    1e58:	2f 3f       	cpi	r18, 0xFF	; 255
    1e5a:	19 f0       	breq	.+6      	; 0x1e62 <micros+0x24>
C:\Users\mateu\AppData\Local\Arduino15\packages\MiniCore\hardware\avr\2.0.9\cores\MCUdude_corefiles/wiring.c:111
    m++;
    1e5c:	01 96       	adiw	r24, 0x01	; 1
    1e5e:	a1 1d       	adc	r26, r1
    1e60:	b1 1d       	adc	r27, r1
C:\Users\mateu\AppData\Local\Arduino15\packages\MiniCore\hardware\avr\2.0.9\cores\MCUdude_corefiles/wiring.c:117
#else
  if ((TIFR & _BV(TOV0)) && (t < 255))
    m++;
#endif
  // Restore SREG
  SREG = oldSREG;
    1e62:	3f bf       	out	0x3f, r19	; 63
C:\Users\mateu\AppData\Local\Arduino15\packages\MiniCore\hardware\avr\2.0.9\cores\MCUdude_corefiles/wiring.c:169
#else
  // 32 MHz, 24 MHz, 16 MHz, 8 MHz, 4 MHz, 1 MHz
  // Shift by 8 to the left (multiply by 256) so t (which is 1 byte in size) can fit in 
  // m & t are multiplied by 4 (since it was already multiplied by 256)
  // t is multiplied by 4
  return ((m << 8) + t) * (64 / clockCyclesPerMicrosecond());
    1e64:	ba 2f       	mov	r27, r26
    1e66:	a9 2f       	mov	r26, r25
    1e68:	98 2f       	mov	r25, r24
    1e6a:	88 27       	eor	r24, r24
    1e6c:	bc 01       	movw	r22, r24
    1e6e:	cd 01       	movw	r24, r26
    1e70:	62 0f       	add	r22, r18
    1e72:	71 1d       	adc	r23, r1
    1e74:	81 1d       	adc	r24, r1
    1e76:	91 1d       	adc	r25, r1
    1e78:	42 e0       	ldi	r20, 0x02	; 2
    1e7a:	66 0f       	add	r22, r22
    1e7c:	77 1f       	adc	r23, r23
    1e7e:	88 1f       	adc	r24, r24
    1e80:	99 1f       	adc	r25, r25
    1e82:	4a 95       	dec	r20
    1e84:	d1 f7       	brne	.-12     	; 0x1e7a <micros+0x3c>
C:\Users\mateu\AppData\Local\Arduino15\packages\MiniCore\hardware\avr\2.0.9\cores\MCUdude_corefiles/wiring.c:171
#endif
}
    1e86:	08 95       	ret

00001e88 <delay>:
delay():
C:\Users\mateu\AppData\Local\Arduino15\packages\MiniCore\hardware\avr\2.0.9\cores\MCUdude_corefiles/wiring.c:174

void delay(unsigned long ms)
{
    1e88:	8f 92       	push	r8
    1e8a:	9f 92       	push	r9
    1e8c:	af 92       	push	r10
    1e8e:	bf 92       	push	r11
    1e90:	cf 92       	push	r12
    1e92:	df 92       	push	r13
    1e94:	ef 92       	push	r14
    1e96:	ff 92       	push	r15
    1e98:	6b 01       	movw	r12, r22
    1e9a:	7c 01       	movw	r14, r24
C:\Users\mateu\AppData\Local\Arduino15\packages\MiniCore\hardware\avr\2.0.9\cores\MCUdude_corefiles/wiring.c:175
  uint32_t start = micros();
    1e9c:	0e 94 1f 0f 	call	0x1e3e	; 0x1e3e <micros>
    1ea0:	4b 01       	movw	r8, r22
    1ea2:	5c 01       	movw	r10, r24
C:\Users\mateu\AppData\Local\Arduino15\packages\MiniCore\hardware\avr\2.0.9\cores\MCUdude_corefiles/wiring.c:177

  while (ms > 0) {
    1ea4:	c1 14       	cp	r12, r1
    1ea6:	d1 04       	cpc	r13, r1
    1ea8:	e1 04       	cpc	r14, r1
    1eaa:	f1 04       	cpc	r15, r1
    1eac:	e9 f0       	breq	.+58     	; 0x1ee8 <delay+0x60>
C:\Users\mateu\AppData\Local\Arduino15\packages\MiniCore\hardware\avr\2.0.9\cores\MCUdude_corefiles/wiring.c:178
    yield();
    1eae:	0e 94 7d 0f 	call	0x1efa	; 0x1efa <yield>
C:\Users\mateu\AppData\Local\Arduino15\packages\MiniCore\hardware\avr\2.0.9\cores\MCUdude_corefiles/wiring.c:179 (discriminator 1)
    while ( ms > 0 && (micros() - start) >= 1000) {
    1eb2:	0e 94 1f 0f 	call	0x1e3e	; 0x1e3e <micros>
    1eb6:	68 19       	sub	r22, r8
    1eb8:	79 09       	sbc	r23, r9
    1eba:	8a 09       	sbc	r24, r10
    1ebc:	9b 09       	sbc	r25, r11
    1ebe:	68 3e       	cpi	r22, 0xE8	; 232
    1ec0:	73 40       	sbci	r23, 0x03	; 3
    1ec2:	81 05       	cpc	r24, r1
    1ec4:	91 05       	cpc	r25, r1
    1ec6:	70 f3       	brcs	.-36     	; 0x1ea4 <delay+0x1c>
C:\Users\mateu\AppData\Local\Arduino15\packages\MiniCore\hardware\avr\2.0.9\cores\MCUdude_corefiles/wiring.c:180
      ms--;
    1ec8:	21 e0       	ldi	r18, 0x01	; 1
    1eca:	c2 1a       	sub	r12, r18
    1ecc:	d1 08       	sbc	r13, r1
    1ece:	e1 08       	sbc	r14, r1
    1ed0:	f1 08       	sbc	r15, r1
C:\Users\mateu\AppData\Local\Arduino15\packages\MiniCore\hardware\avr\2.0.9\cores\MCUdude_corefiles/wiring.c:181
      start += 1000;
    1ed2:	88 ee       	ldi	r24, 0xE8	; 232
    1ed4:	88 0e       	add	r8, r24
    1ed6:	83 e0       	ldi	r24, 0x03	; 3
    1ed8:	98 1e       	adc	r9, r24
    1eda:	a1 1c       	adc	r10, r1
    1edc:	b1 1c       	adc	r11, r1
C:\Users\mateu\AppData\Local\Arduino15\packages\MiniCore\hardware\avr\2.0.9\cores\MCUdude_corefiles/wiring.c:179
{
  uint32_t start = micros();

  while (ms > 0) {
    yield();
    while ( ms > 0 && (micros() - start) >= 1000) {
    1ede:	c1 14       	cp	r12, r1
    1ee0:	d1 04       	cpc	r13, r1
    1ee2:	e1 04       	cpc	r14, r1
    1ee4:	f1 04       	cpc	r15, r1
    1ee6:	29 f7       	brne	.-54     	; 0x1eb2 <delay+0x2a>
C:\Users\mateu\AppData\Local\Arduino15\packages\MiniCore\hardware\avr\2.0.9\cores\MCUdude_corefiles/wiring.c:184
      ms--;
      start += 1000;
    }
  }
}
    1ee8:	ff 90       	pop	r15
    1eea:	ef 90       	pop	r14
    1eec:	df 90       	pop	r13
    1eee:	cf 90       	pop	r12
    1ef0:	bf 90       	pop	r11
    1ef2:	af 90       	pop	r10
    1ef4:	9f 90       	pop	r9
    1ef6:	8f 90       	pop	r8
    1ef8:	08 95       	ret

00001efa <yield>:
__empty():
C:\Users\mateu\AppData\Local\Arduino15\packages\MiniCore\hardware\avr\2.0.9\cores\MCUdude_corefiles/hooks.c:30
 * Its defined as a weak symbol and it can be redefined to implement a
 * real cooperative scheduler.
 */
static void __empty() {
  // Empty
}
    1efa:	08 95       	ret

00001efc <__udivmodsi4>:
__udivmodsi4():
/home/jenkins-mingw32/workspace/avr-gcc-staging/label/Ubuntu14.04x64-mingw32/gcc-build/avr/avr5/libgcc/../../../../gcc/libgcc/config/avr/lib1funcs.S:1638
    1efc:	a1 e2       	ldi	r26, 0x21	; 33
/home/jenkins-mingw32/workspace/avr-gcc-staging/label/Ubuntu14.04x64-mingw32/gcc-build/avr/avr5/libgcc/../../../../gcc/libgcc/config/avr/lib1funcs.S:1639
    1efe:	1a 2e       	mov	r1, r26
/home/jenkins-mingw32/workspace/avr-gcc-staging/label/Ubuntu14.04x64-mingw32/gcc-build/avr/avr5/libgcc/../../../../gcc/libgcc/config/avr/lib1funcs.S:1640
    1f00:	aa 1b       	sub	r26, r26
/home/jenkins-mingw32/workspace/avr-gcc-staging/label/Ubuntu14.04x64-mingw32/gcc-build/avr/avr5/libgcc/../../../../gcc/libgcc/config/avr/lib1funcs.S:1641
    1f02:	bb 1b       	sub	r27, r27
/home/jenkins-mingw32/workspace/avr-gcc-staging/label/Ubuntu14.04x64-mingw32/gcc-build/avr/avr5/libgcc/../../../../gcc/libgcc/config/avr/lib1funcs.S:1642
    1f04:	fd 01       	movw	r30, r26
/home/jenkins-mingw32/workspace/avr-gcc-staging/label/Ubuntu14.04x64-mingw32/gcc-build/avr/avr5/libgcc/../../../../gcc/libgcc/config/avr/lib1funcs.S:1644
    1f06:	0d c0       	rjmp	.+26     	; 0x1f22 <__udivmodsi4_ep>

00001f08 <__udivmodsi4_loop>:
/home/jenkins-mingw32/workspace/avr-gcc-staging/label/Ubuntu14.04x64-mingw32/gcc-build/avr/avr5/libgcc/../../../../gcc/libgcc/config/avr/lib1funcs.S:1646
    1f08:	aa 1f       	adc	r26, r26
/home/jenkins-mingw32/workspace/avr-gcc-staging/label/Ubuntu14.04x64-mingw32/gcc-build/avr/avr5/libgcc/../../../../gcc/libgcc/config/avr/lib1funcs.S:1647
    1f0a:	bb 1f       	adc	r27, r27
/home/jenkins-mingw32/workspace/avr-gcc-staging/label/Ubuntu14.04x64-mingw32/gcc-build/avr/avr5/libgcc/../../../../gcc/libgcc/config/avr/lib1funcs.S:1648
    1f0c:	ee 1f       	adc	r30, r30
/home/jenkins-mingw32/workspace/avr-gcc-staging/label/Ubuntu14.04x64-mingw32/gcc-build/avr/avr5/libgcc/../../../../gcc/libgcc/config/avr/lib1funcs.S:1649
    1f0e:	ff 1f       	adc	r31, r31
/home/jenkins-mingw32/workspace/avr-gcc-staging/label/Ubuntu14.04x64-mingw32/gcc-build/avr/avr5/libgcc/../../../../gcc/libgcc/config/avr/lib1funcs.S:1650
    1f10:	a2 17       	cp	r26, r18
/home/jenkins-mingw32/workspace/avr-gcc-staging/label/Ubuntu14.04x64-mingw32/gcc-build/avr/avr5/libgcc/../../../../gcc/libgcc/config/avr/lib1funcs.S:1651
    1f12:	b3 07       	cpc	r27, r19
/home/jenkins-mingw32/workspace/avr-gcc-staging/label/Ubuntu14.04x64-mingw32/gcc-build/avr/avr5/libgcc/../../../../gcc/libgcc/config/avr/lib1funcs.S:1652
    1f14:	e4 07       	cpc	r30, r20
/home/jenkins-mingw32/workspace/avr-gcc-staging/label/Ubuntu14.04x64-mingw32/gcc-build/avr/avr5/libgcc/../../../../gcc/libgcc/config/avr/lib1funcs.S:1653
    1f16:	f5 07       	cpc	r31, r21
/home/jenkins-mingw32/workspace/avr-gcc-staging/label/Ubuntu14.04x64-mingw32/gcc-build/avr/avr5/libgcc/../../../../gcc/libgcc/config/avr/lib1funcs.S:1654
    1f18:	20 f0       	brcs	.+8      	; 0x1f22 <__udivmodsi4_ep>
/home/jenkins-mingw32/workspace/avr-gcc-staging/label/Ubuntu14.04x64-mingw32/gcc-build/avr/avr5/libgcc/../../../../gcc/libgcc/config/avr/lib1funcs.S:1655
    1f1a:	a2 1b       	sub	r26, r18
/home/jenkins-mingw32/workspace/avr-gcc-staging/label/Ubuntu14.04x64-mingw32/gcc-build/avr/avr5/libgcc/../../../../gcc/libgcc/config/avr/lib1funcs.S:1656
    1f1c:	b3 0b       	sbc	r27, r19
/home/jenkins-mingw32/workspace/avr-gcc-staging/label/Ubuntu14.04x64-mingw32/gcc-build/avr/avr5/libgcc/../../../../gcc/libgcc/config/avr/lib1funcs.S:1657
    1f1e:	e4 0b       	sbc	r30, r20
/home/jenkins-mingw32/workspace/avr-gcc-staging/label/Ubuntu14.04x64-mingw32/gcc-build/avr/avr5/libgcc/../../../../gcc/libgcc/config/avr/lib1funcs.S:1658
    1f20:	f5 0b       	sbc	r31, r21

00001f22 <__udivmodsi4_ep>:
/home/jenkins-mingw32/workspace/avr-gcc-staging/label/Ubuntu14.04x64-mingw32/gcc-build/avr/avr5/libgcc/../../../../gcc/libgcc/config/avr/lib1funcs.S:1660
    1f22:	66 1f       	adc	r22, r22
/home/jenkins-mingw32/workspace/avr-gcc-staging/label/Ubuntu14.04x64-mingw32/gcc-build/avr/avr5/libgcc/../../../../gcc/libgcc/config/avr/lib1funcs.S:1661
    1f24:	77 1f       	adc	r23, r23
/home/jenkins-mingw32/workspace/avr-gcc-staging/label/Ubuntu14.04x64-mingw32/gcc-build/avr/avr5/libgcc/../../../../gcc/libgcc/config/avr/lib1funcs.S:1662
    1f26:	88 1f       	adc	r24, r24
/home/jenkins-mingw32/workspace/avr-gcc-staging/label/Ubuntu14.04x64-mingw32/gcc-build/avr/avr5/libgcc/../../../../gcc/libgcc/config/avr/lib1funcs.S:1663
    1f28:	99 1f       	adc	r25, r25
/home/jenkins-mingw32/workspace/avr-gcc-staging/label/Ubuntu14.04x64-mingw32/gcc-build/avr/avr5/libgcc/../../../../gcc/libgcc/config/avr/lib1funcs.S:1664
    1f2a:	1a 94       	dec	r1
/home/jenkins-mingw32/workspace/avr-gcc-staging/label/Ubuntu14.04x64-mingw32/gcc-build/avr/avr5/libgcc/../../../../gcc/libgcc/config/avr/lib1funcs.S:1665
    1f2c:	69 f7       	brne	.-38     	; 0x1f08 <__udivmodsi4_loop>
/home/jenkins-mingw32/workspace/avr-gcc-staging/label/Ubuntu14.04x64-mingw32/gcc-build/avr/avr5/libgcc/../../../../gcc/libgcc/config/avr/lib1funcs.S:1667
    1f2e:	60 95       	com	r22
/home/jenkins-mingw32/workspace/avr-gcc-staging/label/Ubuntu14.04x64-mingw32/gcc-build/avr/avr5/libgcc/../../../../gcc/libgcc/config/avr/lib1funcs.S:1668
    1f30:	70 95       	com	r23
/home/jenkins-mingw32/workspace/avr-gcc-staging/label/Ubuntu14.04x64-mingw32/gcc-build/avr/avr5/libgcc/../../../../gcc/libgcc/config/avr/lib1funcs.S:1669
    1f32:	80 95       	com	r24
/home/jenkins-mingw32/workspace/avr-gcc-staging/label/Ubuntu14.04x64-mingw32/gcc-build/avr/avr5/libgcc/../../../../gcc/libgcc/config/avr/lib1funcs.S:1670
    1f34:	90 95       	com	r25
/home/jenkins-mingw32/workspace/avr-gcc-staging/label/Ubuntu14.04x64-mingw32/gcc-build/avr/avr5/libgcc/../../../../gcc/libgcc/config/avr/lib1funcs.S:1672
    1f36:	9b 01       	movw	r18, r22
/home/jenkins-mingw32/workspace/avr-gcc-staging/label/Ubuntu14.04x64-mingw32/gcc-build/avr/avr5/libgcc/../../../../gcc/libgcc/config/avr/lib1funcs.S:1674
    1f38:	ac 01       	movw	r20, r24
/home/jenkins-mingw32/workspace/avr-gcc-staging/label/Ubuntu14.04x64-mingw32/gcc-build/avr/avr5/libgcc/../../../../gcc/libgcc/config/avr/lib1funcs.S:1676
    1f3a:	bd 01       	movw	r22, r26
/home/jenkins-mingw32/workspace/avr-gcc-staging/label/Ubuntu14.04x64-mingw32/gcc-build/avr/avr5/libgcc/../../../../gcc/libgcc/config/avr/lib1funcs.S:1678
    1f3c:	cf 01       	movw	r24, r30
/home/jenkins-mingw32/workspace/avr-gcc-staging/label/Ubuntu14.04x64-mingw32/gcc-build/avr/avr5/libgcc/../../../../gcc/libgcc/config/avr/lib1funcs.S:1680
    1f3e:	08 95       	ret

00001f40 <__tablejump2__>:
__tablejump2__():
/home/jenkins-mingw32/workspace/avr-gcc-staging/label/Ubuntu14.04x64-mingw32/gcc-build/avr/avr5/libgcc/../../../../gcc/libgcc/config/avr/lib1funcs.S:2296
    1f40:	ee 0f       	add	r30, r30
/home/jenkins-mingw32/workspace/avr-gcc-staging/label/Ubuntu14.04x64-mingw32/gcc-build/avr/avr5/libgcc/../../../../gcc/libgcc/config/avr/lib1funcs.S:2297
    1f42:	ff 1f       	adc	r31, r31
/home/jenkins-mingw32/workspace/avr-gcc-staging/label/Ubuntu14.04x64-mingw32/gcc-build/avr/avr5/libgcc/../../../../gcc/libgcc/config/avr/lib1funcs.S:2328
    1f44:	05 90       	lpm	r0, Z+
/home/jenkins-mingw32/workspace/avr-gcc-staging/label/Ubuntu14.04x64-mingw32/gcc-build/avr/avr5/libgcc/../../../../gcc/libgcc/config/avr/lib1funcs.S:2329
    1f46:	f4 91       	lpm	r31, Z
/home/jenkins-mingw32/workspace/avr-gcc-staging/label/Ubuntu14.04x64-mingw32/gcc-build/avr/avr5/libgcc/../../../../gcc/libgcc/config/avr/lib1funcs.S:2330
    1f48:	e0 2d       	mov	r30, r0
/home/jenkins-mingw32/workspace/avr-gcc-staging/label/Ubuntu14.04x64-mingw32/gcc-build/avr/avr5/libgcc/../../../../gcc/libgcc/config/avr/lib1funcs.S:2331
    1f4a:	09 94       	ijmp

00001f4c <malloc>:
malloc():
    1f4c:	0f 93       	push	r16
    1f4e:	1f 93       	push	r17
    1f50:	cf 93       	push	r28
    1f52:	df 93       	push	r29
    1f54:	82 30       	cpi	r24, 0x02	; 2
    1f56:	91 05       	cpc	r25, r1
    1f58:	10 f4       	brcc	.+4      	; 0x1f5e <malloc+0x12>
    1f5a:	82 e0       	ldi	r24, 0x02	; 2
    1f5c:	90 e0       	ldi	r25, 0x00	; 0
    1f5e:	e0 91 c9 03 	lds	r30, 0x03C9	; 0x8003c9 <__flp>
    1f62:	f0 91 ca 03 	lds	r31, 0x03CA	; 0x8003ca <__flp+0x1>
    1f66:	30 e0       	ldi	r19, 0x00	; 0
    1f68:	20 e0       	ldi	r18, 0x00	; 0
    1f6a:	b0 e0       	ldi	r27, 0x00	; 0
    1f6c:	a0 e0       	ldi	r26, 0x00	; 0
    1f6e:	30 97       	sbiw	r30, 0x00	; 0
    1f70:	99 f4       	brne	.+38     	; 0x1f98 <malloc+0x4c>
    1f72:	21 15       	cp	r18, r1
    1f74:	31 05       	cpc	r19, r1
    1f76:	09 f4       	brne	.+2      	; 0x1f7a <malloc+0x2e>
    1f78:	4a c0       	rjmp	.+148    	; 0x200e <malloc+0xc2>
    1f7a:	28 1b       	sub	r18, r24
    1f7c:	39 0b       	sbc	r19, r25
    1f7e:	24 30       	cpi	r18, 0x04	; 4
    1f80:	31 05       	cpc	r19, r1
    1f82:	d8 f5       	brcc	.+118    	; 0x1ffa <malloc+0xae>
    1f84:	8a 81       	ldd	r24, Y+2	; 0x02
    1f86:	9b 81       	ldd	r25, Y+3	; 0x03
    1f88:	61 15       	cp	r22, r1
    1f8a:	71 05       	cpc	r23, r1
    1f8c:	89 f1       	breq	.+98     	; 0x1ff0 <malloc+0xa4>
    1f8e:	fb 01       	movw	r30, r22
    1f90:	93 83       	std	Z+3, r25	; 0x03
    1f92:	82 83       	std	Z+2, r24	; 0x02
    1f94:	fe 01       	movw	r30, r28
    1f96:	11 c0       	rjmp	.+34     	; 0x1fba <malloc+0x6e>
    1f98:	40 81       	ld	r20, Z
    1f9a:	51 81       	ldd	r21, Z+1	; 0x01
    1f9c:	02 81       	ldd	r16, Z+2	; 0x02
    1f9e:	13 81       	ldd	r17, Z+3	; 0x03
    1fa0:	48 17       	cp	r20, r24
    1fa2:	59 07       	cpc	r21, r25
    1fa4:	e0 f0       	brcs	.+56     	; 0x1fde <malloc+0x92>
    1fa6:	48 17       	cp	r20, r24
    1fa8:	59 07       	cpc	r21, r25
    1faa:	99 f4       	brne	.+38     	; 0x1fd2 <malloc+0x86>
    1fac:	10 97       	sbiw	r26, 0x00	; 0
    1fae:	61 f0       	breq	.+24     	; 0x1fc8 <malloc+0x7c>
    1fb0:	12 96       	adiw	r26, 0x02	; 2
    1fb2:	0c 93       	st	X, r16
    1fb4:	12 97       	sbiw	r26, 0x02	; 2
    1fb6:	13 96       	adiw	r26, 0x03	; 3
    1fb8:	1c 93       	st	X, r17
    1fba:	32 96       	adiw	r30, 0x02	; 2
    1fbc:	cf 01       	movw	r24, r30
    1fbe:	df 91       	pop	r29
    1fc0:	cf 91       	pop	r28
    1fc2:	1f 91       	pop	r17
    1fc4:	0f 91       	pop	r16
    1fc6:	08 95       	ret
    1fc8:	00 93 c9 03 	sts	0x03C9, r16	; 0x8003c9 <__flp>
    1fcc:	10 93 ca 03 	sts	0x03CA, r17	; 0x8003ca <__flp+0x1>
    1fd0:	f4 cf       	rjmp	.-24     	; 0x1fba <malloc+0x6e>
    1fd2:	21 15       	cp	r18, r1
    1fd4:	31 05       	cpc	r19, r1
    1fd6:	51 f0       	breq	.+20     	; 0x1fec <malloc+0xa0>
    1fd8:	42 17       	cp	r20, r18
    1fda:	53 07       	cpc	r21, r19
    1fdc:	38 f0       	brcs	.+14     	; 0x1fec <malloc+0xa0>
    1fde:	a9 01       	movw	r20, r18
    1fe0:	db 01       	movw	r26, r22
    1fe2:	9a 01       	movw	r18, r20
    1fe4:	bd 01       	movw	r22, r26
    1fe6:	df 01       	movw	r26, r30
    1fe8:	f8 01       	movw	r30, r16
    1fea:	c1 cf       	rjmp	.-126    	; 0x1f6e <malloc+0x22>
    1fec:	ef 01       	movw	r28, r30
    1fee:	f9 cf       	rjmp	.-14     	; 0x1fe2 <malloc+0x96>
    1ff0:	90 93 ca 03 	sts	0x03CA, r25	; 0x8003ca <__flp+0x1>
    1ff4:	80 93 c9 03 	sts	0x03C9, r24	; 0x8003c9 <__flp>
    1ff8:	cd cf       	rjmp	.-102    	; 0x1f94 <malloc+0x48>
    1ffa:	fe 01       	movw	r30, r28
    1ffc:	e2 0f       	add	r30, r18
    1ffe:	f3 1f       	adc	r31, r19
    2000:	81 93       	st	Z+, r24
    2002:	91 93       	st	Z+, r25
    2004:	22 50       	subi	r18, 0x02	; 2
    2006:	31 09       	sbc	r19, r1
    2008:	39 83       	std	Y+1, r19	; 0x01
    200a:	28 83       	st	Y, r18
    200c:	d7 cf       	rjmp	.-82     	; 0x1fbc <malloc+0x70>
    200e:	20 91 c7 03 	lds	r18, 0x03C7	; 0x8003c7 <__brkval>
    2012:	30 91 c8 03 	lds	r19, 0x03C8	; 0x8003c8 <__brkval+0x1>
    2016:	23 2b       	or	r18, r19
    2018:	41 f4       	brne	.+16     	; 0x202a <malloc+0xde>
    201a:	20 91 02 01 	lds	r18, 0x0102	; 0x800102 <__malloc_heap_start>
    201e:	30 91 03 01 	lds	r19, 0x0103	; 0x800103 <__malloc_heap_start+0x1>
    2022:	30 93 c8 03 	sts	0x03C8, r19	; 0x8003c8 <__brkval+0x1>
    2026:	20 93 c7 03 	sts	0x03C7, r18	; 0x8003c7 <__brkval>
    202a:	20 91 00 01 	lds	r18, 0x0100	; 0x800100 <__DATA_REGION_ORIGIN__>
    202e:	30 91 01 01 	lds	r19, 0x0101	; 0x800101 <__DATA_REGION_ORIGIN__+0x1>
    2032:	21 15       	cp	r18, r1
    2034:	31 05       	cpc	r19, r1
    2036:	41 f4       	brne	.+16     	; 0x2048 <malloc+0xfc>
    2038:	2d b7       	in	r18, 0x3d	; 61
    203a:	3e b7       	in	r19, 0x3e	; 62
    203c:	40 91 04 01 	lds	r20, 0x0104	; 0x800104 <__malloc_margin>
    2040:	50 91 05 01 	lds	r21, 0x0105	; 0x800105 <__malloc_margin+0x1>
    2044:	24 1b       	sub	r18, r20
    2046:	35 0b       	sbc	r19, r21
    2048:	e0 91 c7 03 	lds	r30, 0x03C7	; 0x8003c7 <__brkval>
    204c:	f0 91 c8 03 	lds	r31, 0x03C8	; 0x8003c8 <__brkval+0x1>
    2050:	e2 17       	cp	r30, r18
    2052:	f3 07       	cpc	r31, r19
    2054:	a0 f4       	brcc	.+40     	; 0x207e <malloc+0x132>
    2056:	2e 1b       	sub	r18, r30
    2058:	3f 0b       	sbc	r19, r31
    205a:	28 17       	cp	r18, r24
    205c:	39 07       	cpc	r19, r25
    205e:	78 f0       	brcs	.+30     	; 0x207e <malloc+0x132>
    2060:	ac 01       	movw	r20, r24
    2062:	4e 5f       	subi	r20, 0xFE	; 254
    2064:	5f 4f       	sbci	r21, 0xFF	; 255
    2066:	24 17       	cp	r18, r20
    2068:	35 07       	cpc	r19, r21
    206a:	48 f0       	brcs	.+18     	; 0x207e <malloc+0x132>
    206c:	4e 0f       	add	r20, r30
    206e:	5f 1f       	adc	r21, r31
    2070:	50 93 c8 03 	sts	0x03C8, r21	; 0x8003c8 <__brkval+0x1>
    2074:	40 93 c7 03 	sts	0x03C7, r20	; 0x8003c7 <__brkval>
    2078:	81 93       	st	Z+, r24
    207a:	91 93       	st	Z+, r25
    207c:	9f cf       	rjmp	.-194    	; 0x1fbc <malloc+0x70>
    207e:	f0 e0       	ldi	r31, 0x00	; 0
    2080:	e0 e0       	ldi	r30, 0x00	; 0
    2082:	9c cf       	rjmp	.-200    	; 0x1fbc <malloc+0x70>

00002084 <free>:
free():
    2084:	cf 93       	push	r28
    2086:	df 93       	push	r29
    2088:	00 97       	sbiw	r24, 0x00	; 0
    208a:	e9 f0       	breq	.+58     	; 0x20c6 <free+0x42>
    208c:	fc 01       	movw	r30, r24
    208e:	32 97       	sbiw	r30, 0x02	; 2
    2090:	13 82       	std	Z+3, r1	; 0x03
    2092:	12 82       	std	Z+2, r1	; 0x02
    2094:	a0 91 c9 03 	lds	r26, 0x03C9	; 0x8003c9 <__flp>
    2098:	b0 91 ca 03 	lds	r27, 0x03CA	; 0x8003ca <__flp+0x1>
    209c:	ed 01       	movw	r28, r26
    209e:	30 e0       	ldi	r19, 0x00	; 0
    20a0:	20 e0       	ldi	r18, 0x00	; 0
    20a2:	10 97       	sbiw	r26, 0x00	; 0
    20a4:	a1 f4       	brne	.+40     	; 0x20ce <free+0x4a>
    20a6:	20 81       	ld	r18, Z
    20a8:	31 81       	ldd	r19, Z+1	; 0x01
    20aa:	82 0f       	add	r24, r18
    20ac:	93 1f       	adc	r25, r19
    20ae:	20 91 c7 03 	lds	r18, 0x03C7	; 0x8003c7 <__brkval>
    20b2:	30 91 c8 03 	lds	r19, 0x03C8	; 0x8003c8 <__brkval+0x1>
    20b6:	28 17       	cp	r18, r24
    20b8:	39 07       	cpc	r19, r25
    20ba:	09 f0       	breq	.+2      	; 0x20be <free+0x3a>
    20bc:	61 c0       	rjmp	.+194    	; 0x2180 <free+0xfc>
    20be:	f0 93 c8 03 	sts	0x03C8, r31	; 0x8003c8 <__brkval+0x1>
    20c2:	e0 93 c7 03 	sts	0x03C7, r30	; 0x8003c7 <__brkval>
    20c6:	df 91       	pop	r29
    20c8:	cf 91       	pop	r28
    20ca:	08 95       	ret
    20cc:	ea 01       	movw	r28, r20
    20ce:	ce 17       	cp	r28, r30
    20d0:	df 07       	cpc	r29, r31
    20d2:	e8 f5       	brcc	.+122    	; 0x214e <free+0xca>
    20d4:	4a 81       	ldd	r20, Y+2	; 0x02
    20d6:	5b 81       	ldd	r21, Y+3	; 0x03
    20d8:	9e 01       	movw	r18, r28
    20da:	41 15       	cp	r20, r1
    20dc:	51 05       	cpc	r21, r1
    20de:	b1 f7       	brne	.-20     	; 0x20cc <free+0x48>
    20e0:	e9 01       	movw	r28, r18
    20e2:	fb 83       	std	Y+3, r31	; 0x03
    20e4:	ea 83       	std	Y+2, r30	; 0x02
    20e6:	49 91       	ld	r20, Y+
    20e8:	59 91       	ld	r21, Y+
    20ea:	c4 0f       	add	r28, r20
    20ec:	d5 1f       	adc	r29, r21
    20ee:	ec 17       	cp	r30, r28
    20f0:	fd 07       	cpc	r31, r29
    20f2:	61 f4       	brne	.+24     	; 0x210c <free+0x88>
    20f4:	80 81       	ld	r24, Z
    20f6:	91 81       	ldd	r25, Z+1	; 0x01
    20f8:	02 96       	adiw	r24, 0x02	; 2
    20fa:	84 0f       	add	r24, r20
    20fc:	95 1f       	adc	r25, r21
    20fe:	e9 01       	movw	r28, r18
    2100:	99 83       	std	Y+1, r25	; 0x01
    2102:	88 83       	st	Y, r24
    2104:	82 81       	ldd	r24, Z+2	; 0x02
    2106:	93 81       	ldd	r25, Z+3	; 0x03
    2108:	9b 83       	std	Y+3, r25	; 0x03
    210a:	8a 83       	std	Y+2, r24	; 0x02
    210c:	f0 e0       	ldi	r31, 0x00	; 0
    210e:	e0 e0       	ldi	r30, 0x00	; 0
    2110:	12 96       	adiw	r26, 0x02	; 2
    2112:	8d 91       	ld	r24, X+
    2114:	9c 91       	ld	r25, X
    2116:	13 97       	sbiw	r26, 0x03	; 3
    2118:	00 97       	sbiw	r24, 0x00	; 0
    211a:	b9 f5       	brne	.+110    	; 0x218a <free+0x106>
    211c:	2d 91       	ld	r18, X+
    211e:	3c 91       	ld	r19, X
    2120:	11 97       	sbiw	r26, 0x01	; 1
    2122:	cd 01       	movw	r24, r26
    2124:	02 96       	adiw	r24, 0x02	; 2
    2126:	82 0f       	add	r24, r18
    2128:	93 1f       	adc	r25, r19
    212a:	20 91 c7 03 	lds	r18, 0x03C7	; 0x8003c7 <__brkval>
    212e:	30 91 c8 03 	lds	r19, 0x03C8	; 0x8003c8 <__brkval+0x1>
    2132:	28 17       	cp	r18, r24
    2134:	39 07       	cpc	r19, r25
    2136:	39 f6       	brne	.-114    	; 0x20c6 <free+0x42>
    2138:	30 97       	sbiw	r30, 0x00	; 0
    213a:	51 f5       	brne	.+84     	; 0x2190 <free+0x10c>
    213c:	10 92 ca 03 	sts	0x03CA, r1	; 0x8003ca <__flp+0x1>
    2140:	10 92 c9 03 	sts	0x03C9, r1	; 0x8003c9 <__flp>
    2144:	b0 93 c8 03 	sts	0x03C8, r27	; 0x8003c8 <__brkval+0x1>
    2148:	a0 93 c7 03 	sts	0x03C7, r26	; 0x8003c7 <__brkval>
    214c:	bc cf       	rjmp	.-136    	; 0x20c6 <free+0x42>
    214e:	d3 83       	std	Z+3, r29	; 0x03
    2150:	c2 83       	std	Z+2, r28	; 0x02
    2152:	40 81       	ld	r20, Z
    2154:	51 81       	ldd	r21, Z+1	; 0x01
    2156:	84 0f       	add	r24, r20
    2158:	95 1f       	adc	r25, r21
    215a:	c8 17       	cp	r28, r24
    215c:	d9 07       	cpc	r29, r25
    215e:	61 f4       	brne	.+24     	; 0x2178 <free+0xf4>
    2160:	4e 5f       	subi	r20, 0xFE	; 254
    2162:	5f 4f       	sbci	r21, 0xFF	; 255
    2164:	88 81       	ld	r24, Y
    2166:	99 81       	ldd	r25, Y+1	; 0x01
    2168:	48 0f       	add	r20, r24
    216a:	59 1f       	adc	r21, r25
    216c:	51 83       	std	Z+1, r21	; 0x01
    216e:	40 83       	st	Z, r20
    2170:	8a 81       	ldd	r24, Y+2	; 0x02
    2172:	9b 81       	ldd	r25, Y+3	; 0x03
    2174:	93 83       	std	Z+3, r25	; 0x03
    2176:	82 83       	std	Z+2, r24	; 0x02
    2178:	21 15       	cp	r18, r1
    217a:	31 05       	cpc	r19, r1
    217c:	09 f0       	breq	.+2      	; 0x2180 <free+0xfc>
    217e:	b0 cf       	rjmp	.-160    	; 0x20e0 <free+0x5c>
    2180:	f0 93 ca 03 	sts	0x03CA, r31	; 0x8003ca <__flp+0x1>
    2184:	e0 93 c9 03 	sts	0x03C9, r30	; 0x8003c9 <__flp>
    2188:	9e cf       	rjmp	.-196    	; 0x20c6 <free+0x42>
    218a:	fd 01       	movw	r30, r26
    218c:	dc 01       	movw	r26, r24
    218e:	c0 cf       	rjmp	.-128    	; 0x2110 <free+0x8c>
    2190:	13 82       	std	Z+3, r1	; 0x03
    2192:	12 82       	std	Z+2, r1	; 0x02
    2194:	d7 cf       	rjmp	.-82     	; 0x2144 <free+0xc0>

00002196 <realloc>:
realloc():
    2196:	b0 e0       	ldi	r27, 0x00	; 0
    2198:	a0 e0       	ldi	r26, 0x00	; 0
    219a:	e1 ed       	ldi	r30, 0xD1	; 209
    219c:	f0 e1       	ldi	r31, 0x10	; 16
    219e:	0c 94 b7 11 	jmp	0x236e	; 0x236e <__prologue_saves__+0x4>
    21a2:	8c 01       	movw	r16, r24
    21a4:	00 97       	sbiw	r24, 0x00	; 0
    21a6:	51 f4       	brne	.+20     	; 0x21bc <realloc+0x26>
    21a8:	cb 01       	movw	r24, r22
    21aa:	0e 94 a6 0f 	call	0x1f4c	; 0x1f4c <malloc>
    21ae:	8c 01       	movw	r16, r24
    21b0:	c8 01       	movw	r24, r16
    21b2:	cd b7       	in	r28, 0x3d	; 61
    21b4:	de b7       	in	r29, 0x3e	; 62
    21b6:	e0 e1       	ldi	r30, 0x10	; 16
    21b8:	0c 94 d3 11 	jmp	0x23a6	; 0x23a6 <__epilogue_restores__+0x4>
    21bc:	fc 01       	movw	r30, r24
    21be:	e6 0f       	add	r30, r22
    21c0:	f7 1f       	adc	r31, r23
    21c2:	9c 01       	movw	r18, r24
    21c4:	22 50       	subi	r18, 0x02	; 2
    21c6:	31 09       	sbc	r19, r1
    21c8:	e2 17       	cp	r30, r18
    21ca:	f3 07       	cpc	r31, r19
    21cc:	08 f4       	brcc	.+2      	; 0x21d0 <realloc+0x3a>
    21ce:	9d c0       	rjmp	.+314    	; 0x230a <realloc+0x174>
    21d0:	d9 01       	movw	r26, r18
    21d2:	cd 91       	ld	r28, X+
    21d4:	dc 91       	ld	r29, X
    21d6:	11 97       	sbiw	r26, 0x01	; 1
    21d8:	c6 17       	cp	r28, r22
    21da:	d7 07       	cpc	r29, r23
    21dc:	98 f0       	brcs	.+38     	; 0x2204 <realloc+0x6e>
    21de:	c5 30       	cpi	r28, 0x05	; 5
    21e0:	d1 05       	cpc	r29, r1
    21e2:	30 f3       	brcs	.-52     	; 0x21b0 <realloc+0x1a>
    21e4:	ce 01       	movw	r24, r28
    21e6:	04 97       	sbiw	r24, 0x04	; 4
    21e8:	86 17       	cp	r24, r22
    21ea:	97 07       	cpc	r25, r23
    21ec:	08 f3       	brcs	.-62     	; 0x21b0 <realloc+0x1a>
    21ee:	c6 1b       	sub	r28, r22
    21f0:	d7 0b       	sbc	r29, r23
    21f2:	22 97       	sbiw	r28, 0x02	; 2
    21f4:	c1 93       	st	Z+, r28
    21f6:	d1 93       	st	Z+, r29
    21f8:	6d 93       	st	X+, r22
    21fa:	7c 93       	st	X, r23
    21fc:	cf 01       	movw	r24, r30
    21fe:	0e 94 42 10 	call	0x2084	; 0x2084 <free>
    2202:	d6 cf       	rjmp	.-84     	; 0x21b0 <realloc+0x1a>
    2204:	5b 01       	movw	r10, r22
    2206:	ac 1a       	sub	r10, r28
    2208:	bd 0a       	sbc	r11, r29
    220a:	4c 01       	movw	r8, r24
    220c:	8c 0e       	add	r8, r28
    220e:	9d 1e       	adc	r9, r29
    2210:	a0 91 c9 03 	lds	r26, 0x03C9	; 0x8003c9 <__flp>
    2214:	b0 91 ca 03 	lds	r27, 0x03CA	; 0x8003ca <__flp+0x1>
    2218:	51 2c       	mov	r5, r1
    221a:	41 2c       	mov	r4, r1
    221c:	f1 2c       	mov	r15, r1
    221e:	e1 2c       	mov	r14, r1
    2220:	10 97       	sbiw	r26, 0x00	; 0
    2222:	31 f5       	brne	.+76     	; 0x2270 <realloc+0xda>
    2224:	80 91 c7 03 	lds	r24, 0x03C7	; 0x8003c7 <__brkval>
    2228:	90 91 c8 03 	lds	r25, 0x03C8	; 0x8003c8 <__brkval+0x1>
    222c:	88 15       	cp	r24, r8
    222e:	99 05       	cpc	r25, r9
    2230:	09 f0       	breq	.+2      	; 0x2234 <realloc+0x9e>
    2232:	5c c0       	rjmp	.+184    	; 0x22ec <realloc+0x156>
    2234:	46 16       	cp	r4, r22
    2236:	57 06       	cpc	r5, r23
    2238:	08 f0       	brcs	.+2      	; 0x223c <realloc+0xa6>
    223a:	58 c0       	rjmp	.+176    	; 0x22ec <realloc+0x156>
    223c:	80 91 00 01 	lds	r24, 0x0100	; 0x800100 <__DATA_REGION_ORIGIN__>
    2240:	90 91 01 01 	lds	r25, 0x0101	; 0x800101 <__DATA_REGION_ORIGIN__+0x1>
    2244:	00 97       	sbiw	r24, 0x00	; 0
    2246:	41 f4       	brne	.+16     	; 0x2258 <realloc+0xc2>
    2248:	8d b7       	in	r24, 0x3d	; 61
    224a:	9e b7       	in	r25, 0x3e	; 62
    224c:	40 91 04 01 	lds	r20, 0x0104	; 0x800104 <__malloc_margin>
    2250:	50 91 05 01 	lds	r21, 0x0105	; 0x800105 <__malloc_margin+0x1>
    2254:	84 1b       	sub	r24, r20
    2256:	95 0b       	sbc	r25, r21
    2258:	e8 17       	cp	r30, r24
    225a:	f9 07       	cpc	r31, r25
    225c:	08 f0       	brcs	.+2      	; 0x2260 <realloc+0xca>
    225e:	55 c0       	rjmp	.+170    	; 0x230a <realloc+0x174>
    2260:	f0 93 c8 03 	sts	0x03C8, r31	; 0x8003c8 <__brkval+0x1>
    2264:	e0 93 c7 03 	sts	0x03C7, r30	; 0x8003c7 <__brkval>
    2268:	f9 01       	movw	r30, r18
    226a:	71 83       	std	Z+1, r23	; 0x01
    226c:	60 83       	st	Z, r22
    226e:	a0 cf       	rjmp	.-192    	; 0x21b0 <realloc+0x1a>
    2270:	8d 91       	ld	r24, X+
    2272:	9c 91       	ld	r25, X
    2274:	11 97       	sbiw	r26, 0x01	; 1
    2276:	12 96       	adiw	r26, 0x02	; 2
    2278:	6c 90       	ld	r6, X
    227a:	12 97       	sbiw	r26, 0x02	; 2
    227c:	13 96       	adiw	r26, 0x03	; 3
    227e:	7c 90       	ld	r7, X
    2280:	13 97       	sbiw	r26, 0x03	; 3
    2282:	a8 15       	cp	r26, r8
    2284:	b9 05       	cpc	r27, r9
    2286:	59 f5       	brne	.+86     	; 0x22de <realloc+0x148>
    2288:	6c 01       	movw	r12, r24
    228a:	42 e0       	ldi	r20, 0x02	; 2
    228c:	c4 0e       	add	r12, r20
    228e:	d1 1c       	adc	r13, r1
    2290:	ca 14       	cp	r12, r10
    2292:	db 04       	cpc	r13, r11
    2294:	20 f1       	brcs	.+72     	; 0x22de <realloc+0x148>
    2296:	ac 01       	movw	r20, r24
    2298:	4a 19       	sub	r20, r10
    229a:	5b 09       	sbc	r21, r11
    229c:	da 01       	movw	r26, r20
    229e:	12 96       	adiw	r26, 0x02	; 2
    22a0:	15 97       	sbiw	r26, 0x05	; 5
    22a2:	80 f0       	brcs	.+32     	; 0x22c4 <realloc+0x12e>
    22a4:	62 82       	std	Z+2, r6	; 0x02
    22a6:	73 82       	std	Z+3, r7	; 0x03
    22a8:	51 83       	std	Z+1, r21	; 0x01
    22aa:	40 83       	st	Z, r20
    22ac:	d9 01       	movw	r26, r18
    22ae:	6d 93       	st	X+, r22
    22b0:	7c 93       	st	X, r23
    22b2:	e1 14       	cp	r14, r1
    22b4:	f1 04       	cpc	r15, r1
    22b6:	71 f0       	breq	.+28     	; 0x22d4 <realloc+0x13e>
    22b8:	d7 01       	movw	r26, r14
    22ba:	13 96       	adiw	r26, 0x03	; 3
    22bc:	fc 93       	st	X, r31
    22be:	ee 93       	st	-X, r30
    22c0:	12 97       	sbiw	r26, 0x02	; 2
    22c2:	76 cf       	rjmp	.-276    	; 0x21b0 <realloc+0x1a>
    22c4:	22 96       	adiw	r28, 0x02	; 2
    22c6:	8c 0f       	add	r24, r28
    22c8:	9d 1f       	adc	r25, r29
    22ca:	f9 01       	movw	r30, r18
    22cc:	91 83       	std	Z+1, r25	; 0x01
    22ce:	80 83       	st	Z, r24
    22d0:	f3 01       	movw	r30, r6
    22d2:	ef cf       	rjmp	.-34     	; 0x22b2 <realloc+0x11c>
    22d4:	f0 93 ca 03 	sts	0x03CA, r31	; 0x8003ca <__flp+0x1>
    22d8:	e0 93 c9 03 	sts	0x03C9, r30	; 0x8003c9 <__flp>
    22dc:	69 cf       	rjmp	.-302    	; 0x21b0 <realloc+0x1a>
    22de:	48 16       	cp	r4, r24
    22e0:	59 06       	cpc	r5, r25
    22e2:	08 f4       	brcc	.+2      	; 0x22e6 <realloc+0x150>
    22e4:	2c 01       	movw	r4, r24
    22e6:	7d 01       	movw	r14, r26
    22e8:	d3 01       	movw	r26, r6
    22ea:	9a cf       	rjmp	.-204    	; 0x2220 <realloc+0x8a>
    22ec:	cb 01       	movw	r24, r22
    22ee:	0e 94 a6 0f 	call	0x1f4c	; 0x1f4c <malloc>
    22f2:	7c 01       	movw	r14, r24
    22f4:	00 97       	sbiw	r24, 0x00	; 0
    22f6:	49 f0       	breq	.+18     	; 0x230a <realloc+0x174>
    22f8:	ae 01       	movw	r20, r28
    22fa:	b8 01       	movw	r22, r16
    22fc:	0e 94 a5 11 	call	0x234a	; 0x234a <memcpy>
    2300:	c8 01       	movw	r24, r16
    2302:	0e 94 42 10 	call	0x2084	; 0x2084 <free>
    2306:	87 01       	movw	r16, r14
    2308:	53 cf       	rjmp	.-346    	; 0x21b0 <realloc+0x1a>
    230a:	10 e0       	ldi	r17, 0x00	; 0
    230c:	00 e0       	ldi	r16, 0x00	; 0
    230e:	50 cf       	rjmp	.-352    	; 0x21b0 <realloc+0x1a>

00002310 <strcpy_P>:
strcpy_P():
    2310:	fb 01       	movw	r30, r22
    2312:	dc 01       	movw	r26, r24
    2314:	05 90       	lpm	r0, Z+
    2316:	0d 92       	st	X+, r0
    2318:	00 20       	and	r0, r0
    231a:	e1 f7       	brne	.-8      	; 0x2314 <strcpy_P+0x4>
    231c:	08 95       	ret

0000231e <__strlen_P>:
__strlen_P():
    231e:	fc 01       	movw	r30, r24
    2320:	05 90       	lpm	r0, Z+
    2322:	00 20       	and	r0, r0
    2324:	e9 f7       	brne	.-6      	; 0x2320 <__strlen_P+0x2>
    2326:	80 95       	com	r24
    2328:	90 95       	com	r25
    232a:	8e 0f       	add	r24, r30
    232c:	9f 1f       	adc	r25, r31
    232e:	08 95       	ret

00002330 <memcmp>:
memcmp():
    2330:	fb 01       	movw	r30, r22
    2332:	dc 01       	movw	r26, r24
    2334:	04 c0       	rjmp	.+8      	; 0x233e <memcmp+0xe>
    2336:	8d 91       	ld	r24, X+
    2338:	01 90       	ld	r0, Z+
    233a:	80 19       	sub	r24, r0
    233c:	21 f4       	brne	.+8      	; 0x2346 <memcmp+0x16>
    233e:	41 50       	subi	r20, 0x01	; 1
    2340:	50 40       	sbci	r21, 0x00	; 0
    2342:	c8 f7       	brcc	.-14     	; 0x2336 <memcmp+0x6>
    2344:	88 1b       	sub	r24, r24
    2346:	99 0b       	sbc	r25, r25
    2348:	08 95       	ret

0000234a <memcpy>:
memcpy():
    234a:	fb 01       	movw	r30, r22
    234c:	dc 01       	movw	r26, r24
    234e:	02 c0       	rjmp	.+4      	; 0x2354 <memcpy+0xa>
    2350:	01 90       	ld	r0, Z+
    2352:	0d 92       	st	X+, r0
    2354:	41 50       	subi	r20, 0x01	; 1
    2356:	50 40       	sbci	r21, 0x00	; 0
    2358:	d8 f7       	brcc	.-10     	; 0x2350 <memcpy+0x6>
    235a:	08 95       	ret

0000235c <strcpy>:
strcpy():
    235c:	fb 01       	movw	r30, r22
    235e:	dc 01       	movw	r26, r24
    2360:	01 90       	ld	r0, Z+
    2362:	0d 92       	st	X+, r0
    2364:	00 20       	and	r0, r0
    2366:	e1 f7       	brne	.-8      	; 0x2360 <strcpy+0x4>
    2368:	08 95       	ret

0000236a <__prologue_saves__>:
__prologue_saves__():
/home/jenkins-mingw32/workspace/avr-gcc-staging/label/Ubuntu14.04x64-mingw32/gcc-build/avr/avr5/libgcc/../../../../gcc/libgcc/config/avr/lib1funcs.S:2169
    236a:	2f 92       	push	r2
/home/jenkins-mingw32/workspace/avr-gcc-staging/label/Ubuntu14.04x64-mingw32/gcc-build/avr/avr5/libgcc/../../../../gcc/libgcc/config/avr/lib1funcs.S:2170
    236c:	3f 92       	push	r3
/home/jenkins-mingw32/workspace/avr-gcc-staging/label/Ubuntu14.04x64-mingw32/gcc-build/avr/avr5/libgcc/../../../../gcc/libgcc/config/avr/lib1funcs.S:2171
    236e:	4f 92       	push	r4
/home/jenkins-mingw32/workspace/avr-gcc-staging/label/Ubuntu14.04x64-mingw32/gcc-build/avr/avr5/libgcc/../../../../gcc/libgcc/config/avr/lib1funcs.S:2172
    2370:	5f 92       	push	r5
/home/jenkins-mingw32/workspace/avr-gcc-staging/label/Ubuntu14.04x64-mingw32/gcc-build/avr/avr5/libgcc/../../../../gcc/libgcc/config/avr/lib1funcs.S:2173
    2372:	6f 92       	push	r6
/home/jenkins-mingw32/workspace/avr-gcc-staging/label/Ubuntu14.04x64-mingw32/gcc-build/avr/avr5/libgcc/../../../../gcc/libgcc/config/avr/lib1funcs.S:2174
    2374:	7f 92       	push	r7
/home/jenkins-mingw32/workspace/avr-gcc-staging/label/Ubuntu14.04x64-mingw32/gcc-build/avr/avr5/libgcc/../../../../gcc/libgcc/config/avr/lib1funcs.S:2175
    2376:	8f 92       	push	r8
/home/jenkins-mingw32/workspace/avr-gcc-staging/label/Ubuntu14.04x64-mingw32/gcc-build/avr/avr5/libgcc/../../../../gcc/libgcc/config/avr/lib1funcs.S:2176
    2378:	9f 92       	push	r9
/home/jenkins-mingw32/workspace/avr-gcc-staging/label/Ubuntu14.04x64-mingw32/gcc-build/avr/avr5/libgcc/../../../../gcc/libgcc/config/avr/lib1funcs.S:2177
    237a:	af 92       	push	r10
/home/jenkins-mingw32/workspace/avr-gcc-staging/label/Ubuntu14.04x64-mingw32/gcc-build/avr/avr5/libgcc/../../../../gcc/libgcc/config/avr/lib1funcs.S:2178
    237c:	bf 92       	push	r11
/home/jenkins-mingw32/workspace/avr-gcc-staging/label/Ubuntu14.04x64-mingw32/gcc-build/avr/avr5/libgcc/../../../../gcc/libgcc/config/avr/lib1funcs.S:2179
    237e:	cf 92       	push	r12
/home/jenkins-mingw32/workspace/avr-gcc-staging/label/Ubuntu14.04x64-mingw32/gcc-build/avr/avr5/libgcc/../../../../gcc/libgcc/config/avr/lib1funcs.S:2180
    2380:	df 92       	push	r13
/home/jenkins-mingw32/workspace/avr-gcc-staging/label/Ubuntu14.04x64-mingw32/gcc-build/avr/avr5/libgcc/../../../../gcc/libgcc/config/avr/lib1funcs.S:2181
    2382:	ef 92       	push	r14
/home/jenkins-mingw32/workspace/avr-gcc-staging/label/Ubuntu14.04x64-mingw32/gcc-build/avr/avr5/libgcc/../../../../gcc/libgcc/config/avr/lib1funcs.S:2182
    2384:	ff 92       	push	r15
/home/jenkins-mingw32/workspace/avr-gcc-staging/label/Ubuntu14.04x64-mingw32/gcc-build/avr/avr5/libgcc/../../../../gcc/libgcc/config/avr/lib1funcs.S:2183
    2386:	0f 93       	push	r16
/home/jenkins-mingw32/workspace/avr-gcc-staging/label/Ubuntu14.04x64-mingw32/gcc-build/avr/avr5/libgcc/../../../../gcc/libgcc/config/avr/lib1funcs.S:2184
    2388:	1f 93       	push	r17
/home/jenkins-mingw32/workspace/avr-gcc-staging/label/Ubuntu14.04x64-mingw32/gcc-build/avr/avr5/libgcc/../../../../gcc/libgcc/config/avr/lib1funcs.S:2185
    238a:	cf 93       	push	r28
/home/jenkins-mingw32/workspace/avr-gcc-staging/label/Ubuntu14.04x64-mingw32/gcc-build/avr/avr5/libgcc/../../../../gcc/libgcc/config/avr/lib1funcs.S:2186
    238c:	df 93       	push	r29
/home/jenkins-mingw32/workspace/avr-gcc-staging/label/Ubuntu14.04x64-mingw32/gcc-build/avr/avr5/libgcc/../../../../gcc/libgcc/config/avr/lib1funcs.S:2200
    238e:	cd b7       	in	r28, 0x3d	; 61
/home/jenkins-mingw32/workspace/avr-gcc-staging/label/Ubuntu14.04x64-mingw32/gcc-build/avr/avr5/libgcc/../../../../gcc/libgcc/config/avr/lib1funcs.S:2201
    2390:	de b7       	in	r29, 0x3e	; 62
/home/jenkins-mingw32/workspace/avr-gcc-staging/label/Ubuntu14.04x64-mingw32/gcc-build/avr/avr5/libgcc/../../../../gcc/libgcc/config/avr/lib1funcs.S:2202
    2392:	ca 1b       	sub	r28, r26
/home/jenkins-mingw32/workspace/avr-gcc-staging/label/Ubuntu14.04x64-mingw32/gcc-build/avr/avr5/libgcc/../../../../gcc/libgcc/config/avr/lib1funcs.S:2203
    2394:	db 0b       	sbc	r29, r27
/home/jenkins-mingw32/workspace/avr-gcc-staging/label/Ubuntu14.04x64-mingw32/gcc-build/avr/avr5/libgcc/../../../../gcc/libgcc/config/avr/lib1funcs.S:2204
    2396:	0f b6       	in	r0, 0x3f	; 63
/home/jenkins-mingw32/workspace/avr-gcc-staging/label/Ubuntu14.04x64-mingw32/gcc-build/avr/avr5/libgcc/../../../../gcc/libgcc/config/avr/lib1funcs.S:2205
    2398:	f8 94       	cli
/home/jenkins-mingw32/workspace/avr-gcc-staging/label/Ubuntu14.04x64-mingw32/gcc-build/avr/avr5/libgcc/../../../../gcc/libgcc/config/avr/lib1funcs.S:2206
    239a:	de bf       	out	0x3e, r29	; 62
/home/jenkins-mingw32/workspace/avr-gcc-staging/label/Ubuntu14.04x64-mingw32/gcc-build/avr/avr5/libgcc/../../../../gcc/libgcc/config/avr/lib1funcs.S:2207
    239c:	0f be       	out	0x3f, r0	; 63
/home/jenkins-mingw32/workspace/avr-gcc-staging/label/Ubuntu14.04x64-mingw32/gcc-build/avr/avr5/libgcc/../../../../gcc/libgcc/config/avr/lib1funcs.S:2208
    239e:	cd bf       	out	0x3d, r28	; 61
/home/jenkins-mingw32/workspace/avr-gcc-staging/label/Ubuntu14.04x64-mingw32/gcc-build/avr/avr5/libgcc/../../../../gcc/libgcc/config/avr/lib1funcs.S:2211
    23a0:	09 94       	ijmp

000023a2 <__epilogue_restores__>:
__epilogue_restores__():
/home/jenkins-mingw32/workspace/avr-gcc-staging/label/Ubuntu14.04x64-mingw32/gcc-build/avr/avr5/libgcc/../../../../gcc/libgcc/config/avr/lib1funcs.S:2222
    23a2:	2a 88       	ldd	r2, Y+18	; 0x12
/home/jenkins-mingw32/workspace/avr-gcc-staging/label/Ubuntu14.04x64-mingw32/gcc-build/avr/avr5/libgcc/../../../../gcc/libgcc/config/avr/lib1funcs.S:2223
    23a4:	39 88       	ldd	r3, Y+17	; 0x11
/home/jenkins-mingw32/workspace/avr-gcc-staging/label/Ubuntu14.04x64-mingw32/gcc-build/avr/avr5/libgcc/../../../../gcc/libgcc/config/avr/lib1funcs.S:2224
    23a6:	48 88       	ldd	r4, Y+16	; 0x10
/home/jenkins-mingw32/workspace/avr-gcc-staging/label/Ubuntu14.04x64-mingw32/gcc-build/avr/avr5/libgcc/../../../../gcc/libgcc/config/avr/lib1funcs.S:2225
    23a8:	5f 84       	ldd	r5, Y+15	; 0x0f
/home/jenkins-mingw32/workspace/avr-gcc-staging/label/Ubuntu14.04x64-mingw32/gcc-build/avr/avr5/libgcc/../../../../gcc/libgcc/config/avr/lib1funcs.S:2226
    23aa:	6e 84       	ldd	r6, Y+14	; 0x0e
/home/jenkins-mingw32/workspace/avr-gcc-staging/label/Ubuntu14.04x64-mingw32/gcc-build/avr/avr5/libgcc/../../../../gcc/libgcc/config/avr/lib1funcs.S:2227
    23ac:	7d 84       	ldd	r7, Y+13	; 0x0d
/home/jenkins-mingw32/workspace/avr-gcc-staging/label/Ubuntu14.04x64-mingw32/gcc-build/avr/avr5/libgcc/../../../../gcc/libgcc/config/avr/lib1funcs.S:2228
    23ae:	8c 84       	ldd	r8, Y+12	; 0x0c
/home/jenkins-mingw32/workspace/avr-gcc-staging/label/Ubuntu14.04x64-mingw32/gcc-build/avr/avr5/libgcc/../../../../gcc/libgcc/config/avr/lib1funcs.S:2229
    23b0:	9b 84       	ldd	r9, Y+11	; 0x0b
/home/jenkins-mingw32/workspace/avr-gcc-staging/label/Ubuntu14.04x64-mingw32/gcc-build/avr/avr5/libgcc/../../../../gcc/libgcc/config/avr/lib1funcs.S:2230
    23b2:	aa 84       	ldd	r10, Y+10	; 0x0a
/home/jenkins-mingw32/workspace/avr-gcc-staging/label/Ubuntu14.04x64-mingw32/gcc-build/avr/avr5/libgcc/../../../../gcc/libgcc/config/avr/lib1funcs.S:2231
    23b4:	b9 84       	ldd	r11, Y+9	; 0x09
/home/jenkins-mingw32/workspace/avr-gcc-staging/label/Ubuntu14.04x64-mingw32/gcc-build/avr/avr5/libgcc/../../../../gcc/libgcc/config/avr/lib1funcs.S:2232
    23b6:	c8 84       	ldd	r12, Y+8	; 0x08
/home/jenkins-mingw32/workspace/avr-gcc-staging/label/Ubuntu14.04x64-mingw32/gcc-build/avr/avr5/libgcc/../../../../gcc/libgcc/config/avr/lib1funcs.S:2233
    23b8:	df 80       	ldd	r13, Y+7	; 0x07
/home/jenkins-mingw32/workspace/avr-gcc-staging/label/Ubuntu14.04x64-mingw32/gcc-build/avr/avr5/libgcc/../../../../gcc/libgcc/config/avr/lib1funcs.S:2234
    23ba:	ee 80       	ldd	r14, Y+6	; 0x06
/home/jenkins-mingw32/workspace/avr-gcc-staging/label/Ubuntu14.04x64-mingw32/gcc-build/avr/avr5/libgcc/../../../../gcc/libgcc/config/avr/lib1funcs.S:2235
    23bc:	fd 80       	ldd	r15, Y+5	; 0x05
/home/jenkins-mingw32/workspace/avr-gcc-staging/label/Ubuntu14.04x64-mingw32/gcc-build/avr/avr5/libgcc/../../../../gcc/libgcc/config/avr/lib1funcs.S:2236
    23be:	0c 81       	ldd	r16, Y+4	; 0x04
/home/jenkins-mingw32/workspace/avr-gcc-staging/label/Ubuntu14.04x64-mingw32/gcc-build/avr/avr5/libgcc/../../../../gcc/libgcc/config/avr/lib1funcs.S:2237
    23c0:	1b 81       	ldd	r17, Y+3	; 0x03
/home/jenkins-mingw32/workspace/avr-gcc-staging/label/Ubuntu14.04x64-mingw32/gcc-build/avr/avr5/libgcc/../../../../gcc/libgcc/config/avr/lib1funcs.S:2238
    23c2:	aa 81       	ldd	r26, Y+2	; 0x02
/home/jenkins-mingw32/workspace/avr-gcc-staging/label/Ubuntu14.04x64-mingw32/gcc-build/avr/avr5/libgcc/../../../../gcc/libgcc/config/avr/lib1funcs.S:2252
    23c4:	b9 81       	ldd	r27, Y+1	; 0x01
/home/jenkins-mingw32/workspace/avr-gcc-staging/label/Ubuntu14.04x64-mingw32/gcc-build/avr/avr5/libgcc/../../../../gcc/libgcc/config/avr/lib1funcs.S:2253
    23c6:	ce 0f       	add	r28, r30
/home/jenkins-mingw32/workspace/avr-gcc-staging/label/Ubuntu14.04x64-mingw32/gcc-build/avr/avr5/libgcc/../../../../gcc/libgcc/config/avr/lib1funcs.S:2254
    23c8:	d1 1d       	adc	r29, r1
/home/jenkins-mingw32/workspace/avr-gcc-staging/label/Ubuntu14.04x64-mingw32/gcc-build/avr/avr5/libgcc/../../../../gcc/libgcc/config/avr/lib1funcs.S:2255
    23ca:	0f b6       	in	r0, 0x3f	; 63
/home/jenkins-mingw32/workspace/avr-gcc-staging/label/Ubuntu14.04x64-mingw32/gcc-build/avr/avr5/libgcc/../../../../gcc/libgcc/config/avr/lib1funcs.S:2256
    23cc:	f8 94       	cli
/home/jenkins-mingw32/workspace/avr-gcc-staging/label/Ubuntu14.04x64-mingw32/gcc-build/avr/avr5/libgcc/../../../../gcc/libgcc/config/avr/lib1funcs.S:2257
    23ce:	de bf       	out	0x3e, r29	; 62
/home/jenkins-mingw32/workspace/avr-gcc-staging/label/Ubuntu14.04x64-mingw32/gcc-build/avr/avr5/libgcc/../../../../gcc/libgcc/config/avr/lib1funcs.S:2258
    23d0:	0f be       	out	0x3f, r0	; 63
/home/jenkins-mingw32/workspace/avr-gcc-staging/label/Ubuntu14.04x64-mingw32/gcc-build/avr/avr5/libgcc/../../../../gcc/libgcc/config/avr/lib1funcs.S:2259
    23d2:	cd bf       	out	0x3d, r28	; 61
/home/jenkins-mingw32/workspace/avr-gcc-staging/label/Ubuntu14.04x64-mingw32/gcc-build/avr/avr5/libgcc/../../../../gcc/libgcc/config/avr/lib1funcs.S:2260
    23d4:	ed 01       	movw	r28, r26
/home/jenkins-mingw32/workspace/avr-gcc-staging/label/Ubuntu14.04x64-mingw32/gcc-build/avr/avr5/libgcc/../../../../gcc/libgcc/config/avr/lib1funcs.S:2263
    23d6:	08 95       	ret

000023d8 <__do_global_dtors>:
__do_global_dtors():
/home/jenkins-mingw32/workspace/avr-gcc-staging/label/Ubuntu14.04x64-mingw32/gcc-build/avr/avr5/libgcc/../../../../gcc/libgcc/config/avr/lib1funcs.S:2496
    23d8:	10 e0       	ldi	r17, 0x00	; 0
/home/jenkins-mingw32/workspace/avr-gcc-staging/label/Ubuntu14.04x64-mingw32/gcc-build/avr/avr5/libgcc/../../../../gcc/libgcc/config/avr/lib1funcs.S:2497
    23da:	cb ec       	ldi	r28, 0xCB	; 203
/home/jenkins-mingw32/workspace/avr-gcc-staging/label/Ubuntu14.04x64-mingw32/gcc-build/avr/avr5/libgcc/../../../../gcc/libgcc/config/avr/lib1funcs.S:2498
    23dc:	d0 e0       	ldi	r29, 0x00	; 0
/home/jenkins-mingw32/workspace/avr-gcc-staging/label/Ubuntu14.04x64-mingw32/gcc-build/avr/avr5/libgcc/../../../../gcc/libgcc/config/avr/lib1funcs.S:2502
    23de:	04 c0       	rjmp	.+8      	; 0x23e8 <__do_global_dtors+0x10>
/home/jenkins-mingw32/workspace/avr-gcc-staging/label/Ubuntu14.04x64-mingw32/gcc-build/avr/avr5/libgcc/../../../../gcc/libgcc/config/avr/lib1funcs.S:2508
    23e0:	fe 01       	movw	r30, r28
/home/jenkins-mingw32/workspace/avr-gcc-staging/label/Ubuntu14.04x64-mingw32/gcc-build/avr/avr5/libgcc/../../../../gcc/libgcc/config/avr/lib1funcs.S:2509
    23e2:	0e 94 a0 0f 	call	0x1f40	; 0x1f40 <__tablejump2__>
/home/jenkins-mingw32/workspace/avr-gcc-staging/label/Ubuntu14.04x64-mingw32/gcc-build/avr/avr5/libgcc/../../../../gcc/libgcc/config/avr/lib1funcs.S:2510
    23e6:	21 96       	adiw	r28, 0x01	; 1
/home/jenkins-mingw32/workspace/avr-gcc-staging/label/Ubuntu14.04x64-mingw32/gcc-build/avr/avr5/libgcc/../../../../gcc/libgcc/config/avr/lib1funcs.S:2515
    23e8:	cd 3c       	cpi	r28, 0xCD	; 205
/home/jenkins-mingw32/workspace/avr-gcc-staging/label/Ubuntu14.04x64-mingw32/gcc-build/avr/avr5/libgcc/../../../../gcc/libgcc/config/avr/lib1funcs.S:2516
    23ea:	d1 07       	cpc	r29, r17
/home/jenkins-mingw32/workspace/avr-gcc-staging/label/Ubuntu14.04x64-mingw32/gcc-build/avr/avr5/libgcc/../../../../gcc/libgcc/config/avr/lib1funcs.S:2521
    23ec:	c9 f7       	brne	.-14     	; 0x23e0 <__do_global_dtors+0x8>
/home/jenkins-mingw32/workspace/avr-gcc-staging/label/Ubuntu14.04x64-mingw32/gcc-build/avr/avr5/libgcc/../../../../gcc/libgcc/config/avr/lib1funcs.S:2278
    23ee:	f8 94       	cli

000023f0 <__stop_program>:
__stop_program():
/home/jenkins-mingw32/workspace/avr-gcc-staging/label/Ubuntu14.04x64-mingw32/gcc-build/avr/avr5/libgcc/../../../../gcc/libgcc/config/avr/lib1funcs.S:2280
    23f0:	ff cf       	rjmp	.-2      	; 0x23f0 <__stop_program>
