
C:\Users\mateu\AppData\Local\Temp\arduino_build_549653/cdc_arduino_modified_v2.ino.elf:     file format elf32-avr


Disassembly of section .text:

00000000 <__vectors>:
__vectors():
../../../../crt1/gcrt1.S:65
       0:	0c 94 ea 00 	jmp	0x1d4	; 0x1d4 <__dtors_end>
../../../../crt1/gcrt1.S:67
       4:	0c 94 74 0c 	jmp	0x18e8	; 0x18e8 <__vector_1>
../../../../crt1/gcrt1.S:68
       8:	0c 94 9b 0c 	jmp	0x1936	; 0x1936 <__vector_2>
../../../../crt1/gcrt1.S:69
       c:	0c 94 c3 0a 	jmp	0x1586	; 0x1586 <__vector_27>
../../../../crt1/gcrt1.S:70
      10:	0c 94 c3 0a 	jmp	0x1586	; 0x1586 <__vector_27>
../../../../crt1/gcrt1.S:71
      14:	0c 94 c3 0a 	jmp	0x1586	; 0x1586 <__vector_27>
../../../../crt1/gcrt1.S:72
      18:	0c 94 12 01 	jmp	0x224	; 0x224 <__bad_interrupt>
../../../../crt1/gcrt1.S:73
      1c:	0c 94 8d 05 	jmp	0xb1a	; 0xb1a <__vector_7>
../../../../crt1/gcrt1.S:74
      20:	0c 94 12 01 	jmp	0x224	; 0x224 <__bad_interrupt>
../../../../crt1/gcrt1.S:75
      24:	0c 94 12 01 	jmp	0x224	; 0x224 <__bad_interrupt>
../../../../crt1/gcrt1.S:76
      28:	0c 94 5e 06 	jmp	0xcbc	; 0xcbc <__vector_10>
../../../../crt1/gcrt1.S:77
      2c:	0c 94 12 01 	jmp	0x224	; 0x224 <__bad_interrupt>
../../../../crt1/gcrt1.S:78
      30:	0c 94 12 01 	jmp	0x224	; 0x224 <__bad_interrupt>
../../../../crt1/gcrt1.S:79
      34:	0c 94 1b 06 	jmp	0xc36	; 0xc36 <__vector_13>
../../../../crt1/gcrt1.S:80
      38:	0c 94 d7 05 	jmp	0xbae	; 0xbae <__vector_14>
../../../../crt1/gcrt1.S:81
      3c:	0c 94 12 01 	jmp	0x224	; 0x224 <__bad_interrupt>
../../../../crt1/gcrt1.S:82
      40:	0c 94 c2 0c 	jmp	0x1984	; 0x1984 <__vector_16>
../../../../crt1/gcrt1.S:83
      44:	0c 94 12 01 	jmp	0x224	; 0x224 <__bad_interrupt>
../../../../crt1/gcrt1.S:84
      48:	0c 94 37 0f 	jmp	0x1e6e	; 0x1e6e <__vector_18>
../../../../crt1/gcrt1.S:85
      4c:	0c 94 69 0f 	jmp	0x1ed2	; 0x1ed2 <__vector_19>
../../../../crt1/gcrt1.S:86
      50:	0c 94 12 01 	jmp	0x224	; 0x224 <__bad_interrupt>
../../../../crt1/gcrt1.S:87
      54:	0c 94 12 01 	jmp	0x224	; 0x224 <__bad_interrupt>
../../../../crt1/gcrt1.S:88
      58:	0c 94 12 01 	jmp	0x224	; 0x224 <__bad_interrupt>
../../../../crt1/gcrt1.S:89
      5c:	0c 94 12 01 	jmp	0x224	; 0x224 <__bad_interrupt>
../../../../crt1/gcrt1.S:90
      60:	0c 94 12 01 	jmp	0x224	; 0x224 <__bad_interrupt>
../../../../crt1/gcrt1.S:91
      64:	0c 94 12 01 	jmp	0x224	; 0x224 <__bad_interrupt>
../../../../crt1/gcrt1.S:92
      68:	0c 94 12 01 	jmp	0x224	; 0x224 <__bad_interrupt>
../../../../crt1/gcrt1.S:93
      6c:	0c 94 c3 0a 	jmp	0x1586	; 0x1586 <__vector_27>
../../../../crt1/gcrt1.S:94
      70:	0c 94 12 01 	jmp	0x224	; 0x224 <__bad_interrupt>
../../../../crt1/gcrt1.S:95
      74:	0c 94 12 01 	jmp	0x224	; 0x224 <__bad_interrupt>
../../../../crt1/gcrt1.S:96
      78:	0c 94 12 01 	jmp	0x224	; 0x224 <__bad_interrupt>
../../../../crt1/gcrt1.S:97
      7c:	0c 94 12 01 	jmp	0x224	; 0x224 <__bad_interrupt>
../../../../crt1/gcrt1.S:98
      80:	0c 94 12 01 	jmp	0x224	; 0x224 <__bad_interrupt>
../../../../crt1/gcrt1.S:99
      84:	0c 94 12 01 	jmp	0x224	; 0x224 <__bad_interrupt>
../../../../crt1/gcrt1.S:100
      88:	0c 94 12 01 	jmp	0x224	; 0x224 <__bad_interrupt>
../../../../crt1/gcrt1.S:101
      8c:	0c 94 12 01 	jmp	0x224	; 0x224 <__bad_interrupt>
../../../../crt1/gcrt1.S:102
      90:	0c 94 12 01 	jmp	0x224	; 0x224 <__bad_interrupt>
../../../../crt1/gcrt1.S:103
      94:	0c 94 12 01 	jmp	0x224	; 0x224 <__bad_interrupt>
../../../../crt1/gcrt1.S:104
      98:	0c 94 12 01 	jmp	0x224	; 0x224 <__bad_interrupt>
../../../../crt1/gcrt1.S:105
      9c:	0c 94 12 01 	jmp	0x224	; 0x224 <__bad_interrupt>
../../../../crt1/gcrt1.S:106
      a0:	0c 94 12 01 	jmp	0x224	; 0x224 <__bad_interrupt>
../../../../crt1/gcrt1.S:107
      a4:	0c 94 12 01 	jmp	0x224	; 0x224 <__bad_interrupt>
../../../../crt1/gcrt1.S:108
      a8:	0c 94 12 01 	jmp	0x224	; 0x224 <__bad_interrupt>
../../../../crt1/gcrt1.S:109
      ac:	0c 94 12 01 	jmp	0x224	; 0x224 <__bad_interrupt>
../../../../crt1/gcrt1.S:110
      b0:	0c 94 12 01 	jmp	0x224	; 0x224 <__bad_interrupt>

000000b4 <__trampolines_end>:
__trampolines_start():
      b4:	31 2e       	mov	r3, r17
      b6:	31 61       	ori	r19, 0x11	; 17
	...

000000b9 <sHEX>:
	...

000000ba <sNEWLINE>:
      ba:	0d 0a 00                                            ...

000000bd <sIDENTIFY>:
      bd:	41 75 64 69 20 43 6f 6e 63 65 72 74 20 49 20 4d     Audi Concert I M
      cd:	75 6c 74 69 6d 65 64 69 61 20 61 6e 64 20 50 68     ultimedia and Ph
      dd:	6f 6e 65 20 47 61 74 65 77 61 79 20 56 65 72 2e     one Gateway Ver.
	...

000000ee <sRING>:
      ee:	52 49 4e 47 0d 0a 00                                RING...

000000f5 <sPREVIOUS>:
      f5:	50 52 45 56 49 4f 55 53 0d 0a 00                    PREVIOUS...

00000100 <sNEXT>:
     100:	4e 45 58 54 0d 0a 00                                NEXT...

00000107 <sSCAN>:
     107:	53 43 41 4e 0d 0a 00                                SCAN...

0000010e <sPLAY>:
     10e:	50 4c 41 59 0d 0a 00                                PLAY...

00000115 <sRANDOM>:
     115:	52 41 4e 44 4f 4d 0d 0a 00                          RANDOM...

0000011e <sLIST6>:
	...

0000011f <sLIST5>:
	...

00000120 <sLIST4>:
	...

00000121 <sLIST3>:
     121:	41 55 58 20 6d 6f 64 65 0d 0a 00                    AUX mode...

0000012c <sLIST2>:
     12c:	55 53 42 20 64 69 73 6b 20 6d 6f 64 65 0d 0a 00     USB disk mode...

0000013c <sLIST1>:
     13c:	42 6c 75 65 74 6f 6f 74 68 20 6d 6f 64 65 0d 0a     Bluetooth mode..
	...

0000014d <sNXT_LIST>:
	...

0000014e <sPRV_LIST>:
	...

0000014f <sMINQUIRY>:
	...

00000150 <sMENABLE>:
	...

00000151 <sMDISABLE>:
	...

00000152 <sOVERFLOW>:
	...

00000153 <sDATAERR>:
	...

00000154 <digital_pin_to_timer_PGM>:
     154:	0a 0d 0e 09 00 03 02 00 00 04 05 08 00 00 00 00     ................
	...

0000016f <digital_pin_to_bit_mask_PGM>:
     16f:	01 02 04 08 10 20 40 80 01 02 04 08 10 20 01 02     ..... @...... ..
     17f:	04 08 10 20 40 80 40 01 02 04 08                    ... @.@....

0000018a <digital_pin_to_port_PGM>:
     18a:	04 04 04 04 04 04 04 04 02 02 02 02 02 02 03 03     ................
     19a:	03 03 03 03 02 02 03 05 05 05 05                    ...........

000001a5 <port_to_input_PGM>:
     1a5:	00 00 00 00 23 00 26 00 29 00 2c 00                 ....#.&.).,.

000001b1 <port_to_output_PGM>:
     1b1:	00 00 00 00 25 00 28 00 2b 00 2e 00                 ....%.(.+...

000001bd <port_to_mode_PGM>:
     1bd:	00 00 00 00 24 00 27 00 2a 00 2d 00 00              ....$.'.*.-..

000001ca <__ctors_start>:
__ctors_start():
     1ca:	5c 01       	movw	r10, r24
     1cc:	ae 02       	muls	r26, r30
     1ce:	8f 0f       	add	r24, r31

000001d0 <__ctors_end>:
__dtors_start():
     1d0:	68 01       	movw	r12, r16
     1d2:	c1 02       	muls	r28, r17

000001d4 <__dtors_end>:
__dtors_end():
../../../../crt1/gcrt1.S:230
     1d4:	11 24       	eor	r1, r1
../../../../crt1/gcrt1.S:231
     1d6:	1f be       	out	0x3f, r1	; 63
../../../../crt1/gcrt1.S:232
     1d8:	cf ef       	ldi	r28, 0xFF	; 255
../../../../crt1/gcrt1.S:241
     1da:	d8 e0       	ldi	r29, 0x08	; 8
../../../../crt1/gcrt1.S:242
     1dc:	de bf       	out	0x3e, r29	; 62
../../../../crt1/gcrt1.S:244
     1de:	cd bf       	out	0x3d, r28	; 61

000001e0 <__do_copy_data>:
__do_copy_data():
/home/jenkins-mingw32/workspace/avr-gcc-staging/label/Ubuntu14.04x64-mingw32/gcc-build/avr/avr5/libgcc/../../../../gcc/libgcc/config/avr/lib1funcs.S:2409
     1e0:	12 e0       	ldi	r17, 0x02	; 2
/home/jenkins-mingw32/workspace/avr-gcc-staging/label/Ubuntu14.04x64-mingw32/gcc-build/avr/avr5/libgcc/../../../../gcc/libgcc/config/avr/lib1funcs.S:2410
     1e2:	a0 e0       	ldi	r26, 0x00	; 0
/home/jenkins-mingw32/workspace/avr-gcc-staging/label/Ubuntu14.04x64-mingw32/gcc-build/avr/avr5/libgcc/../../../../gcc/libgcc/config/avr/lib1funcs.S:2411
     1e4:	b1 e0       	ldi	r27, 0x01	; 1
/home/jenkins-mingw32/workspace/avr-gcc-staging/label/Ubuntu14.04x64-mingw32/gcc-build/avr/avr5/libgcc/../../../../gcc/libgcc/config/avr/lib1funcs.S:2412
     1e6:	e0 e6       	ldi	r30, 0x60	; 96
/home/jenkins-mingw32/workspace/avr-gcc-staging/label/Ubuntu14.04x64-mingw32/gcc-build/avr/avr5/libgcc/../../../../gcc/libgcc/config/avr/lib1funcs.S:2413
     1e8:	f8 e2       	ldi	r31, 0x28	; 40
/home/jenkins-mingw32/workspace/avr-gcc-staging/label/Ubuntu14.04x64-mingw32/gcc-build/avr/avr5/libgcc/../../../../gcc/libgcc/config/avr/lib1funcs.S:2414
     1ea:	02 c0       	rjmp	.+4      	; 0x1f0 <__do_copy_data+0x10>
/home/jenkins-mingw32/workspace/avr-gcc-staging/label/Ubuntu14.04x64-mingw32/gcc-build/avr/avr5/libgcc/../../../../gcc/libgcc/config/avr/lib1funcs.S:2417
     1ec:	05 90       	lpm	r0, Z+
/home/jenkins-mingw32/workspace/avr-gcc-staging/label/Ubuntu14.04x64-mingw32/gcc-build/avr/avr5/libgcc/../../../../gcc/libgcc/config/avr/lib1funcs.S:2422
     1ee:	0d 92       	st	X+, r0
/home/jenkins-mingw32/workspace/avr-gcc-staging/label/Ubuntu14.04x64-mingw32/gcc-build/avr/avr5/libgcc/../../../../gcc/libgcc/config/avr/lib1funcs.S:2424
     1f0:	ac 30       	cpi	r26, 0x0C	; 12
/home/jenkins-mingw32/workspace/avr-gcc-staging/label/Ubuntu14.04x64-mingw32/gcc-build/avr/avr5/libgcc/../../../../gcc/libgcc/config/avr/lib1funcs.S:2425
     1f2:	b1 07       	cpc	r27, r17
/home/jenkins-mingw32/workspace/avr-gcc-staging/label/Ubuntu14.04x64-mingw32/gcc-build/avr/avr5/libgcc/../../../../gcc/libgcc/config/avr/lib1funcs.S:2426
     1f4:	d9 f7       	brne	.-10     	; 0x1ec <__do_copy_data+0xc>

000001f6 <__do_clear_bss>:
__do_clear_bss():
/home/jenkins-mingw32/workspace/avr-gcc-staging/label/Ubuntu14.04x64-mingw32/gcc-build/avr/avr5/libgcc/../../../../gcc/libgcc/config/avr/lib1funcs.S:2441
     1f6:	23 e0       	ldi	r18, 0x03	; 3
/home/jenkins-mingw32/workspace/avr-gcc-staging/label/Ubuntu14.04x64-mingw32/gcc-build/avr/avr5/libgcc/../../../../gcc/libgcc/config/avr/lib1funcs.S:2442
     1f8:	ac e0       	ldi	r26, 0x0C	; 12
/home/jenkins-mingw32/workspace/avr-gcc-staging/label/Ubuntu14.04x64-mingw32/gcc-build/avr/avr5/libgcc/../../../../gcc/libgcc/config/avr/lib1funcs.S:2443
     1fa:	b2 e0       	ldi	r27, 0x02	; 2
/home/jenkins-mingw32/workspace/avr-gcc-staging/label/Ubuntu14.04x64-mingw32/gcc-build/avr/avr5/libgcc/../../../../gcc/libgcc/config/avr/lib1funcs.S:2444
     1fc:	01 c0       	rjmp	.+2      	; 0x200 <.do_clear_bss_start>

000001fe <.do_clear_bss_loop>:
/home/jenkins-mingw32/workspace/avr-gcc-staging/label/Ubuntu14.04x64-mingw32/gcc-build/avr/avr5/libgcc/../../../../gcc/libgcc/config/avr/lib1funcs.S:2446
     1fe:	1d 92       	st	X+, r1

00000200 <.do_clear_bss_start>:
/home/jenkins-mingw32/workspace/avr-gcc-staging/label/Ubuntu14.04x64-mingw32/gcc-build/avr/avr5/libgcc/../../../../gcc/libgcc/config/avr/lib1funcs.S:2448
     200:	a9 39       	cpi	r26, 0x99	; 153
/home/jenkins-mingw32/workspace/avr-gcc-staging/label/Ubuntu14.04x64-mingw32/gcc-build/avr/avr5/libgcc/../../../../gcc/libgcc/config/avr/lib1funcs.S:2449
     202:	b2 07       	cpc	r27, r18
/home/jenkins-mingw32/workspace/avr-gcc-staging/label/Ubuntu14.04x64-mingw32/gcc-build/avr/avr5/libgcc/../../../../gcc/libgcc/config/avr/lib1funcs.S:2450
     204:	e1 f7       	brne	.-8      	; 0x1fe <.do_clear_bss_loop>

00000206 <__do_global_ctors>:
__do_global_ctors():
/home/jenkins-mingw32/workspace/avr-gcc-staging/label/Ubuntu14.04x64-mingw32/gcc-build/avr/avr5/libgcc/../../../../gcc/libgcc/config/avr/lib1funcs.S:2466
     206:	10 e0       	ldi	r17, 0x00	; 0
/home/jenkins-mingw32/workspace/avr-gcc-staging/label/Ubuntu14.04x64-mingw32/gcc-build/avr/avr5/libgcc/../../../../gcc/libgcc/config/avr/lib1funcs.S:2467
     208:	c8 ee       	ldi	r28, 0xE8	; 232
/home/jenkins-mingw32/workspace/avr-gcc-staging/label/Ubuntu14.04x64-mingw32/gcc-build/avr/avr5/libgcc/../../../../gcc/libgcc/config/avr/lib1funcs.S:2468
     20a:	d0 e0       	ldi	r29, 0x00	; 0
/home/jenkins-mingw32/workspace/avr-gcc-staging/label/Ubuntu14.04x64-mingw32/gcc-build/avr/avr5/libgcc/../../../../gcc/libgcc/config/avr/lib1funcs.S:2472
     20c:	04 c0       	rjmp	.+8      	; 0x216 <__do_global_ctors+0x10>
/home/jenkins-mingw32/workspace/avr-gcc-staging/label/Ubuntu14.04x64-mingw32/gcc-build/avr/avr5/libgcc/../../../../gcc/libgcc/config/avr/lib1funcs.S:2474
     20e:	21 97       	sbiw	r28, 0x01	; 1
/home/jenkins-mingw32/workspace/avr-gcc-staging/label/Ubuntu14.04x64-mingw32/gcc-build/avr/avr5/libgcc/../../../../gcc/libgcc/config/avr/lib1funcs.S:2480
     210:	fe 01       	movw	r30, r28
/home/jenkins-mingw32/workspace/avr-gcc-staging/label/Ubuntu14.04x64-mingw32/gcc-build/avr/avr5/libgcc/../../../../gcc/libgcc/config/avr/lib1funcs.S:2481
     212:	0e 94 d7 11 	call	0x23ae	; 0x23ae <__tablejump2__>
/home/jenkins-mingw32/workspace/avr-gcc-staging/label/Ubuntu14.04x64-mingw32/gcc-build/avr/avr5/libgcc/../../../../gcc/libgcc/config/avr/lib1funcs.S:2483
     216:	c5 3e       	cpi	r28, 0xE5	; 229
/home/jenkins-mingw32/workspace/avr-gcc-staging/label/Ubuntu14.04x64-mingw32/gcc-build/avr/avr5/libgcc/../../../../gcc/libgcc/config/avr/lib1funcs.S:2484
     218:	d1 07       	cpc	r29, r17
/home/jenkins-mingw32/workspace/avr-gcc-staging/label/Ubuntu14.04x64-mingw32/gcc-build/avr/avr5/libgcc/../../../../gcc/libgcc/config/avr/lib1funcs.S:2489
     21a:	c9 f7       	brne	.-14     	; 0x20e <__do_global_ctors+0x8>
../../../../crt1/gcrt1.S:314
     21c:	0e 94 62 03 	call	0x6c4	; 0x6c4 <main>
../../../../crt1/gcrt1.S:315
     220:	0c 94 23 14 	jmp	0x2846	; 0x2846 <__do_global_dtors>

00000224 <__bad_interrupt>:
__vector_38():
../../../../crt1/gcrt1.S:209
     224:	0c 94 00 00 	jmp	0	; 0x0 <__vectors>

00000228 <SetNewCode()>:
_Z10SetNewCodev():
C:\Users\mateu\AppData\Local\Temp\arduino_build_549653\sketch/Remote.cpp:25
  attachInterrupt(digitalPinToInterrupt(2), SetNewCode, RISING);
  #endif
}

void SetNewCode(void) {
  Serial.println("Received from steering wheel");
     228:	6e e0       	ldi	r22, 0x0E	; 14
     22a:	71 e0       	ldi	r23, 0x01	; 1
     22c:	88 ef       	ldi	r24, 0xF8	; 248
     22e:	92 e0       	ldi	r25, 0x02	; 2
     230:	0e 94 1c 10 	call	0x2038	; 0x2038 <Print::println(char const*)>
C:\Users\mateu\AppData\Local\Temp\arduino_build_549653\sketch/Remote.cpp:26
  RemoteGotNewCode = true;
     234:	81 e0       	ldi	r24, 0x01	; 1
     236:	80 93 18 02 	sts	0x0218, r24	; 0x800218 <RemoteGotNewCode>
C:\Users\mateu\AppData\Local\Temp\arduino_build_549653\sketch/Remote.cpp:27
}
     23a:	08 95       	ret

0000023c <InitRemote()>:
_Z10InitRemotev():
C:\Users\mateu\AppData\Local\Temp\arduino_build_549653\sketch/Remote.cpp:16
//SoftwareSerial SwSerial(2, -1); // RX, TX

void InitRemote(void) {
  
  #ifdef SteringWheelRemote
  attachInterrupt(digitalPinToInterrupt(2), SetNewCode, RISING);
     23c:	43 e0       	ldi	r20, 0x03	; 3
     23e:	50 e0       	ldi	r21, 0x00	; 0
     240:	64 e1       	ldi	r22, 0x14	; 20
     242:	71 e0       	ldi	r23, 0x01	; 1
     244:	80 e0       	ldi	r24, 0x00	; 0
     246:	0c 94 54 0c 	jmp	0x18a8	; 0x18a8 <attachInterrupt>

0000024a <RemoteProtocol()>:
_Z14RemoteProtocolv():
C:\Users\mateu\AppData\Local\Temp\arduino_build_549653\sketch/Remote.cpp:42
    }
  }
}

void RemoteProtocol(void) {
  if (RemoteGotNewCode) {
     24a:	80 91 18 02 	lds	r24, 0x0218	; 0x800218 <RemoteGotNewCode>
     24e:	88 23       	and	r24, r24
     250:	71 f0       	breq	.+28     	; 0x26e <RemoteProtocol()+0x24>
C:\Users\mateu\AppData\Local\Temp\arduino_build_549653\sketch/Remote.cpp:43
    Serial.println("Phone button");
     252:	6b e2       	ldi	r22, 0x2B	; 43
     254:	71 e0       	ldi	r23, 0x01	; 1
     256:	88 ef       	ldi	r24, 0xF8	; 248
     258:	92 e0       	ldi	r25, 0x02	; 2
     25a:	0e 94 1c 10 	call	0x2038	; 0x2038 <Print::println(char const*)>
C:\Users\mateu\AppData\Local\Temp\arduino_build_549653\sketch/Remote.cpp:44
      if(GetStatusBt() == INCOMING_CALL) {
     25e:	0e 94 bb 01 	call	0x376	; 0x376 <GetStatusBt()>
     262:	83 30       	cpi	r24, 0x03	; 3
     264:	69 f4       	brne	.+26     	; 0x280 <RemoteProtocol()+0x36>
C:\Users\mateu\AppData\Local\Temp\arduino_build_549653\sketch/Remote.cpp:45
        pickupCall();  //Answare the call
     266:	0e 94 be 01 	call	0x37c	; 0x37c <pickupCall()>
C:\Users\mateu\AppData\Local\Temp\arduino_build_549653\sketch/Remote.cpp:56
        hangUpCall();  //Hang up the phone 
      }
      else  if(GetStatusBt() == CONNECTED_IDLE) {
        redialLastCall();  //Last number redial
      }
    RemoteGotNewCode = false;  //reset flag
     26a:	10 92 18 02 	sts	0x0218, r1	; 0x800218 <RemoteGotNewCode>
C:\Users\mateu\AppData\Local\Temp\arduino_build_549653\sketch/Remote.cpp:59
  }

  if ((GetStatusBt()== INCOMING_CALL) || (GetStatusBt()== CALL_IN_PROGRESS) || (GetStatusBt()== OUTGOING_CALL)) {
     26e:	0e 94 bb 01 	call	0x376	; 0x376 <GetStatusBt()>
     272:	83 30       	cpi	r24, 0x03	; 3
     274:	b9 f4       	brne	.+46     	; 0x2a4 <RemoteProtocol()+0x5a>
C:\Users\mateu\AppData\Local\Temp\arduino_build_549653\sketch/Remote.cpp:60
    digitalWrite(pinMute, HIGH);
     276:	61 e0       	ldi	r22, 0x01	; 1
C:\Users\mateu\AppData\Local\Temp\arduino_build_549653\sketch/Remote.cpp:63
  }
  else {
    digitalWrite(pinMute, LOW);
     278:	80 91 06 01 	lds	r24, 0x0106	; 0x800106 <pinMute>
     27c:	0c 94 ec 0d 	jmp	0x1bd8	; 0x1bd8 <digitalWrite>
C:\Users\mateu\AppData\Local\Temp\arduino_build_549653\sketch/Remote.cpp:47
  if (RemoteGotNewCode) {
    Serial.println("Phone button");
      if(GetStatusBt() == INCOMING_CALL) {
        pickupCall();  //Answare the call
      }
      else if(GetStatusBt() == CALL_IN_PROGRESS) {
     280:	0e 94 bb 01 	call	0x376	; 0x376 <GetStatusBt()>
     284:	82 30       	cpi	r24, 0x02	; 2
     286:	19 f4       	brne	.+6      	; 0x28e <RemoteProtocol()+0x44>
C:\Users\mateu\AppData\Local\Temp\arduino_build_549653\sketch/Remote.cpp:48
        hangUpCall();  //Hang up the phone
     288:	0e 94 dc 01 	call	0x3b8	; 0x3b8 <hangUpCall()>
     28c:	ee cf       	rjmp	.-36     	; 0x26a <RemoteProtocol()+0x20>
C:\Users\mateu\AppData\Local\Temp\arduino_build_549653\sketch/Remote.cpp:50
      }
      else  if(GetStatusBt() == OUTGOING_CALL){
     28e:	0e 94 bb 01 	call	0x376	; 0x376 <GetStatusBt()>
     292:	84 30       	cpi	r24, 0x04	; 4
     294:	c9 f3       	breq	.-14     	; 0x288 <RemoteProtocol()+0x3e>
C:\Users\mateu\AppData\Local\Temp\arduino_build_549653\sketch/Remote.cpp:53
        hangUpCall();  //Hang up the phone 
      }
      else  if(GetStatusBt() == CONNECTED_IDLE) {
     296:	0e 94 bb 01 	call	0x376	; 0x376 <GetStatusBt()>
     29a:	81 30       	cpi	r24, 0x01	; 1
     29c:	31 f7       	brne	.-52     	; 0x26a <RemoteProtocol()+0x20>
C:\Users\mateu\AppData\Local\Temp\arduino_build_549653\sketch/Remote.cpp:54
        redialLastCall();  //Last number redial
     29e:	0e 94 fa 01 	call	0x3f4	; 0x3f4 <redialLastCall()>
     2a2:	e3 cf       	rjmp	.-58     	; 0x26a <RemoteProtocol()+0x20>
C:\Users\mateu\AppData\Local\Temp\arduino_build_549653\sketch/Remote.cpp:59 (discriminator 2)
      }
    RemoteGotNewCode = false;  //reset flag
  }

  if ((GetStatusBt()== INCOMING_CALL) || (GetStatusBt()== CALL_IN_PROGRESS) || (GetStatusBt()== OUTGOING_CALL)) {
     2a4:	0e 94 bb 01 	call	0x376	; 0x376 <GetStatusBt()>
     2a8:	82 30       	cpi	r24, 0x02	; 2
     2aa:	29 f3       	breq	.-54     	; 0x276 <RemoteProtocol()+0x2c>
C:\Users\mateu\AppData\Local\Temp\arduino_build_549653\sketch/Remote.cpp:59 (discriminator 4)
     2ac:	0e 94 bb 01 	call	0x376	; 0x376 <GetStatusBt()>
     2b0:	84 30       	cpi	r24, 0x04	; 4
     2b2:	09 f3       	breq	.-62     	; 0x276 <RemoteProtocol()+0x2c>
C:\Users\mateu\AppData\Local\Temp\arduino_build_549653\sketch/Remote.cpp:63
    digitalWrite(pinMute, HIGH);
  }
  else {
    digitalWrite(pinMute, LOW);
     2b4:	60 e0       	ldi	r22, 0x00	; 0
     2b6:	e0 cf       	rjmp	.-64     	; 0x278 <RemoteProtocol()+0x2e>

000002b8 <_GLOBAL__sub_I_RemoteGotNewCode>:
_GLOBAL__sub_I_RemoteGotNewCode():
C:\Users\mateu\AppData\Local\Temp\arduino_build_549653\sketch/Remote.cpp:7
#include "bluetooth_module.h"
#include <avr/interrupt.h>
#include <SoftwareSerial.h>

volatile bool RemoteGotNewCode = false;
String RemoteNewCode = "";
     2b8:	6e e3       	ldi	r22, 0x3E	; 62
     2ba:	71 e0       	ldi	r23, 0x01	; 1
     2bc:	82 e1       	ldi	r24, 0x12	; 18
     2be:	92 e0       	ldi	r25, 0x02	; 2
     2c0:	0e 94 a2 10 	call	0x2144	; 0x2144 <String::String(char const*)>
C:\Users\mateu\AppData\Local\Temp\arduino_build_549653\sketch/Remote.cpp:8
String PhoneCode = "0xC0\r\n";
     2c4:	68 e3       	ldi	r22, 0x38	; 56
     2c6:	71 e0       	ldi	r23, 0x01	; 1
     2c8:	8c e0       	ldi	r24, 0x0C	; 12
     2ca:	92 e0       	ldi	r25, 0x02	; 2
     2cc:	0c 94 a2 10 	jmp	0x2144	; 0x2144 <String::String(char const*)>

000002d0 <_GLOBAL__sub_D_RemoteGotNewCode>:
_GLOBAL__sub_D_RemoteGotNewCode():
     2d0:	8c e0       	ldi	r24, 0x0C	; 12
     2d2:	92 e0       	ldi	r25, 0x02	; 2
     2d4:	0e 94 33 10 	call	0x2066	; 0x2066 <String::~String()>
C:\Users\mateu\AppData\Local\Temp\arduino_build_549653\sketch/Remote.cpp:7
#include "bluetooth_module.h"
#include <avr/interrupt.h>
#include <SoftwareSerial.h>

volatile bool RemoteGotNewCode = false;
String RemoteNewCode = "";
     2d8:	82 e1       	ldi	r24, 0x12	; 18
     2da:	92 e0       	ldi	r25, 0x02	; 2
     2dc:	0c 94 33 10 	jmp	0x2066	; 0x2066 <String::~String()>

000002e0 <SendBt(String)>:
_Z6SendBt6String():
C:\Users\mateu\AppData\Local\Temp\arduino_build_549653\sketch/bluetooth_module.cpp:527
    case BK3266SR_STATUS_WC: return F("Launch paired successfully");
    case BK3266SR_STATUS_WD: return F("Launch disconnect");
    case BK3266SR_STATUS_IA: return F("Receive disconnect");
    case BK3266SR_STATUS_IDLE: return F("Enter idle mode");
    case BK3266SR_STATUS_MUTE: return F("MUTE amplifier");
    case BK3266SR_STATUS_UNMUTE: return F("Turn on the amplifier");
     2e0:	bc 01       	movw	r22, r24
     2e2:	86 e2       	ldi	r24, 0x26	; 38
     2e4:	92 e0       	ldi	r25, 0x02	; 2
     2e6:	0c 94 0a 10 	jmp	0x2014	; 0x2014 <Print::println(String const&)>

000002ea <InitBtModule()>:
_Z12InitBtModulev():
     2ea:	cf 93       	push	r28
     2ec:	df 93       	push	r29
     2ee:	00 d0       	rcall	.+0      	; 0x2f0 <InitBtModule()+0x6>
     2f0:	00 d0       	rcall	.+0      	; 0x2f2 <InitBtModule()+0x8>
     2f2:	00 d0       	rcall	.+0      	; 0x2f4 <InitBtModule()+0xa>
     2f4:	cd b7       	in	r28, 0x3d	; 61
     2f6:	de b7       	in	r29, 0x3e	; 62
     2f8:	40 e8       	ldi	r20, 0x80	; 128
     2fa:	55 e2       	ldi	r21, 0x25	; 37
     2fc:	60 e0       	ldi	r22, 0x00	; 0
     2fe:	70 e0       	ldi	r23, 0x00	; 0
     300:	86 e2       	ldi	r24, 0x26	; 38
     302:	92 e0       	ldi	r25, 0x02	; 2
     304:	0e 94 c1 0b 	call	0x1782	; 0x1782 <SoftwareSerial::begin(long)>
     308:	62 e3       	ldi	r22, 0x32	; 50
     30a:	70 e0       	ldi	r23, 0x00	; 0
     30c:	80 e0       	ldi	r24, 0x00	; 0
     30e:	90 e0       	ldi	r25, 0x00	; 0
     310:	0e 94 31 0d 	call	0x1a62	; 0x1a62 <delay>
     314:	6f e3       	ldi	r22, 0x3F	; 63
     316:	71 e0       	ldi	r23, 0x01	; 1
     318:	ce 01       	movw	r24, r28
     31a:	01 96       	adiw	r24, 0x01	; 1
     31c:	0e 94 a2 10 	call	0x2144	; 0x2144 <String::String(char const*)>
     320:	ce 01       	movw	r24, r28
     322:	01 96       	adiw	r24, 0x01	; 1
     324:	0e 94 70 01 	call	0x2e0	; 0x2e0 <SendBt(String)>
     328:	ce 01       	movw	r24, r28
     32a:	01 96       	adiw	r24, 0x01	; 1
     32c:	0e 94 33 10 	call	0x2066	; 0x2066 <String::~String()>
     330:	62 e3       	ldi	r22, 0x32	; 50
     332:	70 e0       	ldi	r23, 0x00	; 0
     334:	80 e0       	ldi	r24, 0x00	; 0
     336:	90 e0       	ldi	r25, 0x00	; 0
     338:	0e 94 31 0d 	call	0x1a62	; 0x1a62 <delay>
     33c:	6a e4       	ldi	r22, 0x4A	; 74
     33e:	71 e0       	ldi	r23, 0x01	; 1
     340:	ce 01       	movw	r24, r28
     342:	01 96       	adiw	r24, 0x01	; 1
     344:	0e 94 a2 10 	call	0x2144	; 0x2144 <String::String(char const*)>
     348:	ce 01       	movw	r24, r28
     34a:	01 96       	adiw	r24, 0x01	; 1
     34c:	0e 94 70 01 	call	0x2e0	; 0x2e0 <SendBt(String)>
     350:	ce 01       	movw	r24, r28
     352:	01 96       	adiw	r24, 0x01	; 1
     354:	0e 94 33 10 	call	0x2066	; 0x2066 <String::~String()>
     358:	62 e3       	ldi	r22, 0x32	; 50
     35a:	70 e0       	ldi	r23, 0x00	; 0
     35c:	80 e0       	ldi	r24, 0x00	; 0
     35e:	90 e0       	ldi	r25, 0x00	; 0
     360:	0e 94 31 0d 	call	0x1a62	; 0x1a62 <delay>
     364:	26 96       	adiw	r28, 0x06	; 6
     366:	0f b6       	in	r0, 0x3f	; 63
     368:	f8 94       	cli
     36a:	de bf       	out	0x3e, r29	; 62
     36c:	0f be       	out	0x3f, r0	; 63
     36e:	cd bf       	out	0x3d, r28	; 61
     370:	df 91       	pop	r29
     372:	cf 91       	pop	r28
     374:	08 95       	ret

00000376 <GetStatusBt()>:
_Z11GetStatusBtv():
     376:	80 91 07 01 	lds	r24, 0x0107	; 0x800107 <bt_module_status>
     37a:	08 95       	ret

0000037c <pickupCall()>:
_Z10pickupCallv():
     37c:	cf 93       	push	r28
     37e:	df 93       	push	r29
     380:	00 d0       	rcall	.+0      	; 0x382 <pickupCall()+0x6>
     382:	00 d0       	rcall	.+0      	; 0x384 <pickupCall()+0x8>
     384:	00 d0       	rcall	.+0      	; 0x386 <pickupCall()+0xa>
     386:	cd b7       	in	r28, 0x3d	; 61
     388:	de b7       	in	r29, 0x3e	; 62
     38a:	68 e5       	ldi	r22, 0x58	; 88
     38c:	71 e0       	ldi	r23, 0x01	; 1
     38e:	ce 01       	movw	r24, r28
     390:	01 96       	adiw	r24, 0x01	; 1
     392:	0e 94 a2 10 	call	0x2144	; 0x2144 <String::String(char const*)>
     396:	ce 01       	movw	r24, r28
     398:	01 96       	adiw	r24, 0x01	; 1
     39a:	0e 94 70 01 	call	0x2e0	; 0x2e0 <SendBt(String)>
     39e:	ce 01       	movw	r24, r28
     3a0:	01 96       	adiw	r24, 0x01	; 1
     3a2:	0e 94 33 10 	call	0x2066	; 0x2066 <String::~String()>
     3a6:	26 96       	adiw	r28, 0x06	; 6
     3a8:	0f b6       	in	r0, 0x3f	; 63
     3aa:	f8 94       	cli
     3ac:	de bf       	out	0x3e, r29	; 62
     3ae:	0f be       	out	0x3f, r0	; 63
     3b0:	cd bf       	out	0x3d, r28	; 61
     3b2:	df 91       	pop	r29
     3b4:	cf 91       	pop	r28
     3b6:	08 95       	ret

000003b8 <hangUpCall()>:
_Z10hangUpCallv():
     3b8:	cf 93       	push	r28
     3ba:	df 93       	push	r29
     3bc:	00 d0       	rcall	.+0      	; 0x3be <hangUpCall()+0x6>
     3be:	00 d0       	rcall	.+0      	; 0x3c0 <hangUpCall()+0x8>
     3c0:	00 d0       	rcall	.+0      	; 0x3c2 <hangUpCall()+0xa>
     3c2:	cd b7       	in	r28, 0x3d	; 61
     3c4:	de b7       	in	r29, 0x3e	; 62
     3c6:	60 e6       	ldi	r22, 0x60	; 96
     3c8:	71 e0       	ldi	r23, 0x01	; 1
     3ca:	ce 01       	movw	r24, r28
     3cc:	01 96       	adiw	r24, 0x01	; 1
     3ce:	0e 94 a2 10 	call	0x2144	; 0x2144 <String::String(char const*)>
     3d2:	ce 01       	movw	r24, r28
     3d4:	01 96       	adiw	r24, 0x01	; 1
     3d6:	0e 94 70 01 	call	0x2e0	; 0x2e0 <SendBt(String)>
     3da:	ce 01       	movw	r24, r28
     3dc:	01 96       	adiw	r24, 0x01	; 1
     3de:	0e 94 33 10 	call	0x2066	; 0x2066 <String::~String()>
     3e2:	26 96       	adiw	r28, 0x06	; 6
     3e4:	0f b6       	in	r0, 0x3f	; 63
     3e6:	f8 94       	cli
     3e8:	de bf       	out	0x3e, r29	; 62
     3ea:	0f be       	out	0x3f, r0	; 63
     3ec:	cd bf       	out	0x3d, r28	; 61
     3ee:	df 91       	pop	r29
     3f0:	cf 91       	pop	r28
     3f2:	08 95       	ret

000003f4 <redialLastCall()>:
_Z14redialLastCallv():
     3f4:	cf 93       	push	r28
     3f6:	df 93       	push	r29
     3f8:	00 d0       	rcall	.+0      	; 0x3fa <redialLastCall()+0x6>
     3fa:	00 d0       	rcall	.+0      	; 0x3fc <redialLastCall()+0x8>
     3fc:	00 d0       	rcall	.+0      	; 0x3fe <redialLastCall()+0xa>
     3fe:	cd b7       	in	r28, 0x3d	; 61
     400:	de b7       	in	r29, 0x3e	; 62
     402:	68 e6       	ldi	r22, 0x68	; 104
     404:	71 e0       	ldi	r23, 0x01	; 1
     406:	ce 01       	movw	r24, r28
     408:	01 96       	adiw	r24, 0x01	; 1
     40a:	0e 94 a2 10 	call	0x2144	; 0x2144 <String::String(char const*)>
     40e:	ce 01       	movw	r24, r28
     410:	01 96       	adiw	r24, 0x01	; 1
     412:	0e 94 70 01 	call	0x2e0	; 0x2e0 <SendBt(String)>
     416:	ce 01       	movw	r24, r28
     418:	01 96       	adiw	r24, 0x01	; 1
     41a:	0e 94 33 10 	call	0x2066	; 0x2066 <String::~String()>
     41e:	26 96       	adiw	r28, 0x06	; 6
     420:	0f b6       	in	r0, 0x3f	; 63
     422:	f8 94       	cli
     424:	de bf       	out	0x3e, r29	; 62
     426:	0f be       	out	0x3f, r0	; 63
     428:	cd bf       	out	0x3d, r28	; 61
     42a:	df 91       	pop	r29
     42c:	cf 91       	pop	r28
     42e:	08 95       	ret

00000430 <play()>:
_Z4playv():
     430:	cf 93       	push	r28
     432:	df 93       	push	r29
     434:	00 d0       	rcall	.+0      	; 0x436 <play()+0x6>
     436:	00 d0       	rcall	.+0      	; 0x438 <play()+0x8>
     438:	00 d0       	rcall	.+0      	; 0x43a <play()+0xa>
     43a:	cd b7       	in	r28, 0x3d	; 61
     43c:	de b7       	in	r29, 0x3e	; 62
     43e:	60 e7       	ldi	r22, 0x70	; 112
     440:	71 e0       	ldi	r23, 0x01	; 1
     442:	ce 01       	movw	r24, r28
     444:	01 96       	adiw	r24, 0x01	; 1
     446:	0e 94 a2 10 	call	0x2144	; 0x2144 <String::String(char const*)>
     44a:	ce 01       	movw	r24, r28
     44c:	01 96       	adiw	r24, 0x01	; 1
     44e:	0e 94 70 01 	call	0x2e0	; 0x2e0 <SendBt(String)>
     452:	ce 01       	movw	r24, r28
     454:	01 96       	adiw	r24, 0x01	; 1
     456:	0e 94 33 10 	call	0x2066	; 0x2066 <String::~String()>
     45a:	26 96       	adiw	r28, 0x06	; 6
     45c:	0f b6       	in	r0, 0x3f	; 63
     45e:	f8 94       	cli
     460:	de bf       	out	0x3e, r29	; 62
     462:	0f be       	out	0x3f, r0	; 63
     464:	cd bf       	out	0x3d, r28	; 61
     466:	df 91       	pop	r29
     468:	cf 91       	pop	r28
     46a:	08 95       	ret

0000046c <pause()>:
_Z5pausev():
     46c:	cf 93       	push	r28
     46e:	df 93       	push	r29
     470:	00 d0       	rcall	.+0      	; 0x472 <pause()+0x6>
     472:	00 d0       	rcall	.+0      	; 0x474 <pause()+0x8>
     474:	00 d0       	rcall	.+0      	; 0x476 <pause()+0xa>
     476:	cd b7       	in	r28, 0x3d	; 61
     478:	de b7       	in	r29, 0x3e	; 62
     47a:	69 e7       	ldi	r22, 0x79	; 121
     47c:	71 e0       	ldi	r23, 0x01	; 1
     47e:	ce 01       	movw	r24, r28
     480:	01 96       	adiw	r24, 0x01	; 1
     482:	0e 94 a2 10 	call	0x2144	; 0x2144 <String::String(char const*)>
     486:	ce 01       	movw	r24, r28
     488:	01 96       	adiw	r24, 0x01	; 1
     48a:	0e 94 70 01 	call	0x2e0	; 0x2e0 <SendBt(String)>
     48e:	ce 01       	movw	r24, r28
     490:	01 96       	adiw	r24, 0x01	; 1
     492:	0e 94 33 10 	call	0x2066	; 0x2066 <String::~String()>
     496:	26 96       	adiw	r28, 0x06	; 6
     498:	0f b6       	in	r0, 0x3f	; 63
     49a:	f8 94       	cli
     49c:	de bf       	out	0x3e, r29	; 62
     49e:	0f be       	out	0x3f, r0	; 63
     4a0:	cd bf       	out	0x3d, r28	; 61
     4a2:	df 91       	pop	r29
     4a4:	cf 91       	pop	r28
     4a6:	08 95       	ret

000004a8 <nextTrack()>:
_Z9nextTrackv():
     4a8:	cf 93       	push	r28
     4aa:	df 93       	push	r29
     4ac:	00 d0       	rcall	.+0      	; 0x4ae <nextTrack()+0x6>
     4ae:	00 d0       	rcall	.+0      	; 0x4b0 <nextTrack()+0x8>
     4b0:	00 d0       	rcall	.+0      	; 0x4b2 <nextTrack()+0xa>
     4b2:	cd b7       	in	r28, 0x3d	; 61
     4b4:	de b7       	in	r29, 0x3e	; 62
     4b6:	62 e8       	ldi	r22, 0x82	; 130
     4b8:	71 e0       	ldi	r23, 0x01	; 1
     4ba:	ce 01       	movw	r24, r28
     4bc:	01 96       	adiw	r24, 0x01	; 1
     4be:	0e 94 a2 10 	call	0x2144	; 0x2144 <String::String(char const*)>
     4c2:	ce 01       	movw	r24, r28
     4c4:	01 96       	adiw	r24, 0x01	; 1
     4c6:	0e 94 70 01 	call	0x2e0	; 0x2e0 <SendBt(String)>
     4ca:	ce 01       	movw	r24, r28
     4cc:	01 96       	adiw	r24, 0x01	; 1
     4ce:	0e 94 33 10 	call	0x2066	; 0x2066 <String::~String()>
     4d2:	26 96       	adiw	r28, 0x06	; 6
     4d4:	0f b6       	in	r0, 0x3f	; 63
     4d6:	f8 94       	cli
     4d8:	de bf       	out	0x3e, r29	; 62
     4da:	0f be       	out	0x3f, r0	; 63
     4dc:	cd bf       	out	0x3d, r28	; 61
     4de:	df 91       	pop	r29
     4e0:	cf 91       	pop	r28
     4e2:	08 95       	ret

000004e4 <previousTrack()>:
_Z13previousTrackv():
     4e4:	cf 93       	push	r28
     4e6:	df 93       	push	r29
     4e8:	00 d0       	rcall	.+0      	; 0x4ea <previousTrack()+0x6>
     4ea:	00 d0       	rcall	.+0      	; 0x4ec <previousTrack()+0x8>
     4ec:	00 d0       	rcall	.+0      	; 0x4ee <previousTrack()+0xa>
     4ee:	cd b7       	in	r28, 0x3d	; 61
     4f0:	de b7       	in	r29, 0x3e	; 62
     4f2:	6b e8       	ldi	r22, 0x8B	; 139
     4f4:	71 e0       	ldi	r23, 0x01	; 1
     4f6:	ce 01       	movw	r24, r28
     4f8:	01 96       	adiw	r24, 0x01	; 1
     4fa:	0e 94 a2 10 	call	0x2144	; 0x2144 <String::String(char const*)>
     4fe:	ce 01       	movw	r24, r28
     500:	01 96       	adiw	r24, 0x01	; 1
     502:	0e 94 70 01 	call	0x2e0	; 0x2e0 <SendBt(String)>
     506:	ce 01       	movw	r24, r28
     508:	01 96       	adiw	r24, 0x01	; 1
     50a:	0e 94 33 10 	call	0x2066	; 0x2066 <String::~String()>
     50e:	26 96       	adiw	r28, 0x06	; 6
     510:	0f b6       	in	r0, 0x3f	; 63
     512:	f8 94       	cli
     514:	de bf       	out	0x3e, r29	; 62
     516:	0f be       	out	0x3f, r0	; 63
     518:	cd bf       	out	0x3d, r28	; 61
     51a:	df 91       	pop	r29
     51c:	cf 91       	pop	r28
     51e:	08 95       	ret

00000520 <receiver()>:
_Z8receiverv():
     520:	cf 93       	push	r28
     522:	df 93       	push	r29
     524:	00 d0       	rcall	.+0      	; 0x526 <receiver()+0x6>
     526:	00 d0       	rcall	.+0      	; 0x528 <receiver()+0x8>
     528:	00 d0       	rcall	.+0      	; 0x52a <receiver()+0xa>
     52a:	cd b7       	in	r28, 0x3d	; 61
     52c:	de b7       	in	r29, 0x3e	; 62
     52e:	64 e9       	ldi	r22, 0x94	; 148
     530:	71 e0       	ldi	r23, 0x01	; 1
     532:	ce 01       	movw	r24, r28
     534:	01 96       	adiw	r24, 0x01	; 1
     536:	0e 94 a2 10 	call	0x2144	; 0x2144 <String::String(char const*)>
     53a:	ce 01       	movw	r24, r28
     53c:	01 96       	adiw	r24, 0x01	; 1
     53e:	0e 94 70 01 	call	0x2e0	; 0x2e0 <SendBt(String)>
     542:	ce 01       	movw	r24, r28
     544:	01 96       	adiw	r24, 0x01	; 1
     546:	0e 94 33 10 	call	0x2066	; 0x2066 <String::~String()>
     54a:	26 96       	adiw	r28, 0x06	; 6
     54c:	0f b6       	in	r0, 0x3f	; 63
     54e:	f8 94       	cli
     550:	de bf       	out	0x3e, r29	; 62
     552:	0f be       	out	0x3f, r0	; 63
     554:	cd bf       	out	0x3d, r28	; 61
     556:	df 91       	pop	r29
     558:	cf 91       	pop	r28
     55a:	08 95       	ret

0000055c <_GLOBAL__sub_I_BtSerial>:
_GLOBAL__sub_I_BtSerial():
C:\Users\mateu\AppData\Local\Temp\arduino_build_549653\sketch/bluetooth_module.cpp:6
#include "bluetooth_module.h"
#include "cdc_function.h"
#include <SoftwareSerial.h>
#include <Arduino.h>

SoftwareSerial BtSerial(3, 4); // RX, TX
     55c:	20 e0       	ldi	r18, 0x00	; 0
     55e:	44 e0       	ldi	r20, 0x04	; 4
     560:	63 e0       	ldi	r22, 0x03	; 3
     562:	86 e2       	ldi	r24, 0x26	; 38
     564:	92 e0       	ldi	r25, 0x02	; 2
     566:	0e 94 96 0b 	call	0x172c	; 0x172c <SoftwareSerial::SoftwareSerial(signed char, signed char, bool)>
C:\Users\mateu\AppData\Local\Temp\arduino_build_549653\sketch/bluetooth_module.cpp:8

String bt_serial_data = "";
     56a:	6e e3       	ldi	r22, 0x3E	; 62
     56c:	71 e0       	ldi	r23, 0x01	; 1
     56e:	80 e2       	ldi	r24, 0x20	; 32
     570:	92 e0       	ldi	r25, 0x02	; 2
     572:	0e 94 a2 10 	call	0x2144	; 0x2144 <String::String(char const*)>
C:\Users\mateu\AppData\Local\Temp\arduino_build_549653\sketch/bluetooth_module.cpp:9
String bt_last_serial_data = "";
     576:	6e e3       	ldi	r22, 0x3E	; 62
     578:	71 e0       	ldi	r23, 0x01	; 1
     57a:	8a e1       	ldi	r24, 0x1A	; 26
     57c:	92 e0       	ldi	r25, 0x02	; 2
     57e:	0c 94 a2 10 	jmp	0x2144	; 0x2144 <String::String(char const*)>

00000582 <_GLOBAL__sub_D_BtSerial>:
_GLOBAL__sub_D_BtSerial():
     582:	8a e1       	ldi	r24, 0x1A	; 26
     584:	92 e0       	ldi	r25, 0x02	; 2
     586:	0e 94 33 10 	call	0x2066	; 0x2066 <String::~String()>
C:\Users\mateu\AppData\Local\Temp\arduino_build_549653\sketch/bluetooth_module.cpp:8
#include <SoftwareSerial.h>
#include <Arduino.h>

SoftwareSerial BtSerial(3, 4); // RX, TX

String bt_serial_data = "";
     58a:	80 e2       	ldi	r24, 0x20	; 32
     58c:	92 e0       	ldi	r25, 0x02	; 2
     58e:	0e 94 33 10 	call	0x2066	; 0x2066 <String::~String()>
C:\Users\mateu\AppData\Local\Temp\arduino_build_549653\sketch/bluetooth_module.cpp:6
#include "bluetooth_module.h"
#include "cdc_function.h"
#include <SoftwareSerial.h>
#include <Arduino.h>

SoftwareSerial BtSerial(3, 4); // RX, TX
     592:	86 e2       	ldi	r24, 0x26	; 38
     594:	92 e0       	ldi	r25, 0x02	; 2
     596:	0c 94 3b 0b 	jmp	0x1676	; 0x1676 <SoftwareSerial::~SoftwareSerial()>

0000059a <CheckStateBt()>:
_Z12CheckStateBtv():
C:\Users\mateu\AppData\Local\Temp\arduino_build_549653\sketch/bluetooth_module.cpp:36
  Serial.println("init done");
  */
}


void CheckStateBt() {  
     59a:	0f 93       	push	r16
     59c:	1f 93       	push	r17
     59e:	cf 93       	push	r28
     5a0:	df 93       	push	r29
     5a2:	00 d0       	rcall	.+0      	; 0x5a4 <CheckStateBt()+0xa>
     5a4:	00 d0       	rcall	.+0      	; 0x5a6 <CheckStateBt()+0xc>
     5a6:	00 d0       	rcall	.+0      	; 0x5a8 <CheckStateBt()+0xe>
     5a8:	cd b7       	in	r28, 0x3d	; 61
     5aa:	de b7       	in	r29, 0x3e	; 62
C:\Users\mateu\AppData\Local\Temp\arduino_build_549653\sketch/bluetooth_module.cpp:40

  #ifdef CHIP_BK3254

    if(GetFlag500ms() == true) {  //every 500ms
     5ac:	0e 94 c9 09 	call	0x1392	; 0x1392 <GetFlag500ms()>
     5b0:	81 30       	cpi	r24, 0x01	; 1
     5b2:	81 f4       	brne	.+32     	; 0x5d4 <CheckStateBt()+0x3a>
C:\Users\mateu\AppData\Local\Temp\arduino_build_549653\sketch/bluetooth_module.cpp:41
      SendBt("AT+MY\r\n");
     5b4:	6e e9       	ldi	r22, 0x9E	; 158
     5b6:	71 e0       	ldi	r23, 0x01	; 1
     5b8:	ce 01       	movw	r24, r28
     5ba:	01 96       	adiw	r24, 0x01	; 1
     5bc:	0e 94 a2 10 	call	0x2144	; 0x2144 <String::String(char const*)>
     5c0:	ce 01       	movw	r24, r28
     5c2:	01 96       	adiw	r24, 0x01	; 1
     5c4:	0e 94 70 01 	call	0x2e0	; 0x2e0 <SendBt(String)>
     5c8:	ce 01       	movw	r24, r28
     5ca:	01 96       	adiw	r24, 0x01	; 1
     5cc:	0e 94 33 10 	call	0x2066	; 0x2066 <String::~String()>
C:\Users\mateu\AppData\Local\Temp\arduino_build_549653\sketch/bluetooth_module.cpp:42
      ClearFlag500ms();
     5d0:	0e 94 d0 09 	call	0x13a0	; 0x13a0 <ClearFlag500ms()>
C:\Users\mateu\AppData\Local\Temp\arduino_build_549653\sketch/bluetooth_module.cpp:45
    }
    
    if (BtSerial.available() > 0) { // if we have something
     5d4:	86 e2       	ldi	r24, 0x26	; 38
     5d6:	92 e0       	ldi	r25, 0x02	; 2
     5d8:	0e 94 6c 0a 	call	0x14d8	; 0x14d8 <SoftwareSerial::available()>
     5dc:	18 16       	cp	r1, r24
     5de:	19 06       	cpc	r1, r25
     5e0:	b4 f4       	brge	.+44     	; 0x60e <CheckStateBt()+0x74>
C:\Users\mateu\AppData\Local\Temp\arduino_build_549653\sketch/bluetooth_module.cpp:50
      while (BtSerial.available())  {
        char sign2 = (char)BtSerial.read();
        bt_serial_data += sign2;
        if(sign2 == '\n')  {
          bt_serial_data_ready = true;
     5e2:	01 e0       	ldi	r16, 0x01	; 1
C:\Users\mateu\AppData\Local\Temp\arduino_build_549653\sketch/bluetooth_module.cpp:46
      SendBt("AT+MY\r\n");
      ClearFlag500ms();
    }
    
    if (BtSerial.available() > 0) { // if we have something
      while (BtSerial.available())  {
     5e4:	86 e2       	ldi	r24, 0x26	; 38
     5e6:	92 e0       	ldi	r25, 0x02	; 2
     5e8:	0e 94 6c 0a 	call	0x14d8	; 0x14d8 <SoftwareSerial::available()>
     5ec:	89 2b       	or	r24, r25
     5ee:	79 f0       	breq	.+30     	; 0x60e <CheckStateBt()+0x74>
C:\Users\mateu\AppData\Local\Temp\arduino_build_549653\sketch/bluetooth_module.cpp:47
        char sign2 = (char)BtSerial.read();
     5f0:	86 e2       	ldi	r24, 0x26	; 38
     5f2:	92 e0       	ldi	r25, 0x02	; 2
     5f4:	0e 94 d6 09 	call	0x13ac	; 0x13ac <SoftwareSerial::read()>
     5f8:	18 2f       	mov	r17, r24
_ZN6StringpLEc():
C:\Users\mateu\AppData\Local\Arduino15\packages\MiniCore\hardware\avr\2.0.9\cores\MCUdude_corefiles/WString.h:115

  // if there's not enough memory for the concatenated value, the string
  // will be left unchanged (but this isn't signalled in any way)
  String & operator += (const String &rhs)  {concat(rhs); return (*this);}
  String & operator += (const char *cstr)   {concat(cstr); return (*this);}
  String & operator += (char c)     {concat(c); return (*this);}
     5fa:	68 2f       	mov	r22, r24
     5fc:	80 e2       	ldi	r24, 0x20	; 32
     5fe:	92 e0       	ldi	r25, 0x02	; 2
     600:	0e 94 13 11 	call	0x2226	; 0x2226 <String::concat(char)>
_Z12CheckStateBtv():
C:\Users\mateu\AppData\Local\Temp\arduino_build_549653\sketch/bluetooth_module.cpp:49
        bt_serial_data += sign2;
        if(sign2 == '\n')  {
     604:	1a 30       	cpi	r17, 0x0A	; 10
     606:	71 f7       	brne	.-36     	; 0x5e4 <CheckStateBt()+0x4a>
C:\Users\mateu\AppData\Local\Temp\arduino_build_549653\sketch/bluetooth_module.cpp:50
          bt_serial_data_ready = true;
     608:	00 93 19 02 	sts	0x0219, r16	; 0x800219 <bt_serial_data_ready>
     60c:	eb cf       	rjmp	.-42     	; 0x5e4 <CheckStateBt()+0x4a>
C:\Users\mateu\AppData\Local\Temp\arduino_build_549653\sketch/bluetooth_module.cpp:55
        }
      }
    }

    if((bt_serial_data_ready == true) && (bt_serial_data != bt_last_serial_data))  {
     60e:	80 91 19 02 	lds	r24, 0x0219	; 0x800219 <bt_serial_data_ready>
     612:	88 23       	and	r24, r24
     614:	09 f4       	brne	.+2      	; 0x618 <CheckStateBt()+0x7e>
     616:	4b c0       	rjmp	.+150    	; 0x6ae <CheckStateBt()+0x114>
_ZNK6StringneERKS_():
C:\Users\mateu\AppData\Local\Arduino15\packages\MiniCore\hardware\avr\2.0.9\cores\MCUdude_corefiles/WString.h:144
  int compareTo(const String &s) const;
  unsigned char equals(const String &s) const;
  unsigned char equals(const char *cstr) const;
  unsigned char operator == (const String &rhs) const {return equals(rhs);}
  unsigned char operator == (const char *cstr) const {return equals(cstr);}
  unsigned char operator != (const String &rhs) const {return !equals(rhs);}
     618:	6a e1       	ldi	r22, 0x1A	; 26
     61a:	72 e0       	ldi	r23, 0x02	; 2
     61c:	80 e2       	ldi	r24, 0x20	; 32
     61e:	92 e0       	ldi	r25, 0x02	; 2
     620:	0e 94 53 11 	call	0x22a6	; 0x22a6 <String::equals(String const&) const>
_Z12CheckStateBtv():
C:\Users\mateu\AppData\Local\Temp\arduino_build_549653\sketch/bluetooth_module.cpp:55
     624:	81 11       	cpse	r24, r1
     626:	43 c0       	rjmp	.+134    	; 0x6ae <CheckStateBt()+0x114>
_ZNK6StringeqEPKc():
C:\Users\mateu\AppData\Local\Arduino15\packages\MiniCore\hardware\avr\2.0.9\cores\MCUdude_corefiles/WString.h:143
  operator StringIfHelperType() const { return buffer ? &String::StringIfHelper : 0; }
  int compareTo(const String &s) const;
  unsigned char equals(const String &s) const;
  unsigned char equals(const char *cstr) const;
  unsigned char operator == (const String &rhs) const {return equals(rhs);}
  unsigned char operator == (const char *cstr) const {return equals(cstr);}
     628:	66 ea       	ldi	r22, 0xA6	; 166
     62a:	71 e0       	ldi	r23, 0x01	; 1
     62c:	80 e2       	ldi	r24, 0x20	; 32
     62e:	92 e0       	ldi	r25, 0x02	; 2
     630:	0e 94 64 11 	call	0x22c8	; 0x22c8 <String::equals(char const*) const>
_Z12CheckStateBtv():
C:\Users\mateu\AppData\Local\Temp\arduino_build_549653\sketch/bluetooth_module.cpp:57
  
      if(bt_serial_data == "M4\r\n")  { 
     634:	88 23       	and	r24, r24
     636:	19 f0       	breq	.+6      	; 0x63e <CheckStateBt()+0xa4>
C:\Users\mateu\AppData\Local\Temp\arduino_build_549653\sketch/bluetooth_module.cpp:58
        bt_module_status = CALL_IN_PROGRESS;
     638:	82 e0       	ldi	r24, 0x02	; 2
     63a:	80 93 07 01 	sts	0x0107, r24	; 0x800107 <bt_module_status>
_ZNK6StringeqEPKc():
C:\Users\mateu\AppData\Local\Arduino15\packages\MiniCore\hardware\avr\2.0.9\cores\MCUdude_corefiles/WString.h:143
     63e:	6b ea       	ldi	r22, 0xAB	; 171
     640:	71 e0       	ldi	r23, 0x01	; 1
     642:	80 e2       	ldi	r24, 0x20	; 32
     644:	92 e0       	ldi	r25, 0x02	; 2
     646:	0e 94 64 11 	call	0x22c8	; 0x22c8 <String::equals(char const*) const>
_Z12CheckStateBtv():
C:\Users\mateu\AppData\Local\Temp\arduino_build_549653\sketch/bluetooth_module.cpp:60
      }
      if(bt_serial_data == "M3\r\n")  { 
     64a:	88 23       	and	r24, r24
     64c:	19 f0       	breq	.+6      	; 0x654 <CheckStateBt()+0xba>
C:\Users\mateu\AppData\Local\Temp\arduino_build_549653\sketch/bluetooth_module.cpp:61
        bt_module_status = OUTGOING_CALL;
     64e:	84 e0       	ldi	r24, 0x04	; 4
     650:	80 93 07 01 	sts	0x0107, r24	; 0x800107 <bt_module_status>
_ZNK6StringeqEPKc():
C:\Users\mateu\AppData\Local\Arduino15\packages\MiniCore\hardware\avr\2.0.9\cores\MCUdude_corefiles/WString.h:143
     654:	60 eb       	ldi	r22, 0xB0	; 176
     656:	71 e0       	ldi	r23, 0x01	; 1
     658:	80 e2       	ldi	r24, 0x20	; 32
     65a:	92 e0       	ldi	r25, 0x02	; 2
     65c:	0e 94 64 11 	call	0x22c8	; 0x22c8 <String::equals(char const*) const>
_Z12CheckStateBtv():
C:\Users\mateu\AppData\Local\Temp\arduino_build_549653\sketch/bluetooth_module.cpp:63
      }
      if(bt_serial_data == "M2\r\n")  { 
     660:	88 23       	and	r24, r24
     662:	19 f0       	breq	.+6      	; 0x66a <CheckStateBt()+0xd0>
C:\Users\mateu\AppData\Local\Temp\arduino_build_549653\sketch/bluetooth_module.cpp:64
        bt_module_status = INCOMING_CALL;
     664:	83 e0       	ldi	r24, 0x03	; 3
     666:	80 93 07 01 	sts	0x0107, r24	; 0x800107 <bt_module_status>
_ZNK6StringeqEPKc():
C:\Users\mateu\AppData\Local\Arduino15\packages\MiniCore\hardware\avr\2.0.9\cores\MCUdude_corefiles/WString.h:143
     66a:	65 eb       	ldi	r22, 0xB5	; 181
     66c:	71 e0       	ldi	r23, 0x01	; 1
     66e:	80 e2       	ldi	r24, 0x20	; 32
     670:	92 e0       	ldi	r25, 0x02	; 2
     672:	0e 94 64 11 	call	0x22c8	; 0x22c8 <String::equals(char const*) const>
_Z12CheckStateBtv():
C:\Users\mateu\AppData\Local\Temp\arduino_build_549653\sketch/bluetooth_module.cpp:66
      }
      if(bt_serial_data == "M1\r\n") { 
     676:	88 23       	and	r24, r24
     678:	19 f0       	breq	.+6      	; 0x680 <CheckStateBt()+0xe6>
C:\Users\mateu\AppData\Local\Temp\arduino_build_549653\sketch/bluetooth_module.cpp:67
        bt_module_status = CONNECTED_IDLE;
     67a:	81 e0       	ldi	r24, 0x01	; 1
     67c:	80 93 07 01 	sts	0x0107, r24	; 0x800107 <bt_module_status>
_ZNK6StringeqEPKc():
C:\Users\mateu\AppData\Local\Arduino15\packages\MiniCore\hardware\avr\2.0.9\cores\MCUdude_corefiles/WString.h:143
     680:	6a eb       	ldi	r22, 0xBA	; 186
     682:	71 e0       	ldi	r23, 0x01	; 1
     684:	80 e2       	ldi	r24, 0x20	; 32
     686:	92 e0       	ldi	r25, 0x02	; 2
     688:	0e 94 64 11 	call	0x22c8	; 0x22c8 <String::equals(char const*) const>
_Z12CheckStateBtv():
C:\Users\mateu\AppData\Local\Temp\arduino_build_549653\sketch/bluetooth_module.cpp:69
      }
      if(bt_serial_data == "M0\r\n") { 
     68c:	81 11       	cpse	r24, r1
C:\Users\mateu\AppData\Local\Temp\arduino_build_549653\sketch/bluetooth_module.cpp:70
        bt_module_status = DISCONNECTED;
     68e:	10 92 07 01 	sts	0x0107, r1	; 0x800107 <bt_module_status>
C:\Users\mateu\AppData\Local\Temp\arduino_build_549653\sketch/bluetooth_module.cpp:73
      }

      bt_last_serial_data = bt_serial_data; 
     692:	60 e2       	ldi	r22, 0x20	; 32
     694:	72 e0       	ldi	r23, 0x02	; 2
     696:	8a e1       	ldi	r24, 0x1A	; 26
     698:	92 e0       	ldi	r25, 0x02	; 2
     69a:	0e 94 c1 10 	call	0x2182	; 0x2182 <String::operator=(String const&)>
C:\Users\mateu\AppData\Local\Temp\arduino_build_549653\sketch/bluetooth_module.cpp:74
      bt_serial_data_ready = false; //reset flag
     69e:	10 92 19 02 	sts	0x0219, r1	; 0x800219 <bt_serial_data_ready>
C:\Users\mateu\AppData\Local\Temp\arduino_build_549653\sketch/bluetooth_module.cpp:75
      bt_serial_data = "";  //clear data
     6a2:	6e e3       	ldi	r22, 0x3E	; 62
     6a4:	71 e0       	ldi	r23, 0x01	; 1
     6a6:	80 e2       	ldi	r24, 0x20	; 32
     6a8:	92 e0       	ldi	r25, 0x02	; 2
     6aa:	0e 94 d8 10 	call	0x21b0	; 0x21b0 <String::operator=(char const*)>
C:\Users\mateu\AppData\Local\Temp\arduino_build_549653\sketch/bluetooth_module.cpp:187
          break;
      }
      bt_last_module_status = bt_module_status;
    }
  #endif
}
     6ae:	26 96       	adiw	r28, 0x06	; 6
     6b0:	0f b6       	in	r0, 0x3f	; 63
     6b2:	f8 94       	cli
     6b4:	de bf       	out	0x3e, r29	; 62
     6b6:	0f be       	out	0x3f, r0	; 63
     6b8:	cd bf       	out	0x3d, r28	; 61
     6ba:	df 91       	pop	r29
     6bc:	cf 91       	pop	r28
     6be:	1f 91       	pop	r17
     6c0:	0f 91       	pop	r16
     6c2:	08 95       	ret

000006c4 <main>:
_ZN14HardwareSerial5beginEm():
C:\Users\mateu\AppData\Local\Arduino15\packages\MiniCore\hardware\avr\2.0.9\cores\MCUdude_corefiles/HardwareSerial.h:121
  public:
    inline HardwareSerial(
      volatile uint8_t *ubrrh, volatile uint8_t *ubrrl,
      volatile uint8_t *ucsra, volatile uint8_t *ucsrb,
      volatile uint8_t *ucsrc, volatile uint8_t *udr);
    void begin(unsigned long baud) { begin(baud, SERIAL_8N1); }
     6c4:	26 e0       	ldi	r18, 0x06	; 6
     6c6:	40 e8       	ldi	r20, 0x80	; 128
     6c8:	55 e2       	ldi	r21, 0x25	; 37
     6ca:	60 e0       	ldi	r22, 0x00	; 0
     6cc:	70 e0       	ldi	r23, 0x00	; 0
     6ce:	88 ef       	ldi	r24, 0xF8	; 248
     6d0:	92 e0       	ldi	r25, 0x02	; 2
     6d2:	0e 94 df 0e 	call	0x1dbe	; 0x1dbe <HardwareSerial::begin(unsigned long, unsigned char)>
main():
D:\%Audi\cdc_arduino_modified_v2/cdc_arduino_modified_v2.ino:65

int main()
{
  Serial.begin(9600);
  
  Init_VWCDC();
     6d6:	0e 94 11 05 	call	0xa22	; 0xa22 <Init_VWCDC()>
D:\%Audi\cdc_arduino_modified_v2/cdc_arduino_modified_v2.ino:66
  InitRemote();
     6da:	0e 94 1e 01 	call	0x23c	; 0x23c <InitRemote()>
D:\%Audi\cdc_arduino_modified_v2/cdc_arduino_modified_v2.ino:67
  InitBtModule();
     6de:	0e 94 75 01 	call	0x2ea	; 0x2ea <InitBtModule()>
D:\%Audi\cdc_arduino_modified_v2/cdc_arduino_modified_v2.ino:71 (discriminator 1)

  while (1)
  {
    CheckStateBt();
     6e2:	0e 94 cd 02 	call	0x59a	; 0x59a <CheckStateBt()>
D:\%Audi\cdc_arduino_modified_v2/cdc_arduino_modified_v2.ino:72 (discriminator 1)
    CDC_Protocol();
     6e6:	0e 94 03 07 	call	0xe06	; 0xe06 <CDC_Protocol()>
D:\%Audi\cdc_arduino_modified_v2/cdc_arduino_modified_v2.ino:73 (discriminator 1)
    RemoteProtocol();
     6ea:	0e 94 25 01 	call	0x24a	; 0x24a <RemoteProtocol()>
     6ee:	f9 cf       	rjmp	.-14     	; 0x6e2 <main+0x1e>

000006f0 <GetCaptureByte()>:
_ZL14GetCaptureBytev():
C:\Users\mateu\AppData\Local\Temp\arduino_build_549653\sketch/cdc_function.cpp:2105
}

void ClearFlag100ms()
{
  flag_100ms = false;
}
     6f0:	80 91 a5 02 	lds	r24, 0x02A5	; 0x8002a5 <fsr>
     6f4:	90 91 96 02 	lds	r25, 0x0296	; 0x800296 <capptr>
     6f8:	89 17       	cp	r24, r25
     6fa:	89 f0       	breq	.+34     	; 0x71e <GetCaptureByte()+0x2e>
     6fc:	e8 2f       	mov	r30, r24
     6fe:	f0 e0       	ldi	r31, 0x00	; 0
     700:	eb 5a       	subi	r30, 0xAB	; 171
     702:	fd 4f       	sbci	r31, 0xFD	; 253
     704:	90 81       	ld	r25, Z
     706:	90 93 a4 02 	sts	0x02A4, r25	; 0x8002a4 <scanbyte>
     70a:	8f 5f       	subi	r24, 0xFF	; 255
     70c:	88 31       	cpi	r24, 0x18	; 24
     70e:	21 f0       	breq	.+8      	; 0x718 <GetCaptureByte()+0x28>
     710:	80 93 a5 02 	sts	0x02A5, r24	; 0x8002a5 <fsr>
     714:	81 e0       	ldi	r24, 0x01	; 1
     716:	08 95       	ret
     718:	10 92 a5 02 	sts	0x02A5, r1	; 0x8002a5 <fsr>
     71c:	fb cf       	rjmp	.-10     	; 0x714 <GetCaptureByte()+0x24>
     71e:	80 e0       	ldi	r24, 0x00	; 0
     720:	08 95       	ret

00000722 <SetStateInitPlay()>:
_ZL16SetStateInitPlayv():
     722:	81 e0       	ldi	r24, 0x01	; 1
     724:	80 93 9f 02 	sts	0x029F, r24	; 0x80029f <playing>
     728:	82 e0       	ldi	r24, 0x02	; 2
     72a:	80 93 95 02 	sts	0x0295, r24	; 0x800295 <BIDIstate>
     72e:	81 ed       	ldi	r24, 0xD1	; 209
     730:	80 93 92 02 	sts	0x0292, r24	; 0x800292 <discload>
     734:	88 ee       	ldi	r24, 0xE8	; 232
     736:	80 93 94 02 	sts	0x0294, r24	; 0x800294 <BIDIcount>
     73a:	08 95       	ret

0000073c <EnqueueString(unsigned char const*)>:
_ZL13EnqueueStringPKh():
     73c:	20 91 8e 02 	lds	r18, 0x028E	; 0x80028e <txinptr>
     740:	e2 2f       	mov	r30, r18
     742:	f0 e0       	ldi	r31, 0x00	; 0
     744:	ee 0f       	add	r30, r30
     746:	ff 1f       	adc	r31, r31
     748:	e3 59       	subi	r30, 0x93	; 147
     74a:	fd 4f       	sbci	r31, 0xFD	; 253
     74c:	91 83       	std	Z+1, r25	; 0x01
     74e:	80 83       	st	Z, r24
     750:	2f 5f       	subi	r18, 0xFF	; 255
     752:	2c 30       	cpi	r18, 0x0C	; 12
     754:	19 f0       	breq	.+6      	; 0x75c <EnqueueString(unsigned char const*)+0x20>
     756:	20 93 8e 02 	sts	0x028E, r18	; 0x80028e <txinptr>
     75a:	08 95       	ret
     75c:	10 92 8e 02 	sts	0x028E, r1	; 0x80028e <txinptr>
     760:	08 95       	ret

00000762 <EnqueueHex(unsigned char)>:
_ZL10EnqueueHexh():
     762:	cf 93       	push	r28
     764:	c8 2f       	mov	r28, r24
     766:	86 95       	lsr	r24
     768:	86 95       	lsr	r24
     76a:	86 95       	lsr	r24
     76c:	8e 71       	andi	r24, 0x1E	; 30
     76e:	90 e0       	ldi	r25, 0x00	; 0
     770:	87 54       	subi	r24, 0x47	; 71
     772:	9f 4f       	sbci	r25, 0xFF	; 255
     774:	0e 94 9e 03 	call	0x73c	; 0x73c <EnqueueString(unsigned char const*)>
     778:	cc 0f       	add	r28, r28
     77a:	ce 71       	andi	r28, 0x1E	; 30
     77c:	8c 2f       	mov	r24, r28
     77e:	90 e0       	ldi	r25, 0x00	; 0
     780:	87 54       	subi	r24, 0x47	; 71
     782:	9f 4f       	sbci	r25, 0xFF	; 255
     784:	cf 91       	pop	r28
     786:	0c 94 9e 03 	jmp	0x73c	; 0x73c <EnqueueString(unsigned char const*)>

0000078a <DumpFullCommand()>:
_ZL15DumpFullCommandv():
     78a:	80 91 a6 02 	lds	r24, 0x02A6	; 0x8002a6 <scanptr>
     78e:	80 93 a5 02 	sts	0x02A5, r24	; 0x8002a5 <fsr>
     792:	0e 94 78 03 	call	0x6f0	; 0x6f0 <GetCaptureByte()>
     796:	81 30       	cpi	r24, 0x01	; 1
     798:	21 f4       	brne	.+8      	; 0x7a2 <DumpFullCommand()+0x18>
     79a:	80 91 a4 02 	lds	r24, 0x02A4	; 0x8002a4 <scanbyte>
     79e:	0e 94 b1 03 	call	0x762	; 0x762 <EnqueueHex(unsigned char)>
     7a2:	0e 94 78 03 	call	0x6f0	; 0x6f0 <GetCaptureByte()>
     7a6:	81 30       	cpi	r24, 0x01	; 1
     7a8:	21 f4       	brne	.+8      	; 0x7b2 <DumpFullCommand()+0x28>
     7aa:	80 91 a4 02 	lds	r24, 0x02A4	; 0x8002a4 <scanbyte>
     7ae:	0e 94 b1 03 	call	0x762	; 0x762 <EnqueueHex(unsigned char)>
     7b2:	0e 94 78 03 	call	0x6f0	; 0x6f0 <GetCaptureByte()>
     7b6:	81 30       	cpi	r24, 0x01	; 1
     7b8:	21 f4       	brne	.+8      	; 0x7c2 <DumpFullCommand()+0x38>
     7ba:	80 91 a4 02 	lds	r24, 0x02A4	; 0x8002a4 <scanbyte>
     7be:	0e 94 b1 03 	call	0x762	; 0x762 <EnqueueHex(unsigned char)>
     7c2:	0e 94 78 03 	call	0x6f0	; 0x6f0 <GetCaptureByte()>
     7c6:	81 30       	cpi	r24, 0x01	; 1
     7c8:	21 f4       	brne	.+8      	; 0x7d2 <DumpFullCommand()+0x48>
     7ca:	80 91 a4 02 	lds	r24, 0x02A4	; 0x8002a4 <scanbyte>
     7ce:	0e 94 b1 03 	call	0x762	; 0x762 <EnqueueHex(unsigned char)>
     7d2:	8a eb       	ldi	r24, 0xBA	; 186
     7d4:	90 e0       	ldi	r25, 0x00	; 0
     7d6:	0e 94 9e 03 	call	0x73c	; 0x73c <EnqueueString(unsigned char const*)>
     7da:	80 91 a5 02 	lds	r24, 0x02A5	; 0x8002a5 <fsr>
     7de:	80 93 a6 02 	sts	0x02A6, r24	; 0x8002a6 <scanptr>
     7e2:	08 95       	ret

000007e4 <ResetTime()>:
_ZL9ResetTimev():
     7e4:	8c ee       	ldi	r24, 0xEC	; 236
     7e6:	80 93 90 02 	sts	0x0290, r24	; 0x800290 <secondcount>
     7ea:	10 92 a8 02 	sts	0x02A8, r1	; 0x8002a8 <second>
     7ee:	10 92 a9 02 	sts	0x02A9, r1	; 0x8002a9 <minute>
     7f2:	08 95       	ret

000007f4 <SendByte(unsigned char)>:
_ZL8SendByteh():
     7f4:	90 91 4b 02 	lds	r25, 0x024B	; 0x80024b <SendByte(unsigned char)::display_byte_counter_u8>
     7f8:	e9 2f       	mov	r30, r25
     7fa:	f0 e0       	ldi	r31, 0x00	; 0
     7fc:	eb 57       	subi	r30, 0x7B	; 123
     7fe:	fd 4f       	sbci	r31, 0xFD	; 253
     800:	80 83       	st	Z, r24
     802:	9f 5f       	subi	r25, 0xFF	; 255
     804:	98 30       	cpi	r25, 0x08	; 8
     806:	19 f0       	breq	.+6      	; 0x80e <__DATA_REGION_LENGTH__+0xe>
     808:	90 93 4b 02 	sts	0x024B, r25	; 0x80024b <SendByte(unsigned char)::display_byte_counter_u8>
     80c:	08 95       	ret
     80e:	10 92 4b 02 	sts	0x024B, r1	; 0x80024b <SendByte(unsigned char)::display_byte_counter_u8>
     812:	80 91 b1 00 	lds	r24, 0x00B1	; 0x8000b1 <__TEXT_REGION_LENGTH__+0x7f80b1>
     816:	84 60       	ori	r24, 0x04	; 4
     818:	80 93 b1 00 	sts	0x00B1, r24	; 0x8000b1 <__TEXT_REGION_LENGTH__+0x7f80b1>
     81c:	08 95       	ret

0000081e <SendDisplayBytesInitCD()>:
_ZL22SendDisplayBytesInitCDv():
     81e:	89 e9       	ldi	r24, 0x99	; 153
     820:	0e 94 fa 03 	call	0x7f4	; 0x7f4 <SendByte(unsigned char)>
     824:	89 e9       	ldi	r24, 0x99	; 153
     826:	0e 94 fa 03 	call	0x7f4	; 0x7f4 <SendByte(unsigned char)>
     82a:	89 e5       	ldi	r24, 0x59	; 89
     82c:	0e 94 fa 03 	call	0x7f4	; 0x7f4 <SendByte(unsigned char)>
     830:	89 e4       	ldi	r24, 0x49	; 73
     832:	0c 94 fa 03 	jmp	0x7f4	; 0x7f4 <SendByte(unsigned char)>

00000836 <SendDisplayBytes()>:
_ZL16SendDisplayBytesv():
     836:	80 91 09 01 	lds	r24, 0x0109	; 0x800109 <disc>
     83a:	0e 94 fa 03 	call	0x7f4	; 0x7f4 <SendByte(unsigned char)>
SendDisplayBytesNoCD():
     83e:	80 91 08 01 	lds	r24, 0x0108	; 0x800108 <track>
     842:	0e 94 fa 03 	call	0x7f4	; 0x7f4 <SendByte(unsigned char)>
     846:	80 91 a9 02 	lds	r24, 0x02A9	; 0x8002a9 <minute>
     84a:	0e 94 fa 03 	call	0x7f4	; 0x7f4 <SendByte(unsigned char)>
     84e:	80 91 a8 02 	lds	r24, 0x02A8	; 0x8002a8 <second>
     852:	0e 94 fa 03 	call	0x7f4	; 0x7f4 <SendByte(unsigned char)>
     856:	80 91 a1 02 	lds	r24, 0x02A1	; 0x8002a1 <mix>
     85a:	81 30       	cpi	r24, 0x01	; 1
     85c:	41 f4       	brne	.+16     	; 0x86e <SendDisplayBytes()+0x38>
     85e:	80 e2       	ldi	r24, 0x20	; 32
     860:	90 91 a0 02 	lds	r25, 0x02A0	; 0x8002a0 <scan>
     864:	91 30       	cpi	r25, 0x01	; 1
     866:	09 f4       	brne	.+2      	; 0x86a <SendDisplayBytes()+0x34>
     868:	80 61       	ori	r24, 0x10	; 16
     86a:	0c 94 fa 03 	jmp	0x7f4	; 0x7f4 <SendByte(unsigned char)>
     86e:	80 e0       	ldi	r24, 0x00	; 0
     870:	f7 cf       	rjmp	.-18     	; 0x860 <SendDisplayBytes()+0x2a>

00000872 <SendFrameByte(unsigned char)>:
_ZL13SendFrameByteh():
     872:	90 91 93 02 	lds	r25, 0x0293	; 0x800293 <ACKcount>
     876:	91 11       	cpse	r25, r1
     878:	02 c0       	rjmp	.+4      	; 0x87e <SendFrameByte(unsigned char)+0xc>
     87a:	0c 94 fa 03 	jmp	0x7f4	; 0x7f4 <SendByte(unsigned char)>
     87e:	9f 5f       	subi	r25, 0xFF	; 255
     880:	90 93 93 02 	sts	0x0293, r25	; 0x800293 <ACKcount>
     884:	80 62       	ori	r24, 0x20	; 32
     886:	f9 cf       	rjmp	.-14     	; 0x87a <SendFrameByte(unsigned char)+0x8>

00000888 <SendStateInitPlayEnd()>:
_ZL20SendStateInitPlayEndv():
     888:	83 ec       	ldi	r24, 0xC3	; 195
     88a:	0e 94 39 04 	call	0x872	; 0x872 <SendFrameByte(unsigned char)>
     88e:	80 91 94 02 	lds	r24, 0x0294	; 0x800294 <BIDIcount>
     892:	8f 5f       	subi	r24, 0xFF	; 255
     894:	80 93 94 02 	sts	0x0294, r24	; 0x800294 <BIDIcount>
     898:	81 11       	cpse	r24, r1
     89a:	09 c0       	rjmp	.+18     	; 0x8ae <SendStateInitPlayEnd()+0x26>
SetStatePlayLeadIn():
     89c:	81 e0       	ldi	r24, 0x01	; 1
     89e:	80 93 9f 02 	sts	0x029F, r24	; 0x80029f <playing>
     8a2:	85 e0       	ldi	r24, 0x05	; 5
     8a4:	80 93 95 02 	sts	0x0295, r24	; 0x800295 <BIDIstate>
     8a8:	86 ef       	ldi	r24, 0xF6	; 246
     8aa:	80 93 94 02 	sts	0x0294, r24	; 0x800294 <BIDIcount>
_ZL20SendStateInitPlayEndv():
     8ae:	08 95       	ret

000008b0 <SendStateIdle()>:
_ZL13SendStateIdlev():
     8b0:	8c ee       	ldi	r24, 0xEC	; 236
     8b2:	80 93 90 02 	sts	0x0290, r24	; 0x800290 <secondcount>
     8b6:	8b e8       	ldi	r24, 0x8B	; 139
     8b8:	0e 94 39 04 	call	0x872	; 0x872 <SendFrameByte(unsigned char)>
     8bc:	0e 94 1b 04 	call	0x836	; 0x836 <SendDisplayBytes()>
     8c0:	80 e7       	ldi	r24, 0x70	; 112
     8c2:	0e 94 fa 03 	call	0x7f4	; 0x7f4 <SendByte(unsigned char)>
     8c6:	83 e8       	ldi	r24, 0x83	; 131
     8c8:	0c 94 39 04 	jmp	0x872	; 0x872 <SendFrameByte(unsigned char)>

000008cc <SendStateInitPlayAnnounceCD()>:
_ZL27SendStateInitPlayAnnounceCDv():
     8cc:	80 91 92 02 	lds	r24, 0x0292	; 0x800292 <discload>
     8d0:	0e 94 fa 03 	call	0x7f4	; 0x7f4 <SendByte(unsigned char)>
     8d4:	80 91 92 02 	lds	r24, 0x0292	; 0x800292 <discload>
     8d8:	86 3d       	cpi	r24, 0xD6	; 214
     8da:	51 f4       	brne	.+20     	; 0x8f0 <SendStateInitPlayAnnounceCD()+0x24>
     8dc:	81 ed       	ldi	r24, 0xD1	; 209
     8de:	80 93 92 02 	sts	0x0292, r24	; 0x800292 <discload>
     8e2:	0e 94 0f 04 	call	0x81e	; 0x81e <SendDisplayBytesInitCD()>
     8e6:	80 e0       	ldi	r24, 0x00	; 0
     8e8:	0e 94 fa 03 	call	0x7f4	; 0x7f4 <SendByte(unsigned char)>
     8ec:	0c 94 44 04 	jmp	0x888	; 0x888 <SendStateInitPlayEnd()>
     8f0:	8f 5f       	subi	r24, 0xFF	; 255
     8f2:	f5 cf       	rjmp	.-22     	; 0x8de <SendStateInitPlayAnnounceCD()+0x12>

000008f4 <SendStatePlayLeadInEnd()>:
_ZL22SendStatePlayLeadInEndv():
     8f4:	83 ec       	ldi	r24, 0xC3	; 195
     8f6:	0e 94 39 04 	call	0x872	; 0x872 <SendFrameByte(unsigned char)>
     8fa:	80 91 94 02 	lds	r24, 0x0294	; 0x800294 <BIDIcount>
     8fe:	8f 5f       	subi	r24, 0xFF	; 255
     900:	80 93 94 02 	sts	0x0294, r24	; 0x800294 <BIDIcount>
     904:	81 11       	cpse	r24, r1
     906:	06 c0       	rjmp	.+12     	; 0x914 <__stack+0x15>
SetStatePlay():
     908:	81 e0       	ldi	r24, 0x01	; 1
     90a:	80 93 9f 02 	sts	0x029F, r24	; 0x80029f <playing>
     90e:	89 e0       	ldi	r24, 0x09	; 9
     910:	80 93 95 02 	sts	0x0295, r24	; 0x800295 <BIDIstate>
_ZL22SendStatePlayLeadInEndv():
     914:	08 95       	ret

00000916 <SendStatePlayLeadInAnnounceCD()>:
_ZL29SendStatePlayLeadInAnnounceCDv():
     916:	80 91 09 01 	lds	r24, 0x0109	; 0x800109 <disc>
     91a:	8f 70       	andi	r24, 0x0F	; 15
     91c:	80 6d       	ori	r24, 0xD0	; 208
     91e:	0e 94 fa 03 	call	0x7f4	; 0x7f4 <SendByte(unsigned char)>
     922:	0e 94 0f 04 	call	0x81e	; 0x81e <SendDisplayBytesInitCD()>
     926:	80 e0       	ldi	r24, 0x00	; 0
     928:	0e 94 fa 03 	call	0x7f4	; 0x7f4 <SendByte(unsigned char)>
     92c:	0c 94 7a 04 	jmp	0x8f4	; 0x8f4 <SendStatePlayLeadInEnd()>

00000930 <SendPacket()>:
_ZL10SendPacketv():
     930:	e0 91 95 02 	lds	r30, 0x0295	; 0x800295 <BIDIstate>
     934:	eb 30       	cpi	r30, 0x0B	; 11
     936:	08 f0       	brcs	.+2      	; 0x93a <SendPacket()+0xa>
     938:	73 c0       	rjmp	.+230    	; 0xa20 <SendPacket()+0xf0>
     93a:	f0 e0       	ldi	r31, 0x00	; 0
     93c:	ee 55       	subi	r30, 0x5E	; 94
     93e:	fb 4f       	sbci	r31, 0xFB	; 251
     940:	0c 94 d7 11 	jmp	0x23ae	; 0x23ae <__tablejump2__>
     944:	c4 04       	cpc	r12, r4
     946:	bb 04       	cpc	r11, r11
     948:	c6 04       	cpc	r12, r6
     94a:	d6 04       	cpc	r13, r6
     94c:	cf 04       	cpc	r12, r15
     94e:	d8 04       	cpc	r13, r8
     950:	e8 04       	cpc	r14, r8
     952:	e1 04       	cpc	r14, r1
     954:	ea 04       	cpc	r14, r10
     956:	06 05       	cpc	r16, r6
     958:	ad 04       	cpc	r10, r13
SendStateTP():
     95a:	8c ee       	ldi	r24, 0xEC	; 236
     95c:	80 93 90 02 	sts	0x0290, r24	; 0x800290 <secondcount>
     960:	8b e4       	ldi	r24, 0x4B	; 75
     962:	0e 94 39 04 	call	0x872	; 0x872 <SendFrameByte(unsigned char)>
     966:	0e 94 1b 04 	call	0x836	; 0x836 <SendDisplayBytes()>
     96a:	80 e2       	ldi	r24, 0x20	; 32
     96c:	0e 94 fa 03 	call	0x7f4	; 0x7f4 <SendByte(unsigned char)>
     970:	83 e4       	ldi	r24, 0x43	; 67
_ZL10SendPacketv():
     972:	0c 94 39 04 	jmp	0x872	; 0x872 <SendFrameByte(unsigned char)>
     976:	80 91 94 02 	lds	r24, 0x0294	; 0x800294 <BIDIcount>
     97a:	8f 5f       	subi	r24, 0xFF	; 255
     97c:	80 93 94 02 	sts	0x0294, r24	; 0x800294 <BIDIcount>
     980:	81 11       	cpse	r24, r1
     982:	02 c0       	rjmp	.+4      	; 0x988 <SendPacket()+0x58>
     984:	0e 94 91 03 	call	0x722	; 0x722 <SetStateInitPlay()>
     988:	0c 94 58 04 	jmp	0x8b0	; 0x8b0 <SendStateIdle()>
     98c:	8c ee       	ldi	r24, 0xEC	; 236
     98e:	80 93 90 02 	sts	0x0290, r24	; 0x800290 <secondcount>
     992:	8b ec       	ldi	r24, 0xCB	; 203
     994:	0e 94 39 04 	call	0x872	; 0x872 <SendFrameByte(unsigned char)>
     998:	80 91 94 02 	lds	r24, 0x0294	; 0x800294 <BIDIcount>
     99c:	80 ff       	sbrs	r24, 0
     99e:	0c 94 66 04 	jmp	0x8cc	; 0x8cc <SendStateInitPlayAnnounceCD()>
     9a2:	0e 94 1b 04 	call	0x836	; 0x836 <SendDisplayBytes()>
     9a6:	80 e1       	ldi	r24, 0x10	; 16
     9a8:	0e 94 fa 03 	call	0x7f4	; 0x7f4 <SendByte(unsigned char)>
     9ac:	0c 94 44 04 	jmp	0x888	; 0x888 <SendStateInitPlayEnd()>
     9b0:	8c ee       	ldi	r24, 0xEC	; 236
     9b2:	80 93 90 02 	sts	0x0290, r24	; 0x800290 <secondcount>
     9b6:	8b ec       	ldi	r24, 0xCB	; 203
     9b8:	0e 94 39 04 	call	0x872	; 0x872 <SendFrameByte(unsigned char)>
     9bc:	80 91 94 02 	lds	r24, 0x0294	; 0x800294 <BIDIcount>
     9c0:	80 ff       	sbrs	r24, 0
     9c2:	0c 94 8b 04 	jmp	0x916	; 0x916 <SendStatePlayLeadInAnnounceCD()>
     9c6:	0e 94 1b 04 	call	0x836	; 0x836 <SendDisplayBytes()>
     9ca:	81 e5       	ldi	r24, 0x51	; 81
     9cc:	0e 94 fa 03 	call	0x7f4	; 0x7f4 <SendByte(unsigned char)>
     9d0:	0c 94 7a 04 	jmp	0x8f4	; 0x8f4 <SendStatePlayLeadInEnd()>
     9d4:	8c ee       	ldi	r24, 0xEC	; 236
     9d6:	80 93 90 02 	sts	0x0290, r24	; 0x800290 <secondcount>
     9da:	8b ec       	ldi	r24, 0xCB	; 203
     9dc:	0e 94 39 04 	call	0x872	; 0x872 <SendFrameByte(unsigned char)>
     9e0:	0e 94 1b 04 	call	0x836	; 0x836 <SendDisplayBytes()>
     9e4:	81 e5       	ldi	r24, 0x51	; 81
     9e6:	0e 94 fa 03 	call	0x7f4	; 0x7f4 <SendByte(unsigned char)>
     9ea:	83 ec       	ldi	r24, 0xC3	; 195
     9ec:	0e 94 39 04 	call	0x872	; 0x872 <SendFrameByte(unsigned char)>
     9f0:	80 91 94 02 	lds	r24, 0x0294	; 0x800294 <BIDIcount>
     9f4:	8f 5f       	subi	r24, 0xFF	; 255
     9f6:	80 93 94 02 	sts	0x0294, r24	; 0x800294 <BIDIcount>
     9fa:	88 23       	and	r24, r24
     9fc:	89 f0       	breq	.+34     	; 0xa20 <SendPacket()+0xf0>
SetStatePlay():
     9fe:	81 e0       	ldi	r24, 0x01	; 1
     a00:	80 93 9f 02 	sts	0x029F, r24	; 0x80029f <playing>
     a04:	89 e0       	ldi	r24, 0x09	; 9
     a06:	80 93 95 02 	sts	0x0295, r24	; 0x800295 <BIDIstate>
     a0a:	08 95       	ret
_ZL10SendPacketv():
     a0c:	8b ec       	ldi	r24, 0xCB	; 203
     a0e:	0e 94 39 04 	call	0x872	; 0x872 <SendFrameByte(unsigned char)>
     a12:	0e 94 1b 04 	call	0x836	; 0x836 <SendDisplayBytes()>
     a16:	80 e3       	ldi	r24, 0x30	; 48
     a18:	0e 94 fa 03 	call	0x7f4	; 0x7f4 <SendByte(unsigned char)>
     a1c:	83 ec       	ldi	r24, 0xC3	; 195
     a1e:	a9 cf       	rjmp	.-174    	; 0x972 <SendPacket()+0x42>
     a20:	08 95       	ret

00000a22 <Init_VWCDC()>:
_Z10Init_VWCDCv():
     a22:	cf 93       	push	r28
     a24:	df 93       	push	r29
     a26:	6f eb       	ldi	r22, 0xBF	; 191
     a28:	71 e0       	ldi	r23, 0x01	; 1
     a2a:	88 ef       	ldi	r24, 0xF8	; 248
     a2c:	92 e0       	ldi	r25, 0x02	; 2
     a2e:	0e 94 1c 10 	call	0x2038	; 0x2038 <Print::println(char const*)>
     a32:	f8 94       	cli
     a34:	ce e6       	ldi	r28, 0x6E	; 110
     a36:	d0 e0       	ldi	r29, 0x00	; 0
     a38:	18 82       	st	Y, r1
     a3a:	25 9a       	sbi	0x04, 5	; 4
     a3c:	23 9a       	sbi	0x04, 3	; 4
     a3e:	20 98       	cbi	0x04, 0	; 4
     a40:	28 9a       	sbi	0x05, 0	; 5
     a42:	10 92 80 00 	sts	0x0080, r1	; 0x800080 <__TEXT_REGION_LENGTH__+0x7f8080>
     a46:	e1 e8       	ldi	r30, 0x81	; 129
     a48:	f0 e0       	ldi	r31, 0x00	; 0
     a4a:	80 e8       	ldi	r24, 0x80	; 128
     a4c:	80 83       	st	Z, r24
     a4e:	80 81       	ld	r24, Z
     a50:	82 60       	ori	r24, 0x02	; 2
     a52:	80 83       	st	Z, r24
     a54:	b5 9a       	sbi	0x16, 5	; 22
     a56:	ef e6       	ldi	r30, 0x6F	; 111
     a58:	f0 e0       	ldi	r31, 0x00	; 0
     a5a:	80 81       	ld	r24, Z
     a5c:	80 62       	ori	r24, 0x20	; 32
     a5e:	80 83       	st	Z, r24
     a60:	8f ea       	ldi	r24, 0xAF	; 175
     a62:	80 93 b3 00 	sts	0x00B3, r24	; 0x8000b3 <__TEXT_REGION_LENGTH__+0x7f80b3>
     a66:	82 e0       	ldi	r24, 0x02	; 2
     a68:	80 93 b0 00 	sts	0x00B0, r24	; 0x8000b0 <__TEXT_REGION_LENGTH__+0x7f80b0>
     a6c:	84 e0       	ldi	r24, 0x04	; 4
     a6e:	80 93 b1 00 	sts	0x00B1, r24	; 0x8000b1 <__TEXT_REGION_LENGTH__+0x7f80b1>
     a72:	e0 e7       	ldi	r30, 0x70	; 112
     a74:	f0 e0       	ldi	r31, 0x00	; 0
     a76:	80 81       	ld	r24, Z
     a78:	82 60       	ori	r24, 0x02	; 2
     a7a:	80 83       	st	Z, r24
     a7c:	10 92 96 02 	sts	0x0296, r1	; 0x800296 <capptr>
     a80:	10 92 a6 02 	sts	0x02A6, r1	; 0x8002a6 <scanptr>
     a84:	88 ef       	ldi	r24, 0xF8	; 248
     a86:	80 93 98 02 	sts	0x0298, r24	; 0x800298 <capbit>
     a8a:	10 92 8e 02 	sts	0x028E, r1	; 0x80028e <txinptr>
     a8e:	10 92 8d 02 	sts	0x028D, r1	; 0x80028d <txoutptr>
     a92:	10 92 a2 02 	sts	0x02A2, r1	; 0x8002a2 <capbusy>
     a96:	10 92 a1 02 	sts	0x02A1, r1	; 0x8002a1 <mix>
     a9a:	10 92 a0 02 	sts	0x02A0, r1	; 0x8002a0 <scan>
     a9e:	10 92 9f 02 	sts	0x029F, r1	; 0x80029f <playing>
     aa2:	10 92 9c 02 	sts	0x029C, r1	; 0x80029c <overflow>
     aa6:	10 92 9b 02 	sts	0x029B, r1	; 0x80029b <dataerr>
     aaa:	10 92 93 02 	sts	0x0293, r1	; 0x800293 <ACKcount>
     aae:	81 e4       	ldi	r24, 0x41	; 65
     ab0:	80 93 09 01 	sts	0x0109, r24	; 0x800109 <disc>
     ab4:	81 e0       	ldi	r24, 0x01	; 1
     ab6:	80 93 08 01 	sts	0x0108, r24	; 0x800108 <track>
     aba:	86 ef       	ldi	r24, 0xF6	; 246
     abc:	80 93 91 02 	sts	0x0291, r24	; 0x800291 <poweridentcount>
     ac0:	0e 94 f2 03 	call	0x7e4	; 0x7e4 <ResetTime()>
SetStateIdle():
     ac4:	10 92 9f 02 	sts	0x029F, r1	; 0x80029f <playing>
     ac8:	10 92 95 02 	sts	0x0295, r1	; 0x800295 <BIDIstate>
_Z10Init_VWCDCv():
     acc:	8d eb       	ldi	r24, 0xBD	; 189
     ace:	90 e0       	ldi	r25, 0x00	; 0
     ad0:	0e 94 9e 03 	call	0x73c	; 0x73c <EnqueueString(unsigned char const*)>
     ad4:	84 eb       	ldi	r24, 0xB4	; 180
     ad6:	90 e0       	ldi	r25, 0x00	; 0
     ad8:	0e 94 9e 03 	call	0x73c	; 0x73c <EnqueueString(unsigned char const*)>
     adc:	8a eb       	ldi	r24, 0xBA	; 186
     ade:	90 e0       	ldi	r25, 0x00	; 0
     ae0:	0e 94 9e 03 	call	0x73c	; 0x73c <EnqueueString(unsigned char const*)>
     ae4:	8e ee       	ldi	r24, 0xEE	; 238
     ae6:	90 e0       	ldi	r25, 0x00	; 0
     ae8:	0e 94 9e 03 	call	0x73c	; 0x73c <EnqueueString(unsigned char const*)>
     aec:	8c e9       	ldi	r24, 0x9C	; 156
     aee:	87 bd       	out	0x27, r24	; 39
     af0:	14 bc       	out	0x24, r1	; 36
     af2:	84 b5       	in	r24, 0x24	; 36
     af4:	82 60       	ori	r24, 0x02	; 2
     af6:	84 bd       	out	0x24, r24	; 36
     af8:	85 b5       	in	r24, 0x25	; 37
     afa:	85 60       	ori	r24, 0x05	; 5
     afc:	85 bd       	out	0x25, r24	; 37
     afe:	88 81       	ld	r24, Y
     b00:	82 60       	ori	r24, 0x02	; 2
     b02:	88 83       	st	Y, r24
     b04:	0e 94 98 04 	call	0x930	; 0x930 <SendPacket()>
     b08:	78 94       	sei
     b0a:	6e ec       	ldi	r22, 0xCE	; 206
     b0c:	71 e0       	ldi	r23, 0x01	; 1
     b0e:	88 ef       	ldi	r24, 0xF8	; 248
     b10:	92 e0       	ldi	r25, 0x02	; 2
     b12:	df 91       	pop	r29
     b14:	cf 91       	pop	r28
     b16:	0c 94 1c 10 	jmp	0x2038	; 0x2038 <Print::println(char const*)>

00000b1a <__vector_7>:
__vector_7():
     b1a:	1f 92       	push	r1
     b1c:	0f 92       	push	r0
     b1e:	0f b6       	in	r0, 0x3f	; 63
     b20:	0f 92       	push	r0
     b22:	11 24       	eor	r1, r1
     b24:	2f 93       	push	r18
     b26:	8f 93       	push	r24
     b28:	9f 93       	push	r25
     b2a:	ef 93       	push	r30
     b2c:	ff 93       	push	r31
     b2e:	80 91 b1 00 	lds	r24, 0x00B1	; 0x8000b1 <__TEXT_REGION_LENGTH__+0x7f80b1>
     b32:	8b 7f       	andi	r24, 0xFB	; 251
     b34:	80 93 b1 00 	sts	0x00B1, r24	; 0x8000b1 <__TEXT_REGION_LENGTH__+0x7f80b1>
     b38:	e0 91 4c 02 	lds	r30, 0x024C	; 0x80024c <__vector_7::display_byte_counter_u8>
     b3c:	e8 30       	cpi	r30, 0x08	; 8
     b3e:	a0 f5       	brcc	.+104    	; 0xba8 <__vector_7+0x8e>
     b40:	f0 e0       	ldi	r31, 0x00	; 0
     b42:	eb 57       	subi	r30, 0x7B	; 123
     b44:	fd 4f       	sbci	r31, 0xFD	; 253
     b46:	90 81       	ld	r25, Z
     b48:	88 ef       	ldi	r24, 0xF8	; 248
     b4a:	80 93 aa 02 	sts	0x02AA, r24	; 0x8002aa <sendbitcount>
_delay_loop_1():
     b4e:	25 e0       	ldi	r18, 0x05	; 5
__vector_7():
     b50:	80 91 aa 02 	lds	r24, 0x02AA	; 0x8002aa <sendbitcount>
     b54:	88 23       	and	r24, r24
     b56:	a1 f0       	breq	.+40     	; 0xb80 <__vector_7+0x66>
     b58:	2d 9a       	sbi	0x05, 5	; 5
_delay_loop_1():
     b5a:	82 2f       	mov	r24, r18
     b5c:	8a 95       	dec	r24
     b5e:	f1 f7       	brne	.-4      	; 0xb5c <__vector_7+0x42>
__vector_7():
     b60:	97 fd       	sbrc	r25, 7
     b62:	0c c0       	rjmp	.+24     	; 0xb7c <__vector_7+0x62>
     b64:	2b 9a       	sbi	0x05, 3	; 5
     b66:	99 0f       	add	r25, r25
     b68:	2d 98       	cbi	0x05, 5	; 5
_delay_loop_1():
     b6a:	82 2f       	mov	r24, r18
     b6c:	8a 95       	dec	r24
     b6e:	f1 f7       	brne	.-4      	; 0xb6c <__vector_7+0x52>
__vector_7():
     b70:	80 91 aa 02 	lds	r24, 0x02AA	; 0x8002aa <sendbitcount>
     b74:	8f 5f       	subi	r24, 0xFF	; 255
     b76:	80 93 aa 02 	sts	0x02AA, r24	; 0x8002aa <sendbitcount>
     b7a:	ea cf       	rjmp	.-44     	; 0xb50 <__vector_7+0x36>
     b7c:	2b 98       	cbi	0x05, 3	; 5
     b7e:	f3 cf       	rjmp	.-26     	; 0xb66 <__vector_7+0x4c>
     b80:	80 91 4c 02 	lds	r24, 0x024C	; 0x80024c <__vector_7::display_byte_counter_u8>
     b84:	8f 5f       	subi	r24, 0xFF	; 255
     b86:	80 93 4c 02 	sts	0x024C, r24	; 0x80024c <__vector_7::display_byte_counter_u8>
     b8a:	80 91 b1 00 	lds	r24, 0x00B1	; 0x8000b1 <__TEXT_REGION_LENGTH__+0x7f80b1>
     b8e:	84 60       	ori	r24, 0x04	; 4
     b90:	80 93 b1 00 	sts	0x00B1, r24	; 0x8000b1 <__TEXT_REGION_LENGTH__+0x7f80b1>
     b94:	ff 91       	pop	r31
     b96:	ef 91       	pop	r30
     b98:	9f 91       	pop	r25
     b9a:	8f 91       	pop	r24
     b9c:	2f 91       	pop	r18
     b9e:	0f 90       	pop	r0
     ba0:	0f be       	out	0x3f, r0	; 63
     ba2:	0f 90       	pop	r0
     ba4:	1f 90       	pop	r1
     ba6:	18 95       	reti
     ba8:	10 92 4c 02 	sts	0x024C, r1	; 0x80024c <__vector_7::display_byte_counter_u8>
     bac:	f3 cf       	rjmp	.-26     	; 0xb94 <__vector_7+0x7a>

00000bae <__vector_14>:
__vector_14():
     bae:	1f 92       	push	r1
     bb0:	0f 92       	push	r0
     bb2:	0f b6       	in	r0, 0x3f	; 63
     bb4:	0f 92       	push	r0
     bb6:	11 24       	eor	r1, r1
     bb8:	8f 93       	push	r24
     bba:	9f 93       	push	r25
     bbc:	80 91 54 02 	lds	r24, 0x0254	; 0x800254 <counter_10ms_u8>
     bc0:	8f 5f       	subi	r24, 0xFF	; 255
     bc2:	80 93 54 02 	sts	0x0254, r24	; 0x800254 <counter_10ms_u8>
     bc6:	90 91 52 02 	lds	r25, 0x0252	; 0x800252 <my_counter_1>
     bca:	9f 5f       	subi	r25, 0xFF	; 255
     bcc:	90 93 52 02 	sts	0x0252, r25	; 0x800252 <my_counter_1>
     bd0:	90 91 50 02 	lds	r25, 0x0250	; 0x800250 <my_counter_2>
     bd4:	9f 5f       	subi	r25, 0xFF	; 255
     bd6:	90 93 50 02 	sts	0x0250, r25	; 0x800250 <my_counter_2>
     bda:	90 91 4e 02 	lds	r25, 0x024E	; 0x80024e <my_counter_3>
     bde:	9f 5f       	subi	r25, 0xFF	; 255
     be0:	90 93 4e 02 	sts	0x024E, r25	; 0x80024e <my_counter_3>
     be4:	85 30       	cpi	r24, 0x05	; 5
     be6:	29 f4       	brne	.+10     	; 0xbf2 <__vector_14+0x44>
     be8:	10 92 54 02 	sts	0x0254, r1	; 0x800254 <counter_10ms_u8>
     bec:	81 e0       	ldi	r24, 0x01	; 1
     bee:	80 93 53 02 	sts	0x0253, r24	; 0x800253 <flag_50ms>
     bf2:	80 91 52 02 	lds	r24, 0x0252	; 0x800252 <my_counter_1>
     bf6:	8a 30       	cpi	r24, 0x0A	; 10
     bf8:	29 f4       	brne	.+10     	; 0xc04 <__vector_14+0x56>
     bfa:	10 92 52 02 	sts	0x0252, r1	; 0x800252 <my_counter_1>
     bfe:	81 e0       	ldi	r24, 0x01	; 1
     c00:	80 93 51 02 	sts	0x0251, r24	; 0x800251 <flag_100ms>
     c04:	80 91 50 02 	lds	r24, 0x0250	; 0x800250 <my_counter_2>
     c08:	82 33       	cpi	r24, 0x32	; 50
     c0a:	29 f4       	brne	.+10     	; 0xc16 <__vector_14+0x68>
     c0c:	10 92 50 02 	sts	0x0250, r1	; 0x800250 <my_counter_2>
     c10:	81 e0       	ldi	r24, 0x01	; 1
     c12:	80 93 4f 02 	sts	0x024F, r24	; 0x80024f <flag_500ms>
     c16:	80 91 4e 02 	lds	r24, 0x024E	; 0x80024e <my_counter_3>
     c1a:	89 31       	cpi	r24, 0x19	; 25
     c1c:	29 f4       	brne	.+10     	; 0xc28 <__vector_14+0x7a>
     c1e:	10 92 4e 02 	sts	0x024E, r1	; 0x80024e <my_counter_3>
     c22:	81 e0       	ldi	r24, 0x01	; 1
     c24:	80 93 4d 02 	sts	0x024D, r24	; 0x80024d <flag_250ms>
     c28:	9f 91       	pop	r25
     c2a:	8f 91       	pop	r24
     c2c:	0f 90       	pop	r0
     c2e:	0f be       	out	0x3f, r0	; 63
     c30:	0f 90       	pop	r0
     c32:	1f 90       	pop	r1
     c34:	18 95       	reti

00000c36 <__vector_13>:
__vector_13():
     c36:	1f 92       	push	r1
     c38:	0f 92       	push	r0
     c3a:	0f b6       	in	r0, 0x3f	; 63
     c3c:	0f 92       	push	r0
     c3e:	11 24       	eor	r1, r1
     c40:	2f 93       	push	r18
     c42:	8f 93       	push	r24
     c44:	9f 93       	push	r25
     c46:	ef 93       	push	r30
     c48:	ff 93       	push	r31
     c4a:	80 91 6f 00 	lds	r24, 0x006F	; 0x80006f <__TEXT_REGION_LENGTH__+0x7f806f>
     c4e:	8e 7f       	andi	r24, 0xFE	; 254
     c50:	80 93 6f 00 	sts	0x006F, r24	; 0x80006f <__TEXT_REGION_LENGTH__+0x7f806f>
     c54:	10 92 a2 02 	sts	0x02A2, r1	; 0x8002a2 <capbusy>
     c58:	90 91 98 02 	lds	r25, 0x0298	; 0x800298 <capbit>
     c5c:	99 3f       	cpi	r25, 0xF9	; 249
     c5e:	0c f1       	brlt	.+66     	; 0xca2 <__vector_13+0x6c>
     c60:	81 e0       	ldi	r24, 0x01	; 1
     c62:	80 93 9b 02 	sts	0x029B, r24	; 0x80029b <dataerr>
     c66:	80 91 96 02 	lds	r24, 0x0296	; 0x800296 <capptr>
     c6a:	e8 2f       	mov	r30, r24
     c6c:	f0 e0       	ldi	r31, 0x00	; 0
     c6e:	eb 5a       	subi	r30, 0xAB	; 171
     c70:	fd 4f       	sbci	r31, 0xFD	; 253
     c72:	99 23       	and	r25, r25
     c74:	29 f0       	breq	.+10     	; 0xc80 <__vector_13+0x4a>
     c76:	20 81       	ld	r18, Z
     c78:	22 0f       	add	r18, r18
     c7a:	20 83       	st	Z, r18
     c7c:	9f 5f       	subi	r25, 0xFF	; 255
     c7e:	f9 cf       	rjmp	.-14     	; 0xc72 <__vector_13+0x3c>
     c80:	98 ef       	ldi	r25, 0xF8	; 248
     c82:	90 93 98 02 	sts	0x0298, r25	; 0x800298 <capbit>
     c86:	8f 5f       	subi	r24, 0xFF	; 255
     c88:	88 31       	cpi	r24, 0x18	; 24
     c8a:	a9 f0       	breq	.+42     	; 0xcb6 <__vector_13+0x80>
     c8c:	80 93 96 02 	sts	0x0296, r24	; 0x800296 <capptr>
     c90:	90 91 96 02 	lds	r25, 0x0296	; 0x800296 <capptr>
     c94:	80 91 a6 02 	lds	r24, 0x02A6	; 0x8002a6 <scanptr>
     c98:	98 13       	cpse	r25, r24
     c9a:	03 c0       	rjmp	.+6      	; 0xca2 <__vector_13+0x6c>
     c9c:	81 e0       	ldi	r24, 0x01	; 1
     c9e:	80 93 9c 02 	sts	0x029C, r24	; 0x80029c <overflow>
     ca2:	ff 91       	pop	r31
     ca4:	ef 91       	pop	r30
     ca6:	9f 91       	pop	r25
     ca8:	8f 91       	pop	r24
     caa:	2f 91       	pop	r18
     cac:	0f 90       	pop	r0
     cae:	0f be       	out	0x3f, r0	; 63
     cb0:	0f 90       	pop	r0
     cb2:	1f 90       	pop	r1
     cb4:	18 95       	reti
     cb6:	10 92 96 02 	sts	0x0296, r1	; 0x800296 <capptr>
     cba:	ea cf       	rjmp	.-44     	; 0xc90 <__vector_13+0x5a>

00000cbc <__vector_10>:
__vector_10():
     cbc:	1f 92       	push	r1
     cbe:	0f 92       	push	r0
     cc0:	0f b6       	in	r0, 0x3f	; 63
     cc2:	0f 92       	push	r0
     cc4:	11 24       	eor	r1, r1
     cc6:	2f 93       	push	r18
     cc8:	3f 93       	push	r19
     cca:	4f 93       	push	r20
     ccc:	8f 93       	push	r24
     cce:	9f 93       	push	r25
     cd0:	ef 93       	push	r30
     cd2:	ff 93       	push	r31
     cd4:	80 91 86 00 	lds	r24, 0x0086	; 0x800086 <__TEXT_REGION_LENGTH__+0x7f8086>
     cd8:	90 91 87 00 	lds	r25, 0x0087	; 0x800087 <__TEXT_REGION_LENGTH__+0x7f8087>
     cdc:	90 93 9a 02 	sts	0x029A, r25	; 0x80029a <captime+0x1>
     ce0:	80 93 99 02 	sts	0x0299, r24	; 0x800299 <captime>
     ce4:	10 92 85 00 	sts	0x0085, r1	; 0x800085 <__TEXT_REGION_LENGTH__+0x7f8085>
     ce8:	10 92 84 00 	sts	0x0084, r1	; 0x800084 <__TEXT_REGION_LENGTH__+0x7f8084>
     cec:	18 99       	sbic	0x03, 0	; 3
     cee:	18 c0       	rjmp	.+48     	; 0xd20 <__vector_10+0x64>
     cf0:	b0 9a       	sbi	0x16, 0	; 22
     cf2:	80 91 6f 00 	lds	r24, 0x006F	; 0x80006f <__TEXT_REGION_LENGTH__+0x7f806f>
     cf6:	81 60       	ori	r24, 0x01	; 1
     cf8:	80 93 6f 00 	sts	0x006F, r24	; 0x80006f <__TEXT_REGION_LENGTH__+0x7f806f>
     cfc:	80 91 81 00 	lds	r24, 0x0081	; 0x800081 <__TEXT_REGION_LENGTH__+0x7f8081>
     d00:	80 64       	ori	r24, 0x40	; 64
     d02:	80 93 81 00 	sts	0x0081, r24	; 0x800081 <__TEXT_REGION_LENGTH__+0x7f8081>
     d06:	b5 9a       	sbi	0x16, 5	; 22
     d08:	ff 91       	pop	r31
     d0a:	ef 91       	pop	r30
     d0c:	9f 91       	pop	r25
     d0e:	8f 91       	pop	r24
     d10:	4f 91       	pop	r20
     d12:	3f 91       	pop	r19
     d14:	2f 91       	pop	r18
     d16:	0f 90       	pop	r0
     d18:	0f be       	out	0x3f, r0	; 63
     d1a:	0f 90       	pop	r0
     d1c:	1f 90       	pop	r1
     d1e:	18 95       	reti
     d20:	81 e0       	ldi	r24, 0x01	; 1
     d22:	80 93 a2 02 	sts	0x02A2, r24	; 0x8002a2 <capbusy>
     d26:	90 91 81 00 	lds	r25, 0x0081	; 0x800081 <__TEXT_REGION_LENGTH__+0x7f8081>
     d2a:	9f 7b       	andi	r25, 0xBF	; 191
     d2c:	90 93 81 00 	sts	0x0081, r25	; 0x800081 <__TEXT_REGION_LENGTH__+0x7f8081>
     d30:	b5 9a       	sbi	0x16, 5	; 22
     d32:	90 91 6f 00 	lds	r25, 0x006F	; 0x80006f <__TEXT_REGION_LENGTH__+0x7f806f>
     d36:	90 ff       	sbrs	r25, 0
     d38:	e7 cf       	rjmp	.-50     	; 0xd08 <__vector_10+0x4c>
     d3a:	80 93 a2 02 	sts	0x02A2, r24	; 0x8002a2 <capbusy>
     d3e:	90 91 6f 00 	lds	r25, 0x006F	; 0x80006f <__TEXT_REGION_LENGTH__+0x7f806f>
     d42:	9e 7f       	andi	r25, 0xFE	; 254
     d44:	90 93 6f 00 	sts	0x006F, r25	; 0x80006f <__TEXT_REGION_LENGTH__+0x7f806f>
     d48:	20 91 99 02 	lds	r18, 0x0299	; 0x800299 <captime>
     d4c:	30 91 9a 02 	lds	r19, 0x029A	; 0x80029a <captime+0x1>
     d50:	21 30       	cpi	r18, 0x01	; 1
     d52:	49 e1       	ldi	r20, 0x19	; 25
     d54:	34 07       	cpc	r19, r20
     d56:	58 f1       	brcs	.+86     	; 0xdae <__vector_10+0xf2>
     d58:	90 ee       	ldi	r25, 0xE0	; 224
     d5a:	90 93 97 02 	sts	0x0297, r25	; 0x800297 <capbitpacket>
     d5e:	90 91 98 02 	lds	r25, 0x0298	; 0x800298 <capbit>
     d62:	99 3f       	cpi	r25, 0xF9	; 249
     d64:	8c f2       	brlt	.-94     	; 0xd08 <__vector_10+0x4c>
     d66:	80 93 9b 02 	sts	0x029B, r24	; 0x80029b <dataerr>
     d6a:	80 91 96 02 	lds	r24, 0x0296	; 0x800296 <capptr>
     d6e:	e8 2f       	mov	r30, r24
     d70:	f0 e0       	ldi	r31, 0x00	; 0
     d72:	eb 5a       	subi	r30, 0xAB	; 171
     d74:	fd 4f       	sbci	r31, 0xFD	; 253
     d76:	99 23       	and	r25, r25
     d78:	29 f0       	breq	.+10     	; 0xd84 <__vector_10+0xc8>
     d7a:	20 81       	ld	r18, Z
     d7c:	22 0f       	add	r18, r18
     d7e:	20 83       	st	Z, r18
     d80:	9f 5f       	subi	r25, 0xFF	; 255
     d82:	f9 cf       	rjmp	.-14     	; 0xd76 <__vector_10+0xba>
     d84:	98 ef       	ldi	r25, 0xF8	; 248
     d86:	90 93 98 02 	sts	0x0298, r25	; 0x800298 <capbit>
     d8a:	8f 5f       	subi	r24, 0xFF	; 255
     d8c:	88 31       	cpi	r24, 0x18	; 24
     d8e:	61 f0       	breq	.+24     	; 0xda8 <__vector_10+0xec>
     d90:	80 93 96 02 	sts	0x0296, r24	; 0x800296 <capptr>
     d94:	90 91 96 02 	lds	r25, 0x0296	; 0x800296 <capptr>
     d98:	80 91 a6 02 	lds	r24, 0x02A6	; 0x8002a6 <scanptr>
     d9c:	98 13       	cpse	r25, r24
     d9e:	b4 cf       	rjmp	.-152    	; 0xd08 <__vector_10+0x4c>
     da0:	81 e0       	ldi	r24, 0x01	; 1
     da2:	80 93 9c 02 	sts	0x029C, r24	; 0x80029c <overflow>
     da6:	b0 cf       	rjmp	.-160    	; 0xd08 <__vector_10+0x4c>
     da8:	10 92 96 02 	sts	0x0296, r1	; 0x800296 <capptr>
     dac:	f3 cf       	rjmp	.-26     	; 0xd94 <__vector_10+0xd8>
     dae:	21 30       	cpi	r18, 0x01	; 1
     db0:	82 e0       	ldi	r24, 0x02	; 2
     db2:	38 07       	cpc	r19, r24
     db4:	08 f4       	brcc	.+2      	; 0xdb8 <__vector_10+0xfc>
     db6:	a8 cf       	rjmp	.-176    	; 0xd08 <__vector_10+0x4c>
     db8:	90 91 96 02 	lds	r25, 0x0296	; 0x800296 <capptr>
     dbc:	e9 2f       	mov	r30, r25
     dbe:	f0 e0       	ldi	r31, 0x00	; 0
     dc0:	eb 5a       	subi	r30, 0xAB	; 171
     dc2:	fd 4f       	sbci	r31, 0xFD	; 253
     dc4:	80 81       	ld	r24, Z
     dc6:	88 0f       	add	r24, r24
     dc8:	21 3c       	cpi	r18, 0xC1	; 193
     dca:	39 40       	sbci	r19, 0x09	; 9
     dcc:	88 f4       	brcc	.+34     	; 0xdf0 <__vector_10+0x134>
     dce:	80 83       	st	Z, r24
     dd0:	80 91 97 02 	lds	r24, 0x0297	; 0x800297 <capbitpacket>
     dd4:	8f 5f       	subi	r24, 0xFF	; 255
     dd6:	80 93 97 02 	sts	0x0297, r24	; 0x800297 <capbitpacket>
     dda:	81 11       	cpse	r24, r1
     ddc:	02 c0       	rjmp	.+4      	; 0xde2 <__vector_10+0x126>
     dde:	10 92 a2 02 	sts	0x02A2, r1	; 0x8002a2 <capbusy>
     de2:	80 91 98 02 	lds	r24, 0x0298	; 0x800298 <capbit>
     de6:	8f 5f       	subi	r24, 0xFF	; 255
     de8:	29 f0       	breq	.+10     	; 0xdf4 <__vector_10+0x138>
     dea:	80 93 98 02 	sts	0x0298, r24	; 0x800298 <capbit>
     dee:	8c cf       	rjmp	.-232    	; 0xd08 <__vector_10+0x4c>
     df0:	81 60       	ori	r24, 0x01	; 1
     df2:	ed cf       	rjmp	.-38     	; 0xdce <__vector_10+0x112>
     df4:	88 ef       	ldi	r24, 0xF8	; 248
     df6:	80 93 98 02 	sts	0x0298, r24	; 0x800298 <capbit>
     dfa:	9f 5f       	subi	r25, 0xFF	; 255
     dfc:	98 31       	cpi	r25, 0x18	; 24
     dfe:	a1 f2       	breq	.-88     	; 0xda8 <__vector_10+0xec>
     e00:	90 93 96 02 	sts	0x0296, r25	; 0x800296 <capptr>
     e04:	c7 cf       	rjmp	.-114    	; 0xd94 <__vector_10+0xd8>

00000e06 <CDC_Protocol()>:
_Z12CDC_Protocolv():
     e06:	cf 93       	push	r28
     e08:	df 93       	push	r29
     e0a:	00 d0       	rcall	.+0      	; 0xe0c <CDC_Protocol()+0x6>
     e0c:	00 d0       	rcall	.+0      	; 0xe0e <CDC_Protocol()+0x8>
     e0e:	00 d0       	rcall	.+0      	; 0xe10 <CDC_Protocol()+0xa>
     e10:	cd b7       	in	r28, 0x3d	; 61
     e12:	de b7       	in	r29, 0x3e	; 62
     e14:	80 91 53 02 	lds	r24, 0x0253	; 0x800253 <flag_50ms>
     e18:	81 30       	cpi	r24, 0x01	; 1
     e1a:	81 f4       	brne	.+32     	; 0xe3c <CDC_Protocol()+0x36>
     e1c:	10 92 53 02 	sts	0x0253, r1	; 0x800253 <flag_50ms>
     e20:	0e 94 98 04 	call	0x930	; 0x930 <SendPacket()>
     e24:	80 91 8f 02 	lds	r24, 0x028F	; 0x80028f <scancount>
     e28:	8f 5f       	subi	r24, 0xFF	; 255
     e2a:	89 f1       	breq	.+98     	; 0xe8e <CDC_Protocol()+0x88>
     e2c:	80 93 8f 02 	sts	0x028F, r24	; 0x80028f <scancount>
     e30:	80 91 90 02 	lds	r24, 0x0290	; 0x800290 <secondcount>
     e34:	8f 5f       	subi	r24, 0xFF	; 255
     e36:	b1 f1       	breq	.+108    	; 0xea4 <CDC_Protocol()+0x9e>
     e38:	80 93 90 02 	sts	0x0290, r24	; 0x800290 <secondcount>
     e3c:	80 91 9c 02 	lds	r24, 0x029C	; 0x80029c <overflow>
     e40:	81 30       	cpi	r24, 0x01	; 1
     e42:	31 f4       	brne	.+12     	; 0xe50 <CDC_Protocol()+0x4a>
     e44:	10 92 9c 02 	sts	0x029C, r1	; 0x80029c <overflow>
     e48:	82 e5       	ldi	r24, 0x52	; 82
     e4a:	91 e0       	ldi	r25, 0x01	; 1
     e4c:	0e 94 9e 03 	call	0x73c	; 0x73c <EnqueueString(unsigned char const*)>
     e50:	80 91 9b 02 	lds	r24, 0x029B	; 0x80029b <dataerr>
     e54:	81 30       	cpi	r24, 0x01	; 1
     e56:	31 f4       	brne	.+12     	; 0xe64 <CDC_Protocol()+0x5e>
     e58:	10 92 9b 02 	sts	0x029B, r1	; 0x80029b <dataerr>
     e5c:	83 e5       	ldi	r24, 0x53	; 83
     e5e:	91 e0       	ldi	r25, 0x01	; 1
     e60:	0e 94 9e 03 	call	0x73c	; 0x73c <EnqueueString(unsigned char const*)>
ScanCommandBytes():
     e64:	80 91 a6 02 	lds	r24, 0x02A6	; 0x8002a6 <scanptr>
     e68:	80 93 a5 02 	sts	0x02A5, r24	; 0x8002a5 <fsr>
     e6c:	0e 94 78 03 	call	0x6f0	; 0x6f0 <GetCaptureByte()>
     e70:	88 23       	and	r24, r24
     e72:	09 f4       	brne	.+2      	; 0xe76 <CDC_Protocol()+0x70>
     e74:	8e c0       	rjmp	.+284    	; 0xf92 <CDC_Protocol()+0x18c>
     e76:	80 91 a4 02 	lds	r24, 0x02A4	; 0x8002a4 <scanbyte>
     e7a:	83 35       	cpi	r24, 0x53	; 83
     e7c:	09 f4       	brne	.+2      	; 0xe80 <CDC_Protocol()+0x7a>
     e7e:	48 c0       	rjmp	.+144    	; 0xf10 <CDC_Protocol()+0x10a>
     e80:	0e 94 b1 03 	call	0x762	; 0x762 <EnqueueHex(unsigned char)>
     e84:	80 91 a5 02 	lds	r24, 0x02A5	; 0x8002a5 <fsr>
     e88:	80 93 a6 02 	sts	0x02A6, r24	; 0x8002a6 <scanptr>
     e8c:	ef cf       	rjmp	.-34     	; 0xe6c <CDC_Protocol()+0x66>
_Z12CDC_Protocolv():
     e8e:	8c e9       	ldi	r24, 0x9C	; 156
     e90:	80 93 8f 02 	sts	0x028F, r24	; 0x80028f <scancount>
     e94:	10 92 a0 02 	sts	0x02A0, r1	; 0x8002a0 <scan>
     e98:	80 91 a7 02 	lds	r24, 0x02A7	; 0x8002a7 <leds>
     e9c:	8f 7e       	andi	r24, 0xEF	; 239
     e9e:	80 93 a7 02 	sts	0x02A7, r24	; 0x8002a7 <leds>
     ea2:	c6 cf       	rjmp	.-116    	; 0xe30 <CDC_Protocol()+0x2a>
     ea4:	8c ee       	ldi	r24, 0xEC	; 236
     ea6:	80 93 90 02 	sts	0x0290, r24	; 0x800290 <secondcount>
     eaa:	80 91 91 02 	lds	r24, 0x0291	; 0x800291 <poweridentcount>
     eae:	8f 5f       	subi	r24, 0xFF	; 255
     eb0:	29 f1       	breq	.+74     	; 0xefc <CDC_Protocol()+0xf6>
     eb2:	80 93 91 02 	sts	0x0291, r24	; 0x800291 <poweridentcount>
     eb6:	80 91 a8 02 	lds	r24, 0x02A8	; 0x8002a8 <second>
     eba:	91 e0       	ldi	r25, 0x01	; 1
     ebc:	98 0f       	add	r25, r24
     ebe:	29 2f       	mov	r18, r25
     ec0:	2f 70       	andi	r18, 0x0F	; 15
     ec2:	2a 30       	cpi	r18, 0x0A	; 10
     ec4:	e9 f0       	breq	.+58     	; 0xf00 <CDC_Protocol()+0xfa>
     ec6:	90 93 a8 02 	sts	0x02A8, r25	; 0x8002a8 <second>
     eca:	80 91 a8 02 	lds	r24, 0x02A8	; 0x8002a8 <second>
     ece:	80 36       	cpi	r24, 0x60	; 96
     ed0:	09 f0       	breq	.+2      	; 0xed4 <CDC_Protocol()+0xce>
     ed2:	b4 cf       	rjmp	.-152    	; 0xe3c <CDC_Protocol()+0x36>
     ed4:	10 92 a8 02 	sts	0x02A8, r1	; 0x8002a8 <second>
     ed8:	80 91 a9 02 	lds	r24, 0x02A9	; 0x8002a9 <minute>
     edc:	91 e0       	ldi	r25, 0x01	; 1
     ede:	98 0f       	add	r25, r24
     ee0:	29 2f       	mov	r18, r25
     ee2:	2f 70       	andi	r18, 0x0F	; 15
     ee4:	2a 30       	cpi	r18, 0x0A	; 10
     ee6:	81 f0       	breq	.+32     	; 0xf08 <CDC_Protocol()+0x102>
     ee8:	90 93 a9 02 	sts	0x02A9, r25	; 0x8002a9 <minute>
     eec:	80 91 a9 02 	lds	r24, 0x02A9	; 0x8002a9 <minute>
     ef0:	80 3a       	cpi	r24, 0xA0	; 160
     ef2:	09 f0       	breq	.+2      	; 0xef6 <CDC_Protocol()+0xf0>
     ef4:	a3 cf       	rjmp	.-186    	; 0xe3c <CDC_Protocol()+0x36>
     ef6:	10 92 a9 02 	sts	0x02A9, r1	; 0x8002a9 <minute>
     efa:	a0 cf       	rjmp	.-192    	; 0xe3c <CDC_Protocol()+0x36>
     efc:	86 ef       	ldi	r24, 0xF6	; 246
     efe:	d9 cf       	rjmp	.-78     	; 0xeb2 <CDC_Protocol()+0xac>
     f00:	89 5f       	subi	r24, 0xF9	; 249
     f02:	80 93 a8 02 	sts	0x02A8, r24	; 0x8002a8 <second>
     f06:	e1 cf       	rjmp	.-62     	; 0xeca <CDC_Protocol()+0xc4>
     f08:	89 5f       	subi	r24, 0xF9	; 249
     f0a:	80 93 a9 02 	sts	0x02A9, r24	; 0x8002a9 <minute>
     f0e:	ee cf       	rjmp	.-36     	; 0xeec <CDC_Protocol()+0xe6>
ScanCommandBytes():
     f10:	0e 94 78 03 	call	0x6f0	; 0x6f0 <GetCaptureByte()>
     f14:	88 23       	and	r24, r24
     f16:	e9 f1       	breq	.+122    	; 0xf92 <CDC_Protocol()+0x18c>
     f18:	80 91 a4 02 	lds	r24, 0x02A4	; 0x8002a4 <scanbyte>
     f1c:	8c 32       	cpi	r24, 0x2C	; 44
     f1e:	21 f0       	breq	.+8      	; 0xf28 <CDC_Protocol()+0x122>
     f20:	83 e5       	ldi	r24, 0x53	; 83
     f22:	0e 94 b1 03 	call	0x762	; 0x762 <EnqueueHex(unsigned char)>
     f26:	a7 cf       	rjmp	.-178    	; 0xe76 <CDC_Protocol()+0x70>
     f28:	0e 94 78 03 	call	0x6f0	; 0x6f0 <GetCaptureByte()>
     f2c:	88 23       	and	r24, r24
     f2e:	89 f1       	breq	.+98     	; 0xf92 <CDC_Protocol()+0x18c>
     f30:	80 91 a4 02 	lds	r24, 0x02A4	; 0x8002a4 <scanbyte>
     f34:	80 93 a3 02 	sts	0x02A3, r24	; 0x8002a3 <cmdcode>
     f38:	0e 94 78 03 	call	0x6f0	; 0x6f0 <GetCaptureByte()>
     f3c:	88 23       	and	r24, r24
     f3e:	49 f1       	breq	.+82     	; 0xf92 <CDC_Protocol()+0x18c>
     f40:	80 91 a3 02 	lds	r24, 0x02A3	; 0x8002a3 <cmdcode>
     f44:	20 91 a4 02 	lds	r18, 0x02A4	; 0x8002a4 <scanbyte>
     f48:	28 0f       	add	r18, r24
     f4a:	33 27       	eor	r19, r19
     f4c:	33 1f       	adc	r19, r19
     f4e:	2f 3f       	cpi	r18, 0xFF	; 255
     f50:	31 05       	cpc	r19, r1
     f52:	09 f0       	breq	.+2      	; 0xf56 <CDC_Protocol()+0x150>
     f54:	10 c2       	rjmp	.+1056   	; 0x1376 <CDC_Protocol()+0x570>
     f56:	98 2f       	mov	r25, r24
     f58:	93 70       	andi	r25, 0x03	; 3
     f5a:	09 f0       	breq	.+2      	; 0xf5e <CDC_Protocol()+0x158>
     f5c:	0c c2       	rjmp	.+1048   	; 0x1376 <CDC_Protocol()+0x570>
     f5e:	9c ef       	ldi	r25, 0xFC	; 252
     f60:	90 93 93 02 	sts	0x0293, r25	; 0x800293 <ACKcount>
     f64:	90 91 a5 02 	lds	r25, 0x02A5	; 0x8002a5 <fsr>
     f68:	90 93 a6 02 	sts	0x02A6, r25	; 0x8002a6 <scanptr>
DecodeCommand():
     f6c:	88 35       	cpi	r24, 0x58	; 88
     f6e:	09 f4       	brne	.+2      	; 0xf72 <CDC_Protocol()+0x16c>
     f70:	2b c1       	rjmp	.+598    	; 0x11c8 <CDC_Protocol()+0x3c2>
     f72:	08 f0       	brcs	.+2      	; 0xf76 <CDC_Protocol()+0x170>
     f74:	7f c0       	rjmp	.+254    	; 0x1074 <CDC_Protocol()+0x26e>
     f76:	84 31       	cpi	r24, 0x14	; 20
     f78:	09 f4       	brne	.+2      	; 0xf7c <CDC_Protocol()+0x176>
     f7a:	03 c1       	rjmp	.+518    	; 0x1182 <CDC_Protocol()+0x37c>
     f7c:	38 f5       	brcc	.+78     	; 0xfcc <CDC_Protocol()+0x1c6>
     f7e:	88 30       	cpi	r24, 0x08	; 8
     f80:	09 f4       	brne	.+2      	; 0xf84 <CDC_Protocol()+0x17e>
     f82:	02 c1       	rjmp	.+516    	; 0x1188 <CDC_Protocol()+0x382>
     f84:	98 f4       	brcc	.+38     	; 0xfac <CDC_Protocol()+0x1a6>
     f86:	81 30       	cpi	r24, 0x01	; 1
     f88:	09 f4       	brne	.+2      	; 0xf8c <CDC_Protocol()+0x186>
     f8a:	11 c1       	rjmp	.+546    	; 0x11ae <CDC_Protocol()+0x3a8>
     f8c:	83 30       	cpi	r24, 0x03	; 3
     f8e:	09 f4       	brne	.+2      	; 0xf92 <CDC_Protocol()+0x18c>
     f90:	47 c1       	rjmp	.+654    	; 0x1220 <CDC_Protocol()+0x41a>
     f92:	90 91 8d 02 	lds	r25, 0x028D	; 0x80028d <txoutptr>
_Z12CDC_Protocolv():
     f96:	20 91 8e 02 	lds	r18, 0x028E	; 0x80028e <txinptr>
     f9a:	89 2f       	mov	r24, r25
     f9c:	82 17       	cp	r24, r18
     f9e:	09 f4       	brne	.+2      	; 0xfa2 <CDC_Protocol()+0x19c>
     fa0:	ed c1       	rjmp	.+986    	; 0x137c <CDC_Protocol()+0x576>
     fa2:	8f 5f       	subi	r24, 0xFF	; 255
     fa4:	90 e0       	ldi	r25, 0x00	; 0
     fa6:	8c 30       	cpi	r24, 0x0C	; 12
     fa8:	c9 f7       	brne	.-14     	; 0xf9c <CDC_Protocol()+0x196>
     faa:	f7 cf       	rjmp	.-18     	; 0xf9a <CDC_Protocol()+0x194>
DecodeCommand():
     fac:	8c 30       	cpi	r24, 0x0C	; 12
     fae:	09 f4       	brne	.+2      	; 0xfb2 <CDC_Protocol()+0x1ac>
     fb0:	60 c1       	rjmp	.+704    	; 0x1272 <CDC_Protocol()+0x46c>
     fb2:	80 31       	cpi	r24, 0x10	; 16
     fb4:	71 f7       	brne	.-36     	; 0xf92 <CDC_Protocol()+0x18c>
SetStateIdle():
     fb6:	10 92 9f 02 	sts	0x029F, r1	; 0x80029f <playing>
     fba:	10 92 95 02 	sts	0x0295, r1	; 0x800295 <BIDIstate>
DecodeCommand():
     fbe:	81 e5       	ldi	r24, 0x51	; 81
     fc0:	91 e0       	ldi	r25, 0x01	; 1
     fc2:	0e 94 9e 03 	call	0x73c	; 0x73c <EnqueueString(unsigned char const*)>
     fc6:	0e 94 36 02 	call	0x46c	; 0x46c <pause()>
     fca:	e3 cf       	rjmp	.-58     	; 0xf92 <CDC_Protocol()+0x18c>
     fcc:	80 33       	cpi	r24, 0x30	; 48
     fce:	09 f4       	brne	.+2      	; 0xfd2 <CDC_Protocol()+0x1cc>
     fd0:	c5 c1       	rjmp	.+906    	; 0x135c <CDC_Protocol()+0x556>
     fd2:	30 f5       	brcc	.+76     	; 0x1020 <CDC_Protocol()+0x21a>
     fd4:	88 31       	cpi	r24, 0x18	; 24
     fd6:	09 f4       	brne	.+2      	; 0xfda <CDC_Protocol()+0x1d4>
     fd8:	f7 c0       	rjmp	.+494    	; 0x11c8 <CDC_Protocol()+0x3c2>
     fda:	8c 32       	cpi	r24, 0x2C	; 44
     fdc:	d1 f6       	brne	.-76     	; 0xf92 <CDC_Protocol()+0x18c>
     fde:	81 e0       	ldi	r24, 0x01	; 1
     fe0:	80 93 9e 02 	sts	0x029E, r24	; 0x80029e <cd_button>
     fe4:	85 e4       	ldi	r24, 0x45	; 69
     fe6:	80 93 09 01 	sts	0x0109, r24	; 0x800109 <disc>
cdButtonPushed():
     fea:	80 91 45 02 	lds	r24, 0x0245	; 0x800245 <cdButtonPushed(unsigned char)::cd6pushed>
     fee:	80 93 47 02 	sts	0x0247, r24	; 0x800247 <cdButtonPushed(unsigned char)::cd4pushed>
     ff2:	80 93 48 02 	sts	0x0248, r24	; 0x800248 <cdButtonPushed(unsigned char)::cd3pushed>
     ff6:	80 93 49 02 	sts	0x0249, r24	; 0x800249 <cdButtonPushed(unsigned char)::cd2pushed>
     ffa:	80 93 4a 02 	sts	0x024A, r24	; 0x80024a <cdButtonPushed(unsigned char)::cd1pushed>
     ffe:	80 91 46 02 	lds	r24, 0x0246	; 0x800246 <cdButtonPushed(unsigned char)::cd5pushed>
    1002:	8f 5f       	subi	r24, 0xFF	; 255
    1004:	80 93 46 02 	sts	0x0246, r24	; 0x800246 <cdButtonPushed(unsigned char)::cd5pushed>
    1008:	86 30       	cpi	r24, 0x06	; 6
    100a:	11 f4       	brne	.+4      	; 0x1010 <CDC_Protocol()+0x20a>
    100c:	10 92 46 02 	sts	0x0246, r1	; 0x800246 <cdButtonPushed(unsigned char)::cd5pushed>
DecodeCommand():
    1010:	80 91 46 02 	lds	r24, 0x0246	; 0x800246 <cdButtonPushed(unsigned char)::cd5pushed>
    1014:	88 23       	and	r24, r24
    1016:	09 f4       	brne	.+2      	; 0x101a <CDC_Protocol()+0x214>
    1018:	bc cf       	rjmp	.-136    	; 0xf92 <CDC_Protocol()+0x18c>
    101a:	8f e1       	ldi	r24, 0x1F	; 31
    101c:	91 e0       	ldi	r25, 0x01	; 1
    101e:	d1 c0       	rjmp	.+418    	; 0x11c2 <CDC_Protocol()+0x3bc>
    1020:	88 33       	cpi	r24, 0x38	; 56
    1022:	09 f4       	brne	.+2      	; 0x1026 <CDC_Protocol()+0x220>
    1024:	e3 c0       	rjmp	.+454    	; 0x11ec <CDC_Protocol()+0x3e6>
    1026:	8c 34       	cpi	r24, 0x4C	; 76
    1028:	09 f0       	breq	.+2      	; 0x102c <CDC_Protocol()+0x226>
    102a:	b3 cf       	rjmp	.-154    	; 0xf92 <CDC_Protocol()+0x18c>
    102c:	81 e0       	ldi	r24, 0x01	; 1
    102e:	80 93 9e 02 	sts	0x029E, r24	; 0x80029e <cd_button>
    1032:	83 e4       	ldi	r24, 0x43	; 67
    1034:	80 93 09 01 	sts	0x0109, r24	; 0x800109 <disc>
cdButtonPushed():
    1038:	80 91 45 02 	lds	r24, 0x0245	; 0x800245 <cdButtonPushed(unsigned char)::cd6pushed>
    103c:	80 93 46 02 	sts	0x0246, r24	; 0x800246 <cdButtonPushed(unsigned char)::cd5pushed>
    1040:	80 93 47 02 	sts	0x0247, r24	; 0x800247 <cdButtonPushed(unsigned char)::cd4pushed>
    1044:	80 93 49 02 	sts	0x0249, r24	; 0x800249 <cdButtonPushed(unsigned char)::cd2pushed>
    1048:	80 93 4a 02 	sts	0x024A, r24	; 0x80024a <cdButtonPushed(unsigned char)::cd1pushed>
    104c:	80 91 48 02 	lds	r24, 0x0248	; 0x800248 <cdButtonPushed(unsigned char)::cd3pushed>
    1050:	8f 5f       	subi	r24, 0xFF	; 255
    1052:	80 93 48 02 	sts	0x0248, r24	; 0x800248 <cdButtonPushed(unsigned char)::cd3pushed>
    1056:	86 30       	cpi	r24, 0x06	; 6
    1058:	11 f4       	brne	.+4      	; 0x105e <CDC_Protocol()+0x258>
    105a:	10 92 48 02 	sts	0x0248, r1	; 0x800248 <cdButtonPushed(unsigned char)::cd3pushed>
DecodeCommand():
    105e:	80 91 48 02 	lds	r24, 0x0248	; 0x800248 <cdButtonPushed(unsigned char)::cd3pushed>
    1062:	88 23       	and	r24, r24
    1064:	21 f0       	breq	.+8      	; 0x106e <CDC_Protocol()+0x268>
    1066:	81 e2       	ldi	r24, 0x21	; 33
    1068:	91 e0       	ldi	r25, 0x01	; 1
    106a:	0e 94 9e 03 	call	0x73c	; 0x73c <EnqueueString(unsigned char const*)>
    106e:	6e ed       	ldi	r22, 0xDE	; 222
    1070:	71 e0       	ldi	r23, 0x01	; 1
    1072:	46 c1       	rjmp	.+652    	; 0x1300 <CDC_Protocol()+0x4fa>
    1074:	88 3a       	cpi	r24, 0xA8	; 168
    1076:	09 f4       	brne	.+2      	; 0x107a <CDC_Protocol()+0x274>
    1078:	d9 c0       	rjmp	.+434    	; 0x122c <CDC_Protocol()+0x426>
    107a:	08 f0       	brcs	.+2      	; 0x107e <CDC_Protocol()+0x278>
    107c:	43 c0       	rjmp	.+134    	; 0x1104 <CDC_Protocol()+0x2fe>
    107e:	88 37       	cpi	r24, 0x78	; 120
    1080:	09 f4       	brne	.+2      	; 0x1084 <CDC_Protocol()+0x27e>
    1082:	d4 c0       	rjmp	.+424    	; 0x122c <CDC_Protocol()+0x426>
    1084:	60 f5       	brcc	.+88     	; 0x10de <CDC_Protocol()+0x2d8>
    1086:	80 36       	cpi	r24, 0x60	; 96
    1088:	09 f4       	brne	.+2      	; 0x108c <CDC_Protocol()+0x286>
    108a:	6f c0       	rjmp	.+222    	; 0x116a <CDC_Protocol()+0x364>
    108c:	88 36       	cpi	r24, 0x68	; 104
    108e:	09 f0       	breq	.+2      	; 0x1092 <CDC_Protocol()+0x28c>
    1090:	80 cf       	rjmp	.-256    	; 0xf92 <CDC_Protocol()+0x18c>
    1092:	80 91 9f 02 	lds	r24, 0x029F	; 0x80029f <playing>
    1096:	81 30       	cpi	r24, 0x01	; 1
    1098:	31 f4       	brne	.+12     	; 0x10a6 <CDC_Protocol()+0x2a0>
SetStateTrackLeadIn():
    109a:	88 e0       	ldi	r24, 0x08	; 8
    109c:	80 93 95 02 	sts	0x0295, r24	; 0x800295 <BIDIstate>
    10a0:	84 ef       	ldi	r24, 0xF4	; 244
    10a2:	80 93 94 02 	sts	0x0294, r24	; 0x800294 <BIDIcount>
DecodeCommand():
    10a6:	0e 94 f2 03 	call	0x7e4	; 0x7e4 <ResetTime()>
    10aa:	80 91 08 01 	lds	r24, 0x0108	; 0x800108 <track>
    10ae:	91 e0       	ldi	r25, 0x01	; 1
    10b0:	98 0f       	add	r25, r24
    10b2:	90 93 08 01 	sts	0x0108, r25	; 0x800108 <track>
    10b6:	9f 70       	andi	r25, 0x0F	; 15
    10b8:	9a 30       	cpi	r25, 0x0A	; 10
    10ba:	19 f4       	brne	.+6      	; 0x10c2 <CDC_Protocol()+0x2bc>
    10bc:	89 5f       	subi	r24, 0xF9	; 249
    10be:	80 93 08 01 	sts	0x0108, r24	; 0x800108 <track>
    10c2:	80 91 08 01 	lds	r24, 0x0108	; 0x800108 <track>
    10c6:	80 3a       	cpi	r24, 0xA0	; 160
    10c8:	19 f4       	brne	.+6      	; 0x10d0 <CDC_Protocol()+0x2ca>
    10ca:	81 e0       	ldi	r24, 0x01	; 1
    10cc:	80 93 08 01 	sts	0x0108, r24	; 0x800108 <track>
    10d0:	80 e0       	ldi	r24, 0x00	; 0
    10d2:	91 e0       	ldi	r25, 0x01	; 1
    10d4:	0e 94 9e 03 	call	0x73c	; 0x73c <EnqueueString(unsigned char const*)>
    10d8:	0e 94 54 02 	call	0x4a8	; 0x4a8 <nextTrack()>
    10dc:	5a cf       	rjmp	.-332    	; 0xf92 <CDC_Protocol()+0x18c>
    10de:	8c 38       	cpi	r24, 0x8C	; 140
    10e0:	09 f4       	brne	.+2      	; 0x10e4 <CDC_Protocol()+0x2de>
    10e2:	eb c0       	rjmp	.+470    	; 0x12ba <CDC_Protocol()+0x4b4>
    10e4:	80 3a       	cpi	r24, 0xA0	; 160
    10e6:	09 f0       	breq	.+2      	; 0x10ea <CDC_Protocol()+0x2e4>
    10e8:	54 cf       	rjmp	.-344    	; 0xf92 <CDC_Protocol()+0x18c>
    10ea:	8c e9       	ldi	r24, 0x9C	; 156
    10ec:	80 93 8f 02 	sts	0x028F, r24	; 0x80028f <scancount>
    10f0:	80 91 a0 02 	lds	r24, 0x02A0	; 0x8002a0 <scan>
    10f4:	81 11       	cpse	r24, r1
    10f6:	97 c0       	rjmp	.+302    	; 0x1226 <CDC_Protocol()+0x420>
    10f8:	81 e0       	ldi	r24, 0x01	; 1
    10fa:	80 93 a0 02 	sts	0x02A0, r24	; 0x8002a0 <scan>
    10fe:	87 e0       	ldi	r24, 0x07	; 7
    1100:	91 e0       	ldi	r25, 0x01	; 1
    1102:	5f c0       	rjmp	.+190    	; 0x11c2 <CDC_Protocol()+0x3bc>
    1104:	88 3d       	cpi	r24, 0xD8	; 216
    1106:	09 f4       	brne	.+2      	; 0x110a <CDC_Protocol()+0x304>
    1108:	71 c0       	rjmp	.+226    	; 0x11ec <CDC_Protocol()+0x3e6>
    110a:	38 f5       	brcc	.+78     	; 0x115a <CDC_Protocol()+0x354>
    110c:	8c 3a       	cpi	r24, 0xAC	; 172
    110e:	09 f4       	brne	.+2      	; 0x1112 <CDC_Protocol()+0x30c>
    1110:	04 c1       	rjmp	.+520    	; 0x131a <CDC_Protocol()+0x514>
    1112:	8c 3c       	cpi	r24, 0xCC	; 204
    1114:	09 f0       	breq	.+2      	; 0x1118 <CDC_Protocol()+0x312>
    1116:	3d cf       	rjmp	.-390    	; 0xf92 <CDC_Protocol()+0x18c>
    1118:	81 e0       	ldi	r24, 0x01	; 1
    111a:	80 93 9e 02 	sts	0x029E, r24	; 0x80029e <cd_button>
    111e:	84 e4       	ldi	r24, 0x44	; 68
    1120:	80 93 09 01 	sts	0x0109, r24	; 0x800109 <disc>
cdButtonPushed():
    1124:	80 91 45 02 	lds	r24, 0x0245	; 0x800245 <cdButtonPushed(unsigned char)::cd6pushed>
    1128:	80 93 46 02 	sts	0x0246, r24	; 0x800246 <cdButtonPushed(unsigned char)::cd5pushed>
    112c:	80 93 48 02 	sts	0x0248, r24	; 0x800248 <cdButtonPushed(unsigned char)::cd3pushed>
    1130:	80 93 49 02 	sts	0x0249, r24	; 0x800249 <cdButtonPushed(unsigned char)::cd2pushed>
    1134:	80 93 4a 02 	sts	0x024A, r24	; 0x80024a <cdButtonPushed(unsigned char)::cd1pushed>
    1138:	80 91 47 02 	lds	r24, 0x0247	; 0x800247 <cdButtonPushed(unsigned char)::cd4pushed>
    113c:	8f 5f       	subi	r24, 0xFF	; 255
    113e:	80 93 47 02 	sts	0x0247, r24	; 0x800247 <cdButtonPushed(unsigned char)::cd4pushed>
    1142:	86 30       	cpi	r24, 0x06	; 6
    1144:	11 f4       	brne	.+4      	; 0x114a <CDC_Protocol()+0x344>
    1146:	10 92 47 02 	sts	0x0247, r1	; 0x800247 <cdButtonPushed(unsigned char)::cd4pushed>
DecodeCommand():
    114a:	80 91 47 02 	lds	r24, 0x0247	; 0x800247 <cdButtonPushed(unsigned char)::cd4pushed>
    114e:	88 23       	and	r24, r24
    1150:	09 f4       	brne	.+2      	; 0x1154 <CDC_Protocol()+0x34e>
    1152:	1f cf       	rjmp	.-450    	; 0xf92 <CDC_Protocol()+0x18c>
    1154:	80 e2       	ldi	r24, 0x20	; 32
    1156:	91 e0       	ldi	r25, 0x01	; 1
    1158:	34 c0       	rjmp	.+104    	; 0x11c2 <CDC_Protocol()+0x3bc>
    115a:	84 3e       	cpi	r24, 0xE4	; 228
    115c:	a9 f0       	breq	.+42     	; 0x1188 <CDC_Protocol()+0x382>
    115e:	88 3f       	cpi	r24, 0xF8	; 248
    1160:	09 f4       	brne	.+2      	; 0x1164 <CDC_Protocol()+0x35e>
    1162:	97 cf       	rjmp	.-210    	; 0x1092 <CDC_Protocol()+0x28c>
    1164:	80 3e       	cpi	r24, 0xE0	; 224
    1166:	09 f0       	breq	.+2      	; 0x116a <CDC_Protocol()+0x364>
    1168:	14 cf       	rjmp	.-472    	; 0xf92 <CDC_Protocol()+0x18c>
    116a:	81 e0       	ldi	r24, 0x01	; 1
    116c:	80 93 9d 02 	sts	0x029D, r24	; 0x80029d <mix_button>
    1170:	90 91 a1 02 	lds	r25, 0x02A1	; 0x8002a1 <mix>
    1174:	91 11       	cpse	r25, r1
    1176:	51 c0       	rjmp	.+162    	; 0x121a <CDC_Protocol()+0x414>
    1178:	80 93 a1 02 	sts	0x02A1, r24	; 0x8002a1 <mix>
    117c:	85 e1       	ldi	r24, 0x15	; 21
    117e:	91 e0       	ldi	r25, 0x01	; 1
    1180:	20 c0       	rjmp	.+64     	; 0x11c2 <CDC_Protocol()+0x3bc>
    1182:	10 92 93 02 	sts	0x0293, r1	; 0x800293 <ACKcount>
    1186:	05 cf       	rjmp	.-502    	; 0xf92 <CDC_Protocol()+0x18c>
    1188:	10 92 a1 02 	sts	0x02A1, r1	; 0x8002a1 <mix>
    118c:	80 91 9f 02 	lds	r24, 0x029F	; 0x80029f <playing>
    1190:	81 11       	cpse	r24, r1
    1192:	02 c0       	rjmp	.+4      	; 0x1198 <CDC_Protocol()+0x392>
    1194:	0e 94 91 03 	call	0x722	; 0x722 <SetStateInitPlay()>
    1198:	80 91 9d 02 	lds	r24, 0x029D	; 0x80029d <mix_button>
    119c:	81 11       	cpse	r24, r1
    119e:	04 c0       	rjmp	.+8      	; 0x11a8 <CDC_Protocol()+0x3a2>
    11a0:	80 e5       	ldi	r24, 0x50	; 80
    11a2:	91 e0       	ldi	r25, 0x01	; 1
    11a4:	0e 94 9e 03 	call	0x73c	; 0x73c <EnqueueString(unsigned char const*)>
    11a8:	0e 94 18 02 	call	0x430	; 0x430 <play()>
    11ac:	f2 ce       	rjmp	.-540    	; 0xf92 <CDC_Protocol()+0x18c>
    11ae:	80 91 9f 02 	lds	r24, 0x029F	; 0x80029f <playing>
    11b2:	81 30       	cpi	r24, 0x01	; 1
    11b4:	11 f4       	brne	.+4      	; 0x11ba <CDC_Protocol()+0x3b4>
    11b6:	0e 94 91 03 	call	0x722	; 0x722 <SetStateInitPlay()>
    11ba:	0e 94 f2 03 	call	0x7e4	; 0x7e4 <ResetTime()>
    11be:	8f e4       	ldi	r24, 0x4F	; 79
    11c0:	91 e0       	ldi	r25, 0x01	; 1
    11c2:	0e 94 9e 03 	call	0x73c	; 0x73c <EnqueueString(unsigned char const*)>
    11c6:	e5 ce       	rjmp	.-566    	; 0xf92 <CDC_Protocol()+0x18c>
    11c8:	0e 94 f2 03 	call	0x7e4	; 0x7e4 <ResetTime()>
    11cc:	8e e4       	ldi	r24, 0x4E	; 78
    11ce:	91 e0       	ldi	r25, 0x01	; 1
    11d0:	0e 94 9e 03 	call	0x73c	; 0x73c <EnqueueString(unsigned char const*)>
    11d4:	80 91 09 01 	lds	r24, 0x0109	; 0x800109 <disc>
    11d8:	81 50       	subi	r24, 0x01	; 1
    11da:	80 93 09 01 	sts	0x0109, r24	; 0x800109 <disc>
    11de:	8f 70       	andi	r24, 0x0F	; 15
    11e0:	09 f0       	breq	.+2      	; 0x11e4 <CDC_Protocol()+0x3de>
    11e2:	d7 ce       	rjmp	.-594    	; 0xf92 <CDC_Protocol()+0x18c>
    11e4:	86 e4       	ldi	r24, 0x46	; 70
    11e6:	80 93 09 01 	sts	0x0109, r24	; 0x800109 <disc>
    11ea:	d3 ce       	rjmp	.-602    	; 0xf92 <CDC_Protocol()+0x18c>
    11ec:	0e 94 f2 03 	call	0x7e4	; 0x7e4 <ResetTime()>
    11f0:	80 91 9e 02 	lds	r24, 0x029E	; 0x80029e <cd_button>
    11f4:	81 11       	cpse	r24, r1
    11f6:	0e c0       	rjmp	.+28     	; 0x1214 <CDC_Protocol()+0x40e>
    11f8:	8d e4       	ldi	r24, 0x4D	; 77
    11fa:	91 e0       	ldi	r25, 0x01	; 1
    11fc:	0e 94 9e 03 	call	0x73c	; 0x73c <EnqueueString(unsigned char const*)>
    1200:	80 91 09 01 	lds	r24, 0x0109	; 0x800109 <disc>
    1204:	8f 5f       	subi	r24, 0xFF	; 255
    1206:	80 93 09 01 	sts	0x0109, r24	; 0x800109 <disc>
    120a:	87 34       	cpi	r24, 0x47	; 71
    120c:	08 f4       	brcc	.+2      	; 0x1210 <CDC_Protocol()+0x40a>
    120e:	c1 ce       	rjmp	.-638    	; 0xf92 <CDC_Protocol()+0x18c>
    1210:	81 e4       	ldi	r24, 0x41	; 65
    1212:	e9 cf       	rjmp	.-46     	; 0x11e6 <CDC_Protocol()+0x3e0>
    1214:	10 92 9e 02 	sts	0x029E, r1	; 0x80029e <cd_button>
    1218:	bc ce       	rjmp	.-648    	; 0xf92 <CDC_Protocol()+0x18c>
    121a:	10 92 a1 02 	sts	0x02A1, r1	; 0x8002a1 <mix>
    121e:	ae cf       	rjmp	.-164    	; 0x117c <CDC_Protocol()+0x376>
    1220:	8e e0       	ldi	r24, 0x0E	; 14
    1222:	91 e0       	ldi	r25, 0x01	; 1
    1224:	ce cf       	rjmp	.-100    	; 0x11c2 <CDC_Protocol()+0x3bc>
    1226:	10 92 a0 02 	sts	0x02A0, r1	; 0x8002a0 <scan>
    122a:	69 cf       	rjmp	.-302    	; 0x10fe <CDC_Protocol()+0x2f8>
    122c:	80 91 9f 02 	lds	r24, 0x029F	; 0x80029f <playing>
    1230:	81 30       	cpi	r24, 0x01	; 1
    1232:	31 f4       	brne	.+12     	; 0x1240 <CDC_Protocol()+0x43a>
SetStateTrackLeadIn():
    1234:	88 e0       	ldi	r24, 0x08	; 8
    1236:	80 93 95 02 	sts	0x0295, r24	; 0x800295 <BIDIstate>
    123a:	84 ef       	ldi	r24, 0xF4	; 244
    123c:	80 93 94 02 	sts	0x0294, r24	; 0x800294 <BIDIcount>
DecodeCommand():
    1240:	0e 94 f2 03 	call	0x7e4	; 0x7e4 <ResetTime()>
    1244:	80 91 08 01 	lds	r24, 0x0108	; 0x800108 <track>
    1248:	98 2f       	mov	r25, r24
    124a:	9f 70       	andi	r25, 0x0F	; 15
    124c:	19 f4       	brne	.+6      	; 0x1254 <CDC_Protocol()+0x44e>
    124e:	86 50       	subi	r24, 0x06	; 6
    1250:	80 93 08 01 	sts	0x0108, r24	; 0x800108 <track>
    1254:	80 91 08 01 	lds	r24, 0x0108	; 0x800108 <track>
    1258:	81 50       	subi	r24, 0x01	; 1
    125a:	49 f0       	breq	.+18     	; 0x126e <CDC_Protocol()+0x468>
    125c:	80 93 08 01 	sts	0x0108, r24	; 0x800108 <track>
    1260:	85 ef       	ldi	r24, 0xF5	; 245
    1262:	90 e0       	ldi	r25, 0x00	; 0
    1264:	0e 94 9e 03 	call	0x73c	; 0x73c <EnqueueString(unsigned char const*)>
    1268:	0e 94 72 02 	call	0x4e4	; 0x4e4 <previousTrack()>
    126c:	92 ce       	rjmp	.-732    	; 0xf92 <CDC_Protocol()+0x18c>
    126e:	89 e9       	ldi	r24, 0x99	; 153
    1270:	f5 cf       	rjmp	.-22     	; 0x125c <CDC_Protocol()+0x456>
    1272:	81 e0       	ldi	r24, 0x01	; 1
    1274:	80 93 9e 02 	sts	0x029E, r24	; 0x80029e <cd_button>
    1278:	81 e4       	ldi	r24, 0x41	; 65
    127a:	80 93 09 01 	sts	0x0109, r24	; 0x800109 <disc>
cdButtonPushed():
    127e:	80 91 45 02 	lds	r24, 0x0245	; 0x800245 <cdButtonPushed(unsigned char)::cd6pushed>
    1282:	80 93 46 02 	sts	0x0246, r24	; 0x800246 <cdButtonPushed(unsigned char)::cd5pushed>
    1286:	80 93 47 02 	sts	0x0247, r24	; 0x800247 <cdButtonPushed(unsigned char)::cd4pushed>
    128a:	80 93 48 02 	sts	0x0248, r24	; 0x800248 <cdButtonPushed(unsigned char)::cd3pushed>
    128e:	80 93 49 02 	sts	0x0249, r24	; 0x800249 <cdButtonPushed(unsigned char)::cd2pushed>
    1292:	80 91 4a 02 	lds	r24, 0x024A	; 0x80024a <cdButtonPushed(unsigned char)::cd1pushed>
    1296:	8f 5f       	subi	r24, 0xFF	; 255
    1298:	80 93 4a 02 	sts	0x024A, r24	; 0x80024a <cdButtonPushed(unsigned char)::cd1pushed>
    129c:	86 30       	cpi	r24, 0x06	; 6
    129e:	11 f4       	brne	.+4      	; 0x12a4 <CDC_Protocol()+0x49e>
    12a0:	10 92 4a 02 	sts	0x024A, r1	; 0x80024a <cdButtonPushed(unsigned char)::cd1pushed>
DecodeCommand():
    12a4:	80 91 4a 02 	lds	r24, 0x024A	; 0x80024a <cdButtonPushed(unsigned char)::cd1pushed>
    12a8:	88 23       	and	r24, r24
    12aa:	21 f0       	breq	.+8      	; 0x12b4 <CDC_Protocol()+0x4ae>
    12ac:	8c e3       	ldi	r24, 0x3C	; 60
    12ae:	91 e0       	ldi	r25, 0x01	; 1
    12b0:	0e 94 9e 03 	call	0x73c	; 0x73c <EnqueueString(unsigned char const*)>
    12b4:	0e 94 90 02 	call	0x520	; 0x520 <receiver()>
    12b8:	6c ce       	rjmp	.-808    	; 0xf92 <CDC_Protocol()+0x18c>
    12ba:	81 e0       	ldi	r24, 0x01	; 1
    12bc:	80 93 9e 02 	sts	0x029E, r24	; 0x80029e <cd_button>
    12c0:	82 e4       	ldi	r24, 0x42	; 66
    12c2:	80 93 09 01 	sts	0x0109, r24	; 0x800109 <disc>
cdButtonPushed():
    12c6:	80 91 45 02 	lds	r24, 0x0245	; 0x800245 <cdButtonPushed(unsigned char)::cd6pushed>
    12ca:	80 93 46 02 	sts	0x0246, r24	; 0x800246 <cdButtonPushed(unsigned char)::cd5pushed>
    12ce:	80 93 47 02 	sts	0x0247, r24	; 0x800247 <cdButtonPushed(unsigned char)::cd4pushed>
    12d2:	80 93 48 02 	sts	0x0248, r24	; 0x800248 <cdButtonPushed(unsigned char)::cd3pushed>
    12d6:	80 93 49 02 	sts	0x0249, r24	; 0x800249 <cdButtonPushed(unsigned char)::cd2pushed>
    12da:	80 91 4a 02 	lds	r24, 0x024A	; 0x80024a <cdButtonPushed(unsigned char)::cd1pushed>
    12de:	8f 5f       	subi	r24, 0xFF	; 255
    12e0:	80 93 4a 02 	sts	0x024A, r24	; 0x80024a <cdButtonPushed(unsigned char)::cd1pushed>
    12e4:	86 30       	cpi	r24, 0x06	; 6
    12e6:	11 f4       	brne	.+4      	; 0x12ec <CDC_Protocol()+0x4e6>
    12e8:	10 92 4a 02 	sts	0x024A, r1	; 0x80024a <cdButtonPushed(unsigned char)::cd1pushed>
DecodeCommand():
    12ec:	80 91 4a 02 	lds	r24, 0x024A	; 0x80024a <cdButtonPushed(unsigned char)::cd1pushed>
    12f0:	88 23       	and	r24, r24
    12f2:	21 f0       	breq	.+8      	; 0x12fc <CDC_Protocol()+0x4f6>
    12f4:	8c e2       	ldi	r24, 0x2C	; 44
    12f6:	91 e0       	ldi	r25, 0x01	; 1
    12f8:	0e 94 9e 03 	call	0x73c	; 0x73c <EnqueueString(unsigned char const*)>
    12fc:	64 ed       	ldi	r22, 0xD4	; 212
    12fe:	71 e0       	ldi	r23, 0x01	; 1
    1300:	ce 01       	movw	r24, r28
    1302:	01 96       	adiw	r24, 0x01	; 1
    1304:	0e 94 a2 10 	call	0x2144	; 0x2144 <String::String(char const*)>
    1308:	ce 01       	movw	r24, r28
    130a:	01 96       	adiw	r24, 0x01	; 1
    130c:	0e 94 70 01 	call	0x2e0	; 0x2e0 <SendBt(String)>
    1310:	ce 01       	movw	r24, r28
    1312:	01 96       	adiw	r24, 0x01	; 1
    1314:	0e 94 33 10 	call	0x2066	; 0x2066 <String::~String()>
    1318:	3c ce       	rjmp	.-904    	; 0xf92 <CDC_Protocol()+0x18c>
    131a:	81 e0       	ldi	r24, 0x01	; 1
    131c:	80 93 9e 02 	sts	0x029E, r24	; 0x80029e <cd_button>
    1320:	86 e4       	ldi	r24, 0x46	; 70
    1322:	80 93 09 01 	sts	0x0109, r24	; 0x800109 <disc>
cdButtonPushed():
    1326:	80 91 46 02 	lds	r24, 0x0246	; 0x800246 <cdButtonPushed(unsigned char)::cd5pushed>
    132a:	80 93 47 02 	sts	0x0247, r24	; 0x800247 <cdButtonPushed(unsigned char)::cd4pushed>
    132e:	80 93 48 02 	sts	0x0248, r24	; 0x800248 <cdButtonPushed(unsigned char)::cd3pushed>
    1332:	80 93 49 02 	sts	0x0249, r24	; 0x800249 <cdButtonPushed(unsigned char)::cd2pushed>
    1336:	80 93 4a 02 	sts	0x024A, r24	; 0x80024a <cdButtonPushed(unsigned char)::cd1pushed>
    133a:	80 91 45 02 	lds	r24, 0x0245	; 0x800245 <cdButtonPushed(unsigned char)::cd6pushed>
    133e:	8f 5f       	subi	r24, 0xFF	; 255
    1340:	80 93 45 02 	sts	0x0245, r24	; 0x800245 <cdButtonPushed(unsigned char)::cd6pushed>
    1344:	86 30       	cpi	r24, 0x06	; 6
    1346:	11 f4       	brne	.+4      	; 0x134c <CDC_Protocol()+0x546>
    1348:	10 92 46 02 	sts	0x0246, r1	; 0x800246 <cdButtonPushed(unsigned char)::cd5pushed>
DecodeCommand():
    134c:	80 91 46 02 	lds	r24, 0x0246	; 0x800246 <cdButtonPushed(unsigned char)::cd5pushed>
    1350:	88 23       	and	r24, r24
    1352:	09 f4       	brne	.+2      	; 0x1356 <CDC_Protocol()+0x550>
    1354:	1e ce       	rjmp	.-964    	; 0xf92 <CDC_Protocol()+0x18c>
    1356:	8e e1       	ldi	r24, 0x1E	; 30
    1358:	91 e0       	ldi	r25, 0x01	; 1
    135a:	33 cf       	rjmp	.-410    	; 0x11c2 <CDC_Protocol()+0x3bc>
    135c:	80 91 9f 02 	lds	r24, 0x029F	; 0x80029f <playing>
    1360:	81 30       	cpi	r24, 0x01	; 1
    1362:	31 f4       	brne	.+12     	; 0x1370 <CDC_Protocol()+0x56a>
SetStateTP():
    1364:	10 92 9f 02 	sts	0x029F, r1	; 0x80029f <playing>
    1368:	8a e0       	ldi	r24, 0x0A	; 10
    136a:	80 93 95 02 	sts	0x0295, r24	; 0x800295 <BIDIstate>
    136e:	11 ce       	rjmp	.-990    	; 0xf92 <CDC_Protocol()+0x18c>
DecodeCommand():
    1370:	0e 94 91 03 	call	0x722	; 0x722 <SetStateInitPlay()>
    1374:	0e ce       	rjmp	.-996    	; 0xf92 <CDC_Protocol()+0x18c>
ScanCommandBytes():
    1376:	0e 94 c5 03 	call	0x78a	; 0x78a <DumpFullCommand()>
    137a:	0b ce       	rjmp	.-1002   	; 0xf92 <CDC_Protocol()+0x18c>
    137c:	80 93 8d 02 	sts	0x028D, r24	; 0x80028d <txoutptr>
_Z12CDC_Protocolv():
    1380:	26 96       	adiw	r28, 0x06	; 6
    1382:	0f b6       	in	r0, 0x3f	; 63
    1384:	f8 94       	cli
    1386:	de bf       	out	0x3e, r29	; 62
    1388:	0f be       	out	0x3f, r0	; 63
    138a:	cd bf       	out	0x3d, r28	; 61
    138c:	df 91       	pop	r29
    138e:	cf 91       	pop	r28
    1390:	08 95       	ret

00001392 <GetFlag500ms()>:
_Z12GetFlag500msv():
    1392:	90 91 4f 02 	lds	r25, 0x024F	; 0x80024f <flag_500ms>
    1396:	81 e0       	ldi	r24, 0x01	; 1
    1398:	91 30       	cpi	r25, 0x01	; 1
    139a:	09 f0       	breq	.+2      	; 0x139e <GetFlag500ms()+0xc>
    139c:	80 e0       	ldi	r24, 0x00	; 0
    139e:	08 95       	ret

000013a0 <ClearFlag500ms()>:
_Z14ClearFlag500msv():
C:\Users\mateu\AppData\Local\Temp\arduino_build_549653\sketch/cdc_function.cpp:2109

void ClearFlag500ms()
{
  flag_500ms = false;
    13a0:	10 92 4f 02 	sts	0x024F, r1	; 0x80024f <flag_500ms>
C:\Users\mateu\AppData\Local\Temp\arduino_build_549653\sketch/cdc_function.cpp:2110
}
    13a4:	08 95       	ret

000013a6 <Print::availableForWrite()>:
_ZN5Print17availableForWriteEv():
C:\Users\mateu\AppData\Local\Arduino15\packages\MiniCore\hardware\avr\2.0.9\libraries\SoftwareSerial\src/SoftwareSerial.cpp:308
uint16_t SoftwareSerial::subtract_cap(uint16_t num, uint16_t sub) {
  if (num > sub)
    return num - sub;
  else
    return 1;
}
    13a6:	90 e0       	ldi	r25, 0x00	; 0
    13a8:	80 e0       	ldi	r24, 0x00	; 0
    13aa:	08 95       	ret

000013ac <SoftwareSerial::read()>:
_ZN14SoftwareSerial4readEv():
    13ac:	20 91 ed 02 	lds	r18, 0x02ED	; 0x8002ed <SoftwareSerial::active_object>
    13b0:	30 91 ee 02 	lds	r19, 0x02EE	; 0x8002ee <SoftwareSerial::active_object+0x1>
    13b4:	28 17       	cp	r18, r24
    13b6:	39 07       	cpc	r19, r25
    13b8:	b9 f4       	brne	.+46     	; 0x13e8 <SoftwareSerial::read()+0x3c>
    13ba:	90 91 ab 02 	lds	r25, 0x02AB	; 0x8002ab <SoftwareSerial::_receive_buffer_head>
    13be:	80 91 ac 02 	lds	r24, 0x02AC	; 0x8002ac <SoftwareSerial::_receive_buffer_tail>
    13c2:	98 17       	cp	r25, r24
    13c4:	89 f0       	breq	.+34     	; 0x13e8 <SoftwareSerial::read()+0x3c>
    13c6:	e0 91 ab 02 	lds	r30, 0x02AB	; 0x8002ab <SoftwareSerial::_receive_buffer_head>
    13ca:	f0 e0       	ldi	r31, 0x00	; 0
    13cc:	e3 55       	subi	r30, 0x53	; 83
    13ce:	fd 4f       	sbci	r31, 0xFD	; 253
    13d0:	80 81       	ld	r24, Z
    13d2:	20 91 ab 02 	lds	r18, 0x02AB	; 0x8002ab <SoftwareSerial::_receive_buffer_head>
    13d6:	30 e0       	ldi	r19, 0x00	; 0
    13d8:	2f 5f       	subi	r18, 0xFF	; 255
    13da:	3f 4f       	sbci	r19, 0xFF	; 255
    13dc:	2f 73       	andi	r18, 0x3F	; 63
    13de:	33 27       	eor	r19, r19
    13e0:	20 93 ab 02 	sts	0x02AB, r18	; 0x8002ab <SoftwareSerial::_receive_buffer_head>
    13e4:	90 e0       	ldi	r25, 0x00	; 0
    13e6:	08 95       	ret
    13e8:	8f ef       	ldi	r24, 0xFF	; 255
    13ea:	9f ef       	ldi	r25, 0xFF	; 255
    13ec:	08 95       	ret

000013ee <SoftwareSerial::write(unsigned char)>:
_ZN14SoftwareSerial5writeEh():
    13ee:	ef 92       	push	r14
    13f0:	ff 92       	push	r15
    13f2:	0f 93       	push	r16
    13f4:	1f 93       	push	r17
    13f6:	cf 93       	push	r28
    13f8:	df 93       	push	r29
    13fa:	dc 01       	movw	r26, r24
    13fc:	5c 96       	adiw	r26, 0x1c	; 28
    13fe:	ed 90       	ld	r14, X+
    1400:	fc 90       	ld	r15, X
    1402:	5d 97       	sbiw	r26, 0x1d	; 29
    1404:	e1 14       	cp	r14, r1
    1406:	f1 04       	cpc	r15, r1
    1408:	79 f4       	brne	.+30     	; 0x1428 <SoftwareSerial::write(unsigned char)+0x3a>
_ZN5Print13setWriteErrorEi():
    140a:	81 e0       	ldi	r24, 0x01	; 1
    140c:	90 e0       	ldi	r25, 0x00	; 0
    140e:	13 96       	adiw	r26, 0x03	; 3
    1410:	9c 93       	st	X, r25
    1412:	8e 93       	st	-X, r24
    1414:	12 97       	sbiw	r26, 0x02	; 2
_ZN14SoftwareSerial5writeEh():
    1416:	90 e0       	ldi	r25, 0x00	; 0
    1418:	80 e0       	ldi	r24, 0x00	; 0
    141a:	df 91       	pop	r29
    141c:	cf 91       	pop	r28
    141e:	1f 91       	pop	r17
    1420:	0f 91       	pop	r16
    1422:	ff 90       	pop	r15
    1424:	ef 90       	pop	r14
    1426:	08 95       	ret
    1428:	51 96       	adiw	r26, 0x11	; 17
    142a:	ed 91       	ld	r30, X+
    142c:	fc 91       	ld	r31, X
    142e:	52 97       	sbiw	r26, 0x12	; 18
    1430:	50 96       	adiw	r26, 0x10	; 16
    1432:	8c 91       	ld	r24, X
    1434:	50 97       	sbiw	r26, 0x10	; 16
    1436:	98 2f       	mov	r25, r24
    1438:	90 95       	com	r25
    143a:	0f b7       	in	r16, 0x3f	; 63
    143c:	5e 96       	adiw	r26, 0x1e	; 30
    143e:	2c 91       	ld	r18, X
    1440:	5e 97       	sbiw	r26, 0x1e	; 30
    1442:	12 2f       	mov	r17, r18
    1444:	12 70       	andi	r17, 0x02	; 2
    1446:	21 fd       	sbrc	r18, 1
    1448:	60 95       	com	r22
    144a:	f8 94       	cli
    144c:	20 81       	ld	r18, Z
    144e:	11 23       	and	r17, r17
    1450:	19 f1       	breq	.+70     	; 0x1498 <SoftwareSerial::write(unsigned char)+0xaa>
    1452:	28 2b       	or	r18, r24
    1454:	20 83       	st	Z, r18
_delay_loop_2():
    1456:	e7 01       	movw	r28, r14
    1458:	21 97       	sbiw	r28, 0x01	; 1
    145a:	f1 f7       	brne	.-4      	; 0x1458 <SoftwareSerial::write(unsigned char)+0x6a>
    145c:	28 e0       	ldi	r18, 0x08	; 8
_ZN14SoftwareSerial5writeEh():
    145e:	46 2f       	mov	r20, r22
    1460:	50 e0       	ldi	r21, 0x00	; 0
    1462:	30 81       	ld	r19, Z
    1464:	60 ff       	sbrs	r22, 0
    1466:	1a c0       	rjmp	.+52     	; 0x149c <SoftwareSerial::write(unsigned char)+0xae>
    1468:	38 2b       	or	r19, r24
    146a:	30 83       	st	Z, r19
_delay_loop_2():
    146c:	e7 01       	movw	r28, r14
    146e:	21 97       	sbiw	r28, 0x01	; 1
    1470:	f1 f7       	brne	.-4      	; 0x146e <SoftwareSerial::write(unsigned char)+0x80>
_ZN14SoftwareSerial5writeEh():
    1472:	ba 01       	movw	r22, r20
    1474:	75 95       	asr	r23
    1476:	67 95       	ror	r22
    1478:	21 50       	subi	r18, 0x01	; 1
    147a:	89 f7       	brne	.-30     	; 0x145e <SoftwareSerial::write(unsigned char)+0x70>
    147c:	11 23       	and	r17, r17
    147e:	81 f0       	breq	.+32     	; 0x14a0 <SoftwareSerial::write(unsigned char)+0xb2>
    1480:	80 81       	ld	r24, Z
    1482:	89 23       	and	r24, r25
    1484:	80 83       	st	Z, r24
    1486:	0f bf       	out	0x3f, r16	; 63
_delay_loop_2():
    1488:	5c 96       	adiw	r26, 0x1c	; 28
    148a:	8d 91       	ld	r24, X+
    148c:	9c 91       	ld	r25, X
    148e:	01 97       	sbiw	r24, 0x01	; 1
    1490:	f1 f7       	brne	.-4      	; 0x148e <SoftwareSerial::write(unsigned char)+0xa0>
_ZN14SoftwareSerial5writeEh():
    1492:	81 e0       	ldi	r24, 0x01	; 1
    1494:	90 e0       	ldi	r25, 0x00	; 0
    1496:	c1 cf       	rjmp	.-126    	; 0x141a <SoftwareSerial::write(unsigned char)+0x2c>
    1498:	29 23       	and	r18, r25
    149a:	dc cf       	rjmp	.-72     	; 0x1454 <SoftwareSerial::write(unsigned char)+0x66>
    149c:	39 23       	and	r19, r25
    149e:	e5 cf       	rjmp	.-54     	; 0x146a <SoftwareSerial::write(unsigned char)+0x7c>
    14a0:	90 81       	ld	r25, Z
    14a2:	89 2b       	or	r24, r25
    14a4:	ef cf       	rjmp	.-34     	; 0x1484 <SoftwareSerial::write(unsigned char)+0x96>

000014a6 <SoftwareSerial::flush()>:
_ZN14SoftwareSerial5flushEv():
    14a6:	08 95       	ret

000014a8 <SoftwareSerial::peek()>:
_ZN14SoftwareSerial4peekEv():
    14a8:	20 91 ed 02 	lds	r18, 0x02ED	; 0x8002ed <SoftwareSerial::active_object>
    14ac:	30 91 ee 02 	lds	r19, 0x02EE	; 0x8002ee <SoftwareSerial::active_object+0x1>
    14b0:	28 17       	cp	r18, r24
    14b2:	39 07       	cpc	r19, r25
    14b4:	71 f4       	brne	.+28     	; 0x14d2 <SoftwareSerial::peek()+0x2a>
    14b6:	90 91 ab 02 	lds	r25, 0x02AB	; 0x8002ab <SoftwareSerial::_receive_buffer_head>
    14ba:	80 91 ac 02 	lds	r24, 0x02AC	; 0x8002ac <SoftwareSerial::_receive_buffer_tail>
    14be:	98 17       	cp	r25, r24
    14c0:	41 f0       	breq	.+16     	; 0x14d2 <SoftwareSerial::peek()+0x2a>
    14c2:	e0 91 ab 02 	lds	r30, 0x02AB	; 0x8002ab <SoftwareSerial::_receive_buffer_head>
    14c6:	f0 e0       	ldi	r31, 0x00	; 0
    14c8:	e3 55       	subi	r30, 0x53	; 83
    14ca:	fd 4f       	sbci	r31, 0xFD	; 253
    14cc:	80 81       	ld	r24, Z
    14ce:	90 e0       	ldi	r25, 0x00	; 0
    14d0:	08 95       	ret
    14d2:	8f ef       	ldi	r24, 0xFF	; 255
    14d4:	9f ef       	ldi	r25, 0xFF	; 255
    14d6:	08 95       	ret

000014d8 <SoftwareSerial::available()>:
_ZN14SoftwareSerial9availableEv():
    14d8:	20 91 ed 02 	lds	r18, 0x02ED	; 0x8002ed <SoftwareSerial::active_object>
    14dc:	30 91 ee 02 	lds	r19, 0x02EE	; 0x8002ee <SoftwareSerial::active_object+0x1>
    14e0:	28 17       	cp	r18, r24
    14e2:	39 07       	cpc	r19, r25
    14e4:	71 f4       	brne	.+28     	; 0x1502 <SoftwareSerial::available()+0x2a>
    14e6:	80 91 ac 02 	lds	r24, 0x02AC	; 0x8002ac <SoftwareSerial::_receive_buffer_tail>
    14ea:	20 91 ab 02 	lds	r18, 0x02AB	; 0x8002ab <SoftwareSerial::_receive_buffer_head>
    14ee:	90 e0       	ldi	r25, 0x00	; 0
    14f0:	80 5c       	subi	r24, 0xC0	; 192
    14f2:	9f 4f       	sbci	r25, 0xFF	; 255
    14f4:	82 1b       	sub	r24, r18
    14f6:	91 09       	sbc	r25, r1
    14f8:	60 e4       	ldi	r22, 0x40	; 64
    14fa:	70 e0       	ldi	r23, 0x00	; 0
    14fc:	0e 94 82 11 	call	0x2304	; 0x2304 <__divmodhi4>
    1500:	08 95       	ret
    1502:	90 e0       	ldi	r25, 0x00	; 0
    1504:	80 e0       	ldi	r24, 0x00	; 0
    1506:	08 95       	ret

00001508 <SoftwareSerial::stopListening()>:
_ZN14SoftwareSerial13stopListeningEv():
    1508:	e0 91 ed 02 	lds	r30, 0x02ED	; 0x8002ed <SoftwareSerial::active_object>
    150c:	f0 91 ee 02 	lds	r31, 0x02EE	; 0x8002ee <SoftwareSerial::active_object+0x1>
    1510:	e8 17       	cp	r30, r24
    1512:	f9 07       	cpc	r31, r25
    1514:	69 f4       	brne	.+26     	; 0x1530 <SoftwareSerial::stopListening()+0x28>
_ZN14SoftwareSerial11setRxIntMskEb():
    1516:	a3 89       	ldd	r26, Z+19	; 0x13
    1518:	b4 89       	ldd	r27, Z+20	; 0x14
    151a:	9c 91       	ld	r25, X
    151c:	85 89       	ldd	r24, Z+21	; 0x15
    151e:	80 95       	com	r24
    1520:	89 23       	and	r24, r25
    1522:	8c 93       	st	X, r24
_ZN14SoftwareSerial13stopListeningEv():
    1524:	10 92 ee 02 	sts	0x02EE, r1	; 0x8002ee <SoftwareSerial::active_object+0x1>
    1528:	10 92 ed 02 	sts	0x02ED, r1	; 0x8002ed <SoftwareSerial::active_object>
    152c:	81 e0       	ldi	r24, 0x01	; 1
    152e:	08 95       	ret
    1530:	80 e0       	ldi	r24, 0x00	; 0
    1532:	08 95       	ret

00001534 <SoftwareSerial::listen()>:
_ZN14SoftwareSerial6listenEv():
    1534:	cf 93       	push	r28
    1536:	df 93       	push	r29
    1538:	ec 01       	movw	r28, r24
    153a:	8a 8d       	ldd	r24, Y+26	; 0x1a
    153c:	9b 8d       	ldd	r25, Y+27	; 0x1b
    153e:	89 2b       	or	r24, r25
    1540:	01 f1       	breq	.+64     	; 0x1582 <SoftwareSerial::listen()+0x4e>
    1542:	80 91 ed 02 	lds	r24, 0x02ED	; 0x8002ed <SoftwareSerial::active_object>
    1546:	90 91 ee 02 	lds	r25, 0x02EE	; 0x8002ee <SoftwareSerial::active_object+0x1>
    154a:	8c 17       	cp	r24, r28
    154c:	9d 07       	cpc	r25, r29
    154e:	c9 f0       	breq	.+50     	; 0x1582 <SoftwareSerial::listen()+0x4e>
    1550:	00 97       	sbiw	r24, 0x00	; 0
    1552:	11 f0       	breq	.+4      	; 0x1558 <SoftwareSerial::listen()+0x24>
    1554:	0e 94 84 0a 	call	0x1508	; 0x1508 <SoftwareSerial::stopListening()>
    1558:	8e 8d       	ldd	r24, Y+30	; 0x1e
    155a:	8e 7f       	andi	r24, 0xFE	; 254
    155c:	8e 8f       	std	Y+30, r24	; 0x1e
    155e:	10 92 ac 02 	sts	0x02AC, r1	; 0x8002ac <SoftwareSerial::_receive_buffer_tail>
    1562:	10 92 ab 02 	sts	0x02AB, r1	; 0x8002ab <SoftwareSerial::_receive_buffer_head>
    1566:	d0 93 ee 02 	sts	0x02EE, r29	; 0x8002ee <SoftwareSerial::active_object+0x1>
    156a:	c0 93 ed 02 	sts	0x02ED, r28	; 0x8002ed <SoftwareSerial::active_object>
_ZN14SoftwareSerial11setRxIntMskEb():
    156e:	eb 89       	ldd	r30, Y+19	; 0x13
    1570:	fc 89       	ldd	r31, Y+20	; 0x14
    1572:	80 81       	ld	r24, Z
    1574:	9d 89       	ldd	r25, Y+21	; 0x15
    1576:	89 2b       	or	r24, r25
    1578:	80 83       	st	Z, r24
    157a:	81 e0       	ldi	r24, 0x01	; 1
_ZN14SoftwareSerial6listenEv():
    157c:	df 91       	pop	r29
    157e:	cf 91       	pop	r28
    1580:	08 95       	ret
    1582:	80 e0       	ldi	r24, 0x00	; 0
    1584:	fb cf       	rjmp	.-10     	; 0x157c <SoftwareSerial::listen()+0x48>

00001586 <__vector_27>:
__vector_3():
    1586:	1f 92       	push	r1
    1588:	0f 92       	push	r0
    158a:	0f b6       	in	r0, 0x3f	; 63
    158c:	0f 92       	push	r0
    158e:	11 24       	eor	r1, r1
    1590:	2f 93       	push	r18
    1592:	3f 93       	push	r19
    1594:	4f 93       	push	r20
    1596:	5f 93       	push	r21
    1598:	6f 93       	push	r22
    159a:	7f 93       	push	r23
    159c:	8f 93       	push	r24
    159e:	9f 93       	push	r25
    15a0:	af 93       	push	r26
    15a2:	bf 93       	push	r27
    15a4:	ef 93       	push	r30
    15a6:	ff 93       	push	r31
_ZN14SoftwareSerial16handle_interruptEv():
    15a8:	e0 91 ed 02 	lds	r30, 0x02ED	; 0x8002ed <SoftwareSerial::active_object>
    15ac:	f0 91 ee 02 	lds	r31, 0x02EE	; 0x8002ee <SoftwareSerial::active_object+0x1>
    15b0:	30 97       	sbiw	r30, 0x00	; 0
    15b2:	49 f0       	breq	.+18     	; 0x15c6 <__vector_27+0x40>
    15b4:	a6 85       	ldd	r26, Z+14	; 0x0e
    15b6:	b7 85       	ldd	r27, Z+15	; 0x0f
    15b8:	85 85       	ldd	r24, Z+13	; 0x0d
_ZN14SoftwareSerial4recvEv():
    15ba:	96 8d       	ldd	r25, Z+30	; 0x1e
    15bc:	91 ff       	sbrs	r25, 1
    15be:	14 c0       	rjmp	.+40     	; 0x15e8 <__vector_27+0x62>
_ZN14SoftwareSerial11rx_pin_readEv():
    15c0:	9c 91       	ld	r25, X
    15c2:	89 23       	and	r24, r25
_ZN14SoftwareSerial4recvEv():
    15c4:	a1 f4       	brne	.+40     	; 0x15ee <__vector_27+0x68>
__vector_3():
    15c6:	ff 91       	pop	r31
    15c8:	ef 91       	pop	r30
    15ca:	bf 91       	pop	r27
    15cc:	af 91       	pop	r26
    15ce:	9f 91       	pop	r25
    15d0:	8f 91       	pop	r24
    15d2:	7f 91       	pop	r23
    15d4:	6f 91       	pop	r22
    15d6:	5f 91       	pop	r21
    15d8:	4f 91       	pop	r20
    15da:	3f 91       	pop	r19
    15dc:	2f 91       	pop	r18
    15de:	0f 90       	pop	r0
    15e0:	0f be       	out	0x3f, r0	; 63
    15e2:	0f 90       	pop	r0
    15e4:	1f 90       	pop	r1
    15e6:	18 95       	reti
_ZN14SoftwareSerial11rx_pin_readEv():
    15e8:	9c 91       	ld	r25, X
    15ea:	89 23       	and	r24, r25
_ZN14SoftwareSerial4recvEv():
    15ec:	61 f7       	brne	.-40     	; 0x15c6 <__vector_27+0x40>
_ZN14SoftwareSerial11setRxIntMskEb():
    15ee:	a3 89       	ldd	r26, Z+19	; 0x13
    15f0:	b4 89       	ldd	r27, Z+20	; 0x14
    15f2:	9c 91       	ld	r25, X
    15f4:	85 89       	ldd	r24, Z+21	; 0x15
    15f6:	80 95       	com	r24
    15f8:	89 23       	and	r24, r25
    15fa:	8c 93       	st	X, r24
_delay_loop_2():
    15fc:	86 89       	ldd	r24, Z+22	; 0x16
    15fe:	97 89       	ldd	r25, Z+23	; 0x17
    1600:	01 97       	sbiw	r24, 0x01	; 1
    1602:	f1 f7       	brne	.-4      	; 0x1600 <__vector_27+0x7a>
_ZN14SoftwareSerial4recvEv():
    1604:	60 8d       	ldd	r22, Z+24	; 0x18
    1606:	71 8d       	ldd	r23, Z+25	; 0x19
_ZN14SoftwareSerial11rx_pin_readEv():
    1608:	a6 85       	ldd	r26, Z+14	; 0x0e
    160a:	b7 85       	ldd	r27, Z+15	; 0x0f
    160c:	55 85       	ldd	r21, Z+13	; 0x0d
    160e:	38 e0       	ldi	r19, 0x08	; 8
_ZN14SoftwareSerial4recvEv():
    1610:	20 e0       	ldi	r18, 0x00	; 0
_delay_loop_2():
    1612:	cb 01       	movw	r24, r22
    1614:	01 97       	sbiw	r24, 0x01	; 1
    1616:	f1 f7       	brne	.-4      	; 0x1614 <__vector_27+0x8e>
_ZN14SoftwareSerial4recvEv():
    1618:	82 2f       	mov	r24, r18
    161a:	90 e0       	ldi	r25, 0x00	; 0
    161c:	95 95       	asr	r25
    161e:	87 95       	ror	r24
    1620:	28 2f       	mov	r18, r24
_ZN14SoftwareSerial11rx_pin_readEv():
    1622:	4c 91       	ld	r20, X
    1624:	45 23       	and	r20, r21
_ZN14SoftwareSerial4recvEv():
    1626:	09 f0       	breq	.+2      	; 0x162a <__vector_27+0xa4>
    1628:	20 68       	ori	r18, 0x80	; 128
    162a:	31 50       	subi	r19, 0x01	; 1
    162c:	91 f7       	brne	.-28     	; 0x1612 <__vector_27+0x8c>
    162e:	86 8d       	ldd	r24, Z+30	; 0x1e
    1630:	81 fd       	sbrc	r24, 1
    1632:	20 95       	com	r18
    1634:	80 91 ac 02 	lds	r24, 0x02AC	; 0x8002ac <SoftwareSerial::_receive_buffer_tail>
    1638:	90 e0       	ldi	r25, 0x00	; 0
    163a:	01 96       	adiw	r24, 0x01	; 1
    163c:	8f 73       	andi	r24, 0x3F	; 63
    163e:	99 27       	eor	r25, r25
    1640:	30 91 ab 02 	lds	r19, 0x02AB	; 0x8002ab <SoftwareSerial::_receive_buffer_head>
    1644:	38 17       	cp	r19, r24
    1646:	99 f0       	breq	.+38     	; 0x166e <__vector_27+0xe8>
    1648:	a0 91 ac 02 	lds	r26, 0x02AC	; 0x8002ac <SoftwareSerial::_receive_buffer_tail>
    164c:	b0 e0       	ldi	r27, 0x00	; 0
    164e:	a3 55       	subi	r26, 0x53	; 83
    1650:	bd 4f       	sbci	r27, 0xFD	; 253
    1652:	2c 93       	st	X, r18
    1654:	80 93 ac 02 	sts	0x02AC, r24	; 0x8002ac <SoftwareSerial::_receive_buffer_tail>
_delay_loop_2():
    1658:	82 8d       	ldd	r24, Z+26	; 0x1a
    165a:	93 8d       	ldd	r25, Z+27	; 0x1b
    165c:	01 97       	sbiw	r24, 0x01	; 1
    165e:	f1 f7       	brne	.-4      	; 0x165c <__vector_27+0xd6>
_ZN14SoftwareSerial11setRxIntMskEb():
    1660:	a3 89       	ldd	r26, Z+19	; 0x13
    1662:	b4 89       	ldd	r27, Z+20	; 0x14
    1664:	8c 91       	ld	r24, X
    1666:	95 89       	ldd	r25, Z+21	; 0x15
    1668:	89 2b       	or	r24, r25
    166a:	8c 93       	st	X, r24
__vector_3():
    166c:	ac cf       	rjmp	.-168    	; 0x15c6 <__vector_27+0x40>
_ZN14SoftwareSerial4recvEv():
    166e:	86 8d       	ldd	r24, Z+30	; 0x1e
    1670:	81 60       	ori	r24, 0x01	; 1
    1672:	86 8f       	std	Z+30, r24	; 0x1e
    1674:	f1 cf       	rjmp	.-30     	; 0x1658 <__vector_27+0xd2>

00001676 <SoftwareSerial::~SoftwareSerial()>:
_ZN14SoftwareSerialD2Ev():
    1676:	2c ee       	ldi	r18, 0xEC	; 236
    1678:	31 e0       	ldi	r19, 0x01	; 1
    167a:	fc 01       	movw	r30, r24
    167c:	31 83       	std	Z+1, r19	; 0x01
    167e:	20 83       	st	Z, r18
_ZN14SoftwareSerial3endEv():
    1680:	0c 94 84 0a 	jmp	0x1508	; 0x1508 <SoftwareSerial::stopListening()>

00001684 <SoftwareSerial::setTX(signed char)>:
_ZN14SoftwareSerial5setTXEa():
    1684:	1f 93       	push	r17
    1686:	cf 93       	push	r28
    1688:	df 93       	push	r29
    168a:	ec 01       	movw	r28, r24
    168c:	16 2f       	mov	r17, r22
    168e:	6e 8d       	ldd	r22, Y+30	; 0x1e
    1690:	66 95       	lsr	r22
    1692:	61 70       	andi	r22, 0x01	; 1
    1694:	81 e0       	ldi	r24, 0x01	; 1
    1696:	68 27       	eor	r22, r24
    1698:	81 2f       	mov	r24, r17
    169a:	0e 94 ec 0d 	call	0x1bd8	; 0x1bd8 <digitalWrite>
    169e:	61 e0       	ldi	r22, 0x01	; 1
    16a0:	81 2f       	mov	r24, r17
    16a2:	0e 94 b0 0d 	call	0x1b60	; 0x1b60 <pinMode>
    16a6:	81 2f       	mov	r24, r17
    16a8:	11 0f       	add	r17, r17
    16aa:	99 0b       	sbc	r25, r25
    16ac:	fc 01       	movw	r30, r24
    16ae:	e1 59       	subi	r30, 0x91	; 145
    16b0:	fe 4f       	sbci	r31, 0xFE	; 254
    16b2:	e4 91       	lpm	r30, Z
    16b4:	e8 8b       	std	Y+16, r30	; 0x10
    16b6:	fc 01       	movw	r30, r24
    16b8:	e6 57       	subi	r30, 0x76	; 118
    16ba:	fe 4f       	sbci	r31, 0xFE	; 254
    16bc:	e4 91       	lpm	r30, Z
    16be:	f0 e0       	ldi	r31, 0x00	; 0
    16c0:	ee 0f       	add	r30, r30
    16c2:	ff 1f       	adc	r31, r31
    16c4:	ef 54       	subi	r30, 0x4F	; 79
    16c6:	fe 4f       	sbci	r31, 0xFE	; 254
    16c8:	85 91       	lpm	r24, Z+
    16ca:	94 91       	lpm	r25, Z
    16cc:	9a 8b       	std	Y+18, r25	; 0x12
    16ce:	89 8b       	std	Y+17, r24	; 0x11
    16d0:	df 91       	pop	r29
    16d2:	cf 91       	pop	r28
    16d4:	1f 91       	pop	r17
    16d6:	08 95       	ret

000016d8 <SoftwareSerial::setRX(signed char)>:
_ZN14SoftwareSerial5setRXEa():
    16d8:	1f 93       	push	r17
    16da:	cf 93       	push	r28
    16dc:	df 93       	push	r29
    16de:	ec 01       	movw	r28, r24
    16e0:	16 2f       	mov	r17, r22
    16e2:	60 e0       	ldi	r22, 0x00	; 0
    16e4:	81 2f       	mov	r24, r17
    16e6:	0e 94 b0 0d 	call	0x1b60	; 0x1b60 <pinMode>
    16ea:	8e 8d       	ldd	r24, Y+30	; 0x1e
    16ec:	81 fd       	sbrc	r24, 1
    16ee:	04 c0       	rjmp	.+8      	; 0x16f8 <SoftwareSerial::setRX(signed char)+0x20>
    16f0:	61 e0       	ldi	r22, 0x01	; 1
    16f2:	81 2f       	mov	r24, r17
    16f4:	0e 94 ec 0d 	call	0x1bd8	; 0x1bd8 <digitalWrite>
    16f8:	1c 87       	std	Y+12, r17	; 0x0c
    16fa:	81 2f       	mov	r24, r17
    16fc:	11 0f       	add	r17, r17
    16fe:	99 0b       	sbc	r25, r25
    1700:	fc 01       	movw	r30, r24
    1702:	e1 59       	subi	r30, 0x91	; 145
    1704:	fe 4f       	sbci	r31, 0xFE	; 254
    1706:	e4 91       	lpm	r30, Z
    1708:	ed 87       	std	Y+13, r30	; 0x0d
    170a:	fc 01       	movw	r30, r24
    170c:	e6 57       	subi	r30, 0x76	; 118
    170e:	fe 4f       	sbci	r31, 0xFE	; 254
    1710:	e4 91       	lpm	r30, Z
    1712:	f0 e0       	ldi	r31, 0x00	; 0
    1714:	ee 0f       	add	r30, r30
    1716:	ff 1f       	adc	r31, r31
    1718:	eb 55       	subi	r30, 0x5B	; 91
    171a:	fe 4f       	sbci	r31, 0xFE	; 254
    171c:	85 91       	lpm	r24, Z+
    171e:	94 91       	lpm	r25, Z
    1720:	9f 87       	std	Y+15, r25	; 0x0f
    1722:	8e 87       	std	Y+14, r24	; 0x0e
    1724:	df 91       	pop	r29
    1726:	cf 91       	pop	r28
    1728:	1f 91       	pop	r17
    172a:	08 95       	ret

0000172c <SoftwareSerial::SoftwareSerial(signed char, signed char, bool)>:
_ZN14SoftwareSerialC2Eaab():
    172c:	1f 93       	push	r17
    172e:	cf 93       	push	r28
    1730:	df 93       	push	r29
    1732:	ec 01       	movw	r28, r24
    1734:	16 2f       	mov	r17, r22
_ZN5PrintC4Ev():
    1736:	1b 82       	std	Y+3, r1	; 0x03
    1738:	1a 82       	std	Y+2, r1	; 0x02
_ZN6StreamC4Ev():
    173a:	88 ee       	ldi	r24, 0xE8	; 232
    173c:	93 e0       	ldi	r25, 0x03	; 3
    173e:	a0 e0       	ldi	r26, 0x00	; 0
    1740:	b0 e0       	ldi	r27, 0x00	; 0
    1742:	8c 83       	std	Y+4, r24	; 0x04
    1744:	9d 83       	std	Y+5, r25	; 0x05
    1746:	ae 83       	std	Y+6, r26	; 0x06
    1748:	bf 83       	std	Y+7, r27	; 0x07
_ZN14SoftwareSerialC2Eaab():
    174a:	8c ee       	ldi	r24, 0xEC	; 236
    174c:	91 e0       	ldi	r25, 0x01	; 1
    174e:	99 83       	std	Y+1, r25	; 0x01
    1750:	88 83       	st	Y, r24
    1752:	1f 8a       	std	Y+23, r1	; 0x17
    1754:	1e 8a       	std	Y+22, r1	; 0x16
    1756:	19 8e       	std	Y+25, r1	; 0x19
    1758:	18 8e       	std	Y+24, r1	; 0x18
    175a:	1b 8e       	std	Y+27, r1	; 0x1b
    175c:	1a 8e       	std	Y+26, r1	; 0x1a
    175e:	1d 8e       	std	Y+29, r1	; 0x1d
    1760:	1c 8e       	std	Y+28, r1	; 0x1c
    1762:	8e 8d       	ldd	r24, Y+30	; 0x1e
    1764:	8e 7f       	andi	r24, 0xFE	; 254
    1766:	20 fb       	bst	r18, 0
    1768:	81 f9       	bld	r24, 1
    176a:	8e 8f       	std	Y+30, r24	; 0x1e
    176c:	64 2f       	mov	r22, r20
    176e:	ce 01       	movw	r24, r28
    1770:	0e 94 42 0b 	call	0x1684	; 0x1684 <SoftwareSerial::setTX(signed char)>
    1774:	61 2f       	mov	r22, r17
    1776:	ce 01       	movw	r24, r28
    1778:	df 91       	pop	r29
    177a:	cf 91       	pop	r28
    177c:	1f 91       	pop	r17
    177e:	0c 94 6c 0b 	jmp	0x16d8	; 0x16d8 <SoftwareSerial::setRX(signed char)>

00001782 <SoftwareSerial::begin(long)>:
_ZN14SoftwareSerial5beginEl():
C:\Users\mateu\AppData\Local\Arduino15\packages\MiniCore\hardware\avr\2.0.9\libraries\SoftwareSerial\src/SoftwareSerial.cpp:315
//
// Public methods
//

void SoftwareSerial::begin(long speed)
{ 
    1782:	cf 93       	push	r28
    1784:	df 93       	push	r29
    1786:	ec 01       	movw	r28, r24
    1788:	9a 01       	movw	r18, r20
    178a:	ab 01       	movw	r20, r22
C:\Users\mateu\AppData\Local\Arduino15\packages\MiniCore\hardware\avr\2.0.9\libraries\SoftwareSerial\src/SoftwareSerial.cpp:316
  _rx_delay_centering = _rx_delay_intrabit = _rx_delay_stopbit = _tx_delay = 0;
    178c:	1b 8e       	std	Y+27, r1	; 0x1b
    178e:	1a 8e       	std	Y+26, r1	; 0x1a
    1790:	19 8e       	std	Y+25, r1	; 0x19
    1792:	18 8e       	std	Y+24, r1	; 0x18
    1794:	1f 8a       	std	Y+23, r1	; 0x17
    1796:	1e 8a       	std	Y+22, r1	; 0x16
C:\Users\mateu\AppData\Local\Arduino15\packages\MiniCore\hardware\avr\2.0.9\libraries\SoftwareSerial\src/SoftwareSerial.cpp:319

  // Precalculate the various delays, in number of 4-cycle delays
  uint16_t bit_delay = (F_CPU / speed) / 4;
    1798:	60 e0       	ldi	r22, 0x00	; 0
    179a:	79 e0       	ldi	r23, 0x09	; 9
    179c:	8d e3       	ldi	r24, 0x3D	; 61
    179e:	90 e0       	ldi	r25, 0x00	; 0
    17a0:	0e 94 b8 11 	call	0x2370	; 0x2370 <__divmodsi4>
    17a4:	f9 01       	movw	r30, r18
_ZN14SoftwareSerial12subtract_capEjj():
C:\Users\mateu\AppData\Local\Arduino15\packages\MiniCore\hardware\avr\2.0.9\libraries\SoftwareSerial\src/SoftwareSerial.cpp:305
  _receivePortRegister = portInputRegister(port);
}

uint16_t SoftwareSerial::subtract_cap(uint16_t num, uint16_t sub) {
  if (num > sub)
    return num - sub;
    17a6:	c9 01       	movw	r24, r18
    17a8:	03 97       	sbiw	r24, 0x03	; 3
C:\Users\mateu\AppData\Local\Arduino15\packages\MiniCore\hardware\avr\2.0.9\libraries\SoftwareSerial\src/SoftwareSerial.cpp:304
  uint8_t port = digitalPinToPort(rx);
  _receivePortRegister = portInputRegister(port);
}

uint16_t SoftwareSerial::subtract_cap(uint16_t num, uint16_t sub) {
  if (num > sub)
    17aa:	24 30       	cpi	r18, 0x04	; 4
    17ac:	31 05       	cpc	r19, r1
    17ae:	10 f4       	brcc	.+4      	; 0x17b4 <SoftwareSerial::begin(long)+0x32>
C:\Users\mateu\AppData\Local\Arduino15\packages\MiniCore\hardware\avr\2.0.9\libraries\SoftwareSerial\src/SoftwareSerial.cpp:307
    return num - sub;
  else
    return 1;
    17b0:	81 e0       	ldi	r24, 0x01	; 1
    17b2:	90 e0       	ldi	r25, 0x00	; 0
_ZN14SoftwareSerial5beginEl():
C:\Users\mateu\AppData\Local\Arduino15\packages\MiniCore\hardware\avr\2.0.9\libraries\SoftwareSerial\src/SoftwareSerial.cpp:326
  // 12 (gcc 4.8.2) or 13 (gcc 4.3.2) cycles from start bit to first bit,
  // 15 (gcc 4.8.2) or 16 (gcc 4.3.2) cycles between bits,
  // 12 (gcc 4.8.2) or 14 (gcc 4.3.2) cycles from last bit to stop bit
  // These are all close enough to just use 15 cycles, since the inter-bit
  // timings are the most critical (deviations stack 8 times)
  _tx_delay = subtract_cap(bit_delay, 15 / 4);
    17b4:	9d 8f       	std	Y+29, r25	; 0x1d
    17b6:	8c 8f       	std	Y+28, r24	; 0x1c
C:\Users\mateu\AppData\Local\Arduino15\packages\MiniCore\hardware\avr\2.0.9\libraries\SoftwareSerial\src/SoftwareSerial.cpp:330

#if defined(PCINT_ONLY) || defined(INT_AND_PCINT)
  // Only setup rx when we have a valid PCINT for this pin
  if (digitalPinToPCICR(_receivePin)) {
    17b8:	6c 85       	ldd	r22, Y+12	; 0x0c
    17ba:	6b 31       	cpi	r22, 0x1B	; 27
    17bc:	08 f0       	brcs	.+2      	; 0x17c0 <SoftwareSerial::begin(long)+0x3e>
    17be:	61 c0       	rjmp	.+194    	; 0x1882 <SoftwareSerial::begin(long)+0x100>
C:\Users\mateu\AppData\Local\Arduino15\packages\MiniCore\hardware\avr\2.0.9\libraries\SoftwareSerial\src/SoftwareSerial.cpp:345
    // are 17 more cycles until the pin value is read (excluding the
    // delay in the loop).
    // We want to have a total delay of 1.5 bit time. Inside the loop,
    // we already wait for 1 bit time - 23 cycles, so here we wait for
    // 0.5 bit time - (71 + 18 - 22) cycles.
    _rx_delay_centering = subtract_cap(bit_delay / 2, (4 + 4 + 75 + 17 - 23) / 4);
    17c0:	c9 01       	movw	r24, r18
    17c2:	96 95       	lsr	r25
    17c4:	87 95       	ror	r24
_ZN14SoftwareSerial12subtract_capEjj():
C:\Users\mateu\AppData\Local\Arduino15\packages\MiniCore\hardware\avr\2.0.9\libraries\SoftwareSerial\src/SoftwareSerial.cpp:304
  uint8_t port = digitalPinToPort(rx);
  _receivePortRegister = portInputRegister(port);
}

uint16_t SoftwareSerial::subtract_cap(uint16_t num, uint16_t sub) {
  if (num > sub)
    17c6:	84 31       	cpi	r24, 0x14	; 20
    17c8:	91 05       	cpc	r25, r1
    17ca:	58 f1       	brcs	.+86     	; 0x1822 <SoftwareSerial::begin(long)+0xa0>
C:\Users\mateu\AppData\Local\Arduino15\packages\MiniCore\hardware\avr\2.0.9\libraries\SoftwareSerial\src/SoftwareSerial.cpp:305
    return num - sub;
    17cc:	43 97       	sbiw	r24, 0x13	; 19
_ZN14SoftwareSerial5beginEl():
C:\Users\mateu\AppData\Local\Arduino15\packages\MiniCore\hardware\avr\2.0.9\libraries\SoftwareSerial\src/SoftwareSerial.cpp:345
    // are 17 more cycles until the pin value is read (excluding the
    // delay in the loop).
    // We want to have a total delay of 1.5 bit time. Inside the loop,
    // we already wait for 1 bit time - 23 cycles, so here we wait for
    // 0.5 bit time - (71 + 18 - 22) cycles.
    _rx_delay_centering = subtract_cap(bit_delay / 2, (4 + 4 + 75 + 17 - 23) / 4);
    17ce:	9f 8b       	std	Y+23, r25	; 0x17
    17d0:	8e 8b       	std	Y+22, r24	; 0x16
_ZN14SoftwareSerial12subtract_capEjj():
C:\Users\mateu\AppData\Local\Arduino15\packages\MiniCore\hardware\avr\2.0.9\libraries\SoftwareSerial\src/SoftwareSerial.cpp:305
  _receivePortRegister = portInputRegister(port);
}

uint16_t SoftwareSerial::subtract_cap(uint16_t num, uint16_t sub) {
  if (num > sub)
    return num - sub;
    17d2:	c9 01       	movw	r24, r18
    17d4:	05 97       	sbiw	r24, 0x05	; 5
C:\Users\mateu\AppData\Local\Arduino15\packages\MiniCore\hardware\avr\2.0.9\libraries\SoftwareSerial\src/SoftwareSerial.cpp:304
  uint8_t port = digitalPinToPort(rx);
  _receivePortRegister = portInputRegister(port);
}

uint16_t SoftwareSerial::subtract_cap(uint16_t num, uint16_t sub) {
  if (num > sub)
    17d6:	36 97       	sbiw	r30, 0x06	; 6
    17d8:	10 f4       	brcc	.+4      	; 0x17de <SoftwareSerial::begin(long)+0x5c>
C:\Users\mateu\AppData\Local\Arduino15\packages\MiniCore\hardware\avr\2.0.9\libraries\SoftwareSerial\src/SoftwareSerial.cpp:307
    return num - sub;
  else
    return 1;
    17da:	81 e0       	ldi	r24, 0x01	; 1
    17dc:	90 e0       	ldi	r25, 0x00	; 0
_ZN14SoftwareSerial5beginEl():
C:\Users\mateu\AppData\Local\Arduino15\packages\MiniCore\hardware\avr\2.0.9\libraries\SoftwareSerial\src/SoftwareSerial.cpp:348
    // we already wait for 1 bit time - 23 cycles, so here we wait for
    // 0.5 bit time - (71 + 18 - 22) cycles.
    _rx_delay_centering = subtract_cap(bit_delay / 2, (4 + 4 + 75 + 17 - 23) / 4);

    // There are 23 cycles in each loop iteration (excluding the delay)
    _rx_delay_intrabit = subtract_cap(bit_delay, 23 / 4);
    17de:	99 8f       	std	Y+25, r25	; 0x19
    17e0:	88 8f       	std	Y+24, r24	; 0x18
C:\Users\mateu\AppData\Local\Arduino15\packages\MiniCore\hardware\avr\2.0.9\libraries\SoftwareSerial\src/SoftwareSerial.cpp:357
    // mask is enabled again (which _must_ happen during the stopbit).
    // This delay aims at 3/4 of a bit time, meaning the end of the
    // delay will be at 1/4th of the stopbit. This allows some extra
    // time for ISR cleanup, which makes 115200 baud at 16Mhz work more
    // reliably
    _rx_delay_stopbit = subtract_cap(bit_delay * 3 / 4, (37 + 11) / 4);
    17e2:	c9 01       	movw	r24, r18
    17e4:	88 0f       	add	r24, r24
    17e6:	99 1f       	adc	r25, r25
    17e8:	28 0f       	add	r18, r24
    17ea:	39 1f       	adc	r19, r25
    17ec:	36 95       	lsr	r19
    17ee:	27 95       	ror	r18
    17f0:	36 95       	lsr	r19
    17f2:	27 95       	ror	r18
_ZN14SoftwareSerial12subtract_capEjj():
C:\Users\mateu\AppData\Local\Arduino15\packages\MiniCore\hardware\avr\2.0.9\libraries\SoftwareSerial\src/SoftwareSerial.cpp:304
  uint8_t port = digitalPinToPort(rx);
  _receivePortRegister = portInputRegister(port);
}

uint16_t SoftwareSerial::subtract_cap(uint16_t num, uint16_t sub) {
  if (num > sub)
    17f4:	2d 30       	cpi	r18, 0x0D	; 13
    17f6:	31 05       	cpc	r19, r1
    17f8:	b8 f0       	brcs	.+46     	; 0x1828 <SoftwareSerial::begin(long)+0xa6>
C:\Users\mateu\AppData\Local\Arduino15\packages\MiniCore\hardware\avr\2.0.9\libraries\SoftwareSerial\src/SoftwareSerial.cpp:305
    return num - sub;
    17fa:	2c 50       	subi	r18, 0x0C	; 12
    17fc:	31 09       	sbc	r19, r1
_ZN14SoftwareSerial5beginEl():
C:\Users\mateu\AppData\Local\Arduino15\packages\MiniCore\hardware\avr\2.0.9\libraries\SoftwareSerial\src/SoftwareSerial.cpp:357
    // mask is enabled again (which _must_ happen during the stopbit).
    // This delay aims at 3/4 of a bit time, meaning the end of the
    // delay will be at 1/4th of the stopbit. This allows some extra
    // time for ISR cleanup, which makes 115200 baud at 16Mhz work more
    // reliably
    _rx_delay_stopbit = subtract_cap(bit_delay * 3 / 4, (37 + 11) / 4);
    17fe:	3b 8f       	std	Y+27, r19	; 0x1b
    1800:	2a 8f       	std	Y+26, r18	; 0x1a
C:\Users\mateu\AppData\Local\Arduino15\packages\MiniCore\hardware\avr\2.0.9\libraries\SoftwareSerial\src/SoftwareSerial.cpp:371


    // Enable the PCINT for the entire port here, but never disable it
    // (others might also need it, so we disable the interrupt by using
    // the per-pin PCMSK register).
    *digitalPinToPCICR(_receivePin) |= _BV(digitalPinToPCICRbit(_receivePin));
    1802:	90 91 68 00 	lds	r25, 0x0068	; 0x800068 <__TEXT_REGION_LENGTH__+0x7f8068>
    1806:	84 e0       	ldi	r24, 0x04	; 4
    1808:	68 30       	cpi	r22, 0x08	; 8
    180a:	94 f0       	brlt	.+36     	; 0x1830 <SoftwareSerial::begin(long)+0xae>
C:\Users\mateu\AppData\Local\Arduino15\packages\MiniCore\hardware\avr\2.0.9\libraries\SoftwareSerial\src/SoftwareSerial.cpp:371 (discriminator 5)
    180c:	6e 30       	cpi	r22, 0x0E	; 14
    180e:	7c f0       	brlt	.+30     	; 0x182e <SoftwareSerial::begin(long)+0xac>
C:\Users\mateu\AppData\Local\Arduino15\packages\MiniCore\hardware\avr\2.0.9\libraries\SoftwareSerial\src/SoftwareSerial.cpp:371 (discriminator 7)
    1810:	8c ee       	ldi	r24, 0xEC	; 236
    1812:	86 0f       	add	r24, r22
    1814:	82 30       	cpi	r24, 0x02	; 2
    1816:	58 f0       	brcs	.+22     	; 0x182e <SoftwareSerial::begin(long)+0xac>
C:\Users\mateu\AppData\Local\Arduino15\packages\MiniCore\hardware\avr\2.0.9\libraries\SoftwareSerial\src/SoftwareSerial.cpp:371 (discriminator 11)
    1818:	82 e0       	ldi	r24, 0x02	; 2
    181a:	67 31       	cpi	r22, 0x17	; 23
    181c:	4c f0       	brlt	.+18     	; 0x1830 <SoftwareSerial::begin(long)+0xae>
C:\Users\mateu\AppData\Local\Arduino15\packages\MiniCore\hardware\avr\2.0.9\libraries\SoftwareSerial\src/SoftwareSerial.cpp:371
    181e:	88 e0       	ldi	r24, 0x08	; 8
    1820:	07 c0       	rjmp	.+14     	; 0x1830 <SoftwareSerial::begin(long)+0xae>
_ZN14SoftwareSerial12subtract_capEjj():
C:\Users\mateu\AppData\Local\Arduino15\packages\MiniCore\hardware\avr\2.0.9\libraries\SoftwareSerial\src/SoftwareSerial.cpp:307

uint16_t SoftwareSerial::subtract_cap(uint16_t num, uint16_t sub) {
  if (num > sub)
    return num - sub;
  else
    return 1;
    1822:	81 e0       	ldi	r24, 0x01	; 1
    1824:	90 e0       	ldi	r25, 0x00	; 0
    1826:	d3 cf       	rjmp	.-90     	; 0x17ce <SoftwareSerial::begin(long)+0x4c>
    1828:	21 e0       	ldi	r18, 0x01	; 1
    182a:	30 e0       	ldi	r19, 0x00	; 0
    182c:	e8 cf       	rjmp	.-48     	; 0x17fe <SoftwareSerial::begin(long)+0x7c>
_ZN14SoftwareSerial5beginEl():
C:\Users\mateu\AppData\Local\Arduino15\packages\MiniCore\hardware\avr\2.0.9\libraries\SoftwareSerial\src/SoftwareSerial.cpp:371


    // Enable the PCINT for the entire port here, but never disable it
    // (others might also need it, so we disable the interrupt by using
    // the per-pin PCMSK register).
    *digitalPinToPCICR(_receivePin) |= _BV(digitalPinToPCICRbit(_receivePin));
    182e:	81 e0       	ldi	r24, 0x01	; 1
C:\Users\mateu\AppData\Local\Arduino15\packages\MiniCore\hardware\avr\2.0.9\libraries\SoftwareSerial\src/SoftwareSerial.cpp:371 (discriminator 20)
    1830:	89 2b       	or	r24, r25
    1832:	80 93 68 00 	sts	0x0068, r24	; 0x800068 <__TEXT_REGION_LENGTH__+0x7f8068>
C:\Users\mateu\AppData\Local\Arduino15\packages\MiniCore\hardware\avr\2.0.9\libraries\SoftwareSerial\src/SoftwareSerial.cpp:374 (discriminator 20)
    // Precalculate the pcint mask register and value, so setRxIntMask
    // can be used inside the ISR without costing too much time.
    _pcint_maskreg = digitalPinToPCMSK(_receivePin);
    1836:	9c 85       	ldd	r25, Y+12	; 0x0c
    1838:	2d e6       	ldi	r18, 0x6D	; 109
    183a:	30 e0       	ldi	r19, 0x00	; 0
    183c:	98 30       	cpi	r25, 0x08	; 8
    183e:	9c f0       	brlt	.+38     	; 0x1866 <SoftwareSerial::begin(long)+0xe4>
C:\Users\mateu\AppData\Local\Arduino15\packages\MiniCore\hardware\avr\2.0.9\libraries\SoftwareSerial\src/SoftwareSerial.cpp:374 (discriminator 1)
    1840:	9e 30       	cpi	r25, 0x0E	; 14
    1842:	7c f0       	brlt	.+30     	; 0x1862 <SoftwareSerial::begin(long)+0xe0>
C:\Users\mateu\AppData\Local\Arduino15\packages\MiniCore\hardware\avr\2.0.9\libraries\SoftwareSerial\src/SoftwareSerial.cpp:374 (discriminator 3)
    1844:	8c ee       	ldi	r24, 0xEC	; 236
    1846:	89 0f       	add	r24, r25
    1848:	82 30       	cpi	r24, 0x02	; 2
    184a:	58 f0       	brcs	.+22     	; 0x1862 <SoftwareSerial::begin(long)+0xe0>
C:\Users\mateu\AppData\Local\Arduino15\packages\MiniCore\hardware\avr\2.0.9\libraries\SoftwareSerial\src/SoftwareSerial.cpp:374 (discriminator 7)
    184c:	2c e6       	ldi	r18, 0x6C	; 108
    184e:	30 e0       	ldi	r19, 0x00	; 0
    1850:	97 31       	cpi	r25, 0x17	; 23
    1852:	4c f0       	brlt	.+18     	; 0x1866 <SoftwareSerial::begin(long)+0xe4>
C:\Users\mateu\AppData\Local\Arduino15\packages\MiniCore\hardware\avr\2.0.9\libraries\SoftwareSerial\src/SoftwareSerial.cpp:374 (discriminator 9)
    1854:	23 e7       	ldi	r18, 0x73	; 115
    1856:	30 e0       	ldi	r19, 0x00	; 0
    1858:	9b 31       	cpi	r25, 0x1B	; 27
    185a:	2c f0       	brlt	.+10     	; 0x1866 <SoftwareSerial::begin(long)+0xe4>
C:\Users\mateu\AppData\Local\Arduino15\packages\MiniCore\hardware\avr\2.0.9\libraries\SoftwareSerial\src/SoftwareSerial.cpp:374
    185c:	30 e0       	ldi	r19, 0x00	; 0
    185e:	20 e0       	ldi	r18, 0x00	; 0
    1860:	02 c0       	rjmp	.+4      	; 0x1866 <SoftwareSerial::begin(long)+0xe4>
    1862:	2b e6       	ldi	r18, 0x6B	; 107
    1864:	30 e0       	ldi	r19, 0x00	; 0
C:\Users\mateu\AppData\Local\Arduino15\packages\MiniCore\hardware\avr\2.0.9\libraries\SoftwareSerial\src/SoftwareSerial.cpp:374 (discriminator 20)
    1866:	3c 8b       	std	Y+20, r19	; 0x14
    1868:	2b 8b       	std	Y+19, r18	; 0x13
C:\Users\mateu\AppData\Local\Arduino15\packages\MiniCore\hardware\avr\2.0.9\libraries\SoftwareSerial\src/SoftwareSerial.cpp:375 (discriminator 20)
    _pcint_maskvalue = _BV(digitalPinToPCMSKbit(_receivePin));
    186a:	98 30       	cpi	r25, 0x08	; 8
    186c:	7c f4       	brge	.+30     	; 0x188c <SoftwareSerial::begin(long)+0x10a>
C:\Users\mateu\AppData\Local\Arduino15\packages\MiniCore\hardware\avr\2.0.9\libraries\SoftwareSerial\src/SoftwareSerial.cpp:375 (discriminator 11)
    186e:	81 e0       	ldi	r24, 0x01	; 1
    1870:	01 c0       	rjmp	.+2      	; 0x1874 <SoftwareSerial::begin(long)+0xf2>
    1872:	88 0f       	add	r24, r24
    1874:	9a 95       	dec	r25
    1876:	ea f7       	brpl	.-6      	; 0x1872 <SoftwareSerial::begin(long)+0xf0>
C:\Users\mateu\AppData\Local\Arduino15\packages\MiniCore\hardware\avr\2.0.9\libraries\SoftwareSerial\src/SoftwareSerial.cpp:375 (discriminator 16)
    1878:	8d 8b       	std	Y+21, r24	; 0x15
_delay_loop_2():
c:\users\mateu\appdata\local\arduino15\packages\arduino\tools\avr-gcc\7.3.0-atmel3.6.1-arduino7\avr\include\util/delay_basic.h:110 (discriminator 16)
	__asm__ volatile (
		"1: sbiw %0,1" "\n\t"
		"brne 1b"
		: "=w" (__count)
		: "0" (__count)
	);
    187a:	8c 8d       	ldd	r24, Y+28	; 0x1c
    187c:	9d 8d       	ldd	r25, Y+29	; 0x1d
    187e:	01 97       	sbiw	r24, 0x01	; 1
    1880:	f1 f7       	brne	.-4      	; 0x187e <SoftwareSerial::begin(long)+0xfc>
_ZN14SoftwareSerial5beginEl():
C:\Users\mateu\AppData\Local\Arduino15\packages\MiniCore\hardware\avr\2.0.9\libraries\SoftwareSerial\src/SoftwareSerial.cpp:434
#if _DEBUG
  pinMode(_DEBUG_PIN1, OUTPUT);
  pinMode(_DEBUG_PIN2, OUTPUT);
#endif

  listen();
    1882:	ce 01       	movw	r24, r28
C:\Users\mateu\AppData\Local\Arduino15\packages\MiniCore\hardware\avr\2.0.9\libraries\SoftwareSerial\src/SoftwareSerial.cpp:435
}
    1884:	df 91       	pop	r29
    1886:	cf 91       	pop	r28
C:\Users\mateu\AppData\Local\Arduino15\packages\MiniCore\hardware\avr\2.0.9\libraries\SoftwareSerial\src/SoftwareSerial.cpp:434
#if _DEBUG
  pinMode(_DEBUG_PIN1, OUTPUT);
  pinMode(_DEBUG_PIN2, OUTPUT);
#endif

  listen();
    1888:	0c 94 9a 0a 	jmp	0x1534	; 0x1534 <SoftwareSerial::listen()>
C:\Users\mateu\AppData\Local\Arduino15\packages\MiniCore\hardware\avr\2.0.9\libraries\SoftwareSerial\src/SoftwareSerial.cpp:375 (discriminator 2)
    // the per-pin PCMSK register).
    *digitalPinToPCICR(_receivePin) |= _BV(digitalPinToPCICRbit(_receivePin));
    // Precalculate the pcint mask register and value, so setRxIntMask
    // can be used inside the ISR without costing too much time.
    _pcint_maskreg = digitalPinToPCMSK(_receivePin);
    _pcint_maskvalue = _BV(digitalPinToPCMSKbit(_receivePin));
    188c:	9e 30       	cpi	r25, 0x0E	; 14
    188e:	14 f4       	brge	.+4      	; 0x1894 <SoftwareSerial::begin(long)+0x112>
C:\Users\mateu\AppData\Local\Arduino15\packages\MiniCore\hardware\avr\2.0.9\libraries\SoftwareSerial\src/SoftwareSerial.cpp:375 (discriminator 4)
    1890:	98 50       	subi	r25, 0x08	; 8
    1892:	ed cf       	rjmp	.-38     	; 0x186e <SoftwareSerial::begin(long)+0xec>
C:\Users\mateu\AppData\Local\Arduino15\packages\MiniCore\hardware\avr\2.0.9\libraries\SoftwareSerial\src/SoftwareSerial.cpp:375 (discriminator 5)
    1894:	96 31       	cpi	r25, 0x16	; 22
    1896:	14 f4       	brge	.+4      	; 0x189c <SoftwareSerial::begin(long)+0x11a>
C:\Users\mateu\AppData\Local\Arduino15\packages\MiniCore\hardware\avr\2.0.9\libraries\SoftwareSerial\src/SoftwareSerial.cpp:375 (discriminator 7)
    1898:	9e 50       	subi	r25, 0x0E	; 14
    189a:	e9 cf       	rjmp	.-46     	; 0x186e <SoftwareSerial::begin(long)+0xec>
C:\Users\mateu\AppData\Local\Arduino15\packages\MiniCore\hardware\avr\2.0.9\libraries\SoftwareSerial\src/SoftwareSerial.cpp:375 (discriminator 8)
    189c:	80 e4       	ldi	r24, 0x40	; 64
    189e:	96 31       	cpi	r25, 0x16	; 22
    18a0:	59 f3       	breq	.-42     	; 0x1878 <SoftwareSerial::begin(long)+0xf6>
C:\Users\mateu\AppData\Local\Arduino15\packages\MiniCore\hardware\avr\2.0.9\libraries\SoftwareSerial\src/SoftwareSerial.cpp:375 (discriminator 11)
    18a2:	97 51       	subi	r25, 0x17	; 23
    18a4:	e4 cf       	rjmp	.-56     	; 0x186e <SoftwareSerial::begin(long)+0xec>

000018a6 <nothing>:
nothing():
C:\Users\mateu\AppData\Local\Arduino15\packages\MiniCore\hardware\avr\2.0.9\cores\MCUdude_corefiles/WInterrupts.c:370
        case 0:
          EIMSK &= ~(1 << INT0);
          break;
        case 1:
          EIMSK &= ~(1 << INT1);
          break;
    18a6:	08 95       	ret

000018a8 <attachInterrupt>:
attachInterrupt():
    18a8:	82 30       	cpi	r24, 0x02	; 2
    18aa:	e8 f4       	brcc	.+58     	; 0x18e6 <attachInterrupt+0x3e>
    18ac:	e8 2f       	mov	r30, r24
    18ae:	f0 e0       	ldi	r31, 0x00	; 0
    18b0:	ee 0f       	add	r30, r30
    18b2:	ff 1f       	adc	r31, r31
    18b4:	e6 5f       	subi	r30, 0xF6	; 246
    18b6:	fe 4f       	sbci	r31, 0xFE	; 254
    18b8:	71 83       	std	Z+1, r23	; 0x01
    18ba:	60 83       	st	Z, r22
    18bc:	81 30       	cpi	r24, 0x01	; 1
    18be:	41 f0       	breq	.+16     	; 0x18d0 <attachInterrupt+0x28>
    18c0:	80 91 69 00 	lds	r24, 0x0069	; 0x800069 <__TEXT_REGION_LENGTH__+0x7f8069>
    18c4:	8c 7f       	andi	r24, 0xFC	; 252
    18c6:	48 2b       	or	r20, r24
    18c8:	40 93 69 00 	sts	0x0069, r20	; 0x800069 <__TEXT_REGION_LENGTH__+0x7f8069>
    18cc:	e8 9a       	sbi	0x1d, 0	; 29
    18ce:	08 95       	ret
    18d0:	80 91 69 00 	lds	r24, 0x0069	; 0x800069 <__TEXT_REGION_LENGTH__+0x7f8069>
    18d4:	83 7f       	andi	r24, 0xF3	; 243
    18d6:	44 0f       	add	r20, r20
    18d8:	55 1f       	adc	r21, r21
    18da:	44 0f       	add	r20, r20
    18dc:	55 1f       	adc	r21, r21
    18de:	48 2b       	or	r20, r24
    18e0:	40 93 69 00 	sts	0x0069, r20	; 0x800069 <__TEXT_REGION_LENGTH__+0x7f8069>
    18e4:	e9 9a       	sbi	0x1d, 1	; 29
    18e6:	08 95       	ret

000018e8 <__vector_1>:
__vector_1():
C:\Users\mateu\AppData\Local\Arduino15\packages\MiniCore\hardware\avr\2.0.9\cores\MCUdude_corefiles/WInterrupts.c:441
// ATmega48/P/PB, ATmega88/P/PB, ATmega168/P/PB, ATmega328/P/PB
#elif defined(__AVR_ATmega48__) || defined(__AVR_ATmega48P__) || defined(__AVR_ATmega48PB__) \
|| defined(__AVR_ATmega88__)  || defined(__AVR_ATmega88P__)  || defined(__AVR_ATmega88PB__)  \
|| defined(__AVR_ATmega168__) || defined(__AVR_ATmega168P__) || defined(__AVR_ATmega168PB__) \
|| defined(__AVR_ATmega328__) || defined(__AVR_ATmega328P__) || defined(__AVR_ATmega328PB__)
  IMPLEMENT_ISR(INT0_vect, EXTERNAL_INT_0)
    18e8:	1f 92       	push	r1
    18ea:	0f 92       	push	r0
    18ec:	0f b6       	in	r0, 0x3f	; 63
    18ee:	0f 92       	push	r0
    18f0:	11 24       	eor	r1, r1
    18f2:	2f 93       	push	r18
    18f4:	3f 93       	push	r19
    18f6:	4f 93       	push	r20
    18f8:	5f 93       	push	r21
    18fa:	6f 93       	push	r22
    18fc:	7f 93       	push	r23
    18fe:	8f 93       	push	r24
    1900:	9f 93       	push	r25
    1902:	af 93       	push	r26
    1904:	bf 93       	push	r27
    1906:	ef 93       	push	r30
    1908:	ff 93       	push	r31
    190a:	e0 91 0a 01 	lds	r30, 0x010A	; 0x80010a <intFunc>
    190e:	f0 91 0b 01 	lds	r31, 0x010B	; 0x80010b <intFunc+0x1>
    1912:	09 95       	icall
    1914:	ff 91       	pop	r31
    1916:	ef 91       	pop	r30
    1918:	bf 91       	pop	r27
    191a:	af 91       	pop	r26
    191c:	9f 91       	pop	r25
    191e:	8f 91       	pop	r24
    1920:	7f 91       	pop	r23
    1922:	6f 91       	pop	r22
    1924:	5f 91       	pop	r21
    1926:	4f 91       	pop	r20
    1928:	3f 91       	pop	r19
    192a:	2f 91       	pop	r18
    192c:	0f 90       	pop	r0
    192e:	0f be       	out	0x3f, r0	; 63
    1930:	0f 90       	pop	r0
    1932:	1f 90       	pop	r1
    1934:	18 95       	reti

00001936 <__vector_2>:
__vector_2():
C:\Users\mateu\AppData\Local\Arduino15\packages\MiniCore\hardware\avr\2.0.9\cores\MCUdude_corefiles/WInterrupts.c:442
  IMPLEMENT_ISR(INT1_vect, EXTERNAL_INT_1)
    1936:	1f 92       	push	r1
    1938:	0f 92       	push	r0
    193a:	0f b6       	in	r0, 0x3f	; 63
    193c:	0f 92       	push	r0
    193e:	11 24       	eor	r1, r1
    1940:	2f 93       	push	r18
    1942:	3f 93       	push	r19
    1944:	4f 93       	push	r20
    1946:	5f 93       	push	r21
    1948:	6f 93       	push	r22
    194a:	7f 93       	push	r23
    194c:	8f 93       	push	r24
    194e:	9f 93       	push	r25
    1950:	af 93       	push	r26
    1952:	bf 93       	push	r27
    1954:	ef 93       	push	r30
    1956:	ff 93       	push	r31
    1958:	e0 91 0c 01 	lds	r30, 0x010C	; 0x80010c <intFunc+0x2>
    195c:	f0 91 0d 01 	lds	r31, 0x010D	; 0x80010d <intFunc+0x3>
    1960:	09 95       	icall
    1962:	ff 91       	pop	r31
    1964:	ef 91       	pop	r30
    1966:	bf 91       	pop	r27
    1968:	af 91       	pop	r26
    196a:	9f 91       	pop	r25
    196c:	8f 91       	pop	r24
    196e:	7f 91       	pop	r23
    1970:	6f 91       	pop	r22
    1972:	5f 91       	pop	r21
    1974:	4f 91       	pop	r20
    1976:	3f 91       	pop	r19
    1978:	2f 91       	pop	r18
    197a:	0f 90       	pop	r0
    197c:	0f be       	out	0x3f, r0	; 63
    197e:	0f 90       	pop	r0
    1980:	1f 90       	pop	r1
    1982:	18 95       	reti

00001984 <__vector_16>:
__vector_16():
C:\Users\mateu\AppData\Local\Arduino15\packages\MiniCore\hardware\avr\2.0.9\cores\MCUdude_corefiles/wiring.c:87
  cli();
  m = timer0_millis;
  SREG = oldSREG;

  return m;
}
    1984:	1f 92       	push	r1
    1986:	0f 92       	push	r0
    1988:	0f b6       	in	r0, 0x3f	; 63
    198a:	0f 92       	push	r0
    198c:	11 24       	eor	r1, r1
    198e:	2f 93       	push	r18
    1990:	3f 93       	push	r19
    1992:	8f 93       	push	r24
    1994:	9f 93       	push	r25
    1996:	af 93       	push	r26
    1998:	bf 93       	push	r27
    199a:	80 91 f0 02 	lds	r24, 0x02F0	; 0x8002f0 <timer0_millis>
    199e:	90 91 f1 02 	lds	r25, 0x02F1	; 0x8002f1 <timer0_millis+0x1>
    19a2:	a0 91 f2 02 	lds	r26, 0x02F2	; 0x8002f2 <timer0_millis+0x2>
    19a6:	b0 91 f3 02 	lds	r27, 0x02F3	; 0x8002f3 <timer0_millis+0x3>
    19aa:	30 91 ef 02 	lds	r19, 0x02EF	; 0x8002ef <timer0_fract>
    19ae:	23 e0       	ldi	r18, 0x03	; 3
    19b0:	23 0f       	add	r18, r19
    19b2:	2d 37       	cpi	r18, 0x7D	; 125
    19b4:	58 f5       	brcc	.+86     	; 0x1a0c <__vector_16+0x88>
    19b6:	01 96       	adiw	r24, 0x01	; 1
    19b8:	a1 1d       	adc	r26, r1
    19ba:	b1 1d       	adc	r27, r1
    19bc:	20 93 ef 02 	sts	0x02EF, r18	; 0x8002ef <timer0_fract>
    19c0:	80 93 f0 02 	sts	0x02F0, r24	; 0x8002f0 <timer0_millis>
    19c4:	90 93 f1 02 	sts	0x02F1, r25	; 0x8002f1 <timer0_millis+0x1>
    19c8:	a0 93 f2 02 	sts	0x02F2, r26	; 0x8002f2 <timer0_millis+0x2>
    19cc:	b0 93 f3 02 	sts	0x02F3, r27	; 0x8002f3 <timer0_millis+0x3>
    19d0:	80 91 f4 02 	lds	r24, 0x02F4	; 0x8002f4 <timer0_overflow_count>
    19d4:	90 91 f5 02 	lds	r25, 0x02F5	; 0x8002f5 <timer0_overflow_count+0x1>
    19d8:	a0 91 f6 02 	lds	r26, 0x02F6	; 0x8002f6 <timer0_overflow_count+0x2>
    19dc:	b0 91 f7 02 	lds	r27, 0x02F7	; 0x8002f7 <timer0_overflow_count+0x3>
    19e0:	01 96       	adiw	r24, 0x01	; 1
    19e2:	a1 1d       	adc	r26, r1
    19e4:	b1 1d       	adc	r27, r1
    19e6:	80 93 f4 02 	sts	0x02F4, r24	; 0x8002f4 <timer0_overflow_count>
    19ea:	90 93 f5 02 	sts	0x02F5, r25	; 0x8002f5 <timer0_overflow_count+0x1>
    19ee:	a0 93 f6 02 	sts	0x02F6, r26	; 0x8002f6 <timer0_overflow_count+0x2>
    19f2:	b0 93 f7 02 	sts	0x02F7, r27	; 0x8002f7 <timer0_overflow_count+0x3>
    19f6:	bf 91       	pop	r27
    19f8:	af 91       	pop	r26
    19fa:	9f 91       	pop	r25
    19fc:	8f 91       	pop	r24
    19fe:	3f 91       	pop	r19
    1a00:	2f 91       	pop	r18
    1a02:	0f 90       	pop	r0
    1a04:	0f be       	out	0x3f, r0	; 63
    1a06:	0f 90       	pop	r0
    1a08:	1f 90       	pop	r1
    1a0a:	18 95       	reti
    1a0c:	26 e8       	ldi	r18, 0x86	; 134
    1a0e:	23 0f       	add	r18, r19
    1a10:	02 96       	adiw	r24, 0x02	; 2
    1a12:	a1 1d       	adc	r26, r1
    1a14:	b1 1d       	adc	r27, r1
    1a16:	d2 cf       	rjmp	.-92     	; 0x19bc <__vector_16+0x38>

00001a18 <micros>:
micros():
C:\Users\mateu\AppData\Local\Arduino15\packages\MiniCore\hardware\avr\2.0.9\cores\MCUdude_corefiles/wiring.c:91

unsigned long micros() {
  unsigned long m;
  uint8_t oldSREG = SREG;
    1a18:	3f b7       	in	r19, 0x3f	; 63
C:\Users\mateu\AppData\Local\Arduino15\packages\MiniCore\hardware\avr\2.0.9\cores\MCUdude_corefiles/wiring.c:96
  // t will be the number where the timer0 counter stopped
  uint8_t t;

  // Stop all interrupts
  cli();
    1a1a:	f8 94       	cli
C:\Users\mateu\AppData\Local\Arduino15\packages\MiniCore\hardware\avr\2.0.9\cores\MCUdude_corefiles/wiring.c:97
  m = timer0_overflow_count;
    1a1c:	80 91 f4 02 	lds	r24, 0x02F4	; 0x8002f4 <timer0_overflow_count>
    1a20:	90 91 f5 02 	lds	r25, 0x02F5	; 0x8002f5 <timer0_overflow_count+0x1>
    1a24:	a0 91 f6 02 	lds	r26, 0x02F6	; 0x8002f6 <timer0_overflow_count+0x2>
    1a28:	b0 91 f7 02 	lds	r27, 0x02F7	; 0x8002f7 <timer0_overflow_count+0x3>
C:\Users\mateu\AppData\Local\Arduino15\packages\MiniCore\hardware\avr\2.0.9\cores\MCUdude_corefiles/wiring.c:101

  // TCNT0 : The Timer Counter Register
#if defined(TCNT0)
  t = TCNT0;
    1a2c:	26 b5       	in	r18, 0x26	; 38
C:\Users\mateu\AppData\Local\Arduino15\packages\MiniCore\hardware\avr\2.0.9\cores\MCUdude_corefiles/wiring.c:110
  #error TIMER 0 not defined
#endif

  // Timer0 Interrupt Flag Register
#ifdef TIFR0
  if ((TIFR0 & _BV(TOV0)) && (t < 255))
    1a2e:	a8 9b       	sbis	0x15, 0	; 21
    1a30:	05 c0       	rjmp	.+10     	; 0x1a3c <micros+0x24>
C:\Users\mateu\AppData\Local\Arduino15\packages\MiniCore\hardware\avr\2.0.9\cores\MCUdude_corefiles/wiring.c:110 (discriminator 1)
    1a32:	2f 3f       	cpi	r18, 0xFF	; 255
    1a34:	19 f0       	breq	.+6      	; 0x1a3c <micros+0x24>
C:\Users\mateu\AppData\Local\Arduino15\packages\MiniCore\hardware\avr\2.0.9\cores\MCUdude_corefiles/wiring.c:111
    m++;
    1a36:	01 96       	adiw	r24, 0x01	; 1
    1a38:	a1 1d       	adc	r26, r1
    1a3a:	b1 1d       	adc	r27, r1
C:\Users\mateu\AppData\Local\Arduino15\packages\MiniCore\hardware\avr\2.0.9\cores\MCUdude_corefiles/wiring.c:117
#else
  if ((TIFR & _BV(TOV0)) && (t < 255))
    m++;
#endif
  // Restore SREG
  SREG = oldSREG;
    1a3c:	3f bf       	out	0x3f, r19	; 63
C:\Users\mateu\AppData\Local\Arduino15\packages\MiniCore\hardware\avr\2.0.9\cores\MCUdude_corefiles/wiring.c:169
#else
  // 32 MHz, 24 MHz, 16 MHz, 8 MHz, 4 MHz, 1 MHz
  // Shift by 8 to the left (multiply by 256) so t (which is 1 byte in size) can fit in 
  // m & t are multiplied by 4 (since it was already multiplied by 256)
  // t is multiplied by 4
  return ((m << 8) + t) * (64 / clockCyclesPerMicrosecond());
    1a3e:	ba 2f       	mov	r27, r26
    1a40:	a9 2f       	mov	r26, r25
    1a42:	98 2f       	mov	r25, r24
    1a44:	88 27       	eor	r24, r24
    1a46:	bc 01       	movw	r22, r24
    1a48:	cd 01       	movw	r24, r26
    1a4a:	62 0f       	add	r22, r18
    1a4c:	71 1d       	adc	r23, r1
    1a4e:	81 1d       	adc	r24, r1
    1a50:	91 1d       	adc	r25, r1
    1a52:	42 e0       	ldi	r20, 0x02	; 2
    1a54:	66 0f       	add	r22, r22
    1a56:	77 1f       	adc	r23, r23
    1a58:	88 1f       	adc	r24, r24
    1a5a:	99 1f       	adc	r25, r25
    1a5c:	4a 95       	dec	r20
    1a5e:	d1 f7       	brne	.-12     	; 0x1a54 <micros+0x3c>
C:\Users\mateu\AppData\Local\Arduino15\packages\MiniCore\hardware\avr\2.0.9\cores\MCUdude_corefiles/wiring.c:171
#endif
}
    1a60:	08 95       	ret

00001a62 <delay>:
delay():
C:\Users\mateu\AppData\Local\Arduino15\packages\MiniCore\hardware\avr\2.0.9\cores\MCUdude_corefiles/wiring.c:174

void delay(unsigned long ms)
{
    1a62:	8f 92       	push	r8
    1a64:	9f 92       	push	r9
    1a66:	af 92       	push	r10
    1a68:	bf 92       	push	r11
    1a6a:	cf 92       	push	r12
    1a6c:	df 92       	push	r13
    1a6e:	ef 92       	push	r14
    1a70:	ff 92       	push	r15
    1a72:	6b 01       	movw	r12, r22
    1a74:	7c 01       	movw	r14, r24
C:\Users\mateu\AppData\Local\Arduino15\packages\MiniCore\hardware\avr\2.0.9\cores\MCUdude_corefiles/wiring.c:175
  uint32_t start = micros();
    1a76:	0e 94 0c 0d 	call	0x1a18	; 0x1a18 <micros>
    1a7a:	4b 01       	movw	r8, r22
    1a7c:	5c 01       	movw	r10, r24
C:\Users\mateu\AppData\Local\Arduino15\packages\MiniCore\hardware\avr\2.0.9\cores\MCUdude_corefiles/wiring.c:177

  while (ms > 0) {
    1a7e:	c1 14       	cp	r12, r1
    1a80:	d1 04       	cpc	r13, r1
    1a82:	e1 04       	cpc	r14, r1
    1a84:	f1 04       	cpc	r15, r1
    1a86:	e9 f0       	breq	.+58     	; 0x1ac2 <delay+0x60>
C:\Users\mateu\AppData\Local\Arduino15\packages\MiniCore\hardware\avr\2.0.9\cores\MCUdude_corefiles/wiring.c:178
    yield();
    1a88:	0e 94 81 11 	call	0x2302	; 0x2302 <yield>
C:\Users\mateu\AppData\Local\Arduino15\packages\MiniCore\hardware\avr\2.0.9\cores\MCUdude_corefiles/wiring.c:179 (discriminator 1)
    while ( ms > 0 && (micros() - start) >= 1000) {
    1a8c:	0e 94 0c 0d 	call	0x1a18	; 0x1a18 <micros>
    1a90:	68 19       	sub	r22, r8
    1a92:	79 09       	sbc	r23, r9
    1a94:	8a 09       	sbc	r24, r10
    1a96:	9b 09       	sbc	r25, r11
    1a98:	68 3e       	cpi	r22, 0xE8	; 232
    1a9a:	73 40       	sbci	r23, 0x03	; 3
    1a9c:	81 05       	cpc	r24, r1
    1a9e:	91 05       	cpc	r25, r1
    1aa0:	70 f3       	brcs	.-36     	; 0x1a7e <delay+0x1c>
C:\Users\mateu\AppData\Local\Arduino15\packages\MiniCore\hardware\avr\2.0.9\cores\MCUdude_corefiles/wiring.c:180
      ms--;
    1aa2:	21 e0       	ldi	r18, 0x01	; 1
    1aa4:	c2 1a       	sub	r12, r18
    1aa6:	d1 08       	sbc	r13, r1
    1aa8:	e1 08       	sbc	r14, r1
    1aaa:	f1 08       	sbc	r15, r1
C:\Users\mateu\AppData\Local\Arduino15\packages\MiniCore\hardware\avr\2.0.9\cores\MCUdude_corefiles/wiring.c:181
      start += 1000;
    1aac:	88 ee       	ldi	r24, 0xE8	; 232
    1aae:	88 0e       	add	r8, r24
    1ab0:	83 e0       	ldi	r24, 0x03	; 3
    1ab2:	98 1e       	adc	r9, r24
    1ab4:	a1 1c       	adc	r10, r1
    1ab6:	b1 1c       	adc	r11, r1
C:\Users\mateu\AppData\Local\Arduino15\packages\MiniCore\hardware\avr\2.0.9\cores\MCUdude_corefiles/wiring.c:179
{
  uint32_t start = micros();

  while (ms > 0) {
    yield();
    while ( ms > 0 && (micros() - start) >= 1000) {
    1ab8:	c1 14       	cp	r12, r1
    1aba:	d1 04       	cpc	r13, r1
    1abc:	e1 04       	cpc	r14, r1
    1abe:	f1 04       	cpc	r15, r1
    1ac0:	29 f7       	brne	.-54     	; 0x1a8c <delay+0x2a>
C:\Users\mateu\AppData\Local\Arduino15\packages\MiniCore\hardware\avr\2.0.9\cores\MCUdude_corefiles/wiring.c:184
      ms--;
      start += 1000;
    }
  }
}
    1ac2:	ff 90       	pop	r15
    1ac4:	ef 90       	pop	r14
    1ac6:	df 90       	pop	r13
    1ac8:	cf 90       	pop	r12
    1aca:	bf 90       	pop	r11
    1acc:	af 90       	pop	r10
    1ace:	9f 90       	pop	r9
    1ad0:	8f 90       	pop	r8
    1ad2:	08 95       	ret

00001ad4 <turnOffPWM>:
turnOffPWM():
C:\Users\mateu\AppData\Local\Arduino15\packages\MiniCore\hardware\avr\2.0.9\cores\MCUdude_corefiles/wiring_digital.c:77
//
//static inline void turnOffPWM(uint8_t timer) __attribute__ ((always_inline));
//static inline void turnOffPWM(uint8_t timer)
static void turnOffPWM(uint8_t timer)
{
  switch (timer)
    1ad4:	82 50       	subi	r24, 0x02	; 2
    1ad6:	8d 30       	cpi	r24, 0x0D	; 13
    1ad8:	08 f0       	brcs	.+2      	; 0x1adc <turnOffPWM+0x8>
    1ada:	3e c0       	rjmp	.+124    	; 0x1b58 <turnOffPWM+0x84>
    1adc:	e8 2f       	mov	r30, r24
    1ade:	f0 e0       	ldi	r31, 0x00	; 0
    1ae0:	ec 58       	subi	r30, 0x8C	; 140
    1ae2:	f2 4f       	sbci	r31, 0xF2	; 242
    1ae4:	0c 94 d7 11 	jmp	0x23ae	; 0x23ae <__tablejump2__>
    1ae8:	a9 0d       	add	r26, r9
    1aea:	ad 0d       	add	r26, r13
    1aec:	81 0d       	add	r24, r1
    1aee:	87 0d       	add	r24, r7
    1af0:	ac 0d       	add	r26, r12
    1af2:	ac 0d       	add	r26, r12
    1af4:	8b 0d       	add	r24, r11
    1af6:	91 0d       	add	r25, r1
    1af8:	95 0d       	add	r25, r5
    1afa:	9b 0d       	add	r25, r11
    1afc:	ac 0d       	add	r26, r12
    1afe:	9f 0d       	add	r25, r15
    1b00:	a5 0d       	add	r26, r5
C:\Users\mateu\AppData\Local\Arduino15\packages\MiniCore\hardware\avr\2.0.9\cores\MCUdude_corefiles/wiring_digital.c:82
  {
    // Timer1
    #if defined(TCCR1A) && defined(COM1A1)
      case TIMER1A:
        TCCR1A &= ~_BV(COM1A1);
    1b02:	80 91 80 00 	lds	r24, 0x0080	; 0x800080 <__TEXT_REGION_LENGTH__+0x7f8080>
    1b06:	8f 77       	andi	r24, 0x7F	; 127
C:\Users\mateu\AppData\Local\Arduino15\packages\MiniCore\hardware\avr\2.0.9\cores\MCUdude_corefiles/wiring_digital.c:87
        break;
    #endif
    #if defined(TCCR1A) && defined(COM1B1)
      case TIMER1B:
        TCCR1A &= ~_BV(COM1B1);
    1b08:	80 93 80 00 	sts	0x0080, r24	; 0x800080 <__TEXT_REGION_LENGTH__+0x7f8080>
C:\Users\mateu\AppData\Local\Arduino15\packages\MiniCore\hardware\avr\2.0.9\cores\MCUdude_corefiles/wiring_digital.c:88
        break;
    1b0c:	08 95       	ret
C:\Users\mateu\AppData\Local\Arduino15\packages\MiniCore\hardware\avr\2.0.9\cores\MCUdude_corefiles/wiring_digital.c:87
        TCCR1A &= ~_BV(COM1A1);
        break;
    #endif
    #if defined(TCCR1A) && defined(COM1B1)
      case TIMER1B:
        TCCR1A &= ~_BV(COM1B1);
    1b0e:	80 91 80 00 	lds	r24, 0x0080	; 0x800080 <__TEXT_REGION_LENGTH__+0x7f8080>
    1b12:	8f 7d       	andi	r24, 0xDF	; 223
    1b14:	f9 cf       	rjmp	.-14     	; 0x1b08 <turnOffPWM+0x34>
C:\Users\mateu\AppData\Local\Arduino15\packages\MiniCore\hardware\avr\2.0.9\cores\MCUdude_corefiles/wiring_digital.c:104
        TCCR2 &= ~_BV(COM21);
        break;
    #endif
    #if defined(TCCR2A) && defined(COM2A1)
      case TIMER2A:
        TCCR2A &= ~_BV(COM2A1);
    1b16:	80 91 b0 00 	lds	r24, 0x00B0	; 0x8000b0 <__TEXT_REGION_LENGTH__+0x7f80b0>
    1b1a:	8f 77       	andi	r24, 0x7F	; 127
C:\Users\mateu\AppData\Local\Arduino15\packages\MiniCore\hardware\avr\2.0.9\cores\MCUdude_corefiles/wiring_digital.c:109
        break;
    #endif
    #if defined(TCCR2A) && defined(COM2B1)
      case TIMER2B:
        TCCR2A &= ~_BV(COM2B1);
    1b1c:	80 93 b0 00 	sts	0x00B0, r24	; 0x8000b0 <__TEXT_REGION_LENGTH__+0x7f80b0>
C:\Users\mateu\AppData\Local\Arduino15\packages\MiniCore\hardware\avr\2.0.9\cores\MCUdude_corefiles/wiring_digital.c:110
        break;
    1b20:	08 95       	ret
C:\Users\mateu\AppData\Local\Arduino15\packages\MiniCore\hardware\avr\2.0.9\cores\MCUdude_corefiles/wiring_digital.c:109
        TCCR2A &= ~_BV(COM2A1);
        break;
    #endif
    #if defined(TCCR2A) && defined(COM2B1)
      case TIMER2B:
        TCCR2A &= ~_BV(COM2B1);
    1b22:	80 91 b0 00 	lds	r24, 0x00B0	; 0x8000b0 <__TEXT_REGION_LENGTH__+0x7f80b0>
    1b26:	8f 7d       	andi	r24, 0xDF	; 223
    1b28:	f9 cf       	rjmp	.-14     	; 0x1b1c <turnOffPWM+0x48>
C:\Users\mateu\AppData\Local\Arduino15\packages\MiniCore\hardware\avr\2.0.9\cores\MCUdude_corefiles/wiring_digital.c:116
    #endif

    // Timer3
    #if defined(TCCR3A) && defined(COM3A1)
      case TIMER3A:
        TCCR3A &= ~_BV(COM3A1);
    1b2a:	80 91 90 00 	lds	r24, 0x0090	; 0x800090 <__TEXT_REGION_LENGTH__+0x7f8090>
    1b2e:	8f 77       	andi	r24, 0x7F	; 127
C:\Users\mateu\AppData\Local\Arduino15\packages\MiniCore\hardware\avr\2.0.9\cores\MCUdude_corefiles/wiring_digital.c:121
        break;
    #endif
    #if defined(TCCR3A) && defined(COM3B1)
      case TIMER3B:
        TCCR3A &= ~_BV(COM3B1);
    1b30:	80 93 90 00 	sts	0x0090, r24	; 0x800090 <__TEXT_REGION_LENGTH__+0x7f8090>
C:\Users\mateu\AppData\Local\Arduino15\packages\MiniCore\hardware\avr\2.0.9\cores\MCUdude_corefiles/wiring_digital.c:122
        break;
    1b34:	08 95       	ret
C:\Users\mateu\AppData\Local\Arduino15\packages\MiniCore\hardware\avr\2.0.9\cores\MCUdude_corefiles/wiring_digital.c:121
        TCCR3A &= ~_BV(COM3A1);
        break;
    #endif
    #if defined(TCCR3A) && defined(COM3B1)
      case TIMER3B:
        TCCR3A &= ~_BV(COM3B1);
    1b36:	80 91 90 00 	lds	r24, 0x0090	; 0x800090 <__TEXT_REGION_LENGTH__+0x7f8090>
    1b3a:	8f 7d       	andi	r24, 0xDF	; 223
    1b3c:	f9 cf       	rjmp	.-14     	; 0x1b30 <turnOffPWM+0x5c>
C:\Users\mateu\AppData\Local\Arduino15\packages\MiniCore\hardware\avr\2.0.9\cores\MCUdude_corefiles/wiring_digital.c:133
    #endif

    // Timer4
    #if defined(TCCR4A) && defined(COM4A1)
      case TIMER4A:
        TCCR4A &= ~_BV(COM4A1);
    1b3e:	80 91 a0 00 	lds	r24, 0x00A0	; 0x8000a0 <__TEXT_REGION_LENGTH__+0x7f80a0>
    1b42:	8f 77       	andi	r24, 0x7F	; 127
C:\Users\mateu\AppData\Local\Arduino15\packages\MiniCore\hardware\avr\2.0.9\cores\MCUdude_corefiles/wiring_digital.c:138
        break;
    #endif
    #if defined(TCCR4A) && defined(COM4B1)
      case  TIMER4B:
        TCCR4A &= ~_BV(COM4B1);
    1b44:	80 93 a0 00 	sts	0x00A0, r24	; 0x8000a0 <__TEXT_REGION_LENGTH__+0x7f80a0>
C:\Users\mateu\AppData\Local\Arduino15\packages\MiniCore\hardware\avr\2.0.9\cores\MCUdude_corefiles/wiring_digital.c:139
        break;
    1b48:	08 95       	ret
C:\Users\mateu\AppData\Local\Arduino15\packages\MiniCore\hardware\avr\2.0.9\cores\MCUdude_corefiles/wiring_digital.c:138
        TCCR4A &= ~_BV(COM4A1);
        break;
    #endif
    #if defined(TCCR4A) && defined(COM4B1)
      case  TIMER4B:
        TCCR4A &= ~_BV(COM4B1);
    1b4a:	80 91 a0 00 	lds	r24, 0x00A0	; 0x8000a0 <__TEXT_REGION_LENGTH__+0x7f80a0>
    1b4e:	8f 7d       	andi	r24, 0xDF	; 223
    1b50:	f9 cf       	rjmp	.-14     	; 0x1b44 <turnOffPWM+0x70>
C:\Users\mateu\AppData\Local\Arduino15\packages\MiniCore\hardware\avr\2.0.9\cores\MCUdude_corefiles/wiring_digital.c:176
        TCCR0 &= ~_BV(COM01);
        break;
    #endif
    #if defined(TCCR0A) && defined(COM0A1)
      case TIMER0A:
        TCCR0A &= ~_BV(COM0A1);
    1b52:	84 b5       	in	r24, 0x24	; 36
    1b54:	8f 77       	andi	r24, 0x7F	; 127
C:\Users\mateu\AppData\Local\Arduino15\packages\MiniCore\hardware\avr\2.0.9\cores\MCUdude_corefiles/wiring_digital.c:181
        break;
    #endif
    #if defined(TCCR0A) && defined(COM0B1)
      case TIMER0B:
        TCCR0A &= ~_BV(COM0B1);
    1b56:	84 bd       	out	0x24, r24	; 36
C:\Users\mateu\AppData\Local\Arduino15\packages\MiniCore\hardware\avr\2.0.9\cores\MCUdude_corefiles/wiring_digital.c:185
        break;
    #endif
  }
}
    1b58:	08 95       	ret
C:\Users\mateu\AppData\Local\Arduino15\packages\MiniCore\hardware\avr\2.0.9\cores\MCUdude_corefiles/wiring_digital.c:181
        TCCR0A &= ~_BV(COM0A1);
        break;
    #endif
    #if defined(TCCR0A) && defined(COM0B1)
      case TIMER0B:
        TCCR0A &= ~_BV(COM0B1);
    1b5a:	84 b5       	in	r24, 0x24	; 36
    1b5c:	8f 7d       	andi	r24, 0xDF	; 223
    1b5e:	fb cf       	rjmp	.-10     	; 0x1b56 <turnOffPWM+0x82>

00001b60 <pinMode>:
pinMode():
C:\Users\mateu\AppData\Local\Arduino15\packages\MiniCore\hardware\avr\2.0.9\cores\MCUdude_corefiles/wiring_digital.c:30
#define ARDUINO_MAIN
#include "wiring_private.h"
#include "pins_arduino.h"

void pinMode(uint8_t pin, uint8_t mode)
{
    1b60:	cf 93       	push	r28
    1b62:	df 93       	push	r29
C:\Users\mateu\AppData\Local\Arduino15\packages\MiniCore\hardware\avr\2.0.9\cores\MCUdude_corefiles/wiring_digital.c:31
  uint8_t bit = digitalPinToBitMask(pin);
    1b64:	90 e0       	ldi	r25, 0x00	; 0
    1b66:	fc 01       	movw	r30, r24
    1b68:	e1 59       	subi	r30, 0x91	; 145
    1b6a:	fe 4f       	sbci	r31, 0xFE	; 254
    1b6c:	24 91       	lpm	r18, Z
C:\Users\mateu\AppData\Local\Arduino15\packages\MiniCore\hardware\avr\2.0.9\cores\MCUdude_corefiles/wiring_digital.c:32
  uint8_t port = digitalPinToPort(pin);
    1b6e:	86 57       	subi	r24, 0x76	; 118
    1b70:	9e 4f       	sbci	r25, 0xFE	; 254
    1b72:	fc 01       	movw	r30, r24
    1b74:	84 91       	lpm	r24, Z
C:\Users\mateu\AppData\Local\Arduino15\packages\MiniCore\hardware\avr\2.0.9\cores\MCUdude_corefiles/wiring_digital.c:35
  volatile uint8_t *reg, *out;

  if (port == NOT_A_PIN) return;
    1b76:	88 23       	and	r24, r24
    1b78:	c9 f0       	breq	.+50     	; 0x1bac <pinMode+0x4c>
C:\Users\mateu\AppData\Local\Arduino15\packages\MiniCore\hardware\avr\2.0.9\cores\MCUdude_corefiles/wiring_digital.c:38

  // JWS: can I let the optimizer do this?
  reg = portModeRegister(port);
    1b7a:	90 e0       	ldi	r25, 0x00	; 0
    1b7c:	88 0f       	add	r24, r24
    1b7e:	99 1f       	adc	r25, r25
    1b80:	fc 01       	movw	r30, r24
    1b82:	e3 54       	subi	r30, 0x43	; 67
    1b84:	fe 4f       	sbci	r31, 0xFE	; 254
    1b86:	a5 91       	lpm	r26, Z+
    1b88:	b4 91       	lpm	r27, Z
C:\Users\mateu\AppData\Local\Arduino15\packages\MiniCore\hardware\avr\2.0.9\cores\MCUdude_corefiles/wiring_digital.c:39
  out = portOutputRegister(port);
    1b8a:	fc 01       	movw	r30, r24
    1b8c:	ef 54       	subi	r30, 0x4F	; 79
    1b8e:	fe 4f       	sbci	r31, 0xFE	; 254
    1b90:	c5 91       	lpm	r28, Z+
    1b92:	d4 91       	lpm	r29, Z
C:\Users\mateu\AppData\Local\Arduino15\packages\MiniCore\hardware\avr\2.0.9\cores\MCUdude_corefiles/wiring_digital.c:41

  if (mode == INPUT) { 
    1b94:	61 11       	cpse	r22, r1
    1b96:	0d c0       	rjmp	.+26     	; 0x1bb2 <pinMode+0x52>
C:\Users\mateu\AppData\Local\Arduino15\packages\MiniCore\hardware\avr\2.0.9\cores\MCUdude_corefiles/wiring_digital.c:42
    uint8_t oldSREG = SREG;
    1b98:	9f b7       	in	r25, 0x3f	; 63
C:\Users\mateu\AppData\Local\Arduino15\packages\MiniCore\hardware\avr\2.0.9\cores\MCUdude_corefiles/wiring_digital.c:43
    cli();
    1b9a:	f8 94       	cli
C:\Users\mateu\AppData\Local\Arduino15\packages\MiniCore\hardware\avr\2.0.9\cores\MCUdude_corefiles/wiring_digital.c:44
    *reg &= ~bit;
    1b9c:	8c 91       	ld	r24, X
    1b9e:	20 95       	com	r18
    1ba0:	82 23       	and	r24, r18
    1ba2:	8c 93       	st	X, r24
C:\Users\mateu\AppData\Local\Arduino15\packages\MiniCore\hardware\avr\2.0.9\cores\MCUdude_corefiles/wiring_digital.c:45
    *out &= ~bit;
    1ba4:	88 81       	ld	r24, Y
    1ba6:	28 23       	and	r18, r24
C:\Users\mateu\AppData\Local\Arduino15\packages\MiniCore\hardware\avr\2.0.9\cores\MCUdude_corefiles/wiring_digital.c:51
    SREG = oldSREG;
  } else if (mode == INPUT_PULLUP) {
    uint8_t oldSREG = SREG;
    cli();
    *reg &= ~bit;
    *out |= bit;
    1ba8:	28 83       	st	Y, r18
C:\Users\mateu\AppData\Local\Arduino15\packages\MiniCore\hardware\avr\2.0.9\cores\MCUdude_corefiles/wiring_digital.c:52
    SREG = oldSREG;
    1baa:	9f bf       	out	0x3f, r25	; 63
C:\Users\mateu\AppData\Local\Arduino15\packages\MiniCore\hardware\avr\2.0.9\cores\MCUdude_corefiles/wiring_digital.c:59
    uint8_t oldSREG = SREG;
    cli();
    *reg |= bit;
    SREG = oldSREG;
  }
}
    1bac:	df 91       	pop	r29
    1bae:	cf 91       	pop	r28
    1bb0:	08 95       	ret
C:\Users\mateu\AppData\Local\Arduino15\packages\MiniCore\hardware\avr\2.0.9\cores\MCUdude_corefiles/wiring_digital.c:47
    uint8_t oldSREG = SREG;
    cli();
    *reg &= ~bit;
    *out &= ~bit;
    SREG = oldSREG;
  } else if (mode == INPUT_PULLUP) {
    1bb2:	62 30       	cpi	r22, 0x02	; 2
    1bb4:	51 f4       	brne	.+20     	; 0x1bca <pinMode+0x6a>
C:\Users\mateu\AppData\Local\Arduino15\packages\MiniCore\hardware\avr\2.0.9\cores\MCUdude_corefiles/wiring_digital.c:48
    uint8_t oldSREG = SREG;
    1bb6:	9f b7       	in	r25, 0x3f	; 63
C:\Users\mateu\AppData\Local\Arduino15\packages\MiniCore\hardware\avr\2.0.9\cores\MCUdude_corefiles/wiring_digital.c:49
    cli();
    1bb8:	f8 94       	cli
C:\Users\mateu\AppData\Local\Arduino15\packages\MiniCore\hardware\avr\2.0.9\cores\MCUdude_corefiles/wiring_digital.c:50
    *reg &= ~bit;
    1bba:	3c 91       	ld	r19, X
    1bbc:	82 2f       	mov	r24, r18
    1bbe:	80 95       	com	r24
    1bc0:	83 23       	and	r24, r19
    1bc2:	8c 93       	st	X, r24
C:\Users\mateu\AppData\Local\Arduino15\packages\MiniCore\hardware\avr\2.0.9\cores\MCUdude_corefiles/wiring_digital.c:51
    *out |= bit;
    1bc4:	e8 81       	ld	r30, Y
    1bc6:	2e 2b       	or	r18, r30
    1bc8:	ef cf       	rjmp	.-34     	; 0x1ba8 <pinMode+0x48>
C:\Users\mateu\AppData\Local\Arduino15\packages\MiniCore\hardware\avr\2.0.9\cores\MCUdude_corefiles/wiring_digital.c:54
    SREG = oldSREG;
  } else {
    uint8_t oldSREG = SREG;
    1bca:	8f b7       	in	r24, 0x3f	; 63
C:\Users\mateu\AppData\Local\Arduino15\packages\MiniCore\hardware\avr\2.0.9\cores\MCUdude_corefiles/wiring_digital.c:55
    cli();
    1bcc:	f8 94       	cli
C:\Users\mateu\AppData\Local\Arduino15\packages\MiniCore\hardware\avr\2.0.9\cores\MCUdude_corefiles/wiring_digital.c:56
    *reg |= bit;
    1bce:	ec 91       	ld	r30, X
    1bd0:	2e 2b       	or	r18, r30
    1bd2:	2c 93       	st	X, r18
C:\Users\mateu\AppData\Local\Arduino15\packages\MiniCore\hardware\avr\2.0.9\cores\MCUdude_corefiles/wiring_digital.c:57
    SREG = oldSREG;
    1bd4:	8f bf       	out	0x3f, r24	; 63
    1bd6:	ea cf       	rjmp	.-44     	; 0x1bac <pinMode+0x4c>

00001bd8 <digitalWrite>:
digitalWrite():
C:\Users\mateu\AppData\Local\Arduino15\packages\MiniCore\hardware\avr\2.0.9\cores\MCUdude_corefiles/wiring_digital.c:188
    #endif
  }
}

void digitalWrite(uint8_t pin, uint8_t val)
{
    1bd8:	1f 93       	push	r17
    1bda:	cf 93       	push	r28
    1bdc:	df 93       	push	r29
C:\Users\mateu\AppData\Local\Arduino15\packages\MiniCore\hardware\avr\2.0.9\cores\MCUdude_corefiles/wiring_digital.c:189
  uint8_t timer = digitalPinToTimer(pin);
    1bde:	28 2f       	mov	r18, r24
    1be0:	30 e0       	ldi	r19, 0x00	; 0
    1be2:	f9 01       	movw	r30, r18
    1be4:	ec 5a       	subi	r30, 0xAC	; 172
    1be6:	fe 4f       	sbci	r31, 0xFE	; 254
    1be8:	84 91       	lpm	r24, Z
C:\Users\mateu\AppData\Local\Arduino15\packages\MiniCore\hardware\avr\2.0.9\cores\MCUdude_corefiles/wiring_digital.c:190
  uint8_t bit = digitalPinToBitMask(pin);
    1bea:	f9 01       	movw	r30, r18
    1bec:	e1 59       	subi	r30, 0x91	; 145
    1bee:	fe 4f       	sbci	r31, 0xFE	; 254
    1bf0:	d4 91       	lpm	r29, Z
C:\Users\mateu\AppData\Local\Arduino15\packages\MiniCore\hardware\avr\2.0.9\cores\MCUdude_corefiles/wiring_digital.c:191
  uint8_t port = digitalPinToPort(pin);
    1bf2:	f9 01       	movw	r30, r18
    1bf4:	e6 57       	subi	r30, 0x76	; 118
    1bf6:	fe 4f       	sbci	r31, 0xFE	; 254
    1bf8:	c4 91       	lpm	r28, Z
C:\Users\mateu\AppData\Local\Arduino15\packages\MiniCore\hardware\avr\2.0.9\cores\MCUdude_corefiles/wiring_digital.c:194
  volatile uint8_t *out;

  if (port == NOT_A_PIN) return;
    1bfa:	cc 23       	and	r28, r28
    1bfc:	a9 f0       	breq	.+42     	; 0x1c28 <digitalWrite+0x50>
    1bfe:	16 2f       	mov	r17, r22
C:\Users\mateu\AppData\Local\Arduino15\packages\MiniCore\hardware\avr\2.0.9\cores\MCUdude_corefiles/wiring_digital.c:198

  // If the pin that support PWM output, we need to turn it off
  // before doing a digital write.
  if (timer != NOT_ON_TIMER) turnOffPWM(timer);
    1c00:	81 11       	cpse	r24, r1
C:\Users\mateu\AppData\Local\Arduino15\packages\MiniCore\hardware\avr\2.0.9\cores\MCUdude_corefiles/wiring_digital.c:198 (discriminator 1)
    1c02:	0e 94 6a 0d 	call	0x1ad4	; 0x1ad4 <turnOffPWM>
C:\Users\mateu\AppData\Local\Arduino15\packages\MiniCore\hardware\avr\2.0.9\cores\MCUdude_corefiles/wiring_digital.c:200

  out = portOutputRegister(port);
    1c06:	ec 2f       	mov	r30, r28
    1c08:	f0 e0       	ldi	r31, 0x00	; 0
    1c0a:	ee 0f       	add	r30, r30
    1c0c:	ff 1f       	adc	r31, r31
    1c0e:	ef 54       	subi	r30, 0x4F	; 79
    1c10:	fe 4f       	sbci	r31, 0xFE	; 254
    1c12:	a5 91       	lpm	r26, Z+
    1c14:	b4 91       	lpm	r27, Z
C:\Users\mateu\AppData\Local\Arduino15\packages\MiniCore\hardware\avr\2.0.9\cores\MCUdude_corefiles/wiring_digital.c:202

  uint8_t oldSREG = SREG;
    1c16:	8f b7       	in	r24, 0x3f	; 63
C:\Users\mateu\AppData\Local\Arduino15\packages\MiniCore\hardware\avr\2.0.9\cores\MCUdude_corefiles/wiring_digital.c:203
  cli();
    1c18:	f8 94       	cli
C:\Users\mateu\AppData\Local\Arduino15\packages\MiniCore\hardware\avr\2.0.9\cores\MCUdude_corefiles/wiring_digital.c:206

  if (val == LOW) {
    *out &= ~bit;
    1c1a:	ec 91       	ld	r30, X
C:\Users\mateu\AppData\Local\Arduino15\packages\MiniCore\hardware\avr\2.0.9\cores\MCUdude_corefiles/wiring_digital.c:205
  out = portOutputRegister(port);

  uint8_t oldSREG = SREG;
  cli();

  if (val == LOW) {
    1c1c:	11 11       	cpse	r17, r1
    1c1e:	08 c0       	rjmp	.+16     	; 0x1c30 <digitalWrite+0x58>
C:\Users\mateu\AppData\Local\Arduino15\packages\MiniCore\hardware\avr\2.0.9\cores\MCUdude_corefiles/wiring_digital.c:206
    *out &= ~bit;
    1c20:	d0 95       	com	r29
    1c22:	de 23       	and	r29, r30
C:\Users\mateu\AppData\Local\Arduino15\packages\MiniCore\hardware\avr\2.0.9\cores\MCUdude_corefiles/wiring_digital.c:208
  } else {
    *out |= bit;
    1c24:	dc 93       	st	X, r29
C:\Users\mateu\AppData\Local\Arduino15\packages\MiniCore\hardware\avr\2.0.9\cores\MCUdude_corefiles/wiring_digital.c:211
  }

  SREG = oldSREG;
    1c26:	8f bf       	out	0x3f, r24	; 63
C:\Users\mateu\AppData\Local\Arduino15\packages\MiniCore\hardware\avr\2.0.9\cores\MCUdude_corefiles/wiring_digital.c:212
}
    1c28:	df 91       	pop	r29
    1c2a:	cf 91       	pop	r28
    1c2c:	1f 91       	pop	r17
    1c2e:	08 95       	ret
C:\Users\mateu\AppData\Local\Arduino15\packages\MiniCore\hardware\avr\2.0.9\cores\MCUdude_corefiles/wiring_digital.c:208
  cli();

  if (val == LOW) {
    *out &= ~bit;
  } else {
    *out |= bit;
    1c30:	de 2b       	or	r29, r30
    1c32:	f8 cf       	rjmp	.-16     	; 0x1c24 <digitalWrite+0x4c>

00001c34 <HardwareSerial::available()>:
_ZN14HardwareSerial9availableEv():
C:\Users\mateu\AppData\Local\Arduino15\packages\MiniCore\hardware\avr\2.0.9\cores\MCUdude_corefiles/HardwareSerial.cpp:77
  if (Serial2_available && serialEvent2 && Serial2_available()) serialEvent2();
#endif
#if defined(HAVE_HWSERIAL3)
  if (Serial3_available && serialEvent3 && Serial3_available()) serialEvent3();
#endif
}
    1c34:	fc 01       	movw	r30, r24
    1c36:	91 8d       	ldd	r25, Z+25	; 0x19
    1c38:	22 8d       	ldd	r18, Z+26	; 0x1a
    1c3a:	89 2f       	mov	r24, r25
    1c3c:	90 e0       	ldi	r25, 0x00	; 0
    1c3e:	80 5c       	subi	r24, 0xC0	; 192
    1c40:	9f 4f       	sbci	r25, 0xFF	; 255
    1c42:	82 1b       	sub	r24, r18
    1c44:	91 09       	sbc	r25, r1
    1c46:	8f 73       	andi	r24, 0x3F	; 63
    1c48:	99 27       	eor	r25, r25
    1c4a:	08 95       	ret

00001c4c <HardwareSerial::peek()>:
_ZN14HardwareSerial4peekEv():
    1c4c:	fc 01       	movw	r30, r24
    1c4e:	91 8d       	ldd	r25, Z+25	; 0x19
    1c50:	82 8d       	ldd	r24, Z+26	; 0x1a
    1c52:	98 17       	cp	r25, r24
    1c54:	31 f0       	breq	.+12     	; 0x1c62 <HardwareSerial::peek()+0x16>
    1c56:	82 8d       	ldd	r24, Z+26	; 0x1a
    1c58:	e8 0f       	add	r30, r24
    1c5a:	f1 1d       	adc	r31, r1
    1c5c:	85 8d       	ldd	r24, Z+29	; 0x1d
    1c5e:	90 e0       	ldi	r25, 0x00	; 0
    1c60:	08 95       	ret
    1c62:	8f ef       	ldi	r24, 0xFF	; 255
    1c64:	9f ef       	ldi	r25, 0xFF	; 255
    1c66:	08 95       	ret

00001c68 <HardwareSerial::read()>:
_ZN14HardwareSerial4readEv():
    1c68:	fc 01       	movw	r30, r24
    1c6a:	91 8d       	ldd	r25, Z+25	; 0x19
    1c6c:	82 8d       	ldd	r24, Z+26	; 0x1a
    1c6e:	98 17       	cp	r25, r24
    1c70:	61 f0       	breq	.+24     	; 0x1c8a <HardwareSerial::read()+0x22>
    1c72:	a2 8d       	ldd	r26, Z+26	; 0x1a
    1c74:	ae 0f       	add	r26, r30
    1c76:	bf 2f       	mov	r27, r31
    1c78:	b1 1d       	adc	r27, r1
    1c7a:	5d 96       	adiw	r26, 0x1d	; 29
    1c7c:	8c 91       	ld	r24, X
    1c7e:	92 8d       	ldd	r25, Z+26	; 0x1a
    1c80:	9f 5f       	subi	r25, 0xFF	; 255
    1c82:	9f 73       	andi	r25, 0x3F	; 63
    1c84:	92 8f       	std	Z+26, r25	; 0x1a
    1c86:	90 e0       	ldi	r25, 0x00	; 0
    1c88:	08 95       	ret
    1c8a:	8f ef       	ldi	r24, 0xFF	; 255
    1c8c:	9f ef       	ldi	r25, 0xFF	; 255
    1c8e:	08 95       	ret

00001c90 <HardwareSerial::availableForWrite()>:
_ZN14HardwareSerial17availableForWriteEv():
    1c90:	fc 01       	movw	r30, r24
    1c92:	53 8d       	ldd	r21, Z+27	; 0x1b
    1c94:	44 8d       	ldd	r20, Z+28	; 0x1c
    1c96:	25 2f       	mov	r18, r21
    1c98:	30 e0       	ldi	r19, 0x00	; 0
    1c9a:	84 2f       	mov	r24, r20
    1c9c:	90 e0       	ldi	r25, 0x00	; 0
    1c9e:	82 1b       	sub	r24, r18
    1ca0:	93 0b       	sbc	r25, r19
    1ca2:	54 17       	cp	r21, r20
    1ca4:	10 f0       	brcs	.+4      	; 0x1caa <HardwareSerial::availableForWrite()+0x1a>
    1ca6:	cf 96       	adiw	r24, 0x3f	; 63
    1ca8:	08 95       	ret
    1caa:	01 97       	sbiw	r24, 0x01	; 1
    1cac:	08 95       	ret

00001cae <HardwareSerial::_tx_udr_empty_irq()>:
_ZN14HardwareSerial17_tx_udr_empty_irqEv():
C:\Users\mateu\AppData\Local\Arduino15\packages\MiniCore\hardware\avr\2.0.9\cores\MCUdude_corefiles/HardwareSerial.cpp:82

// Actual interrupt handlers //////////////////////////////////////////////////////////////

void HardwareSerial::_tx_udr_empty_irq(void)
{
    1cae:	fc 01       	movw	r30, r24
C:\Users\mateu\AppData\Local\Arduino15\packages\MiniCore\hardware\avr\2.0.9\cores\MCUdude_corefiles/HardwareSerial.cpp:85
  // If interrupts are enabled, there must be more data in the output
  // buffer. Send the next byte
  unsigned char c = _tx_buffer[_tx_buffer_tail];
    1cb0:	a4 8d       	ldd	r26, Z+28	; 0x1c
    1cb2:	a8 0f       	add	r26, r24
    1cb4:	b9 2f       	mov	r27, r25
    1cb6:	b1 1d       	adc	r27, r1
    1cb8:	a3 5a       	subi	r26, 0xA3	; 163
    1cba:	bf 4f       	sbci	r27, 0xFF	; 255
    1cbc:	2c 91       	ld	r18, X
C:\Users\mateu\AppData\Local\Arduino15\packages\MiniCore\hardware\avr\2.0.9\cores\MCUdude_corefiles/HardwareSerial.cpp:86
  _tx_buffer_tail = (_tx_buffer_tail + 1) % SERIAL_TX_BUFFER_SIZE;
    1cbe:	84 8d       	ldd	r24, Z+28	; 0x1c
    1cc0:	90 e0       	ldi	r25, 0x00	; 0
    1cc2:	01 96       	adiw	r24, 0x01	; 1
    1cc4:	8f 73       	andi	r24, 0x3F	; 63
    1cc6:	99 27       	eor	r25, r25
    1cc8:	84 8f       	std	Z+28, r24	; 0x1c
C:\Users\mateu\AppData\Local\Arduino15\packages\MiniCore\hardware\avr\2.0.9\cores\MCUdude_corefiles/HardwareSerial.cpp:88

  *_udr = c;
    1cca:	a6 89       	ldd	r26, Z+22	; 0x16
    1ccc:	b7 89       	ldd	r27, Z+23	; 0x17
    1cce:	2c 93       	st	X, r18
C:\Users\mateu\AppData\Local\Arduino15\packages\MiniCore\hardware\avr\2.0.9\cores\MCUdude_corefiles/HardwareSerial.cpp:93

  // clear the TXC bit -- "can be cleared by writing a one to its bit
  // location". This makes sure flush() won't return until the bytes
  // actually got written
  *_ucsra |= _BV(TXC0);
    1cd0:	a0 89       	ldd	r26, Z+16	; 0x10
    1cd2:	b1 89       	ldd	r27, Z+17	; 0x11
    1cd4:	8c 91       	ld	r24, X
    1cd6:	80 64       	ori	r24, 0x40	; 64
    1cd8:	8c 93       	st	X, r24
C:\Users\mateu\AppData\Local\Arduino15\packages\MiniCore\hardware\avr\2.0.9\cores\MCUdude_corefiles/HardwareSerial.cpp:95

  if (_tx_buffer_head == _tx_buffer_tail) {
    1cda:	93 8d       	ldd	r25, Z+27	; 0x1b
    1cdc:	84 8d       	ldd	r24, Z+28	; 0x1c
    1cde:	98 13       	cpse	r25, r24
    1ce0:	06 c0       	rjmp	.+12     	; 0x1cee <HardwareSerial::_tx_udr_empty_irq()+0x40>
C:\Users\mateu\AppData\Local\Arduino15\packages\MiniCore\hardware\avr\2.0.9\cores\MCUdude_corefiles/HardwareSerial.cpp:97
    // Buffer empty, so disable interrupts
    *_ucsrb &= ~_BV(UDRIE0);
    1ce2:	02 88       	ldd	r0, Z+18	; 0x12
    1ce4:	f3 89       	ldd	r31, Z+19	; 0x13
    1ce6:	e0 2d       	mov	r30, r0
    1ce8:	80 81       	ld	r24, Z
    1cea:	8f 7d       	andi	r24, 0xDF	; 223
    1cec:	80 83       	st	Z, r24
C:\Users\mateu\AppData\Local\Arduino15\packages\MiniCore\hardware\avr\2.0.9\cores\MCUdude_corefiles/HardwareSerial.cpp:99
  }
}
    1cee:	08 95       	ret

00001cf0 <HardwareSerial::flush()>:
_ZN14HardwareSerial5flushEv():
C:\Users\mateu\AppData\Local\Arduino15\packages\MiniCore\hardware\avr\2.0.9\cores\MCUdude_corefiles/HardwareSerial.cpp:191
  if (head >= tail) return SERIAL_TX_BUFFER_SIZE - 1 - head + tail;
  return tail - head - 1;
}

void HardwareSerial::flush()
{
    1cf0:	cf 93       	push	r28
    1cf2:	df 93       	push	r29
    1cf4:	ec 01       	movw	r28, r24
C:\Users\mateu\AppData\Local\Arduino15\packages\MiniCore\hardware\avr\2.0.9\cores\MCUdude_corefiles/HardwareSerial.cpp:195
  // If we have never written a byte, no need to flush. This special
  // case is needed since there is no way to force the TXC (transmit
  // complete) bit to 1 during initialization
  if (!_written)
    1cf6:	88 8d       	ldd	r24, Y+24	; 0x18
    1cf8:	88 23       	and	r24, r24
    1cfa:	b9 f0       	breq	.+46     	; 0x1d2a <HardwareSerial::flush()+0x3a>
C:\Users\mateu\AppData\Local\Arduino15\packages\MiniCore\hardware\avr\2.0.9\cores\MCUdude_corefiles/HardwareSerial.cpp:198
    return;

  while (bit_is_set(*_ucsrb, UDRIE0) || bit_is_clear(*_ucsra, TXC0)) {
    1cfc:	aa 89       	ldd	r26, Y+18	; 0x12
    1cfe:	bb 89       	ldd	r27, Y+19	; 0x13
    1d00:	e8 89       	ldd	r30, Y+16	; 0x10
    1d02:	f9 89       	ldd	r31, Y+17	; 0x11
    1d04:	8c 91       	ld	r24, X
    1d06:	85 fd       	sbrc	r24, 5
    1d08:	03 c0       	rjmp	.+6      	; 0x1d10 <HardwareSerial::flush()+0x20>
    1d0a:	80 81       	ld	r24, Z
    1d0c:	86 fd       	sbrc	r24, 6
    1d0e:	0d c0       	rjmp	.+26     	; 0x1d2a <HardwareSerial::flush()+0x3a>
C:\Users\mateu\AppData\Local\Arduino15\packages\MiniCore\hardware\avr\2.0.9\cores\MCUdude_corefiles/HardwareSerial.cpp:199
    if (bit_is_clear(SREG, SREG_I) && bit_is_set(*_ucsrb, UDRIE0))
    1d10:	0f b6       	in	r0, 0x3f	; 63
    1d12:	07 fc       	sbrc	r0, 7
    1d14:	f7 cf       	rjmp	.-18     	; 0x1d04 <HardwareSerial::flush()+0x14>
    1d16:	8c 91       	ld	r24, X
    1d18:	85 ff       	sbrs	r24, 5
    1d1a:	f2 cf       	rjmp	.-28     	; 0x1d00 <HardwareSerial::flush()+0x10>
C:\Users\mateu\AppData\Local\Arduino15\packages\MiniCore\hardware\avr\2.0.9\cores\MCUdude_corefiles/HardwareSerial.cpp:203
      // Interrupts are globally disabled, but the DR empty
      // interrupt should be enabled, so poll the DR empty flag to
      // prevent deadlock
      if (bit_is_set(*_ucsra, UDRE0))
    1d1c:	80 81       	ld	r24, Z
    1d1e:	85 ff       	sbrs	r24, 5
    1d20:	ed cf       	rjmp	.-38     	; 0x1cfc <HardwareSerial::flush()+0xc>
C:\Users\mateu\AppData\Local\Arduino15\packages\MiniCore\hardware\avr\2.0.9\cores\MCUdude_corefiles/HardwareSerial.cpp:204
        _tx_udr_empty_irq();
    1d22:	ce 01       	movw	r24, r28
    1d24:	0e 94 57 0e 	call	0x1cae	; 0x1cae <HardwareSerial::_tx_udr_empty_irq()>
    1d28:	e9 cf       	rjmp	.-46     	; 0x1cfc <HardwareSerial::flush()+0xc>
C:\Users\mateu\AppData\Local\Arduino15\packages\MiniCore\hardware\avr\2.0.9\cores\MCUdude_corefiles/HardwareSerial.cpp:208
  }
  // If we get here, nothing is queued anymore (DRIE is disabled) and
  // the hardware finished tranmission (TXC is set).
}
    1d2a:	df 91       	pop	r29
    1d2c:	cf 91       	pop	r28
    1d2e:	08 95       	ret

00001d30 <HardwareSerial::write(unsigned char)>:
_ZN14HardwareSerial5writeEh():
C:\Users\mateu\AppData\Local\Arduino15\packages\MiniCore\hardware\avr\2.0.9\cores\MCUdude_corefiles/HardwareSerial.cpp:211

size_t HardwareSerial::write(uint8_t c)
{
    1d30:	ef 92       	push	r14
    1d32:	ff 92       	push	r15
    1d34:	0f 93       	push	r16
    1d36:	1f 93       	push	r17
    1d38:	cf 93       	push	r28
    1d3a:	df 93       	push	r29
    1d3c:	ec 01       	movw	r28, r24
C:\Users\mateu\AppData\Local\Arduino15\packages\MiniCore\hardware\avr\2.0.9\cores\MCUdude_corefiles/HardwareSerial.cpp:212
  _written = true;
    1d3e:	81 e0       	ldi	r24, 0x01	; 1
    1d40:	88 8f       	std	Y+24, r24	; 0x18
C:\Users\mateu\AppData\Local\Arduino15\packages\MiniCore\hardware\avr\2.0.9\cores\MCUdude_corefiles/HardwareSerial.cpp:217
  // If the buffer and the data register is empty, just write the byte
  // to the data register and be done. This shortcut helps
  // significantly improve the effective datarate at high (>
  // 500kbit/s) bitrates, where interrupt overhead becomes a slowdown.
  if (_tx_buffer_head == _tx_buffer_tail && bit_is_set(*_ucsra, UDRE0)) {
    1d42:	9b 8d       	ldd	r25, Y+27	; 0x1b
    1d44:	8c 8d       	ldd	r24, Y+28	; 0x1c
    1d46:	98 13       	cpse	r25, r24
    1d48:	16 c0       	rjmp	.+44     	; 0x1d76 <HardwareSerial::write(unsigned char)+0x46>
C:\Users\mateu\AppData\Local\Arduino15\packages\MiniCore\hardware\avr\2.0.9\cores\MCUdude_corefiles/HardwareSerial.cpp:217 (discriminator 1)
    1d4a:	e8 89       	ldd	r30, Y+16	; 0x10
    1d4c:	f9 89       	ldd	r31, Y+17	; 0x11
    1d4e:	80 81       	ld	r24, Z
    1d50:	85 ff       	sbrs	r24, 5
    1d52:	11 c0       	rjmp	.+34     	; 0x1d76 <HardwareSerial::write(unsigned char)+0x46>
C:\Users\mateu\AppData\Local\Arduino15\packages\MiniCore\hardware\avr\2.0.9\cores\MCUdude_corefiles/HardwareSerial.cpp:218
    *_udr = c;
    1d54:	ee 89       	ldd	r30, Y+22	; 0x16
    1d56:	ff 89       	ldd	r31, Y+23	; 0x17
    1d58:	60 83       	st	Z, r22
C:\Users\mateu\AppData\Local\Arduino15\packages\MiniCore\hardware\avr\2.0.9\cores\MCUdude_corefiles/HardwareSerial.cpp:219
    *_ucsra |= _BV(TXC0);
    1d5a:	e8 89       	ldd	r30, Y+16	; 0x10
    1d5c:	f9 89       	ldd	r31, Y+17	; 0x11
    1d5e:	80 81       	ld	r24, Z
    1d60:	80 64       	ori	r24, 0x40	; 64
C:\Users\mateu\AppData\Local\Arduino15\packages\MiniCore\hardware\avr\2.0.9\cores\MCUdude_corefiles/HardwareSerial.cpp:242
  }

  _tx_buffer[_tx_buffer_head] = c;
  _tx_buffer_head = i;

  *_ucsrb |= _BV(UDRIE0);
    1d62:	80 83       	st	Z, r24
C:\Users\mateu\AppData\Local\Arduino15\packages\MiniCore\hardware\avr\2.0.9\cores\MCUdude_corefiles/HardwareSerial.cpp:245
  
  return 1;
}
    1d64:	81 e0       	ldi	r24, 0x01	; 1
    1d66:	90 e0       	ldi	r25, 0x00	; 0
    1d68:	df 91       	pop	r29
    1d6a:	cf 91       	pop	r28
    1d6c:	1f 91       	pop	r17
    1d6e:	0f 91       	pop	r16
    1d70:	ff 90       	pop	r15
    1d72:	ef 90       	pop	r14
    1d74:	08 95       	ret
    1d76:	f6 2e       	mov	r15, r22
C:\Users\mateu\AppData\Local\Arduino15\packages\MiniCore\hardware\avr\2.0.9\cores\MCUdude_corefiles/HardwareSerial.cpp:222
  if (_tx_buffer_head == _tx_buffer_tail && bit_is_set(*_ucsra, UDRE0)) {
    *_udr = c;
    *_ucsra |= _BV(TXC0);
    return 1;
  }
  tx_buffer_index_t i = (_tx_buffer_head + 1) % SERIAL_TX_BUFFER_SIZE;
    1d78:	0b 8d       	ldd	r16, Y+27	; 0x1b
    1d7a:	10 e0       	ldi	r17, 0x00	; 0
    1d7c:	0f 5f       	subi	r16, 0xFF	; 255
    1d7e:	1f 4f       	sbci	r17, 0xFF	; 255
    1d80:	0f 73       	andi	r16, 0x3F	; 63
    1d82:	11 27       	eor	r17, r17
    1d84:	e0 2e       	mov	r14, r16
C:\Users\mateu\AppData\Local\Arduino15\packages\MiniCore\hardware\avr\2.0.9\cores\MCUdude_corefiles/HardwareSerial.cpp:226

  // If the output buffer is full, there's nothing for it other than to 
  // wait for the interrupt handler to empty it a bit
  while (i == _tx_buffer_tail) {
    1d86:	8c 8d       	ldd	r24, Y+28	; 0x1c
    1d88:	8e 11       	cpse	r24, r14
    1d8a:	0c c0       	rjmp	.+24     	; 0x1da4 <HardwareSerial::write(unsigned char)+0x74>
C:\Users\mateu\AppData\Local\Arduino15\packages\MiniCore\hardware\avr\2.0.9\cores\MCUdude_corefiles/HardwareSerial.cpp:227
    if (bit_is_clear(SREG, SREG_I)) {
    1d8c:	0f b6       	in	r0, 0x3f	; 63
    1d8e:	07 fc       	sbrc	r0, 7
    1d90:	fa cf       	rjmp	.-12     	; 0x1d86 <HardwareSerial::write(unsigned char)+0x56>
C:\Users\mateu\AppData\Local\Arduino15\packages\MiniCore\hardware\avr\2.0.9\cores\MCUdude_corefiles/HardwareSerial.cpp:232
      // Interrupts are disabled, so we'll have to poll the data
      // register empty flag ourselves. If it is set, pretend an
      // interrupt has happened and call the handler to free up
      // space for us.
      if(bit_is_set(*_ucsra, UDRE0))
    1d92:	e8 89       	ldd	r30, Y+16	; 0x10
    1d94:	f9 89       	ldd	r31, Y+17	; 0x11
    1d96:	80 81       	ld	r24, Z
    1d98:	85 ff       	sbrs	r24, 5
    1d9a:	f5 cf       	rjmp	.-22     	; 0x1d86 <HardwareSerial::write(unsigned char)+0x56>
C:\Users\mateu\AppData\Local\Arduino15\packages\MiniCore\hardware\avr\2.0.9\cores\MCUdude_corefiles/HardwareSerial.cpp:233
        _tx_udr_empty_irq();
    1d9c:	ce 01       	movw	r24, r28
    1d9e:	0e 94 57 0e 	call	0x1cae	; 0x1cae <HardwareSerial::_tx_udr_empty_irq()>
    1da2:	f1 cf       	rjmp	.-30     	; 0x1d86 <HardwareSerial::write(unsigned char)+0x56>
C:\Users\mateu\AppData\Local\Arduino15\packages\MiniCore\hardware\avr\2.0.9\cores\MCUdude_corefiles/HardwareSerial.cpp:239
    } else {
      // nop, the interrupt handler will free up space for us
    }
  }

  _tx_buffer[_tx_buffer_head] = c;
    1da4:	eb 8d       	ldd	r30, Y+27	; 0x1b
    1da6:	ec 0f       	add	r30, r28
    1da8:	fd 2f       	mov	r31, r29
    1daa:	f1 1d       	adc	r31, r1
    1dac:	e3 5a       	subi	r30, 0xA3	; 163
    1dae:	ff 4f       	sbci	r31, 0xFF	; 255
    1db0:	f0 82       	st	Z, r15
C:\Users\mateu\AppData\Local\Arduino15\packages\MiniCore\hardware\avr\2.0.9\cores\MCUdude_corefiles/HardwareSerial.cpp:240
  _tx_buffer_head = i;
    1db2:	0b 8f       	std	Y+27, r16	; 0x1b
C:\Users\mateu\AppData\Local\Arduino15\packages\MiniCore\hardware\avr\2.0.9\cores\MCUdude_corefiles/HardwareSerial.cpp:242

  *_ucsrb |= _BV(UDRIE0);
    1db4:	ea 89       	ldd	r30, Y+18	; 0x12
    1db6:	fb 89       	ldd	r31, Y+19	; 0x13
    1db8:	80 81       	ld	r24, Z
    1dba:	80 62       	ori	r24, 0x20	; 32
    1dbc:	d2 cf       	rjmp	.-92     	; 0x1d62 <HardwareSerial::write(unsigned char)+0x32>

00001dbe <HardwareSerial::begin(unsigned long, unsigned char)>:
_ZN14HardwareSerial5beginEmh():
C:\Users\mateu\AppData\Local\Arduino15\packages\MiniCore\hardware\avr\2.0.9\cores\MCUdude_corefiles/HardwareSerial.cpp:104
}

// Public Methods //////////////////////////////////////////////////////////////

void HardwareSerial::begin(unsigned long baud, byte config)
{
    1dbe:	cf 92       	push	r12
    1dc0:	df 92       	push	r13
    1dc2:	ef 92       	push	r14
    1dc4:	ff 92       	push	r15
    1dc6:	1f 93       	push	r17
    1dc8:	cf 93       	push	r28
    1dca:	df 93       	push	r29
    1dcc:	ec 01       	movw	r28, r24
    1dce:	6a 01       	movw	r12, r20
    1dd0:	7b 01       	movw	r14, r22
    1dd2:	12 2f       	mov	r17, r18
C:\Users\mateu\AppData\Local\Arduino15\packages\MiniCore\hardware\avr\2.0.9\cores\MCUdude_corefiles/HardwareSerial.cpp:107
  // Try u2x mode first
  uint16_t baud_setting = (F_CPU / 4 / baud - 1) / 2;
  *_ucsra = 1 << U2X0;
    1dd4:	e8 89       	ldd	r30, Y+16	; 0x10
    1dd6:	f9 89       	ldd	r31, Y+17	; 0x11
    1dd8:	82 e0       	ldi	r24, 0x02	; 2
    1dda:	80 83       	st	Z, r24
C:\Users\mateu\AppData\Local\Arduino15\packages\MiniCore\hardware\avr\2.0.9\cores\MCUdude_corefiles/HardwareSerial.cpp:114
  // hardcoded exception for 57600 for compatibility with the bootloader
  // shipped with the Duemilanove and previous boards and the firmware
  // on the 8U2 on the Uno and Mega 2560. Also, The baud_setting cannot
  // be > 4095, so switch back to non-u2x mode if the baud rate is too
  // low.
  if (((F_CPU == 16000000UL) && (baud == 57600)) || (baud_setting >4095))
    1ddc:	c1 14       	cp	r12, r1
    1dde:	81 ee       	ldi	r24, 0xE1	; 225
    1de0:	d8 06       	cpc	r13, r24
    1de2:	e1 04       	cpc	r14, r1
    1de4:	f1 04       	cpc	r15, r1
    1de6:	a1 f0       	breq	.+40     	; 0x1e10 <HardwareSerial::begin(unsigned long, unsigned char)+0x52>
C:\Users\mateu\AppData\Local\Arduino15\packages\MiniCore\hardware\avr\2.0.9\cores\MCUdude_corefiles/HardwareSerial.cpp:106 (discriminator 1)
// Public Methods //////////////////////////////////////////////////////////////

void HardwareSerial::begin(unsigned long baud, byte config)
{
  // Try u2x mode first
  uint16_t baud_setting = (F_CPU / 4 / baud - 1) / 2;
    1de8:	60 e0       	ldi	r22, 0x00	; 0
    1dea:	79 e0       	ldi	r23, 0x09	; 9
    1dec:	8d e3       	ldi	r24, 0x3D	; 61
    1dee:	90 e0       	ldi	r25, 0x00	; 0
    1df0:	a7 01       	movw	r20, r14
    1df2:	96 01       	movw	r18, r12
    1df4:	0e 94 96 11 	call	0x232c	; 0x232c <__udivmodsi4>
    1df8:	21 50       	subi	r18, 0x01	; 1
    1dfa:	31 09       	sbc	r19, r1
    1dfc:	41 09       	sbc	r20, r1
    1dfe:	51 09       	sbc	r21, r1
    1e00:	56 95       	lsr	r21
    1e02:	47 95       	ror	r20
    1e04:	37 95       	ror	r19
    1e06:	27 95       	ror	r18
C:\Users\mateu\AppData\Local\Arduino15\packages\MiniCore\hardware\avr\2.0.9\cores\MCUdude_corefiles/HardwareSerial.cpp:114 (discriminator 1)
  // hardcoded exception for 57600 for compatibility with the bootloader
  // shipped with the Duemilanove and previous boards and the firmware
  // on the 8U2 on the Uno and Mega 2560. Also, The baud_setting cannot
  // be > 4095, so switch back to non-u2x mode if the baud rate is too
  // low.
  if (((F_CPU == 16000000UL) && (baud == 57600)) || (baud_setting >4095))
    1e08:	21 15       	cp	r18, r1
    1e0a:	80 e1       	ldi	r24, 0x10	; 16
    1e0c:	38 07       	cpc	r19, r24
    1e0e:	98 f0       	brcs	.+38     	; 0x1e36 <HardwareSerial::begin(unsigned long, unsigned char)+0x78>
C:\Users\mateu\AppData\Local\Arduino15\packages\MiniCore\hardware\avr\2.0.9\cores\MCUdude_corefiles/HardwareSerial.cpp:116
  {
    *_ucsra = 0;
    1e10:	e8 89       	ldd	r30, Y+16	; 0x10
    1e12:	f9 89       	ldd	r31, Y+17	; 0x11
    1e14:	10 82       	st	Z, r1
C:\Users\mateu\AppData\Local\Arduino15\packages\MiniCore\hardware\avr\2.0.9\cores\MCUdude_corefiles/HardwareSerial.cpp:117
    baud_setting = (F_CPU / 8 / baud - 1) / 2;
    1e16:	60 e8       	ldi	r22, 0x80	; 128
    1e18:	74 e8       	ldi	r23, 0x84	; 132
    1e1a:	8e e1       	ldi	r24, 0x1E	; 30
    1e1c:	90 e0       	ldi	r25, 0x00	; 0
    1e1e:	a7 01       	movw	r20, r14
    1e20:	96 01       	movw	r18, r12
    1e22:	0e 94 96 11 	call	0x232c	; 0x232c <__udivmodsi4>
    1e26:	21 50       	subi	r18, 0x01	; 1
    1e28:	31 09       	sbc	r19, r1
    1e2a:	41 09       	sbc	r20, r1
    1e2c:	51 09       	sbc	r21, r1
    1e2e:	56 95       	lsr	r21
    1e30:	47 95       	ror	r20
    1e32:	37 95       	ror	r19
    1e34:	27 95       	ror	r18
C:\Users\mateu\AppData\Local\Arduino15\packages\MiniCore\hardware\avr\2.0.9\cores\MCUdude_corefiles/HardwareSerial.cpp:121
  }

  // assign the baud_setting, a.k.a. ubrr (USART Baud Rate Register)
  *_ubrrh = baud_setting >> 8;
    1e36:	ec 85       	ldd	r30, Y+12	; 0x0c
    1e38:	fd 85       	ldd	r31, Y+13	; 0x0d
    1e3a:	30 83       	st	Z, r19
C:\Users\mateu\AppData\Local\Arduino15\packages\MiniCore\hardware\avr\2.0.9\cores\MCUdude_corefiles/HardwareSerial.cpp:122
  *_ubrrl = baud_setting;
    1e3c:	ee 85       	ldd	r30, Y+14	; 0x0e
    1e3e:	ff 85       	ldd	r31, Y+15	; 0x0f
    1e40:	20 83       	st	Z, r18
C:\Users\mateu\AppData\Local\Arduino15\packages\MiniCore\hardware\avr\2.0.9\cores\MCUdude_corefiles/HardwareSerial.cpp:124

  _written = false;
    1e42:	18 8e       	std	Y+24, r1	; 0x18
C:\Users\mateu\AppData\Local\Arduino15\packages\MiniCore\hardware\avr\2.0.9\cores\MCUdude_corefiles/HardwareSerial.cpp:132
#if defined(__AVR_ATmega8__) || defined(__AVR_ATmega8515__) || defined(__AVR_ATmega162__) \
|| defined(__AVR_ATmega8535__) || defined(__AVR_ATmega16__)|| defined(__AVR_ATmega32__)   \
|| defined(__AVR_ATmega162__)
  config |= 0x80; // select UCSRC register (shared with UBRRH)
#endif
  *_ucsrc = config;
    1e44:	ec 89       	ldd	r30, Y+20	; 0x14
    1e46:	fd 89       	ldd	r31, Y+21	; 0x15
    1e48:	10 83       	st	Z, r17
C:\Users\mateu\AppData\Local\Arduino15\packages\MiniCore\hardware\avr\2.0.9\cores\MCUdude_corefiles/HardwareSerial.cpp:134
  
  *_ucsrb |= _BV(RXEN0) | _BV(TXEN0) | _BV(RXCIE0);
    1e4a:	ea 89       	ldd	r30, Y+18	; 0x12
    1e4c:	fb 89       	ldd	r31, Y+19	; 0x13
    1e4e:	80 81       	ld	r24, Z
    1e50:	88 69       	ori	r24, 0x98	; 152
    1e52:	80 83       	st	Z, r24
C:\Users\mateu\AppData\Local\Arduino15\packages\MiniCore\hardware\avr\2.0.9\cores\MCUdude_corefiles/HardwareSerial.cpp:135
  *_ucsrb &= ~_BV(UDRIE0);
    1e54:	ea 89       	ldd	r30, Y+18	; 0x12
    1e56:	fb 89       	ldd	r31, Y+19	; 0x13
    1e58:	80 81       	ld	r24, Z
    1e5a:	8f 7d       	andi	r24, 0xDF	; 223
    1e5c:	80 83       	st	Z, r24
C:\Users\mateu\AppData\Local\Arduino15\packages\MiniCore\hardware\avr\2.0.9\cores\MCUdude_corefiles/HardwareSerial.cpp:136
}
    1e5e:	df 91       	pop	r29
    1e60:	cf 91       	pop	r28
    1e62:	1f 91       	pop	r17
    1e64:	ff 90       	pop	r15
    1e66:	ef 90       	pop	r14
    1e68:	df 90       	pop	r13
    1e6a:	cf 90       	pop	r12
    1e6c:	08 95       	ret

00001e6e <__vector_18>:
__vector_18():
C:\Users\mateu\AppData\Local\Arduino15\packages\MiniCore\hardware\avr\2.0.9\cores\MCUdude_corefiles/HardwareSerial0.cpp:77

// Function that can be weakly referenced by serialEventRun to prevent
// pulling in this file if it's not otherwise used.
bool Serial0_available() {
  return Serial.available();
}
    1e6e:	1f 92       	push	r1
    1e70:	0f 92       	push	r0
    1e72:	0f b6       	in	r0, 0x3f	; 63
    1e74:	0f 92       	push	r0
    1e76:	11 24       	eor	r1, r1
    1e78:	2f 93       	push	r18
    1e7a:	8f 93       	push	r24
    1e7c:	9f 93       	push	r25
    1e7e:	ef 93       	push	r30
    1e80:	ff 93       	push	r31
_ZN14HardwareSerial16_rx_complete_irqEv():
    1e82:	e0 91 08 03 	lds	r30, 0x0308	; 0x800308 <Serial+0x10>
    1e86:	f0 91 09 03 	lds	r31, 0x0309	; 0x800309 <Serial+0x11>
    1e8a:	80 81       	ld	r24, Z
    1e8c:	e0 91 0e 03 	lds	r30, 0x030E	; 0x80030e <Serial+0x16>
    1e90:	f0 91 0f 03 	lds	r31, 0x030F	; 0x80030f <Serial+0x17>
    1e94:	82 fd       	sbrc	r24, 2
    1e96:	1b c0       	rjmp	.+54     	; 0x1ece <__vector_18+0x60>
    1e98:	90 81       	ld	r25, Z
    1e9a:	80 91 11 03 	lds	r24, 0x0311	; 0x800311 <Serial+0x19>
    1e9e:	8f 5f       	subi	r24, 0xFF	; 255
    1ea0:	8f 73       	andi	r24, 0x3F	; 63
    1ea2:	20 91 12 03 	lds	r18, 0x0312	; 0x800312 <Serial+0x1a>
    1ea6:	82 17       	cp	r24, r18
    1ea8:	41 f0       	breq	.+16     	; 0x1eba <__vector_18+0x4c>
    1eaa:	e0 91 11 03 	lds	r30, 0x0311	; 0x800311 <Serial+0x19>
    1eae:	f0 e0       	ldi	r31, 0x00	; 0
    1eb0:	e8 50       	subi	r30, 0x08	; 8
    1eb2:	fd 4f       	sbci	r31, 0xFD	; 253
    1eb4:	95 8f       	std	Z+29, r25	; 0x1d
    1eb6:	80 93 11 03 	sts	0x0311, r24	; 0x800311 <Serial+0x19>
__vector_18():
    1eba:	ff 91       	pop	r31
    1ebc:	ef 91       	pop	r30
    1ebe:	9f 91       	pop	r25
    1ec0:	8f 91       	pop	r24
    1ec2:	2f 91       	pop	r18
    1ec4:	0f 90       	pop	r0
    1ec6:	0f be       	out	0x3f, r0	; 63
    1ec8:	0f 90       	pop	r0
    1eca:	1f 90       	pop	r1
    1ecc:	18 95       	reti
_ZN14HardwareSerial16_rx_complete_irqEv():
    1ece:	80 81       	ld	r24, Z
__vector_18():
    1ed0:	f4 cf       	rjmp	.-24     	; 0x1eba <__vector_18+0x4c>

00001ed2 <__vector_19>:
__vector_19():
    1ed2:	1f 92       	push	r1
    1ed4:	0f 92       	push	r0
    1ed6:	0f b6       	in	r0, 0x3f	; 63
    1ed8:	0f 92       	push	r0
    1eda:	11 24       	eor	r1, r1
    1edc:	2f 93       	push	r18
    1ede:	3f 93       	push	r19
    1ee0:	4f 93       	push	r20
    1ee2:	5f 93       	push	r21
    1ee4:	6f 93       	push	r22
    1ee6:	7f 93       	push	r23
    1ee8:	8f 93       	push	r24
    1eea:	9f 93       	push	r25
    1eec:	af 93       	push	r26
    1eee:	bf 93       	push	r27
    1ef0:	ef 93       	push	r30
    1ef2:	ff 93       	push	r31
    1ef4:	88 ef       	ldi	r24, 0xF8	; 248
    1ef6:	92 e0       	ldi	r25, 0x02	; 2
    1ef8:	0e 94 57 0e 	call	0x1cae	; 0x1cae <HardwareSerial::_tx_udr_empty_irq()>
    1efc:	ff 91       	pop	r31
    1efe:	ef 91       	pop	r30
    1f00:	bf 91       	pop	r27
    1f02:	af 91       	pop	r26
    1f04:	9f 91       	pop	r25
    1f06:	8f 91       	pop	r24
    1f08:	7f 91       	pop	r23
    1f0a:	6f 91       	pop	r22
    1f0c:	5f 91       	pop	r21
    1f0e:	4f 91       	pop	r20
    1f10:	3f 91       	pop	r19
    1f12:	2f 91       	pop	r18
    1f14:	0f 90       	pop	r0
    1f16:	0f be       	out	0x3f, r0	; 63
    1f18:	0f 90       	pop	r0
    1f1a:	1f 90       	pop	r1
    1f1c:	18 95       	reti

00001f1e <_GLOBAL__sub_I___vector_18>:
_ZN5PrintC4Ev():
C:\Users\mateu\AppData\Local\Arduino15\packages\MiniCore\hardware\avr\2.0.9\cores\MCUdude_corefiles/Print.h:46
    size_t printNumber(unsigned long, uint8_t);
    size_t printFloat(double, uint8_t);
  protected:
    void setWriteError(int err = 1) { write_error = err; }
  public:
    Print() : write_error(0) {}
    1f1e:	e8 ef       	ldi	r30, 0xF8	; 248
    1f20:	f2 e0       	ldi	r31, 0x02	; 2
    1f22:	13 82       	std	Z+3, r1	; 0x03
    1f24:	12 82       	std	Z+2, r1	; 0x02
_ZN6StreamC4Ev():
C:\Users\mateu\AppData\Local\Arduino15\packages\MiniCore\hardware\avr\2.0.9\cores\MCUdude_corefiles/Stream.h:63
  public:
    virtual int available() = 0;
    virtual int read() = 0;
    virtual int peek() = 0;

    Stream() {_timeout=1000;}
    1f26:	88 ee       	ldi	r24, 0xE8	; 232
    1f28:	93 e0       	ldi	r25, 0x03	; 3
    1f2a:	a0 e0       	ldi	r26, 0x00	; 0
    1f2c:	b0 e0       	ldi	r27, 0x00	; 0
    1f2e:	84 83       	std	Z+4, r24	; 0x04
    1f30:	95 83       	std	Z+5, r25	; 0x05
    1f32:	a6 83       	std	Z+6, r26	; 0x06
    1f34:	b7 83       	std	Z+7, r27	; 0x07
_ZN14HardwareSerialC4EPVhS1_S1_S1_S1_S1_():
C:\Users\mateu\AppData\Local\Arduino15\packages\MiniCore\hardware\avr\2.0.9\cores\MCUdude_corefiles/HardwareSerial_private.h:95
  volatile uint8_t *ucsrc, volatile uint8_t *udr) :
    _ubrrh(ubrrh), _ubrrl(ubrrl),
    _ucsra(ucsra), _ucsrb(ucsrb), _ucsrc(ucsrc),
    _udr(udr),
    _rx_buffer_head(0), _rx_buffer_tail(0),
    _tx_buffer_head(0), _tx_buffer_tail(0)
    1f36:	8e ef       	ldi	r24, 0xFE	; 254
    1f38:	91 e0       	ldi	r25, 0x01	; 1
    1f3a:	91 83       	std	Z+1, r25	; 0x01
    1f3c:	80 83       	st	Z, r24
    1f3e:	85 ec       	ldi	r24, 0xC5	; 197
    1f40:	90 e0       	ldi	r25, 0x00	; 0
    1f42:	95 87       	std	Z+13, r25	; 0x0d
    1f44:	84 87       	std	Z+12, r24	; 0x0c
    1f46:	84 ec       	ldi	r24, 0xC4	; 196
    1f48:	90 e0       	ldi	r25, 0x00	; 0
    1f4a:	97 87       	std	Z+15, r25	; 0x0f
    1f4c:	86 87       	std	Z+14, r24	; 0x0e
    1f4e:	80 ec       	ldi	r24, 0xC0	; 192
    1f50:	90 e0       	ldi	r25, 0x00	; 0
    1f52:	91 8b       	std	Z+17, r25	; 0x11
    1f54:	80 8b       	std	Z+16, r24	; 0x10
    1f56:	81 ec       	ldi	r24, 0xC1	; 193
    1f58:	90 e0       	ldi	r25, 0x00	; 0
    1f5a:	93 8b       	std	Z+19, r25	; 0x13
    1f5c:	82 8b       	std	Z+18, r24	; 0x12
    1f5e:	82 ec       	ldi	r24, 0xC2	; 194
    1f60:	90 e0       	ldi	r25, 0x00	; 0
    1f62:	95 8b       	std	Z+21, r25	; 0x15
    1f64:	84 8b       	std	Z+20, r24	; 0x14
    1f66:	86 ec       	ldi	r24, 0xC6	; 198
    1f68:	90 e0       	ldi	r25, 0x00	; 0
    1f6a:	97 8b       	std	Z+23, r25	; 0x17
    1f6c:	86 8b       	std	Z+22, r24	; 0x16
    1f6e:	11 8e       	std	Z+25, r1	; 0x19
    1f70:	12 8e       	std	Z+26, r1	; 0x1a
    1f72:	13 8e       	std	Z+27, r1	; 0x1b
    1f74:	14 8e       	std	Z+28, r1	; 0x1c
_GLOBAL__sub_I___vector_18():
C:\Users\mateu\AppData\Local\Arduino15\packages\MiniCore\hardware\avr\2.0.9\cores\MCUdude_corefiles/HardwareSerial0.cpp:77
    1f76:	08 95       	ret

00001f78 <Print::write(unsigned char const*, unsigned int)>:
_ZN5Print5writeEPKhj():
C:\Users\mateu\AppData\Local\Arduino15\packages\MiniCore\hardware\avr\2.0.9\cores\MCUdude_corefiles/Print.cpp:119
size_t Print::println(const __FlashStringHelper *ifsh)
{
  size_t n = print(ifsh);
  n += println();
  return n;
}
    1f78:	af 92       	push	r10
    1f7a:	bf 92       	push	r11
    1f7c:	cf 92       	push	r12
    1f7e:	df 92       	push	r13
    1f80:	ef 92       	push	r14
    1f82:	ff 92       	push	r15
    1f84:	0f 93       	push	r16
    1f86:	1f 93       	push	r17
    1f88:	cf 93       	push	r28
    1f8a:	df 93       	push	r29
    1f8c:	6c 01       	movw	r12, r24
    1f8e:	7b 01       	movw	r14, r22
    1f90:	8b 01       	movw	r16, r22
    1f92:	04 0f       	add	r16, r20
    1f94:	15 1f       	adc	r17, r21
    1f96:	eb 01       	movw	r28, r22
    1f98:	5e 01       	movw	r10, r28
    1f9a:	ae 18       	sub	r10, r14
    1f9c:	bf 08       	sbc	r11, r15
    1f9e:	c0 17       	cp	r28, r16
    1fa0:	d1 07       	cpc	r29, r17
    1fa2:	59 f0       	breq	.+22     	; 0x1fba <Print::write(unsigned char const*, unsigned int)+0x42>
    1fa4:	69 91       	ld	r22, Y+
    1fa6:	d6 01       	movw	r26, r12
    1fa8:	ed 91       	ld	r30, X+
    1faa:	fc 91       	ld	r31, X
    1fac:	01 90       	ld	r0, Z+
    1fae:	f0 81       	ld	r31, Z
    1fb0:	e0 2d       	mov	r30, r0
    1fb2:	c6 01       	movw	r24, r12
    1fb4:	09 95       	icall
    1fb6:	89 2b       	or	r24, r25
    1fb8:	79 f7       	brne	.-34     	; 0x1f98 <Print::write(unsigned char const*, unsigned int)+0x20>
    1fba:	c5 01       	movw	r24, r10
    1fbc:	df 91       	pop	r29
    1fbe:	cf 91       	pop	r28
    1fc0:	1f 91       	pop	r17
    1fc2:	0f 91       	pop	r16
    1fc4:	ff 90       	pop	r15
    1fc6:	ef 90       	pop	r14
    1fc8:	df 90       	pop	r13
    1fca:	cf 90       	pop	r12
    1fcc:	bf 90       	pop	r11
    1fce:	af 90       	pop	r10
    1fd0:	08 95       	ret

00001fd2 <Print::write(char const*) [clone .part.2]>:
_ZN5Print5writeEPKc():
    1fd2:	fb 01       	movw	r30, r22
    1fd4:	01 90       	ld	r0, Z+
    1fd6:	00 20       	and	r0, r0
    1fd8:	e9 f7       	brne	.-6      	; 0x1fd4 <Print::write(char const*) [clone .part.2]+0x2>
    1fda:	31 97       	sbiw	r30, 0x01	; 1
    1fdc:	af 01       	movw	r20, r30
    1fde:	46 1b       	sub	r20, r22
    1fe0:	57 0b       	sbc	r21, r23
    1fe2:	dc 01       	movw	r26, r24
    1fe4:	ed 91       	ld	r30, X+
    1fe6:	fc 91       	ld	r31, X
    1fe8:	02 80       	ldd	r0, Z+2	; 0x02
    1fea:	f3 81       	ldd	r31, Z+3	; 0x03
    1fec:	e0 2d       	mov	r30, r0
    1fee:	09 94       	ijmp

00001ff0 <Print::print(String const&)>:
_ZN5Print5writeEPKcj():
    1ff0:	db 01       	movw	r26, r22
    1ff2:	14 96       	adiw	r26, 0x04	; 4
    1ff4:	4d 91       	ld	r20, X+
    1ff6:	5c 91       	ld	r21, X
    1ff8:	15 97       	sbiw	r26, 0x05	; 5
    1ffa:	6d 91       	ld	r22, X+
    1ffc:	7c 91       	ld	r23, X
    1ffe:	dc 01       	movw	r26, r24
    2000:	ed 91       	ld	r30, X+
    2002:	fc 91       	ld	r31, X
    2004:	02 80       	ldd	r0, Z+2	; 0x02
    2006:	f3 81       	ldd	r31, Z+3	; 0x03
    2008:	e0 2d       	mov	r30, r0
    200a:	09 94       	ijmp

0000200c <Print::println()>:
_ZN5Print5writeEPKc():
    200c:	6c e3       	ldi	r22, 0x3C	; 60
    200e:	71 e0       	ldi	r23, 0x01	; 1
    2010:	0c 94 e9 0f 	jmp	0x1fd2	; 0x1fd2 <Print::write(char const*) [clone .part.2]>

00002014 <Print::println(String const&)>:
_ZN5Print7printlnERK6String():
C:\Users\mateu\AppData\Local\Arduino15\packages\MiniCore\hardware\avr\2.0.9\cores\MCUdude_corefiles/Print.cpp:132
{
  return write("\r\n");
}

size_t Print::println(const String &s)
{
    2014:	0f 93       	push	r16
    2016:	1f 93       	push	r17
    2018:	cf 93       	push	r28
    201a:	df 93       	push	r29
    201c:	ec 01       	movw	r28, r24
C:\Users\mateu\AppData\Local\Arduino15\packages\MiniCore\hardware\avr\2.0.9\cores\MCUdude_corefiles/Print.cpp:133
  size_t n = print(s);
    201e:	0e 94 f8 0f 	call	0x1ff0	; 0x1ff0 <Print::print(String const&)>
    2022:	8c 01       	movw	r16, r24
C:\Users\mateu\AppData\Local\Arduino15\packages\MiniCore\hardware\avr\2.0.9\cores\MCUdude_corefiles/Print.cpp:134
  n += println();
    2024:	ce 01       	movw	r24, r28
    2026:	0e 94 06 10 	call	0x200c	; 0x200c <Print::println()>
C:\Users\mateu\AppData\Local\Arduino15\packages\MiniCore\hardware\avr\2.0.9\cores\MCUdude_corefiles/Print.cpp:136
  return n;
}
    202a:	80 0f       	add	r24, r16
    202c:	91 1f       	adc	r25, r17
    202e:	df 91       	pop	r29
    2030:	cf 91       	pop	r28
    2032:	1f 91       	pop	r17
    2034:	0f 91       	pop	r16
    2036:	08 95       	ret

00002038 <Print::println(char const*)>:
_ZN5Print7printlnEPKc():
C:\Users\mateu\AppData\Local\Arduino15\packages\MiniCore\hardware\avr\2.0.9\cores\MCUdude_corefiles/Print.cpp:139

size_t Print::println(const char c[])
{
    2038:	0f 93       	push	r16
    203a:	1f 93       	push	r17
    203c:	cf 93       	push	r28
    203e:	df 93       	push	r29
    2040:	8c 01       	movw	r16, r24
_ZN5Print5writeEPKc():
C:\Users\mateu\AppData\Local\Arduino15\packages\MiniCore\hardware\avr\2.0.9\cores\MCUdude_corefiles/Print.h:53
    int getWriteError() { return write_error; }
    void clearWriteError() { setWriteError(0); }
  
    virtual size_t write(uint8_t) = 0;
    size_t write(const char *str) {
      if (str == NULL) return 0;
    2042:	d0 e0       	ldi	r29, 0x00	; 0
    2044:	c0 e0       	ldi	r28, 0x00	; 0
    2046:	61 15       	cp	r22, r1
    2048:	71 05       	cpc	r23, r1
    204a:	19 f0       	breq	.+6      	; 0x2052 <Print::println(char const*)+0x1a>
    204c:	0e 94 e9 0f 	call	0x1fd2	; 0x1fd2 <Print::write(char const*) [clone .part.2]>
    2050:	ec 01       	movw	r28, r24
_ZN5Print7printlnEPKc():
C:\Users\mateu\AppData\Local\Arduino15\packages\MiniCore\hardware\avr\2.0.9\cores\MCUdude_corefiles/Print.cpp:141
  size_t n = print(c);
  n += println();
    2052:	c8 01       	movw	r24, r16
    2054:	0e 94 06 10 	call	0x200c	; 0x200c <Print::println()>
C:\Users\mateu\AppData\Local\Arduino15\packages\MiniCore\hardware\avr\2.0.9\cores\MCUdude_corefiles/Print.cpp:143
  return n;
}
    2058:	8c 0f       	add	r24, r28
    205a:	9d 1f       	adc	r25, r29
    205c:	df 91       	pop	r29
    205e:	cf 91       	pop	r28
    2060:	1f 91       	pop	r17
    2062:	0f 91       	pop	r16
    2064:	08 95       	ret

00002066 <String::~String()>:
_ZN6StringD2Ev():
C:\Users\mateu\AppData\Local\Arduino15\packages\MiniCore\hardware\avr\2.0.9\cores\MCUdude_corefiles/WString.cpp:428
StringSumHelper & operator + (const StringSumHelper &lhs, const __FlashStringHelper *rhs)
{
  StringSumHelper &a = const_cast<StringSumHelper&>(lhs);
  if (!a.concat(rhs)) a.invalidate();
  return a;
}
    2066:	fc 01       	movw	r30, r24
    2068:	80 81       	ld	r24, Z
    206a:	91 81       	ldd	r25, Z+1	; 0x01
    206c:	0c 94 8d 12 	jmp	0x251a	; 0x251a <free>

00002070 <String::invalidate()>:
_ZN6String10invalidateEv():
    2070:	cf 93       	push	r28
    2072:	df 93       	push	r29
    2074:	ec 01       	movw	r28, r24
    2076:	88 81       	ld	r24, Y
    2078:	99 81       	ldd	r25, Y+1	; 0x01
    207a:	00 97       	sbiw	r24, 0x00	; 0
    207c:	11 f0       	breq	.+4      	; 0x2082 <String::invalidate()+0x12>
    207e:	0e 94 8d 12 	call	0x251a	; 0x251a <free>
    2082:	19 82       	std	Y+1, r1	; 0x01
    2084:	18 82       	st	Y, r1
    2086:	1d 82       	std	Y+5, r1	; 0x05
    2088:	1c 82       	std	Y+4, r1	; 0x04
    208a:	1b 82       	std	Y+3, r1	; 0x03
    208c:	1a 82       	std	Y+2, r1	; 0x02
    208e:	df 91       	pop	r29
    2090:	cf 91       	pop	r28
    2092:	08 95       	ret

00002094 <String::changeBuffer(unsigned int)>:
_ZN6String12changeBufferEj():
    2094:	0f 93       	push	r16
    2096:	1f 93       	push	r17
    2098:	cf 93       	push	r28
    209a:	df 93       	push	r29
    209c:	ec 01       	movw	r28, r24
    209e:	8b 01       	movw	r16, r22
    20a0:	6f 5f       	subi	r22, 0xFF	; 255
    20a2:	7f 4f       	sbci	r23, 0xFF	; 255
    20a4:	88 81       	ld	r24, Y
    20a6:	99 81       	ldd	r25, Y+1	; 0x01
    20a8:	0e 94 16 13 	call	0x262c	; 0x262c <realloc>
    20ac:	00 97       	sbiw	r24, 0x00	; 0
    20ae:	51 f0       	breq	.+20     	; 0x20c4 <String::changeBuffer(unsigned int)+0x30>
    20b0:	99 83       	std	Y+1, r25	; 0x01
    20b2:	88 83       	st	Y, r24
    20b4:	1b 83       	std	Y+3, r17	; 0x03
    20b6:	0a 83       	std	Y+2, r16	; 0x02
    20b8:	81 e0       	ldi	r24, 0x01	; 1
    20ba:	df 91       	pop	r29
    20bc:	cf 91       	pop	r28
    20be:	1f 91       	pop	r17
    20c0:	0f 91       	pop	r16
    20c2:	08 95       	ret
    20c4:	80 e0       	ldi	r24, 0x00	; 0
    20c6:	f9 cf       	rjmp	.-14     	; 0x20ba <String::changeBuffer(unsigned int)+0x26>

000020c8 <String::reserve(unsigned int)>:
_ZN6String7reserveEj():
    20c8:	cf 93       	push	r28
    20ca:	df 93       	push	r29
    20cc:	ec 01       	movw	r28, r24
    20ce:	88 81       	ld	r24, Y
    20d0:	99 81       	ldd	r25, Y+1	; 0x01
    20d2:	89 2b       	or	r24, r25
    20d4:	49 f0       	breq	.+18     	; 0x20e8 <String::reserve(unsigned int)+0x20>
    20d6:	8a 81       	ldd	r24, Y+2	; 0x02
    20d8:	9b 81       	ldd	r25, Y+3	; 0x03
    20da:	86 17       	cp	r24, r22
    20dc:	97 07       	cpc	r25, r23
    20de:	20 f0       	brcs	.+8      	; 0x20e8 <String::reserve(unsigned int)+0x20>
    20e0:	81 e0       	ldi	r24, 0x01	; 1
    20e2:	df 91       	pop	r29
    20e4:	cf 91       	pop	r28
    20e6:	08 95       	ret
    20e8:	ce 01       	movw	r24, r28
    20ea:	0e 94 4a 10 	call	0x2094	; 0x2094 <String::changeBuffer(unsigned int)>
    20ee:	88 23       	and	r24, r24
    20f0:	c1 f3       	breq	.-16     	; 0x20e2 <String::reserve(unsigned int)+0x1a>
    20f2:	8c 81       	ldd	r24, Y+4	; 0x04
    20f4:	9d 81       	ldd	r25, Y+5	; 0x05
    20f6:	89 2b       	or	r24, r25
    20f8:	99 f7       	brne	.-26     	; 0x20e0 <String::reserve(unsigned int)+0x18>
    20fa:	e8 81       	ld	r30, Y
    20fc:	f9 81       	ldd	r31, Y+1	; 0x01
    20fe:	10 82       	st	Z, r1
    2100:	ef cf       	rjmp	.-34     	; 0x20e0 <String::reserve(unsigned int)+0x18>

00002102 <String::copy(char const*, unsigned int)>:
_ZN6String4copyEPKcj():
    2102:	ef 92       	push	r14
    2104:	ff 92       	push	r15
    2106:	0f 93       	push	r16
    2108:	1f 93       	push	r17
    210a:	cf 93       	push	r28
    210c:	df 93       	push	r29
    210e:	ec 01       	movw	r28, r24
    2110:	7b 01       	movw	r14, r22
    2112:	8a 01       	movw	r16, r20
    2114:	ba 01       	movw	r22, r20
    2116:	0e 94 64 10 	call	0x20c8	; 0x20c8 <String::reserve(unsigned int)>
    211a:	81 11       	cpse	r24, r1
    211c:	0b c0       	rjmp	.+22     	; 0x2134 <String::copy(char const*, unsigned int)+0x32>
    211e:	ce 01       	movw	r24, r28
    2120:	0e 94 38 10 	call	0x2070	; 0x2070 <String::invalidate()>
    2124:	ce 01       	movw	r24, r28
    2126:	df 91       	pop	r29
    2128:	cf 91       	pop	r28
    212a:	1f 91       	pop	r17
    212c:	0f 91       	pop	r16
    212e:	ff 90       	pop	r15
    2130:	ef 90       	pop	r14
    2132:	08 95       	ret
    2134:	1d 83       	std	Y+5, r17	; 0x05
    2136:	0c 83       	std	Y+4, r16	; 0x04
    2138:	b7 01       	movw	r22, r14
    213a:	88 81       	ld	r24, Y
    213c:	99 81       	ldd	r25, Y+1	; 0x01
    213e:	0e 94 e5 13 	call	0x27ca	; 0x27ca <strcpy>
    2142:	f0 cf       	rjmp	.-32     	; 0x2124 <String::copy(char const*, unsigned int)+0x22>

00002144 <String::String(char const*)>:
_ZN6String4initEv():
    2144:	fc 01       	movw	r30, r24
    2146:	11 82       	std	Z+1, r1	; 0x01
    2148:	10 82       	st	Z, r1
    214a:	13 82       	std	Z+3, r1	; 0x03
    214c:	12 82       	std	Z+2, r1	; 0x02
    214e:	15 82       	std	Z+5, r1	; 0x05
    2150:	14 82       	std	Z+4, r1	; 0x04
_ZN6StringC2EPKc():
    2152:	61 15       	cp	r22, r1
    2154:	71 05       	cpc	r23, r1
    2156:	51 f0       	breq	.+20     	; 0x216c <String::String(char const*)+0x28>
    2158:	fb 01       	movw	r30, r22
    215a:	01 90       	ld	r0, Z+
    215c:	00 20       	and	r0, r0
    215e:	e9 f7       	brne	.-6      	; 0x215a <String::String(char const*)+0x16>
    2160:	31 97       	sbiw	r30, 0x01	; 1
    2162:	af 01       	movw	r20, r30
    2164:	46 1b       	sub	r20, r22
    2166:	57 0b       	sbc	r21, r23
    2168:	0c 94 81 10 	jmp	0x2102	; 0x2102 <String::copy(char const*, unsigned int)>
    216c:	08 95       	ret

0000216e <String::operator=(char const*) [clone .part.3]>:
_ZN6StringaSEPKc():
    216e:	fb 01       	movw	r30, r22
    2170:	01 90       	ld	r0, Z+
    2172:	00 20       	and	r0, r0
    2174:	e9 f7       	brne	.-6      	; 0x2170 <String::operator=(char const*) [clone .part.3]+0x2>
    2176:	31 97       	sbiw	r30, 0x01	; 1
    2178:	af 01       	movw	r20, r30
    217a:	46 1b       	sub	r20, r22
    217c:	57 0b       	sbc	r21, r23
    217e:	0c 94 81 10 	jmp	0x2102	; 0x2102 <String::copy(char const*, unsigned int)>

00002182 <String::operator=(String const&)>:
_ZN6StringaSERKS_():
    2182:	cf 93       	push	r28
    2184:	df 93       	push	r29
    2186:	ec 01       	movw	r28, r24
    2188:	fb 01       	movw	r30, r22
    218a:	86 17       	cp	r24, r22
    218c:	97 07       	cpc	r25, r23
    218e:	49 f0       	breq	.+18     	; 0x21a2 <String::operator=(String const&)+0x20>
    2190:	60 81       	ld	r22, Z
    2192:	71 81       	ldd	r23, Z+1	; 0x01
    2194:	61 15       	cp	r22, r1
    2196:	71 05       	cpc	r23, r1
    2198:	41 f0       	breq	.+16     	; 0x21aa <String::operator=(String const&)+0x28>
    219a:	44 81       	ldd	r20, Z+4	; 0x04
    219c:	55 81       	ldd	r21, Z+5	; 0x05
    219e:	0e 94 81 10 	call	0x2102	; 0x2102 <String::copy(char const*, unsigned int)>
    21a2:	ce 01       	movw	r24, r28
    21a4:	df 91       	pop	r29
    21a6:	cf 91       	pop	r28
    21a8:	08 95       	ret
    21aa:	0e 94 38 10 	call	0x2070	; 0x2070 <String::invalidate()>
    21ae:	f9 cf       	rjmp	.-14     	; 0x21a2 <String::operator=(String const&)+0x20>

000021b0 <String::operator=(char const*)>:
_ZN6StringaSEPKc():
    21b0:	cf 93       	push	r28
    21b2:	df 93       	push	r29
    21b4:	ec 01       	movw	r28, r24
    21b6:	61 15       	cp	r22, r1
    21b8:	71 05       	cpc	r23, r1
    21ba:	31 f0       	breq	.+12     	; 0x21c8 <String::operator=(char const*)+0x18>
    21bc:	0e 94 b7 10 	call	0x216e	; 0x216e <String::operator=(char const*) [clone .part.3]>
    21c0:	ce 01       	movw	r24, r28
    21c2:	df 91       	pop	r29
    21c4:	cf 91       	pop	r28
    21c6:	08 95       	ret
    21c8:	0e 94 38 10 	call	0x2070	; 0x2070 <String::invalidate()>
    21cc:	f9 cf       	rjmp	.-14     	; 0x21c0 <String::operator=(char const*)+0x10>

000021ce <String::concat(char const*, unsigned int)>:
_ZN6String6concatEPKcj():
    21ce:	ef 92       	push	r14
    21d0:	ff 92       	push	r15
    21d2:	0f 93       	push	r16
    21d4:	1f 93       	push	r17
    21d6:	cf 93       	push	r28
    21d8:	df 93       	push	r29
    21da:	61 15       	cp	r22, r1
    21dc:	71 05       	cpc	r23, r1
    21de:	41 f4       	brne	.+16     	; 0x21f0 <String::concat(char const*, unsigned int)+0x22>
    21e0:	80 e0       	ldi	r24, 0x00	; 0
    21e2:	df 91       	pop	r29
    21e4:	cf 91       	pop	r28
    21e6:	1f 91       	pop	r17
    21e8:	0f 91       	pop	r16
    21ea:	ff 90       	pop	r15
    21ec:	ef 90       	pop	r14
    21ee:	08 95       	ret
    21f0:	41 15       	cp	r20, r1
    21f2:	51 05       	cpc	r21, r1
    21f4:	b1 f0       	breq	.+44     	; 0x2222 <String::concat(char const*, unsigned int)+0x54>
    21f6:	7b 01       	movw	r14, r22
    21f8:	ec 01       	movw	r28, r24
    21fa:	0c 81       	ldd	r16, Y+4	; 0x04
    21fc:	1d 81       	ldd	r17, Y+5	; 0x05
    21fe:	04 0f       	add	r16, r20
    2200:	15 1f       	adc	r17, r21
    2202:	b8 01       	movw	r22, r16
    2204:	0e 94 64 10 	call	0x20c8	; 0x20c8 <String::reserve(unsigned int)>
    2208:	88 23       	and	r24, r24
    220a:	51 f3       	breq	.-44     	; 0x21e0 <String::concat(char const*, unsigned int)+0x12>
    220c:	28 81       	ld	r18, Y
    220e:	39 81       	ldd	r19, Y+1	; 0x01
    2210:	8c 81       	ldd	r24, Y+4	; 0x04
    2212:	9d 81       	ldd	r25, Y+5	; 0x05
    2214:	b7 01       	movw	r22, r14
    2216:	82 0f       	add	r24, r18
    2218:	93 1f       	adc	r25, r19
    221a:	0e 94 e5 13 	call	0x27ca	; 0x27ca <strcpy>
    221e:	1d 83       	std	Y+5, r17	; 0x05
    2220:	0c 83       	std	Y+4, r16	; 0x04
    2222:	81 e0       	ldi	r24, 0x01	; 1
    2224:	de cf       	rjmp	.-68     	; 0x21e2 <String::concat(char const*, unsigned int)+0x14>

00002226 <String::concat(char)>:
_ZN6String6concatEc():
    2226:	cf 93       	push	r28
    2228:	df 93       	push	r29
    222a:	00 d0       	rcall	.+0      	; 0x222c <String::concat(char)+0x6>
    222c:	cd b7       	in	r28, 0x3d	; 61
    222e:	de b7       	in	r29, 0x3e	; 62
    2230:	69 83       	std	Y+1, r22	; 0x01
    2232:	1a 82       	std	Y+2, r1	; 0x02
    2234:	41 e0       	ldi	r20, 0x01	; 1
    2236:	50 e0       	ldi	r21, 0x00	; 0
    2238:	be 01       	movw	r22, r28
    223a:	6f 5f       	subi	r22, 0xFF	; 255
    223c:	7f 4f       	sbci	r23, 0xFF	; 255
    223e:	0e 94 e7 10 	call	0x21ce	; 0x21ce <String::concat(char const*, unsigned int)>
    2242:	0f 90       	pop	r0
    2244:	0f 90       	pop	r0
    2246:	df 91       	pop	r29
    2248:	cf 91       	pop	r28
    224a:	08 95       	ret

0000224c <String::compareTo(String const&) const>:
_ZNK6String9compareToERKS_():
C:\Users\mateu\AppData\Local\Arduino15\packages\MiniCore\hardware\avr\2.0.9\cores\MCUdude_corefiles/WString.cpp:435
/*********************************************/
/*  Comparison                               */
/*********************************************/

int String::compareTo(const String &s) const
{
    224c:	cf 93       	push	r28
    224e:	df 93       	push	r29
C:\Users\mateu\AppData\Local\Arduino15\packages\MiniCore\hardware\avr\2.0.9\cores\MCUdude_corefiles/WString.cpp:436
  if (!buffer || !s.buffer) {
    2250:	ec 01       	movw	r28, r24
    2252:	a8 81       	ld	r26, Y
    2254:	b9 81       	ldd	r27, Y+1	; 0x01
    2256:	eb 01       	movw	r28, r22
    2258:	e8 81       	ld	r30, Y
    225a:	f9 81       	ldd	r31, Y+1	; 0x01
    225c:	10 97       	sbiw	r26, 0x00	; 0
    225e:	f1 f0       	breq	.+60     	; 0x229c <String::compareTo(String const&) const+0x50>
C:\Users\mateu\AppData\Local\Arduino15\packages\MiniCore\hardware\avr\2.0.9\cores\MCUdude_corefiles/WString.cpp:436 (discriminator 1)
    2260:	30 97       	sbiw	r30, 0x00	; 0
    2262:	b1 f4       	brne	.+44     	; 0x2290 <String::compareTo(String const&) const+0x44>
C:\Users\mateu\AppData\Local\Arduino15\packages\MiniCore\hardware\avr\2.0.9\cores\MCUdude_corefiles/WString.cpp:438 (discriminator 1)
    if (s.buffer && s.len > 0) return 0 - *(unsigned char *)s.buffer;
    if (buffer && len > 0) return *(unsigned char *)buffer;
    2264:	ec 01       	movw	r28, r24
    2266:	8c 81       	ldd	r24, Y+4	; 0x04
    2268:	9d 81       	ldd	r25, Y+5	; 0x05
    226a:	89 2b       	or	r24, r25
    226c:	c9 f0       	breq	.+50     	; 0x22a0 <String::compareTo(String const&) const+0x54>
C:\Users\mateu\AppData\Local\Arduino15\packages\MiniCore\hardware\avr\2.0.9\cores\MCUdude_corefiles/WString.cpp:438 (discriminator 2)
    226e:	8c 91       	ld	r24, X
    2270:	90 e0       	ldi	r25, 0x00	; 0
    2272:	0b c0       	rjmp	.+22     	; 0x228a <String::compareTo(String const&) const+0x3e>
C:\Users\mateu\AppData\Local\Arduino15\packages\MiniCore\hardware\avr\2.0.9\cores\MCUdude_corefiles/WString.cpp:437 (discriminator 1)
/*********************************************/

int String::compareTo(const String &s) const
{
  if (!buffer || !s.buffer) {
    if (s.buffer && s.len > 0) return 0 - *(unsigned char *)s.buffer;
    2274:	db 01       	movw	r26, r22
    2276:	14 96       	adiw	r26, 0x04	; 4
    2278:	8d 91       	ld	r24, X+
    227a:	9c 91       	ld	r25, X
    227c:	89 2b       	or	r24, r25
    227e:	81 f0       	breq	.+32     	; 0x22a0 <String::compareTo(String const&) const+0x54>
C:\Users\mateu\AppData\Local\Arduino15\packages\MiniCore\hardware\avr\2.0.9\cores\MCUdude_corefiles/WString.cpp:437 (discriminator 2)
    2280:	80 81       	ld	r24, Z
    2282:	90 e0       	ldi	r25, 0x00	; 0
    2284:	91 95       	neg	r25
    2286:	81 95       	neg	r24
    2288:	91 09       	sbc	r25, r1
C:\Users\mateu\AppData\Local\Arduino15\packages\MiniCore\hardware\avr\2.0.9\cores\MCUdude_corefiles/WString.cpp:442
    if (buffer && len > 0) return *(unsigned char *)buffer;
    return 0;
  }
  return strcmp(buffer, s.buffer);
}
    228a:	df 91       	pop	r29
    228c:	cf 91       	pop	r28
    228e:	08 95       	ret
C:\Users\mateu\AppData\Local\Arduino15\packages\MiniCore\hardware\avr\2.0.9\cores\MCUdude_corefiles/WString.cpp:441
  if (!buffer || !s.buffer) {
    if (s.buffer && s.len > 0) return 0 - *(unsigned char *)s.buffer;
    if (buffer && len > 0) return *(unsigned char *)buffer;
    return 0;
  }
  return strcmp(buffer, s.buffer);
    2290:	bf 01       	movw	r22, r30
    2292:	cd 01       	movw	r24, r26
C:\Users\mateu\AppData\Local\Arduino15\packages\MiniCore\hardware\avr\2.0.9\cores\MCUdude_corefiles/WString.cpp:442
}
    2294:	df 91       	pop	r29
    2296:	cf 91       	pop	r28
C:\Users\mateu\AppData\Local\Arduino15\packages\MiniCore\hardware\avr\2.0.9\cores\MCUdude_corefiles/WString.cpp:441
  if (!buffer || !s.buffer) {
    if (s.buffer && s.len > 0) return 0 - *(unsigned char *)s.buffer;
    if (buffer && len > 0) return *(unsigned char *)buffer;
    return 0;
  }
  return strcmp(buffer, s.buffer);
    2298:	0c 94 dc 13 	jmp	0x27b8	; 0x27b8 <strcmp>
C:\Users\mateu\AppData\Local\Arduino15\packages\MiniCore\hardware\avr\2.0.9\cores\MCUdude_corefiles/WString.cpp:437
/*********************************************/

int String::compareTo(const String &s) const
{
  if (!buffer || !s.buffer) {
    if (s.buffer && s.len > 0) return 0 - *(unsigned char *)s.buffer;
    229c:	30 97       	sbiw	r30, 0x00	; 0
    229e:	51 f7       	brne	.-44     	; 0x2274 <String::compareTo(String const&) const+0x28>
C:\Users\mateu\AppData\Local\Arduino15\packages\MiniCore\hardware\avr\2.0.9\cores\MCUdude_corefiles/WString.cpp:439
    if (buffer && len > 0) return *(unsigned char *)buffer;
    return 0;
    22a0:	90 e0       	ldi	r25, 0x00	; 0
    22a2:	80 e0       	ldi	r24, 0x00	; 0
    22a4:	f2 cf       	rjmp	.-28     	; 0x228a <String::compareTo(String const&) const+0x3e>

000022a6 <String::equals(String const&) const>:
_ZNK6String6equalsERKS_():
C:\Users\mateu\AppData\Local\Arduino15\packages\MiniCore\hardware\avr\2.0.9\cores\MCUdude_corefiles/WString.cpp:446
  return strcmp(buffer, s.buffer);
}

unsigned char String::equals(const String &s2) const
{
  return (len == s2.len && compareTo(s2) == 0);
    22a6:	fc 01       	movw	r30, r24
    22a8:	44 81       	ldd	r20, Z+4	; 0x04
    22aa:	55 81       	ldd	r21, Z+5	; 0x05
    22ac:	fb 01       	movw	r30, r22
    22ae:	24 81       	ldd	r18, Z+4	; 0x04
    22b0:	35 81       	ldd	r19, Z+5	; 0x05
    22b2:	42 17       	cp	r20, r18
    22b4:	53 07       	cpc	r21, r19
    22b6:	29 f4       	brne	.+10     	; 0x22c2 <String::equals(String const&) const+0x1c>
C:\Users\mateu\AppData\Local\Arduino15\packages\MiniCore\hardware\avr\2.0.9\cores\MCUdude_corefiles/WString.cpp:446 (discriminator 1)
    22b8:	0e 94 26 11 	call	0x224c	; 0x224c <String::compareTo(String const&) const>
    22bc:	21 e0       	ldi	r18, 0x01	; 1
    22be:	89 2b       	or	r24, r25
    22c0:	09 f0       	breq	.+2      	; 0x22c4 <String::equals(String const&) const+0x1e>
C:\Users\mateu\AppData\Local\Arduino15\packages\MiniCore\hardware\avr\2.0.9\cores\MCUdude_corefiles/WString.cpp:446
    22c2:	20 e0       	ldi	r18, 0x00	; 0
C:\Users\mateu\AppData\Local\Arduino15\packages\MiniCore\hardware\avr\2.0.9\cores\MCUdude_corefiles/WString.cpp:447 (discriminator 6)
}
    22c4:	82 2f       	mov	r24, r18
    22c6:	08 95       	ret

000022c8 <String::equals(char const*) const>:
_ZNK6String6equalsEPKc():
C:\Users\mateu\AppData\Local\Arduino15\packages\MiniCore\hardware\avr\2.0.9\cores\MCUdude_corefiles/WString.cpp:451

unsigned char String::equals(const char *cstr) const
{
  if (len == 0) return (cstr == NULL || *cstr == 0);
    22c8:	fc 01       	movw	r30, r24
    22ca:	24 81       	ldd	r18, Z+4	; 0x04
    22cc:	35 81       	ldd	r19, Z+5	; 0x05
    22ce:	23 2b       	or	r18, r19
    22d0:	31 f4       	brne	.+12     	; 0x22de <String::equals(char const*) const+0x16>
C:\Users\mateu\AppData\Local\Arduino15\packages\MiniCore\hardware\avr\2.0.9\cores\MCUdude_corefiles/WString.cpp:451 (discriminator 1)
    22d2:	21 e0       	ldi	r18, 0x01	; 1
    22d4:	fb 01       	movw	r30, r22
    22d6:	67 2b       	or	r22, r23
    22d8:	49 f4       	brne	.+18     	; 0x22ec <String::equals(char const*) const+0x24>
C:\Users\mateu\AppData\Local\Arduino15\packages\MiniCore\hardware\avr\2.0.9\cores\MCUdude_corefiles/WString.cpp:454
  if (cstr == NULL) return buffer[0] == 0;
  return strcmp(buffer, cstr) == 0;
}
    22da:	82 2f       	mov	r24, r18
    22dc:	08 95       	ret
    22de:	80 81       	ld	r24, Z
    22e0:	91 81       	ldd	r25, Z+1	; 0x01
C:\Users\mateu\AppData\Local\Arduino15\packages\MiniCore\hardware\avr\2.0.9\cores\MCUdude_corefiles/WString.cpp:452
}

unsigned char String::equals(const char *cstr) const
{
  if (len == 0) return (cstr == NULL || *cstr == 0);
  if (cstr == NULL) return buffer[0] == 0;
    22e2:	61 15       	cp	r22, r1
    22e4:	71 05       	cpc	r23, r1
    22e6:	39 f4       	brne	.+14     	; 0x22f6 <String::equals(char const*) const+0x2e>
C:\Users\mateu\AppData\Local\Arduino15\packages\MiniCore\hardware\avr\2.0.9\cores\MCUdude_corefiles/WString.cpp:452 (discriminator 1)
    22e8:	21 e0       	ldi	r18, 0x01	; 1
    22ea:	fc 01       	movw	r30, r24
    22ec:	80 81       	ld	r24, Z
    22ee:	88 23       	and	r24, r24
    22f0:	a1 f3       	breq	.-24     	; 0x22da <String::equals(char const*) const+0x12>
C:\Users\mateu\AppData\Local\Arduino15\packages\MiniCore\hardware\avr\2.0.9\cores\MCUdude_corefiles/WString.cpp:453
  return strcmp(buffer, cstr) == 0;
    22f2:	20 e0       	ldi	r18, 0x00	; 0
    22f4:	f2 cf       	rjmp	.-28     	; 0x22da <String::equals(char const*) const+0x12>
    22f6:	0e 94 dc 13 	call	0x27b8	; 0x27b8 <strcmp>
    22fa:	21 e0       	ldi	r18, 0x01	; 1
    22fc:	89 2b       	or	r24, r25
    22fe:	69 f3       	breq	.-38     	; 0x22da <String::equals(char const*) const+0x12>
    2300:	f8 cf       	rjmp	.-16     	; 0x22f2 <String::equals(char const*) const+0x2a>

00002302 <yield>:
__empty():
C:\Users\mateu\AppData\Local\Arduino15\packages\MiniCore\hardware\avr\2.0.9\cores\MCUdude_corefiles/hooks.c:30
 * Its defined as a weak symbol and it can be redefined to implement a
 * real cooperative scheduler.
 */
static void __empty() {
  // Empty
}
    2302:	08 95       	ret

00002304 <__divmodhi4>:
__divmodhi4():
/home/jenkins-mingw32/workspace/avr-gcc-staging/label/Ubuntu14.04x64-mingw32/gcc-build/avr/avr5/libgcc/../../../../gcc/libgcc/config/avr/lib1funcs.S:1440
    2304:	97 fb       	bst	r25, 7
/home/jenkins-mingw32/workspace/avr-gcc-staging/label/Ubuntu14.04x64-mingw32/gcc-build/avr/avr5/libgcc/../../../../gcc/libgcc/config/avr/lib1funcs.S:1441
    2306:	07 2e       	mov	r0, r23
/home/jenkins-mingw32/workspace/avr-gcc-staging/label/Ubuntu14.04x64-mingw32/gcc-build/avr/avr5/libgcc/../../../../gcc/libgcc/config/avr/lib1funcs.S:1442
    2308:	16 f4       	brtc	.+4      	; 0x230e <__divmodhi4+0xa>
/home/jenkins-mingw32/workspace/avr-gcc-staging/label/Ubuntu14.04x64-mingw32/gcc-build/avr/avr5/libgcc/../../../../gcc/libgcc/config/avr/lib1funcs.S:1443
    230a:	00 94       	com	r0
/home/jenkins-mingw32/workspace/avr-gcc-staging/label/Ubuntu14.04x64-mingw32/gcc-build/avr/avr5/libgcc/../../../../gcc/libgcc/config/avr/lib1funcs.S:1444
    230c:	07 d0       	rcall	.+14     	; 0x231c <__divmodhi4_neg1>
/home/jenkins-mingw32/workspace/avr-gcc-staging/label/Ubuntu14.04x64-mingw32/gcc-build/avr/avr5/libgcc/../../../../gcc/libgcc/config/avr/lib1funcs.S:1446
    230e:	77 fd       	sbrc	r23, 7
/home/jenkins-mingw32/workspace/avr-gcc-staging/label/Ubuntu14.04x64-mingw32/gcc-build/avr/avr5/libgcc/../../../../gcc/libgcc/config/avr/lib1funcs.S:1447
    2310:	09 d0       	rcall	.+18     	; 0x2324 <__divmodhi4_neg2>
/home/jenkins-mingw32/workspace/avr-gcc-staging/label/Ubuntu14.04x64-mingw32/gcc-build/avr/avr5/libgcc/../../../../gcc/libgcc/config/avr/lib1funcs.S:1448
    2312:	0e 94 dd 11 	call	0x23ba	; 0x23ba <__udivmodhi4>
/home/jenkins-mingw32/workspace/avr-gcc-staging/label/Ubuntu14.04x64-mingw32/gcc-build/avr/avr5/libgcc/../../../../gcc/libgcc/config/avr/lib1funcs.S:1449
    2316:	07 fc       	sbrc	r0, 7
/home/jenkins-mingw32/workspace/avr-gcc-staging/label/Ubuntu14.04x64-mingw32/gcc-build/avr/avr5/libgcc/../../../../gcc/libgcc/config/avr/lib1funcs.S:1450
    2318:	05 d0       	rcall	.+10     	; 0x2324 <__divmodhi4_neg2>
/home/jenkins-mingw32/workspace/avr-gcc-staging/label/Ubuntu14.04x64-mingw32/gcc-build/avr/avr5/libgcc/../../../../gcc/libgcc/config/avr/lib1funcs.S:1451
    231a:	3e f4       	brtc	.+14     	; 0x232a <__divmodhi4_exit>

0000231c <__divmodhi4_neg1>:
/home/jenkins-mingw32/workspace/avr-gcc-staging/label/Ubuntu14.04x64-mingw32/gcc-build/avr/avr5/libgcc/../../../../gcc/libgcc/config/avr/lib1funcs.S:1454
    231c:	90 95       	com	r25
/home/jenkins-mingw32/workspace/avr-gcc-staging/label/Ubuntu14.04x64-mingw32/gcc-build/avr/avr5/libgcc/../../../../gcc/libgcc/config/avr/lib1funcs.S:1455
    231e:	81 95       	neg	r24
/home/jenkins-mingw32/workspace/avr-gcc-staging/label/Ubuntu14.04x64-mingw32/gcc-build/avr/avr5/libgcc/../../../../gcc/libgcc/config/avr/lib1funcs.S:1456
    2320:	9f 4f       	sbci	r25, 0xFF	; 255
/home/jenkins-mingw32/workspace/avr-gcc-staging/label/Ubuntu14.04x64-mingw32/gcc-build/avr/avr5/libgcc/../../../../gcc/libgcc/config/avr/lib1funcs.S:1457
    2322:	08 95       	ret

00002324 <__divmodhi4_neg2>:
/home/jenkins-mingw32/workspace/avr-gcc-staging/label/Ubuntu14.04x64-mingw32/gcc-build/avr/avr5/libgcc/../../../../gcc/libgcc/config/avr/lib1funcs.S:1460
    2324:	70 95       	com	r23
/home/jenkins-mingw32/workspace/avr-gcc-staging/label/Ubuntu14.04x64-mingw32/gcc-build/avr/avr5/libgcc/../../../../gcc/libgcc/config/avr/lib1funcs.S:1461
    2326:	61 95       	neg	r22
/home/jenkins-mingw32/workspace/avr-gcc-staging/label/Ubuntu14.04x64-mingw32/gcc-build/avr/avr5/libgcc/../../../../gcc/libgcc/config/avr/lib1funcs.S:1462
    2328:	7f 4f       	sbci	r23, 0xFF	; 255

0000232a <__divmodhi4_exit>:
/home/jenkins-mingw32/workspace/avr-gcc-staging/label/Ubuntu14.04x64-mingw32/gcc-build/avr/avr5/libgcc/../../../../gcc/libgcc/config/avr/lib1funcs.S:1464
    232a:	08 95       	ret

0000232c <__udivmodsi4>:
__udivmodsi4():
/home/jenkins-mingw32/workspace/avr-gcc-staging/label/Ubuntu14.04x64-mingw32/gcc-build/avr/avr5/libgcc/../../../../gcc/libgcc/config/avr/lib1funcs.S:1638
    232c:	a1 e2       	ldi	r26, 0x21	; 33
/home/jenkins-mingw32/workspace/avr-gcc-staging/label/Ubuntu14.04x64-mingw32/gcc-build/avr/avr5/libgcc/../../../../gcc/libgcc/config/avr/lib1funcs.S:1639
    232e:	1a 2e       	mov	r1, r26
/home/jenkins-mingw32/workspace/avr-gcc-staging/label/Ubuntu14.04x64-mingw32/gcc-build/avr/avr5/libgcc/../../../../gcc/libgcc/config/avr/lib1funcs.S:1640
    2330:	aa 1b       	sub	r26, r26
/home/jenkins-mingw32/workspace/avr-gcc-staging/label/Ubuntu14.04x64-mingw32/gcc-build/avr/avr5/libgcc/../../../../gcc/libgcc/config/avr/lib1funcs.S:1641
    2332:	bb 1b       	sub	r27, r27
/home/jenkins-mingw32/workspace/avr-gcc-staging/label/Ubuntu14.04x64-mingw32/gcc-build/avr/avr5/libgcc/../../../../gcc/libgcc/config/avr/lib1funcs.S:1642
    2334:	fd 01       	movw	r30, r26
/home/jenkins-mingw32/workspace/avr-gcc-staging/label/Ubuntu14.04x64-mingw32/gcc-build/avr/avr5/libgcc/../../../../gcc/libgcc/config/avr/lib1funcs.S:1644
    2336:	0d c0       	rjmp	.+26     	; 0x2352 <__udivmodsi4_ep>

00002338 <__udivmodsi4_loop>:
/home/jenkins-mingw32/workspace/avr-gcc-staging/label/Ubuntu14.04x64-mingw32/gcc-build/avr/avr5/libgcc/../../../../gcc/libgcc/config/avr/lib1funcs.S:1646
    2338:	aa 1f       	adc	r26, r26
/home/jenkins-mingw32/workspace/avr-gcc-staging/label/Ubuntu14.04x64-mingw32/gcc-build/avr/avr5/libgcc/../../../../gcc/libgcc/config/avr/lib1funcs.S:1647
    233a:	bb 1f       	adc	r27, r27
/home/jenkins-mingw32/workspace/avr-gcc-staging/label/Ubuntu14.04x64-mingw32/gcc-build/avr/avr5/libgcc/../../../../gcc/libgcc/config/avr/lib1funcs.S:1648
    233c:	ee 1f       	adc	r30, r30
/home/jenkins-mingw32/workspace/avr-gcc-staging/label/Ubuntu14.04x64-mingw32/gcc-build/avr/avr5/libgcc/../../../../gcc/libgcc/config/avr/lib1funcs.S:1649
    233e:	ff 1f       	adc	r31, r31
/home/jenkins-mingw32/workspace/avr-gcc-staging/label/Ubuntu14.04x64-mingw32/gcc-build/avr/avr5/libgcc/../../../../gcc/libgcc/config/avr/lib1funcs.S:1650
    2340:	a2 17       	cp	r26, r18
/home/jenkins-mingw32/workspace/avr-gcc-staging/label/Ubuntu14.04x64-mingw32/gcc-build/avr/avr5/libgcc/../../../../gcc/libgcc/config/avr/lib1funcs.S:1651
    2342:	b3 07       	cpc	r27, r19
/home/jenkins-mingw32/workspace/avr-gcc-staging/label/Ubuntu14.04x64-mingw32/gcc-build/avr/avr5/libgcc/../../../../gcc/libgcc/config/avr/lib1funcs.S:1652
    2344:	e4 07       	cpc	r30, r20
/home/jenkins-mingw32/workspace/avr-gcc-staging/label/Ubuntu14.04x64-mingw32/gcc-build/avr/avr5/libgcc/../../../../gcc/libgcc/config/avr/lib1funcs.S:1653
    2346:	f5 07       	cpc	r31, r21
/home/jenkins-mingw32/workspace/avr-gcc-staging/label/Ubuntu14.04x64-mingw32/gcc-build/avr/avr5/libgcc/../../../../gcc/libgcc/config/avr/lib1funcs.S:1654
    2348:	20 f0       	brcs	.+8      	; 0x2352 <__udivmodsi4_ep>
/home/jenkins-mingw32/workspace/avr-gcc-staging/label/Ubuntu14.04x64-mingw32/gcc-build/avr/avr5/libgcc/../../../../gcc/libgcc/config/avr/lib1funcs.S:1655
    234a:	a2 1b       	sub	r26, r18
/home/jenkins-mingw32/workspace/avr-gcc-staging/label/Ubuntu14.04x64-mingw32/gcc-build/avr/avr5/libgcc/../../../../gcc/libgcc/config/avr/lib1funcs.S:1656
    234c:	b3 0b       	sbc	r27, r19
/home/jenkins-mingw32/workspace/avr-gcc-staging/label/Ubuntu14.04x64-mingw32/gcc-build/avr/avr5/libgcc/../../../../gcc/libgcc/config/avr/lib1funcs.S:1657
    234e:	e4 0b       	sbc	r30, r20
/home/jenkins-mingw32/workspace/avr-gcc-staging/label/Ubuntu14.04x64-mingw32/gcc-build/avr/avr5/libgcc/../../../../gcc/libgcc/config/avr/lib1funcs.S:1658
    2350:	f5 0b       	sbc	r31, r21

00002352 <__udivmodsi4_ep>:
/home/jenkins-mingw32/workspace/avr-gcc-staging/label/Ubuntu14.04x64-mingw32/gcc-build/avr/avr5/libgcc/../../../../gcc/libgcc/config/avr/lib1funcs.S:1660
    2352:	66 1f       	adc	r22, r22
/home/jenkins-mingw32/workspace/avr-gcc-staging/label/Ubuntu14.04x64-mingw32/gcc-build/avr/avr5/libgcc/../../../../gcc/libgcc/config/avr/lib1funcs.S:1661
    2354:	77 1f       	adc	r23, r23
/home/jenkins-mingw32/workspace/avr-gcc-staging/label/Ubuntu14.04x64-mingw32/gcc-build/avr/avr5/libgcc/../../../../gcc/libgcc/config/avr/lib1funcs.S:1662
    2356:	88 1f       	adc	r24, r24
/home/jenkins-mingw32/workspace/avr-gcc-staging/label/Ubuntu14.04x64-mingw32/gcc-build/avr/avr5/libgcc/../../../../gcc/libgcc/config/avr/lib1funcs.S:1663
    2358:	99 1f       	adc	r25, r25
/home/jenkins-mingw32/workspace/avr-gcc-staging/label/Ubuntu14.04x64-mingw32/gcc-build/avr/avr5/libgcc/../../../../gcc/libgcc/config/avr/lib1funcs.S:1664
    235a:	1a 94       	dec	r1
/home/jenkins-mingw32/workspace/avr-gcc-staging/label/Ubuntu14.04x64-mingw32/gcc-build/avr/avr5/libgcc/../../../../gcc/libgcc/config/avr/lib1funcs.S:1665
    235c:	69 f7       	brne	.-38     	; 0x2338 <__udivmodsi4_loop>
/home/jenkins-mingw32/workspace/avr-gcc-staging/label/Ubuntu14.04x64-mingw32/gcc-build/avr/avr5/libgcc/../../../../gcc/libgcc/config/avr/lib1funcs.S:1667
    235e:	60 95       	com	r22
/home/jenkins-mingw32/workspace/avr-gcc-staging/label/Ubuntu14.04x64-mingw32/gcc-build/avr/avr5/libgcc/../../../../gcc/libgcc/config/avr/lib1funcs.S:1668
    2360:	70 95       	com	r23
/home/jenkins-mingw32/workspace/avr-gcc-staging/label/Ubuntu14.04x64-mingw32/gcc-build/avr/avr5/libgcc/../../../../gcc/libgcc/config/avr/lib1funcs.S:1669
    2362:	80 95       	com	r24
/home/jenkins-mingw32/workspace/avr-gcc-staging/label/Ubuntu14.04x64-mingw32/gcc-build/avr/avr5/libgcc/../../../../gcc/libgcc/config/avr/lib1funcs.S:1670
    2364:	90 95       	com	r25
/home/jenkins-mingw32/workspace/avr-gcc-staging/label/Ubuntu14.04x64-mingw32/gcc-build/avr/avr5/libgcc/../../../../gcc/libgcc/config/avr/lib1funcs.S:1672
    2366:	9b 01       	movw	r18, r22
/home/jenkins-mingw32/workspace/avr-gcc-staging/label/Ubuntu14.04x64-mingw32/gcc-build/avr/avr5/libgcc/../../../../gcc/libgcc/config/avr/lib1funcs.S:1674
    2368:	ac 01       	movw	r20, r24
/home/jenkins-mingw32/workspace/avr-gcc-staging/label/Ubuntu14.04x64-mingw32/gcc-build/avr/avr5/libgcc/../../../../gcc/libgcc/config/avr/lib1funcs.S:1676
    236a:	bd 01       	movw	r22, r26
/home/jenkins-mingw32/workspace/avr-gcc-staging/label/Ubuntu14.04x64-mingw32/gcc-build/avr/avr5/libgcc/../../../../gcc/libgcc/config/avr/lib1funcs.S:1678
    236c:	cf 01       	movw	r24, r30
/home/jenkins-mingw32/workspace/avr-gcc-staging/label/Ubuntu14.04x64-mingw32/gcc-build/avr/avr5/libgcc/../../../../gcc/libgcc/config/avr/lib1funcs.S:1680
    236e:	08 95       	ret

00002370 <__divmodsi4>:
__divmodsi4():
/home/jenkins-mingw32/workspace/avr-gcc-staging/label/Ubuntu14.04x64-mingw32/gcc-build/avr/avr5/libgcc/../../../../gcc/libgcc/config/avr/lib1funcs.S:1686
    2370:	05 2e       	mov	r0, r21
/home/jenkins-mingw32/workspace/avr-gcc-staging/label/Ubuntu14.04x64-mingw32/gcc-build/avr/avr5/libgcc/../../../../gcc/libgcc/config/avr/lib1funcs.S:1687
    2372:	97 fb       	bst	r25, 7
/home/jenkins-mingw32/workspace/avr-gcc-staging/label/Ubuntu14.04x64-mingw32/gcc-build/avr/avr5/libgcc/../../../../gcc/libgcc/config/avr/lib1funcs.S:1688
    2374:	1e f4       	brtc	.+6      	; 0x237c <__divmodsi4+0xc>
/home/jenkins-mingw32/workspace/avr-gcc-staging/label/Ubuntu14.04x64-mingw32/gcc-build/avr/avr5/libgcc/../../../../gcc/libgcc/config/avr/lib1funcs.S:1689
    2376:	00 94       	com	r0
/home/jenkins-mingw32/workspace/avr-gcc-staging/label/Ubuntu14.04x64-mingw32/gcc-build/avr/avr5/libgcc/../../../../gcc/libgcc/config/avr/lib1funcs.S:1690
    2378:	0e 94 cf 11 	call	0x239e	; 0x239e <__negsi2>
/home/jenkins-mingw32/workspace/avr-gcc-staging/label/Ubuntu14.04x64-mingw32/gcc-build/avr/avr5/libgcc/../../../../gcc/libgcc/config/avr/lib1funcs.S:1692
    237c:	57 fd       	sbrc	r21, 7
/home/jenkins-mingw32/workspace/avr-gcc-staging/label/Ubuntu14.04x64-mingw32/gcc-build/avr/avr5/libgcc/../../../../gcc/libgcc/config/avr/lib1funcs.S:1693
    237e:	07 d0       	rcall	.+14     	; 0x238e <__divmodsi4_neg2>
/home/jenkins-mingw32/workspace/avr-gcc-staging/label/Ubuntu14.04x64-mingw32/gcc-build/avr/avr5/libgcc/../../../../gcc/libgcc/config/avr/lib1funcs.S:1694
    2380:	0e 94 96 11 	call	0x232c	; 0x232c <__udivmodsi4>
/home/jenkins-mingw32/workspace/avr-gcc-staging/label/Ubuntu14.04x64-mingw32/gcc-build/avr/avr5/libgcc/../../../../gcc/libgcc/config/avr/lib1funcs.S:1695
    2384:	07 fc       	sbrc	r0, 7
/home/jenkins-mingw32/workspace/avr-gcc-staging/label/Ubuntu14.04x64-mingw32/gcc-build/avr/avr5/libgcc/../../../../gcc/libgcc/config/avr/lib1funcs.S:1696
    2386:	03 d0       	rcall	.+6      	; 0x238e <__divmodsi4_neg2>
/home/jenkins-mingw32/workspace/avr-gcc-staging/label/Ubuntu14.04x64-mingw32/gcc-build/avr/avr5/libgcc/../../../../gcc/libgcc/config/avr/lib1funcs.S:1697
    2388:	4e f4       	brtc	.+18     	; 0x239c <__divmodsi4_exit>
/home/jenkins-mingw32/workspace/avr-gcc-staging/label/Ubuntu14.04x64-mingw32/gcc-build/avr/avr5/libgcc/../../../../gcc/libgcc/config/avr/lib1funcs.S:1698
    238a:	0c 94 cf 11 	jmp	0x239e	; 0x239e <__negsi2>

0000238e <__divmodsi4_neg2>:
/home/jenkins-mingw32/workspace/avr-gcc-staging/label/Ubuntu14.04x64-mingw32/gcc-build/avr/avr5/libgcc/../../../../gcc/libgcc/config/avr/lib1funcs.S:1701
    238e:	50 95       	com	r21
/home/jenkins-mingw32/workspace/avr-gcc-staging/label/Ubuntu14.04x64-mingw32/gcc-build/avr/avr5/libgcc/../../../../gcc/libgcc/config/avr/lib1funcs.S:1702
    2390:	40 95       	com	r20
/home/jenkins-mingw32/workspace/avr-gcc-staging/label/Ubuntu14.04x64-mingw32/gcc-build/avr/avr5/libgcc/../../../../gcc/libgcc/config/avr/lib1funcs.S:1703
    2392:	30 95       	com	r19
/home/jenkins-mingw32/workspace/avr-gcc-staging/label/Ubuntu14.04x64-mingw32/gcc-build/avr/avr5/libgcc/../../../../gcc/libgcc/config/avr/lib1funcs.S:1704
    2394:	21 95       	neg	r18
/home/jenkins-mingw32/workspace/avr-gcc-staging/label/Ubuntu14.04x64-mingw32/gcc-build/avr/avr5/libgcc/../../../../gcc/libgcc/config/avr/lib1funcs.S:1705
    2396:	3f 4f       	sbci	r19, 0xFF	; 255
/home/jenkins-mingw32/workspace/avr-gcc-staging/label/Ubuntu14.04x64-mingw32/gcc-build/avr/avr5/libgcc/../../../../gcc/libgcc/config/avr/lib1funcs.S:1706
    2398:	4f 4f       	sbci	r20, 0xFF	; 255
/home/jenkins-mingw32/workspace/avr-gcc-staging/label/Ubuntu14.04x64-mingw32/gcc-build/avr/avr5/libgcc/../../../../gcc/libgcc/config/avr/lib1funcs.S:1707
    239a:	5f 4f       	sbci	r21, 0xFF	; 255

0000239c <__divmodsi4_exit>:
/home/jenkins-mingw32/workspace/avr-gcc-staging/label/Ubuntu14.04x64-mingw32/gcc-build/avr/avr5/libgcc/../../../../gcc/libgcc/config/avr/lib1funcs.S:1709
    239c:	08 95       	ret

0000239e <__negsi2>:
__negsi2():
/home/jenkins-mingw32/workspace/avr-gcc-staging/label/Ubuntu14.04x64-mingw32/gcc-build/avr/avr5/libgcc/../../../../gcc/libgcc/config/avr/lib1funcs.S:1718
    239e:	90 95       	com	r25
    23a0:	80 95       	com	r24
    23a2:	70 95       	com	r23
    23a4:	61 95       	neg	r22
    23a6:	7f 4f       	sbci	r23, 0xFF	; 255
    23a8:	8f 4f       	sbci	r24, 0xFF	; 255
    23aa:	9f 4f       	sbci	r25, 0xFF	; 255
/home/jenkins-mingw32/workspace/avr-gcc-staging/label/Ubuntu14.04x64-mingw32/gcc-build/avr/avr5/libgcc/../../../../gcc/libgcc/config/avr/lib1funcs.S:1719
    23ac:	08 95       	ret

000023ae <__tablejump2__>:
__tablejump2__():
/home/jenkins-mingw32/workspace/avr-gcc-staging/label/Ubuntu14.04x64-mingw32/gcc-build/avr/avr5/libgcc/../../../../gcc/libgcc/config/avr/lib1funcs.S:2296
    23ae:	ee 0f       	add	r30, r30
/home/jenkins-mingw32/workspace/avr-gcc-staging/label/Ubuntu14.04x64-mingw32/gcc-build/avr/avr5/libgcc/../../../../gcc/libgcc/config/avr/lib1funcs.S:2297
    23b0:	ff 1f       	adc	r31, r31
/home/jenkins-mingw32/workspace/avr-gcc-staging/label/Ubuntu14.04x64-mingw32/gcc-build/avr/avr5/libgcc/../../../../gcc/libgcc/config/avr/lib1funcs.S:2328
    23b2:	05 90       	lpm	r0, Z+
/home/jenkins-mingw32/workspace/avr-gcc-staging/label/Ubuntu14.04x64-mingw32/gcc-build/avr/avr5/libgcc/../../../../gcc/libgcc/config/avr/lib1funcs.S:2329
    23b4:	f4 91       	lpm	r31, Z
/home/jenkins-mingw32/workspace/avr-gcc-staging/label/Ubuntu14.04x64-mingw32/gcc-build/avr/avr5/libgcc/../../../../gcc/libgcc/config/avr/lib1funcs.S:2330
    23b6:	e0 2d       	mov	r30, r0
/home/jenkins-mingw32/workspace/avr-gcc-staging/label/Ubuntu14.04x64-mingw32/gcc-build/avr/avr5/libgcc/../../../../gcc/libgcc/config/avr/lib1funcs.S:2331
    23b8:	09 94       	ijmp

000023ba <__udivmodhi4>:
__udivmodhi4():
/home/jenkins-mingw32/workspace/avr-gcc-staging/label/Ubuntu14.04x64-mingw32/gcc-build/avr/avr5/libgcc/../../../../gcc/libgcc/config/avr/lib1funcs.S:1408
    23ba:	aa 1b       	sub	r26, r26
/home/jenkins-mingw32/workspace/avr-gcc-staging/label/Ubuntu14.04x64-mingw32/gcc-build/avr/avr5/libgcc/../../../../gcc/libgcc/config/avr/lib1funcs.S:1409
    23bc:	bb 1b       	sub	r27, r27
/home/jenkins-mingw32/workspace/avr-gcc-staging/label/Ubuntu14.04x64-mingw32/gcc-build/avr/avr5/libgcc/../../../../gcc/libgcc/config/avr/lib1funcs.S:1410
    23be:	51 e1       	ldi	r21, 0x11	; 17
/home/jenkins-mingw32/workspace/avr-gcc-staging/label/Ubuntu14.04x64-mingw32/gcc-build/avr/avr5/libgcc/../../../../gcc/libgcc/config/avr/lib1funcs.S:1411
    23c0:	07 c0       	rjmp	.+14     	; 0x23d0 <__udivmodhi4_ep>

000023c2 <__udivmodhi4_loop>:
/home/jenkins-mingw32/workspace/avr-gcc-staging/label/Ubuntu14.04x64-mingw32/gcc-build/avr/avr5/libgcc/../../../../gcc/libgcc/config/avr/lib1funcs.S:1413
    23c2:	aa 1f       	adc	r26, r26
/home/jenkins-mingw32/workspace/avr-gcc-staging/label/Ubuntu14.04x64-mingw32/gcc-build/avr/avr5/libgcc/../../../../gcc/libgcc/config/avr/lib1funcs.S:1414
    23c4:	bb 1f       	adc	r27, r27
/home/jenkins-mingw32/workspace/avr-gcc-staging/label/Ubuntu14.04x64-mingw32/gcc-build/avr/avr5/libgcc/../../../../gcc/libgcc/config/avr/lib1funcs.S:1415
    23c6:	a6 17       	cp	r26, r22
/home/jenkins-mingw32/workspace/avr-gcc-staging/label/Ubuntu14.04x64-mingw32/gcc-build/avr/avr5/libgcc/../../../../gcc/libgcc/config/avr/lib1funcs.S:1416
    23c8:	b7 07       	cpc	r27, r23
/home/jenkins-mingw32/workspace/avr-gcc-staging/label/Ubuntu14.04x64-mingw32/gcc-build/avr/avr5/libgcc/../../../../gcc/libgcc/config/avr/lib1funcs.S:1417
    23ca:	10 f0       	brcs	.+4      	; 0x23d0 <__udivmodhi4_ep>
/home/jenkins-mingw32/workspace/avr-gcc-staging/label/Ubuntu14.04x64-mingw32/gcc-build/avr/avr5/libgcc/../../../../gcc/libgcc/config/avr/lib1funcs.S:1418
    23cc:	a6 1b       	sub	r26, r22
/home/jenkins-mingw32/workspace/avr-gcc-staging/label/Ubuntu14.04x64-mingw32/gcc-build/avr/avr5/libgcc/../../../../gcc/libgcc/config/avr/lib1funcs.S:1419
    23ce:	b7 0b       	sbc	r27, r23

000023d0 <__udivmodhi4_ep>:
/home/jenkins-mingw32/workspace/avr-gcc-staging/label/Ubuntu14.04x64-mingw32/gcc-build/avr/avr5/libgcc/../../../../gcc/libgcc/config/avr/lib1funcs.S:1421
    23d0:	88 1f       	adc	r24, r24
/home/jenkins-mingw32/workspace/avr-gcc-staging/label/Ubuntu14.04x64-mingw32/gcc-build/avr/avr5/libgcc/../../../../gcc/libgcc/config/avr/lib1funcs.S:1422
    23d2:	99 1f       	adc	r25, r25
/home/jenkins-mingw32/workspace/avr-gcc-staging/label/Ubuntu14.04x64-mingw32/gcc-build/avr/avr5/libgcc/../../../../gcc/libgcc/config/avr/lib1funcs.S:1423
    23d4:	5a 95       	dec	r21
/home/jenkins-mingw32/workspace/avr-gcc-staging/label/Ubuntu14.04x64-mingw32/gcc-build/avr/avr5/libgcc/../../../../gcc/libgcc/config/avr/lib1funcs.S:1424
    23d6:	a9 f7       	brne	.-22     	; 0x23c2 <__udivmodhi4_loop>
/home/jenkins-mingw32/workspace/avr-gcc-staging/label/Ubuntu14.04x64-mingw32/gcc-build/avr/avr5/libgcc/../../../../gcc/libgcc/config/avr/lib1funcs.S:1425
    23d8:	80 95       	com	r24
/home/jenkins-mingw32/workspace/avr-gcc-staging/label/Ubuntu14.04x64-mingw32/gcc-build/avr/avr5/libgcc/../../../../gcc/libgcc/config/avr/lib1funcs.S:1426
    23da:	90 95       	com	r25
/home/jenkins-mingw32/workspace/avr-gcc-staging/label/Ubuntu14.04x64-mingw32/gcc-build/avr/avr5/libgcc/../../../../gcc/libgcc/config/avr/lib1funcs.S:1428
    23dc:	bc 01       	movw	r22, r24
/home/jenkins-mingw32/workspace/avr-gcc-staging/label/Ubuntu14.04x64-mingw32/gcc-build/avr/avr5/libgcc/../../../../gcc/libgcc/config/avr/lib1funcs.S:1430
    23de:	cd 01       	movw	r24, r26
/home/jenkins-mingw32/workspace/avr-gcc-staging/label/Ubuntu14.04x64-mingw32/gcc-build/avr/avr5/libgcc/../../../../gcc/libgcc/config/avr/lib1funcs.S:1432
    23e0:	08 95       	ret

000023e2 <malloc>:
malloc():
    23e2:	0f 93       	push	r16
    23e4:	1f 93       	push	r17
    23e6:	cf 93       	push	r28
    23e8:	df 93       	push	r29
    23ea:	82 30       	cpi	r24, 0x02	; 2
    23ec:	91 05       	cpc	r25, r1
    23ee:	10 f4       	brcc	.+4      	; 0x23f4 <malloc+0x12>
    23f0:	82 e0       	ldi	r24, 0x02	; 2
    23f2:	90 e0       	ldi	r25, 0x00	; 0
    23f4:	e0 91 97 03 	lds	r30, 0x0397	; 0x800397 <__flp>
    23f8:	f0 91 98 03 	lds	r31, 0x0398	; 0x800398 <__flp+0x1>
    23fc:	30 e0       	ldi	r19, 0x00	; 0
    23fe:	20 e0       	ldi	r18, 0x00	; 0
    2400:	b0 e0       	ldi	r27, 0x00	; 0
    2402:	a0 e0       	ldi	r26, 0x00	; 0
    2404:	30 97       	sbiw	r30, 0x00	; 0
    2406:	99 f4       	brne	.+38     	; 0x242e <malloc+0x4c>
    2408:	21 15       	cp	r18, r1
    240a:	31 05       	cpc	r19, r1
    240c:	09 f4       	brne	.+2      	; 0x2410 <malloc+0x2e>
    240e:	4a c0       	rjmp	.+148    	; 0x24a4 <malloc+0xc2>
    2410:	28 1b       	sub	r18, r24
    2412:	39 0b       	sbc	r19, r25
    2414:	24 30       	cpi	r18, 0x04	; 4
    2416:	31 05       	cpc	r19, r1
    2418:	d8 f5       	brcc	.+118    	; 0x2490 <malloc+0xae>
    241a:	8a 81       	ldd	r24, Y+2	; 0x02
    241c:	9b 81       	ldd	r25, Y+3	; 0x03
    241e:	61 15       	cp	r22, r1
    2420:	71 05       	cpc	r23, r1
    2422:	89 f1       	breq	.+98     	; 0x2486 <malloc+0xa4>
    2424:	fb 01       	movw	r30, r22
    2426:	93 83       	std	Z+3, r25	; 0x03
    2428:	82 83       	std	Z+2, r24	; 0x02
    242a:	fe 01       	movw	r30, r28
    242c:	11 c0       	rjmp	.+34     	; 0x2450 <malloc+0x6e>
    242e:	40 81       	ld	r20, Z
    2430:	51 81       	ldd	r21, Z+1	; 0x01
    2432:	02 81       	ldd	r16, Z+2	; 0x02
    2434:	13 81       	ldd	r17, Z+3	; 0x03
    2436:	48 17       	cp	r20, r24
    2438:	59 07       	cpc	r21, r25
    243a:	e0 f0       	brcs	.+56     	; 0x2474 <malloc+0x92>
    243c:	48 17       	cp	r20, r24
    243e:	59 07       	cpc	r21, r25
    2440:	99 f4       	brne	.+38     	; 0x2468 <malloc+0x86>
    2442:	10 97       	sbiw	r26, 0x00	; 0
    2444:	61 f0       	breq	.+24     	; 0x245e <malloc+0x7c>
    2446:	12 96       	adiw	r26, 0x02	; 2
    2448:	0c 93       	st	X, r16
    244a:	12 97       	sbiw	r26, 0x02	; 2
    244c:	13 96       	adiw	r26, 0x03	; 3
    244e:	1c 93       	st	X, r17
    2450:	32 96       	adiw	r30, 0x02	; 2
    2452:	cf 01       	movw	r24, r30
    2454:	df 91       	pop	r29
    2456:	cf 91       	pop	r28
    2458:	1f 91       	pop	r17
    245a:	0f 91       	pop	r16
    245c:	08 95       	ret
    245e:	00 93 97 03 	sts	0x0397, r16	; 0x800397 <__flp>
    2462:	10 93 98 03 	sts	0x0398, r17	; 0x800398 <__flp+0x1>
    2466:	f4 cf       	rjmp	.-24     	; 0x2450 <malloc+0x6e>
    2468:	21 15       	cp	r18, r1
    246a:	31 05       	cpc	r19, r1
    246c:	51 f0       	breq	.+20     	; 0x2482 <malloc+0xa0>
    246e:	42 17       	cp	r20, r18
    2470:	53 07       	cpc	r21, r19
    2472:	38 f0       	brcs	.+14     	; 0x2482 <malloc+0xa0>
    2474:	a9 01       	movw	r20, r18
    2476:	db 01       	movw	r26, r22
    2478:	9a 01       	movw	r18, r20
    247a:	bd 01       	movw	r22, r26
    247c:	df 01       	movw	r26, r30
    247e:	f8 01       	movw	r30, r16
    2480:	c1 cf       	rjmp	.-126    	; 0x2404 <malloc+0x22>
    2482:	ef 01       	movw	r28, r30
    2484:	f9 cf       	rjmp	.-14     	; 0x2478 <malloc+0x96>
    2486:	90 93 98 03 	sts	0x0398, r25	; 0x800398 <__flp+0x1>
    248a:	80 93 97 03 	sts	0x0397, r24	; 0x800397 <__flp>
    248e:	cd cf       	rjmp	.-102    	; 0x242a <malloc+0x48>
    2490:	fe 01       	movw	r30, r28
    2492:	e2 0f       	add	r30, r18
    2494:	f3 1f       	adc	r31, r19
    2496:	81 93       	st	Z+, r24
    2498:	91 93       	st	Z+, r25
    249a:	22 50       	subi	r18, 0x02	; 2
    249c:	31 09       	sbc	r19, r1
    249e:	39 83       	std	Y+1, r19	; 0x01
    24a0:	28 83       	st	Y, r18
    24a2:	d7 cf       	rjmp	.-82     	; 0x2452 <malloc+0x70>
    24a4:	20 91 95 03 	lds	r18, 0x0395	; 0x800395 <__brkval>
    24a8:	30 91 96 03 	lds	r19, 0x0396	; 0x800396 <__brkval+0x1>
    24ac:	23 2b       	or	r18, r19
    24ae:	41 f4       	brne	.+16     	; 0x24c0 <malloc+0xde>
    24b0:	20 91 02 01 	lds	r18, 0x0102	; 0x800102 <__malloc_heap_start>
    24b4:	30 91 03 01 	lds	r19, 0x0103	; 0x800103 <__malloc_heap_start+0x1>
    24b8:	30 93 96 03 	sts	0x0396, r19	; 0x800396 <__brkval+0x1>
    24bc:	20 93 95 03 	sts	0x0395, r18	; 0x800395 <__brkval>
    24c0:	20 91 00 01 	lds	r18, 0x0100	; 0x800100 <__DATA_REGION_ORIGIN__>
    24c4:	30 91 01 01 	lds	r19, 0x0101	; 0x800101 <__DATA_REGION_ORIGIN__+0x1>
    24c8:	21 15       	cp	r18, r1
    24ca:	31 05       	cpc	r19, r1
    24cc:	41 f4       	brne	.+16     	; 0x24de <malloc+0xfc>
    24ce:	2d b7       	in	r18, 0x3d	; 61
    24d0:	3e b7       	in	r19, 0x3e	; 62
    24d2:	40 91 04 01 	lds	r20, 0x0104	; 0x800104 <__malloc_margin>
    24d6:	50 91 05 01 	lds	r21, 0x0105	; 0x800105 <__malloc_margin+0x1>
    24da:	24 1b       	sub	r18, r20
    24dc:	35 0b       	sbc	r19, r21
    24de:	e0 91 95 03 	lds	r30, 0x0395	; 0x800395 <__brkval>
    24e2:	f0 91 96 03 	lds	r31, 0x0396	; 0x800396 <__brkval+0x1>
    24e6:	e2 17       	cp	r30, r18
    24e8:	f3 07       	cpc	r31, r19
    24ea:	a0 f4       	brcc	.+40     	; 0x2514 <malloc+0x132>
    24ec:	2e 1b       	sub	r18, r30
    24ee:	3f 0b       	sbc	r19, r31
    24f0:	28 17       	cp	r18, r24
    24f2:	39 07       	cpc	r19, r25
    24f4:	78 f0       	brcs	.+30     	; 0x2514 <malloc+0x132>
    24f6:	ac 01       	movw	r20, r24
    24f8:	4e 5f       	subi	r20, 0xFE	; 254
    24fa:	5f 4f       	sbci	r21, 0xFF	; 255
    24fc:	24 17       	cp	r18, r20
    24fe:	35 07       	cpc	r19, r21
    2500:	48 f0       	brcs	.+18     	; 0x2514 <malloc+0x132>
    2502:	4e 0f       	add	r20, r30
    2504:	5f 1f       	adc	r21, r31
    2506:	50 93 96 03 	sts	0x0396, r21	; 0x800396 <__brkval+0x1>
    250a:	40 93 95 03 	sts	0x0395, r20	; 0x800395 <__brkval>
    250e:	81 93       	st	Z+, r24
    2510:	91 93       	st	Z+, r25
    2512:	9f cf       	rjmp	.-194    	; 0x2452 <malloc+0x70>
    2514:	f0 e0       	ldi	r31, 0x00	; 0
    2516:	e0 e0       	ldi	r30, 0x00	; 0
    2518:	9c cf       	rjmp	.-200    	; 0x2452 <malloc+0x70>

0000251a <free>:
free():
    251a:	cf 93       	push	r28
    251c:	df 93       	push	r29
    251e:	00 97       	sbiw	r24, 0x00	; 0
    2520:	e9 f0       	breq	.+58     	; 0x255c <free+0x42>
    2522:	fc 01       	movw	r30, r24
    2524:	32 97       	sbiw	r30, 0x02	; 2
    2526:	13 82       	std	Z+3, r1	; 0x03
    2528:	12 82       	std	Z+2, r1	; 0x02
    252a:	a0 91 97 03 	lds	r26, 0x0397	; 0x800397 <__flp>
    252e:	b0 91 98 03 	lds	r27, 0x0398	; 0x800398 <__flp+0x1>
    2532:	ed 01       	movw	r28, r26
    2534:	30 e0       	ldi	r19, 0x00	; 0
    2536:	20 e0       	ldi	r18, 0x00	; 0
    2538:	10 97       	sbiw	r26, 0x00	; 0
    253a:	a1 f4       	brne	.+40     	; 0x2564 <free+0x4a>
    253c:	20 81       	ld	r18, Z
    253e:	31 81       	ldd	r19, Z+1	; 0x01
    2540:	82 0f       	add	r24, r18
    2542:	93 1f       	adc	r25, r19
    2544:	20 91 95 03 	lds	r18, 0x0395	; 0x800395 <__brkval>
    2548:	30 91 96 03 	lds	r19, 0x0396	; 0x800396 <__brkval+0x1>
    254c:	28 17       	cp	r18, r24
    254e:	39 07       	cpc	r19, r25
    2550:	09 f0       	breq	.+2      	; 0x2554 <free+0x3a>
    2552:	61 c0       	rjmp	.+194    	; 0x2616 <free+0xfc>
    2554:	f0 93 96 03 	sts	0x0396, r31	; 0x800396 <__brkval+0x1>
    2558:	e0 93 95 03 	sts	0x0395, r30	; 0x800395 <__brkval>
    255c:	df 91       	pop	r29
    255e:	cf 91       	pop	r28
    2560:	08 95       	ret
    2562:	ea 01       	movw	r28, r20
    2564:	ce 17       	cp	r28, r30
    2566:	df 07       	cpc	r29, r31
    2568:	e8 f5       	brcc	.+122    	; 0x25e4 <free+0xca>
    256a:	4a 81       	ldd	r20, Y+2	; 0x02
    256c:	5b 81       	ldd	r21, Y+3	; 0x03
    256e:	9e 01       	movw	r18, r28
    2570:	41 15       	cp	r20, r1
    2572:	51 05       	cpc	r21, r1
    2574:	b1 f7       	brne	.-20     	; 0x2562 <free+0x48>
    2576:	e9 01       	movw	r28, r18
    2578:	fb 83       	std	Y+3, r31	; 0x03
    257a:	ea 83       	std	Y+2, r30	; 0x02
    257c:	49 91       	ld	r20, Y+
    257e:	59 91       	ld	r21, Y+
    2580:	c4 0f       	add	r28, r20
    2582:	d5 1f       	adc	r29, r21
    2584:	ec 17       	cp	r30, r28
    2586:	fd 07       	cpc	r31, r29
    2588:	61 f4       	brne	.+24     	; 0x25a2 <free+0x88>
    258a:	80 81       	ld	r24, Z
    258c:	91 81       	ldd	r25, Z+1	; 0x01
    258e:	02 96       	adiw	r24, 0x02	; 2
    2590:	84 0f       	add	r24, r20
    2592:	95 1f       	adc	r25, r21
    2594:	e9 01       	movw	r28, r18
    2596:	99 83       	std	Y+1, r25	; 0x01
    2598:	88 83       	st	Y, r24
    259a:	82 81       	ldd	r24, Z+2	; 0x02
    259c:	93 81       	ldd	r25, Z+3	; 0x03
    259e:	9b 83       	std	Y+3, r25	; 0x03
    25a0:	8a 83       	std	Y+2, r24	; 0x02
    25a2:	f0 e0       	ldi	r31, 0x00	; 0
    25a4:	e0 e0       	ldi	r30, 0x00	; 0
    25a6:	12 96       	adiw	r26, 0x02	; 2
    25a8:	8d 91       	ld	r24, X+
    25aa:	9c 91       	ld	r25, X
    25ac:	13 97       	sbiw	r26, 0x03	; 3
    25ae:	00 97       	sbiw	r24, 0x00	; 0
    25b0:	b9 f5       	brne	.+110    	; 0x2620 <free+0x106>
    25b2:	2d 91       	ld	r18, X+
    25b4:	3c 91       	ld	r19, X
    25b6:	11 97       	sbiw	r26, 0x01	; 1
    25b8:	cd 01       	movw	r24, r26
    25ba:	02 96       	adiw	r24, 0x02	; 2
    25bc:	82 0f       	add	r24, r18
    25be:	93 1f       	adc	r25, r19
    25c0:	20 91 95 03 	lds	r18, 0x0395	; 0x800395 <__brkval>
    25c4:	30 91 96 03 	lds	r19, 0x0396	; 0x800396 <__brkval+0x1>
    25c8:	28 17       	cp	r18, r24
    25ca:	39 07       	cpc	r19, r25
    25cc:	39 f6       	brne	.-114    	; 0x255c <free+0x42>
    25ce:	30 97       	sbiw	r30, 0x00	; 0
    25d0:	51 f5       	brne	.+84     	; 0x2626 <free+0x10c>
    25d2:	10 92 98 03 	sts	0x0398, r1	; 0x800398 <__flp+0x1>
    25d6:	10 92 97 03 	sts	0x0397, r1	; 0x800397 <__flp>
    25da:	b0 93 96 03 	sts	0x0396, r27	; 0x800396 <__brkval+0x1>
    25de:	a0 93 95 03 	sts	0x0395, r26	; 0x800395 <__brkval>
    25e2:	bc cf       	rjmp	.-136    	; 0x255c <free+0x42>
    25e4:	d3 83       	std	Z+3, r29	; 0x03
    25e6:	c2 83       	std	Z+2, r28	; 0x02
    25e8:	40 81       	ld	r20, Z
    25ea:	51 81       	ldd	r21, Z+1	; 0x01
    25ec:	84 0f       	add	r24, r20
    25ee:	95 1f       	adc	r25, r21
    25f0:	c8 17       	cp	r28, r24
    25f2:	d9 07       	cpc	r29, r25
    25f4:	61 f4       	brne	.+24     	; 0x260e <free+0xf4>
    25f6:	4e 5f       	subi	r20, 0xFE	; 254
    25f8:	5f 4f       	sbci	r21, 0xFF	; 255
    25fa:	88 81       	ld	r24, Y
    25fc:	99 81       	ldd	r25, Y+1	; 0x01
    25fe:	48 0f       	add	r20, r24
    2600:	59 1f       	adc	r21, r25
    2602:	51 83       	std	Z+1, r21	; 0x01
    2604:	40 83       	st	Z, r20
    2606:	8a 81       	ldd	r24, Y+2	; 0x02
    2608:	9b 81       	ldd	r25, Y+3	; 0x03
    260a:	93 83       	std	Z+3, r25	; 0x03
    260c:	82 83       	std	Z+2, r24	; 0x02
    260e:	21 15       	cp	r18, r1
    2610:	31 05       	cpc	r19, r1
    2612:	09 f0       	breq	.+2      	; 0x2616 <free+0xfc>
    2614:	b0 cf       	rjmp	.-160    	; 0x2576 <free+0x5c>
    2616:	f0 93 98 03 	sts	0x0398, r31	; 0x800398 <__flp+0x1>
    261a:	e0 93 97 03 	sts	0x0397, r30	; 0x800397 <__flp>
    261e:	9e cf       	rjmp	.-196    	; 0x255c <free+0x42>
    2620:	fd 01       	movw	r30, r26
    2622:	dc 01       	movw	r26, r24
    2624:	c0 cf       	rjmp	.-128    	; 0x25a6 <free+0x8c>
    2626:	13 82       	std	Z+3, r1	; 0x03
    2628:	12 82       	std	Z+2, r1	; 0x02
    262a:	d7 cf       	rjmp	.-82     	; 0x25da <free+0xc0>

0000262c <realloc>:
realloc():
    262c:	b0 e0       	ldi	r27, 0x00	; 0
    262e:	a0 e0       	ldi	r26, 0x00	; 0
    2630:	ec e1       	ldi	r30, 0x1C	; 28
    2632:	f3 e1       	ldi	r31, 0x13	; 19
    2634:	0c 94 ee 13 	jmp	0x27dc	; 0x27dc <__prologue_saves__+0x4>
    2638:	8c 01       	movw	r16, r24
    263a:	00 97       	sbiw	r24, 0x00	; 0
    263c:	51 f4       	brne	.+20     	; 0x2652 <realloc+0x26>
    263e:	cb 01       	movw	r24, r22
    2640:	0e 94 f1 11 	call	0x23e2	; 0x23e2 <malloc>
    2644:	8c 01       	movw	r16, r24
    2646:	c8 01       	movw	r24, r16
    2648:	cd b7       	in	r28, 0x3d	; 61
    264a:	de b7       	in	r29, 0x3e	; 62
    264c:	e0 e1       	ldi	r30, 0x10	; 16
    264e:	0c 94 0a 14 	jmp	0x2814	; 0x2814 <__epilogue_restores__+0x4>
    2652:	fc 01       	movw	r30, r24
    2654:	e6 0f       	add	r30, r22
    2656:	f7 1f       	adc	r31, r23
    2658:	9c 01       	movw	r18, r24
    265a:	22 50       	subi	r18, 0x02	; 2
    265c:	31 09       	sbc	r19, r1
    265e:	e2 17       	cp	r30, r18
    2660:	f3 07       	cpc	r31, r19
    2662:	08 f4       	brcc	.+2      	; 0x2666 <realloc+0x3a>
    2664:	9d c0       	rjmp	.+314    	; 0x27a0 <realloc+0x174>
    2666:	d9 01       	movw	r26, r18
    2668:	cd 91       	ld	r28, X+
    266a:	dc 91       	ld	r29, X
    266c:	11 97       	sbiw	r26, 0x01	; 1
    266e:	c6 17       	cp	r28, r22
    2670:	d7 07       	cpc	r29, r23
    2672:	98 f0       	brcs	.+38     	; 0x269a <realloc+0x6e>
    2674:	c5 30       	cpi	r28, 0x05	; 5
    2676:	d1 05       	cpc	r29, r1
    2678:	30 f3       	brcs	.-52     	; 0x2646 <realloc+0x1a>
    267a:	ce 01       	movw	r24, r28
    267c:	04 97       	sbiw	r24, 0x04	; 4
    267e:	86 17       	cp	r24, r22
    2680:	97 07       	cpc	r25, r23
    2682:	08 f3       	brcs	.-62     	; 0x2646 <realloc+0x1a>
    2684:	c6 1b       	sub	r28, r22
    2686:	d7 0b       	sbc	r29, r23
    2688:	22 97       	sbiw	r28, 0x02	; 2
    268a:	c1 93       	st	Z+, r28
    268c:	d1 93       	st	Z+, r29
    268e:	6d 93       	st	X+, r22
    2690:	7c 93       	st	X, r23
    2692:	cf 01       	movw	r24, r30
    2694:	0e 94 8d 12 	call	0x251a	; 0x251a <free>
    2698:	d6 cf       	rjmp	.-84     	; 0x2646 <realloc+0x1a>
    269a:	5b 01       	movw	r10, r22
    269c:	ac 1a       	sub	r10, r28
    269e:	bd 0a       	sbc	r11, r29
    26a0:	4c 01       	movw	r8, r24
    26a2:	8c 0e       	add	r8, r28
    26a4:	9d 1e       	adc	r9, r29
    26a6:	a0 91 97 03 	lds	r26, 0x0397	; 0x800397 <__flp>
    26aa:	b0 91 98 03 	lds	r27, 0x0398	; 0x800398 <__flp+0x1>
    26ae:	51 2c       	mov	r5, r1
    26b0:	41 2c       	mov	r4, r1
    26b2:	f1 2c       	mov	r15, r1
    26b4:	e1 2c       	mov	r14, r1
    26b6:	10 97       	sbiw	r26, 0x00	; 0
    26b8:	31 f5       	brne	.+76     	; 0x2706 <realloc+0xda>
    26ba:	80 91 95 03 	lds	r24, 0x0395	; 0x800395 <__brkval>
    26be:	90 91 96 03 	lds	r25, 0x0396	; 0x800396 <__brkval+0x1>
    26c2:	88 15       	cp	r24, r8
    26c4:	99 05       	cpc	r25, r9
    26c6:	09 f0       	breq	.+2      	; 0x26ca <realloc+0x9e>
    26c8:	5c c0       	rjmp	.+184    	; 0x2782 <realloc+0x156>
    26ca:	46 16       	cp	r4, r22
    26cc:	57 06       	cpc	r5, r23
    26ce:	08 f0       	brcs	.+2      	; 0x26d2 <realloc+0xa6>
    26d0:	58 c0       	rjmp	.+176    	; 0x2782 <realloc+0x156>
    26d2:	80 91 00 01 	lds	r24, 0x0100	; 0x800100 <__DATA_REGION_ORIGIN__>
    26d6:	90 91 01 01 	lds	r25, 0x0101	; 0x800101 <__DATA_REGION_ORIGIN__+0x1>
    26da:	00 97       	sbiw	r24, 0x00	; 0
    26dc:	41 f4       	brne	.+16     	; 0x26ee <realloc+0xc2>
    26de:	8d b7       	in	r24, 0x3d	; 61
    26e0:	9e b7       	in	r25, 0x3e	; 62
    26e2:	40 91 04 01 	lds	r20, 0x0104	; 0x800104 <__malloc_margin>
    26e6:	50 91 05 01 	lds	r21, 0x0105	; 0x800105 <__malloc_margin+0x1>
    26ea:	84 1b       	sub	r24, r20
    26ec:	95 0b       	sbc	r25, r21
    26ee:	e8 17       	cp	r30, r24
    26f0:	f9 07       	cpc	r31, r25
    26f2:	08 f0       	brcs	.+2      	; 0x26f6 <realloc+0xca>
    26f4:	55 c0       	rjmp	.+170    	; 0x27a0 <realloc+0x174>
    26f6:	f0 93 96 03 	sts	0x0396, r31	; 0x800396 <__brkval+0x1>
    26fa:	e0 93 95 03 	sts	0x0395, r30	; 0x800395 <__brkval>
    26fe:	f9 01       	movw	r30, r18
    2700:	71 83       	std	Z+1, r23	; 0x01
    2702:	60 83       	st	Z, r22
    2704:	a0 cf       	rjmp	.-192    	; 0x2646 <realloc+0x1a>
    2706:	8d 91       	ld	r24, X+
    2708:	9c 91       	ld	r25, X
    270a:	11 97       	sbiw	r26, 0x01	; 1
    270c:	12 96       	adiw	r26, 0x02	; 2
    270e:	6c 90       	ld	r6, X
    2710:	12 97       	sbiw	r26, 0x02	; 2
    2712:	13 96       	adiw	r26, 0x03	; 3
    2714:	7c 90       	ld	r7, X
    2716:	13 97       	sbiw	r26, 0x03	; 3
    2718:	a8 15       	cp	r26, r8
    271a:	b9 05       	cpc	r27, r9
    271c:	59 f5       	brne	.+86     	; 0x2774 <realloc+0x148>
    271e:	6c 01       	movw	r12, r24
    2720:	42 e0       	ldi	r20, 0x02	; 2
    2722:	c4 0e       	add	r12, r20
    2724:	d1 1c       	adc	r13, r1
    2726:	ca 14       	cp	r12, r10
    2728:	db 04       	cpc	r13, r11
    272a:	20 f1       	brcs	.+72     	; 0x2774 <realloc+0x148>
    272c:	ac 01       	movw	r20, r24
    272e:	4a 19       	sub	r20, r10
    2730:	5b 09       	sbc	r21, r11
    2732:	da 01       	movw	r26, r20
    2734:	12 96       	adiw	r26, 0x02	; 2
    2736:	15 97       	sbiw	r26, 0x05	; 5
    2738:	80 f0       	brcs	.+32     	; 0x275a <realloc+0x12e>
    273a:	62 82       	std	Z+2, r6	; 0x02
    273c:	73 82       	std	Z+3, r7	; 0x03
    273e:	51 83       	std	Z+1, r21	; 0x01
    2740:	40 83       	st	Z, r20
    2742:	d9 01       	movw	r26, r18
    2744:	6d 93       	st	X+, r22
    2746:	7c 93       	st	X, r23
    2748:	e1 14       	cp	r14, r1
    274a:	f1 04       	cpc	r15, r1
    274c:	71 f0       	breq	.+28     	; 0x276a <realloc+0x13e>
    274e:	d7 01       	movw	r26, r14
    2750:	13 96       	adiw	r26, 0x03	; 3
    2752:	fc 93       	st	X, r31
    2754:	ee 93       	st	-X, r30
    2756:	12 97       	sbiw	r26, 0x02	; 2
    2758:	76 cf       	rjmp	.-276    	; 0x2646 <realloc+0x1a>
    275a:	22 96       	adiw	r28, 0x02	; 2
    275c:	8c 0f       	add	r24, r28
    275e:	9d 1f       	adc	r25, r29
    2760:	f9 01       	movw	r30, r18
    2762:	91 83       	std	Z+1, r25	; 0x01
    2764:	80 83       	st	Z, r24
    2766:	f3 01       	movw	r30, r6
    2768:	ef cf       	rjmp	.-34     	; 0x2748 <realloc+0x11c>
    276a:	f0 93 98 03 	sts	0x0398, r31	; 0x800398 <__flp+0x1>
    276e:	e0 93 97 03 	sts	0x0397, r30	; 0x800397 <__flp>
    2772:	69 cf       	rjmp	.-302    	; 0x2646 <realloc+0x1a>
    2774:	48 16       	cp	r4, r24
    2776:	59 06       	cpc	r5, r25
    2778:	08 f4       	brcc	.+2      	; 0x277c <realloc+0x150>
    277a:	2c 01       	movw	r4, r24
    277c:	7d 01       	movw	r14, r26
    277e:	d3 01       	movw	r26, r6
    2780:	9a cf       	rjmp	.-204    	; 0x26b6 <realloc+0x8a>
    2782:	cb 01       	movw	r24, r22
    2784:	0e 94 f1 11 	call	0x23e2	; 0x23e2 <malloc>
    2788:	7c 01       	movw	r14, r24
    278a:	00 97       	sbiw	r24, 0x00	; 0
    278c:	49 f0       	breq	.+18     	; 0x27a0 <realloc+0x174>
    278e:	ae 01       	movw	r20, r28
    2790:	b8 01       	movw	r22, r16
    2792:	0e 94 d3 13 	call	0x27a6	; 0x27a6 <memcpy>
    2796:	c8 01       	movw	r24, r16
    2798:	0e 94 8d 12 	call	0x251a	; 0x251a <free>
    279c:	87 01       	movw	r16, r14
    279e:	53 cf       	rjmp	.-346    	; 0x2646 <realloc+0x1a>
    27a0:	10 e0       	ldi	r17, 0x00	; 0
    27a2:	00 e0       	ldi	r16, 0x00	; 0
    27a4:	50 cf       	rjmp	.-352    	; 0x2646 <realloc+0x1a>

000027a6 <memcpy>:
memcpy():
    27a6:	fb 01       	movw	r30, r22
    27a8:	dc 01       	movw	r26, r24
    27aa:	02 c0       	rjmp	.+4      	; 0x27b0 <memcpy+0xa>
    27ac:	01 90       	ld	r0, Z+
    27ae:	0d 92       	st	X+, r0
    27b0:	41 50       	subi	r20, 0x01	; 1
    27b2:	50 40       	sbci	r21, 0x00	; 0
    27b4:	d8 f7       	brcc	.-10     	; 0x27ac <memcpy+0x6>
    27b6:	08 95       	ret

000027b8 <strcmp>:
strcmp():
    27b8:	fb 01       	movw	r30, r22
    27ba:	dc 01       	movw	r26, r24
    27bc:	8d 91       	ld	r24, X+
    27be:	01 90       	ld	r0, Z+
    27c0:	80 19       	sub	r24, r0
    27c2:	01 10       	cpse	r0, r1
    27c4:	d9 f3       	breq	.-10     	; 0x27bc <strcmp+0x4>
    27c6:	99 0b       	sbc	r25, r25
    27c8:	08 95       	ret

000027ca <strcpy>:
strcpy():
    27ca:	fb 01       	movw	r30, r22
    27cc:	dc 01       	movw	r26, r24
    27ce:	01 90       	ld	r0, Z+
    27d0:	0d 92       	st	X+, r0
    27d2:	00 20       	and	r0, r0
    27d4:	e1 f7       	brne	.-8      	; 0x27ce <strcpy+0x4>
    27d6:	08 95       	ret

000027d8 <__prologue_saves__>:
__prologue_saves__():
/home/jenkins-mingw32/workspace/avr-gcc-staging/label/Ubuntu14.04x64-mingw32/gcc-build/avr/avr5/libgcc/../../../../gcc/libgcc/config/avr/lib1funcs.S:2169
    27d8:	2f 92       	push	r2
/home/jenkins-mingw32/workspace/avr-gcc-staging/label/Ubuntu14.04x64-mingw32/gcc-build/avr/avr5/libgcc/../../../../gcc/libgcc/config/avr/lib1funcs.S:2170
    27da:	3f 92       	push	r3
/home/jenkins-mingw32/workspace/avr-gcc-staging/label/Ubuntu14.04x64-mingw32/gcc-build/avr/avr5/libgcc/../../../../gcc/libgcc/config/avr/lib1funcs.S:2171
    27dc:	4f 92       	push	r4
/home/jenkins-mingw32/workspace/avr-gcc-staging/label/Ubuntu14.04x64-mingw32/gcc-build/avr/avr5/libgcc/../../../../gcc/libgcc/config/avr/lib1funcs.S:2172
    27de:	5f 92       	push	r5
/home/jenkins-mingw32/workspace/avr-gcc-staging/label/Ubuntu14.04x64-mingw32/gcc-build/avr/avr5/libgcc/../../../../gcc/libgcc/config/avr/lib1funcs.S:2173
    27e0:	6f 92       	push	r6
/home/jenkins-mingw32/workspace/avr-gcc-staging/label/Ubuntu14.04x64-mingw32/gcc-build/avr/avr5/libgcc/../../../../gcc/libgcc/config/avr/lib1funcs.S:2174
    27e2:	7f 92       	push	r7
/home/jenkins-mingw32/workspace/avr-gcc-staging/label/Ubuntu14.04x64-mingw32/gcc-build/avr/avr5/libgcc/../../../../gcc/libgcc/config/avr/lib1funcs.S:2175
    27e4:	8f 92       	push	r8
/home/jenkins-mingw32/workspace/avr-gcc-staging/label/Ubuntu14.04x64-mingw32/gcc-build/avr/avr5/libgcc/../../../../gcc/libgcc/config/avr/lib1funcs.S:2176
    27e6:	9f 92       	push	r9
/home/jenkins-mingw32/workspace/avr-gcc-staging/label/Ubuntu14.04x64-mingw32/gcc-build/avr/avr5/libgcc/../../../../gcc/libgcc/config/avr/lib1funcs.S:2177
    27e8:	af 92       	push	r10
/home/jenkins-mingw32/workspace/avr-gcc-staging/label/Ubuntu14.04x64-mingw32/gcc-build/avr/avr5/libgcc/../../../../gcc/libgcc/config/avr/lib1funcs.S:2178
    27ea:	bf 92       	push	r11
/home/jenkins-mingw32/workspace/avr-gcc-staging/label/Ubuntu14.04x64-mingw32/gcc-build/avr/avr5/libgcc/../../../../gcc/libgcc/config/avr/lib1funcs.S:2179
    27ec:	cf 92       	push	r12
/home/jenkins-mingw32/workspace/avr-gcc-staging/label/Ubuntu14.04x64-mingw32/gcc-build/avr/avr5/libgcc/../../../../gcc/libgcc/config/avr/lib1funcs.S:2180
    27ee:	df 92       	push	r13
/home/jenkins-mingw32/workspace/avr-gcc-staging/label/Ubuntu14.04x64-mingw32/gcc-build/avr/avr5/libgcc/../../../../gcc/libgcc/config/avr/lib1funcs.S:2181
    27f0:	ef 92       	push	r14
/home/jenkins-mingw32/workspace/avr-gcc-staging/label/Ubuntu14.04x64-mingw32/gcc-build/avr/avr5/libgcc/../../../../gcc/libgcc/config/avr/lib1funcs.S:2182
    27f2:	ff 92       	push	r15
/home/jenkins-mingw32/workspace/avr-gcc-staging/label/Ubuntu14.04x64-mingw32/gcc-build/avr/avr5/libgcc/../../../../gcc/libgcc/config/avr/lib1funcs.S:2183
    27f4:	0f 93       	push	r16
/home/jenkins-mingw32/workspace/avr-gcc-staging/label/Ubuntu14.04x64-mingw32/gcc-build/avr/avr5/libgcc/../../../../gcc/libgcc/config/avr/lib1funcs.S:2184
    27f6:	1f 93       	push	r17
/home/jenkins-mingw32/workspace/avr-gcc-staging/label/Ubuntu14.04x64-mingw32/gcc-build/avr/avr5/libgcc/../../../../gcc/libgcc/config/avr/lib1funcs.S:2185
    27f8:	cf 93       	push	r28
/home/jenkins-mingw32/workspace/avr-gcc-staging/label/Ubuntu14.04x64-mingw32/gcc-build/avr/avr5/libgcc/../../../../gcc/libgcc/config/avr/lib1funcs.S:2186
    27fa:	df 93       	push	r29
/home/jenkins-mingw32/workspace/avr-gcc-staging/label/Ubuntu14.04x64-mingw32/gcc-build/avr/avr5/libgcc/../../../../gcc/libgcc/config/avr/lib1funcs.S:2200
    27fc:	cd b7       	in	r28, 0x3d	; 61
/home/jenkins-mingw32/workspace/avr-gcc-staging/label/Ubuntu14.04x64-mingw32/gcc-build/avr/avr5/libgcc/../../../../gcc/libgcc/config/avr/lib1funcs.S:2201
    27fe:	de b7       	in	r29, 0x3e	; 62
/home/jenkins-mingw32/workspace/avr-gcc-staging/label/Ubuntu14.04x64-mingw32/gcc-build/avr/avr5/libgcc/../../../../gcc/libgcc/config/avr/lib1funcs.S:2202
    2800:	ca 1b       	sub	r28, r26
/home/jenkins-mingw32/workspace/avr-gcc-staging/label/Ubuntu14.04x64-mingw32/gcc-build/avr/avr5/libgcc/../../../../gcc/libgcc/config/avr/lib1funcs.S:2203
    2802:	db 0b       	sbc	r29, r27
/home/jenkins-mingw32/workspace/avr-gcc-staging/label/Ubuntu14.04x64-mingw32/gcc-build/avr/avr5/libgcc/../../../../gcc/libgcc/config/avr/lib1funcs.S:2204
    2804:	0f b6       	in	r0, 0x3f	; 63
/home/jenkins-mingw32/workspace/avr-gcc-staging/label/Ubuntu14.04x64-mingw32/gcc-build/avr/avr5/libgcc/../../../../gcc/libgcc/config/avr/lib1funcs.S:2205
    2806:	f8 94       	cli
/home/jenkins-mingw32/workspace/avr-gcc-staging/label/Ubuntu14.04x64-mingw32/gcc-build/avr/avr5/libgcc/../../../../gcc/libgcc/config/avr/lib1funcs.S:2206
    2808:	de bf       	out	0x3e, r29	; 62
/home/jenkins-mingw32/workspace/avr-gcc-staging/label/Ubuntu14.04x64-mingw32/gcc-build/avr/avr5/libgcc/../../../../gcc/libgcc/config/avr/lib1funcs.S:2207
    280a:	0f be       	out	0x3f, r0	; 63
/home/jenkins-mingw32/workspace/avr-gcc-staging/label/Ubuntu14.04x64-mingw32/gcc-build/avr/avr5/libgcc/../../../../gcc/libgcc/config/avr/lib1funcs.S:2208
    280c:	cd bf       	out	0x3d, r28	; 61
/home/jenkins-mingw32/workspace/avr-gcc-staging/label/Ubuntu14.04x64-mingw32/gcc-build/avr/avr5/libgcc/../../../../gcc/libgcc/config/avr/lib1funcs.S:2211
    280e:	09 94       	ijmp

00002810 <__epilogue_restores__>:
__epilogue_restores__():
/home/jenkins-mingw32/workspace/avr-gcc-staging/label/Ubuntu14.04x64-mingw32/gcc-build/avr/avr5/libgcc/../../../../gcc/libgcc/config/avr/lib1funcs.S:2222
    2810:	2a 88       	ldd	r2, Y+18	; 0x12
/home/jenkins-mingw32/workspace/avr-gcc-staging/label/Ubuntu14.04x64-mingw32/gcc-build/avr/avr5/libgcc/../../../../gcc/libgcc/config/avr/lib1funcs.S:2223
    2812:	39 88       	ldd	r3, Y+17	; 0x11
/home/jenkins-mingw32/workspace/avr-gcc-staging/label/Ubuntu14.04x64-mingw32/gcc-build/avr/avr5/libgcc/../../../../gcc/libgcc/config/avr/lib1funcs.S:2224
    2814:	48 88       	ldd	r4, Y+16	; 0x10
/home/jenkins-mingw32/workspace/avr-gcc-staging/label/Ubuntu14.04x64-mingw32/gcc-build/avr/avr5/libgcc/../../../../gcc/libgcc/config/avr/lib1funcs.S:2225
    2816:	5f 84       	ldd	r5, Y+15	; 0x0f
/home/jenkins-mingw32/workspace/avr-gcc-staging/label/Ubuntu14.04x64-mingw32/gcc-build/avr/avr5/libgcc/../../../../gcc/libgcc/config/avr/lib1funcs.S:2226
    2818:	6e 84       	ldd	r6, Y+14	; 0x0e
/home/jenkins-mingw32/workspace/avr-gcc-staging/label/Ubuntu14.04x64-mingw32/gcc-build/avr/avr5/libgcc/../../../../gcc/libgcc/config/avr/lib1funcs.S:2227
    281a:	7d 84       	ldd	r7, Y+13	; 0x0d
/home/jenkins-mingw32/workspace/avr-gcc-staging/label/Ubuntu14.04x64-mingw32/gcc-build/avr/avr5/libgcc/../../../../gcc/libgcc/config/avr/lib1funcs.S:2228
    281c:	8c 84       	ldd	r8, Y+12	; 0x0c
/home/jenkins-mingw32/workspace/avr-gcc-staging/label/Ubuntu14.04x64-mingw32/gcc-build/avr/avr5/libgcc/../../../../gcc/libgcc/config/avr/lib1funcs.S:2229
    281e:	9b 84       	ldd	r9, Y+11	; 0x0b
/home/jenkins-mingw32/workspace/avr-gcc-staging/label/Ubuntu14.04x64-mingw32/gcc-build/avr/avr5/libgcc/../../../../gcc/libgcc/config/avr/lib1funcs.S:2230
    2820:	aa 84       	ldd	r10, Y+10	; 0x0a
/home/jenkins-mingw32/workspace/avr-gcc-staging/label/Ubuntu14.04x64-mingw32/gcc-build/avr/avr5/libgcc/../../../../gcc/libgcc/config/avr/lib1funcs.S:2231
    2822:	b9 84       	ldd	r11, Y+9	; 0x09
/home/jenkins-mingw32/workspace/avr-gcc-staging/label/Ubuntu14.04x64-mingw32/gcc-build/avr/avr5/libgcc/../../../../gcc/libgcc/config/avr/lib1funcs.S:2232
    2824:	c8 84       	ldd	r12, Y+8	; 0x08
/home/jenkins-mingw32/workspace/avr-gcc-staging/label/Ubuntu14.04x64-mingw32/gcc-build/avr/avr5/libgcc/../../../../gcc/libgcc/config/avr/lib1funcs.S:2233
    2826:	df 80       	ldd	r13, Y+7	; 0x07
/home/jenkins-mingw32/workspace/avr-gcc-staging/label/Ubuntu14.04x64-mingw32/gcc-build/avr/avr5/libgcc/../../../../gcc/libgcc/config/avr/lib1funcs.S:2234
    2828:	ee 80       	ldd	r14, Y+6	; 0x06
/home/jenkins-mingw32/workspace/avr-gcc-staging/label/Ubuntu14.04x64-mingw32/gcc-build/avr/avr5/libgcc/../../../../gcc/libgcc/config/avr/lib1funcs.S:2235
    282a:	fd 80       	ldd	r15, Y+5	; 0x05
/home/jenkins-mingw32/workspace/avr-gcc-staging/label/Ubuntu14.04x64-mingw32/gcc-build/avr/avr5/libgcc/../../../../gcc/libgcc/config/avr/lib1funcs.S:2236
    282c:	0c 81       	ldd	r16, Y+4	; 0x04
/home/jenkins-mingw32/workspace/avr-gcc-staging/label/Ubuntu14.04x64-mingw32/gcc-build/avr/avr5/libgcc/../../../../gcc/libgcc/config/avr/lib1funcs.S:2237
    282e:	1b 81       	ldd	r17, Y+3	; 0x03
/home/jenkins-mingw32/workspace/avr-gcc-staging/label/Ubuntu14.04x64-mingw32/gcc-build/avr/avr5/libgcc/../../../../gcc/libgcc/config/avr/lib1funcs.S:2238
    2830:	aa 81       	ldd	r26, Y+2	; 0x02
/home/jenkins-mingw32/workspace/avr-gcc-staging/label/Ubuntu14.04x64-mingw32/gcc-build/avr/avr5/libgcc/../../../../gcc/libgcc/config/avr/lib1funcs.S:2252
    2832:	b9 81       	ldd	r27, Y+1	; 0x01
/home/jenkins-mingw32/workspace/avr-gcc-staging/label/Ubuntu14.04x64-mingw32/gcc-build/avr/avr5/libgcc/../../../../gcc/libgcc/config/avr/lib1funcs.S:2253
    2834:	ce 0f       	add	r28, r30
/home/jenkins-mingw32/workspace/avr-gcc-staging/label/Ubuntu14.04x64-mingw32/gcc-build/avr/avr5/libgcc/../../../../gcc/libgcc/config/avr/lib1funcs.S:2254
    2836:	d1 1d       	adc	r29, r1
/home/jenkins-mingw32/workspace/avr-gcc-staging/label/Ubuntu14.04x64-mingw32/gcc-build/avr/avr5/libgcc/../../../../gcc/libgcc/config/avr/lib1funcs.S:2255
    2838:	0f b6       	in	r0, 0x3f	; 63
/home/jenkins-mingw32/workspace/avr-gcc-staging/label/Ubuntu14.04x64-mingw32/gcc-build/avr/avr5/libgcc/../../../../gcc/libgcc/config/avr/lib1funcs.S:2256
    283a:	f8 94       	cli
/home/jenkins-mingw32/workspace/avr-gcc-staging/label/Ubuntu14.04x64-mingw32/gcc-build/avr/avr5/libgcc/../../../../gcc/libgcc/config/avr/lib1funcs.S:2257
    283c:	de bf       	out	0x3e, r29	; 62
/home/jenkins-mingw32/workspace/avr-gcc-staging/label/Ubuntu14.04x64-mingw32/gcc-build/avr/avr5/libgcc/../../../../gcc/libgcc/config/avr/lib1funcs.S:2258
    283e:	0f be       	out	0x3f, r0	; 63
/home/jenkins-mingw32/workspace/avr-gcc-staging/label/Ubuntu14.04x64-mingw32/gcc-build/avr/avr5/libgcc/../../../../gcc/libgcc/config/avr/lib1funcs.S:2259
    2840:	cd bf       	out	0x3d, r28	; 61
/home/jenkins-mingw32/workspace/avr-gcc-staging/label/Ubuntu14.04x64-mingw32/gcc-build/avr/avr5/libgcc/../../../../gcc/libgcc/config/avr/lib1funcs.S:2260
    2842:	ed 01       	movw	r28, r26
/home/jenkins-mingw32/workspace/avr-gcc-staging/label/Ubuntu14.04x64-mingw32/gcc-build/avr/avr5/libgcc/../../../../gcc/libgcc/config/avr/lib1funcs.S:2263
    2844:	08 95       	ret

00002846 <__do_global_dtors>:
__do_global_dtors():
/home/jenkins-mingw32/workspace/avr-gcc-staging/label/Ubuntu14.04x64-mingw32/gcc-build/avr/avr5/libgcc/../../../../gcc/libgcc/config/avr/lib1funcs.S:2496
    2846:	10 e0       	ldi	r17, 0x00	; 0
/home/jenkins-mingw32/workspace/avr-gcc-staging/label/Ubuntu14.04x64-mingw32/gcc-build/avr/avr5/libgcc/../../../../gcc/libgcc/config/avr/lib1funcs.S:2497
    2848:	c8 ee       	ldi	r28, 0xE8	; 232
/home/jenkins-mingw32/workspace/avr-gcc-staging/label/Ubuntu14.04x64-mingw32/gcc-build/avr/avr5/libgcc/../../../../gcc/libgcc/config/avr/lib1funcs.S:2498
    284a:	d0 e0       	ldi	r29, 0x00	; 0
/home/jenkins-mingw32/workspace/avr-gcc-staging/label/Ubuntu14.04x64-mingw32/gcc-build/avr/avr5/libgcc/../../../../gcc/libgcc/config/avr/lib1funcs.S:2502
    284c:	04 c0       	rjmp	.+8      	; 0x2856 <__do_global_dtors+0x10>
/home/jenkins-mingw32/workspace/avr-gcc-staging/label/Ubuntu14.04x64-mingw32/gcc-build/avr/avr5/libgcc/../../../../gcc/libgcc/config/avr/lib1funcs.S:2508
    284e:	fe 01       	movw	r30, r28
/home/jenkins-mingw32/workspace/avr-gcc-staging/label/Ubuntu14.04x64-mingw32/gcc-build/avr/avr5/libgcc/../../../../gcc/libgcc/config/avr/lib1funcs.S:2509
    2850:	0e 94 d7 11 	call	0x23ae	; 0x23ae <__tablejump2__>
/home/jenkins-mingw32/workspace/avr-gcc-staging/label/Ubuntu14.04x64-mingw32/gcc-build/avr/avr5/libgcc/../../../../gcc/libgcc/config/avr/lib1funcs.S:2510
    2854:	21 96       	adiw	r28, 0x01	; 1
/home/jenkins-mingw32/workspace/avr-gcc-staging/label/Ubuntu14.04x64-mingw32/gcc-build/avr/avr5/libgcc/../../../../gcc/libgcc/config/avr/lib1funcs.S:2515
    2856:	ca 3e       	cpi	r28, 0xEA	; 234
/home/jenkins-mingw32/workspace/avr-gcc-staging/label/Ubuntu14.04x64-mingw32/gcc-build/avr/avr5/libgcc/../../../../gcc/libgcc/config/avr/lib1funcs.S:2516
    2858:	d1 07       	cpc	r29, r17
/home/jenkins-mingw32/workspace/avr-gcc-staging/label/Ubuntu14.04x64-mingw32/gcc-build/avr/avr5/libgcc/../../../../gcc/libgcc/config/avr/lib1funcs.S:2521
    285a:	c9 f7       	brne	.-14     	; 0x284e <__do_global_dtors+0x8>
/home/jenkins-mingw32/workspace/avr-gcc-staging/label/Ubuntu14.04x64-mingw32/gcc-build/avr/avr5/libgcc/../../../../gcc/libgcc/config/avr/lib1funcs.S:2278
    285c:	f8 94       	cli

0000285e <__stop_program>:
__stop_program():
/home/jenkins-mingw32/workspace/avr-gcc-staging/label/Ubuntu14.04x64-mingw32/gcc-build/avr/avr5/libgcc/../../../../gcc/libgcc/config/avr/lib1funcs.S:2280
    285e:	ff cf       	rjmp	.-2      	; 0x285e <__stop_program>
