
C:\Users\mateu\AppData\Local\Temp\arduino-sketch-C87FD798DE3656A54EC13175728DE633/cdc_arduino_modified_v2.ino.elf:     file format elf32-avr


Disassembly of section .text:

00000000 <__vectors>:
__vectors():
../../../../crt1/gcrt1.S:65
       0:	0c 94 e2 00 	jmp	0x1c4	; 0x1c4 <__dtors_end>
../../../../crt1/gcrt1.S:67
       4:	0c 94 0a 01 	jmp	0x214	; 0x214 <__bad_interrupt>
../../../../crt1/gcrt1.S:68
       8:	0c 94 0a 01 	jmp	0x214	; 0x214 <__bad_interrupt>
../../../../crt1/gcrt1.S:69
       c:	0c 94 38 08 	jmp	0x1070	; 0x1070 <__vector_27>
../../../../crt1/gcrt1.S:70
      10:	0c 94 38 08 	jmp	0x1070	; 0x1070 <__vector_27>
../../../../crt1/gcrt1.S:71
      14:	0c 94 38 08 	jmp	0x1070	; 0x1070 <__vector_27>
../../../../crt1/gcrt1.S:72
      18:	0c 94 0a 01 	jmp	0x214	; 0x214 <__bad_interrupt>
../../../../crt1/gcrt1.S:73
      1c:	0c 94 58 03 	jmp	0x6b0	; 0x6b0 <__vector_7>
../../../../crt1/gcrt1.S:74
      20:	0c 94 0a 01 	jmp	0x214	; 0x214 <__bad_interrupt>
../../../../crt1/gcrt1.S:75
      24:	0c 94 0a 01 	jmp	0x214	; 0x214 <__bad_interrupt>
../../../../crt1/gcrt1.S:76
      28:	0c 94 fe 03 	jmp	0x7fc	; 0x7fc <__vector_10>
../../../../crt1/gcrt1.S:77
      2c:	0c 94 0a 01 	jmp	0x214	; 0x214 <__bad_interrupt>
../../../../crt1/gcrt1.S:78
      30:	0c 94 0a 01 	jmp	0x214	; 0x214 <__bad_interrupt>
../../../../crt1/gcrt1.S:79
      34:	0c 94 bb 03 	jmp	0x776	; 0x776 <__vector_13>
../../../../crt1/gcrt1.S:80
      38:	0c 94 a2 03 	jmp	0x744	; 0x744 <__vector_14>
../../../../crt1/gcrt1.S:81
      3c:	0c 94 0a 01 	jmp	0x214	; 0x214 <__bad_interrupt>
../../../../crt1/gcrt1.S:82
      40:	0c 94 ba 0b 	jmp	0x1774	; 0x1774 <__vector_16>
../../../../crt1/gcrt1.S:83
      44:	0c 94 0a 01 	jmp	0x214	; 0x214 <__bad_interrupt>
../../../../crt1/gcrt1.S:84
      48:	0c 94 53 0a 	jmp	0x14a6	; 0x14a6 <__vector_18>
../../../../crt1/gcrt1.S:85
      4c:	0c 94 85 0a 	jmp	0x150a	; 0x150a <__vector_19>
../../../../crt1/gcrt1.S:86
      50:	0c 94 0a 01 	jmp	0x214	; 0x214 <__bad_interrupt>
../../../../crt1/gcrt1.S:87
      54:	0c 94 0a 01 	jmp	0x214	; 0x214 <__bad_interrupt>
../../../../crt1/gcrt1.S:88
      58:	0c 94 0a 01 	jmp	0x214	; 0x214 <__bad_interrupt>
../../../../crt1/gcrt1.S:89
      5c:	0c 94 0a 01 	jmp	0x214	; 0x214 <__bad_interrupt>
../../../../crt1/gcrt1.S:90
      60:	0c 94 0a 01 	jmp	0x214	; 0x214 <__bad_interrupt>
../../../../crt1/gcrt1.S:91
      64:	0c 94 0a 01 	jmp	0x214	; 0x214 <__bad_interrupt>
../../../../crt1/gcrt1.S:92
      68:	0c 94 0a 01 	jmp	0x214	; 0x214 <__bad_interrupt>
../../../../crt1/gcrt1.S:93
      6c:	0c 94 38 08 	jmp	0x1070	; 0x1070 <__vector_27>
../../../../crt1/gcrt1.S:94
      70:	0c 94 0a 01 	jmp	0x214	; 0x214 <__bad_interrupt>
../../../../crt1/gcrt1.S:95
      74:	0c 94 0a 01 	jmp	0x214	; 0x214 <__bad_interrupt>
../../../../crt1/gcrt1.S:96
      78:	0c 94 0a 01 	jmp	0x214	; 0x214 <__bad_interrupt>
../../../../crt1/gcrt1.S:97
      7c:	0c 94 0a 01 	jmp	0x214	; 0x214 <__bad_interrupt>
../../../../crt1/gcrt1.S:98
      80:	0c 94 0a 01 	jmp	0x214	; 0x214 <__bad_interrupt>
../../../../crt1/gcrt1.S:99
      84:	0c 94 0a 01 	jmp	0x214	; 0x214 <__bad_interrupt>
../../../../crt1/gcrt1.S:100
      88:	0c 94 0a 01 	jmp	0x214	; 0x214 <__bad_interrupt>
../../../../crt1/gcrt1.S:101
      8c:	0c 94 0a 01 	jmp	0x214	; 0x214 <__bad_interrupt>
../../../../crt1/gcrt1.S:102
      90:	0c 94 0a 01 	jmp	0x214	; 0x214 <__bad_interrupt>
../../../../crt1/gcrt1.S:103
      94:	0c 94 0a 01 	jmp	0x214	; 0x214 <__bad_interrupt>
../../../../crt1/gcrt1.S:104
      98:	0c 94 0a 01 	jmp	0x214	; 0x214 <__bad_interrupt>
../../../../crt1/gcrt1.S:105
      9c:	0c 94 0a 01 	jmp	0x214	; 0x214 <__bad_interrupt>
../../../../crt1/gcrt1.S:106
      a0:	0c 94 0a 01 	jmp	0x214	; 0x214 <__bad_interrupt>
../../../../crt1/gcrt1.S:107
      a4:	0c 94 0a 01 	jmp	0x214	; 0x214 <__bad_interrupt>
../../../../crt1/gcrt1.S:108
      a8:	0c 94 0a 01 	jmp	0x214	; 0x214 <__bad_interrupt>
../../../../crt1/gcrt1.S:109
      ac:	0c 94 0a 01 	jmp	0x214	; 0x214 <__bad_interrupt>
../../../../crt1/gcrt1.S:110
      b0:	0c 94 0a 01 	jmp	0x214	; 0x214 <__bad_interrupt>

000000b4 <__trampolines_end>:
__trampolines_start():
      b4:	31 2e       	mov	r3, r17
      b6:	30 61       	ori	r19, 0x10	; 16
	...

000000b9 <sHEX>:
	...

000000ba <sDASH>:
      ba:	5f 00                                               _.

000000bc <sNEWLINE>:
      bc:	0d 0a 00                                            ...

000000bf <sIDENTIFY>:
      bf:	41 75 64 69 20 43 6f 6e 63 65 72 74 20 49 20 4d     Audi Concert I M
      cf:	75 6c 74 69 6d 65 64 69 61 20 61 6e 64 20 50 68     ultimedia and Ph
      df:	6f 6e 65 20 47 61 74 65 77 61 79 20 56 65 72 2e     one Gateway Ver.
	...

000000f0 <sRING>:
      f0:	52 49 4e 47 0d 0a 00                                RING...

000000f7 <sPREVIOUS>:
      f7:	43 4f 4d 2b 50 56 0d 0a 00                          COM+PV...

00000100 <sNEXT>:
     100:	43 4f 4d 2b 50 4e 0d 0a 00                          COM+PN...

00000109 <sSCAN>:
	...

0000010a <sPLAY>:
     10a:	43 4f 4d 2b 50 41 0d 0a 00                          COM+PA...

00000113 <sRANDOM>:
     113:	43 4f 4d 5f 53 4d 52 0a 00                          COM_SMR..

0000011c <sLIST6>:
	...

0000011d <sLIST5>:
	...

0000011e <sLIST4>:
	...

0000011f <sLIST3>:
     11f:	43 4f 4d 2b 4d 41 58 0d 0a 00                       COM+MAX...

00000129 <sLIST2>:
     129:	43 4f 4d 2b 4d 55 44 0d 0a 00                       COM+MUD...

00000133 <sLIST1>:
     133:	43 4f 4d 2b 4d 42 54 0d 0a 00                       COM+MBT...

0000013d <sNXT_LIST>:
	...

0000013e <sPRV_LIST>:
	...

0000013f <sMINQUIRY>:
	...

00000140 <sMENABLE>:
	...

00000141 <sMDISABLE>:
	...

00000142 <sOVERFLOW>:
	...

00000143 <sDATAERR>:
	...

00000144 <digital_pin_to_timer_PGM>:
     144:	0a 0d 0e 09 00 03 02 00 00 04 05 08 00 00 00 00     ................
	...

0000015f <digital_pin_to_bit_mask_PGM>:
     15f:	01 02 04 08 10 20 40 80 01 02 04 08 10 20 01 02     ..... @...... ..
     16f:	04 08 10 20 40 80 40 01 02 04 08                    ... @.@....

0000017a <digital_pin_to_port_PGM>:
     17a:	04 04 04 04 04 04 04 04 02 02 02 02 02 02 03 03     ................
     18a:	03 03 03 03 02 02 03 05 05 05 05                    ...........

00000195 <port_to_input_PGM>:
     195:	00 00 00 00 23 00 26 00 29 00 2c 00                 ....#.&.).,.

000001a1 <port_to_output_PGM>:
     1a1:	00 00 00 00 25 00 28 00 2b 00 2e 00                 ....%.(.+...

000001ad <port_to_mode_PGM>:
     1ad:	00 00 00 00 24 00 27 00 2a 00 2d 00 00              ....$.'.*.-..

000001ba <__ctors_start>:
__ctors_start():
     1ba:	0c 01       	movw	r0, r24
     1bc:	20 01       	movw	r4, r0
     1be:	ab 0a       	sbc	r10, r27

000001c0 <__ctors_end>:
__dtors_start():
     1c0:	18 01       	movw	r2, r16
     1c2:	2d 01       	movw	r4, r26

000001c4 <__dtors_end>:
__dtors_end():
../../../../crt1/gcrt1.S:230
     1c4:	11 24       	eor	r1, r1
../../../../crt1/gcrt1.S:231
     1c6:	1f be       	out	0x3f, r1	; 63
../../../../crt1/gcrt1.S:232
     1c8:	cf ef       	ldi	r28, 0xFF	; 255
../../../../crt1/gcrt1.S:241
     1ca:	d8 e0       	ldi	r29, 0x08	; 8
../../../../crt1/gcrt1.S:242
     1cc:	de bf       	out	0x3e, r29	; 62
../../../../crt1/gcrt1.S:244
     1ce:	cd bf       	out	0x3d, r28	; 61

000001d0 <__do_copy_data>:
__do_copy_data():
/home/jenkins-mingw32/workspace/avr-gcc-staging/label/Ubuntu14.04x64-mingw32/gcc-build/avr/avr5/libgcc/../../../../gcc/libgcc/config/avr/lib1funcs.S:2409
     1d0:	11 e0       	ldi	r17, 0x01	; 1
/home/jenkins-mingw32/workspace/avr-gcc-staging/label/Ubuntu14.04x64-mingw32/gcc-build/avr/avr5/libgcc/../../../../gcc/libgcc/config/avr/lib1funcs.S:2410
     1d2:	a0 e0       	ldi	r26, 0x00	; 0
/home/jenkins-mingw32/workspace/avr-gcc-staging/label/Ubuntu14.04x64-mingw32/gcc-build/avr/avr5/libgcc/../../../../gcc/libgcc/config/avr/lib1funcs.S:2411
     1d4:	b1 e0       	ldi	r27, 0x01	; 1
/home/jenkins-mingw32/workspace/avr-gcc-staging/label/Ubuntu14.04x64-mingw32/gcc-build/avr/avr5/libgcc/../../../../gcc/libgcc/config/avr/lib1funcs.S:2412
     1d6:	e4 e7       	ldi	r30, 0x74	; 116
/home/jenkins-mingw32/workspace/avr-gcc-staging/label/Ubuntu14.04x64-mingw32/gcc-build/avr/avr5/libgcc/../../../../gcc/libgcc/config/avr/lib1funcs.S:2413
     1d8:	fe e1       	ldi	r31, 0x1E	; 30
/home/jenkins-mingw32/workspace/avr-gcc-staging/label/Ubuntu14.04x64-mingw32/gcc-build/avr/avr5/libgcc/../../../../gcc/libgcc/config/avr/lib1funcs.S:2414
     1da:	02 c0       	rjmp	.+4      	; 0x1e0 <__do_copy_data+0x10>
/home/jenkins-mingw32/workspace/avr-gcc-staging/label/Ubuntu14.04x64-mingw32/gcc-build/avr/avr5/libgcc/../../../../gcc/libgcc/config/avr/lib1funcs.S:2417
     1dc:	05 90       	lpm	r0, Z+
/home/jenkins-mingw32/workspace/avr-gcc-staging/label/Ubuntu14.04x64-mingw32/gcc-build/avr/avr5/libgcc/../../../../gcc/libgcc/config/avr/lib1funcs.S:2422
     1de:	0d 92       	st	X+, r0
/home/jenkins-mingw32/workspace/avr-gcc-staging/label/Ubuntu14.04x64-mingw32/gcc-build/avr/avr5/libgcc/../../../../gcc/libgcc/config/avr/lib1funcs.S:2424
     1e0:	a8 34       	cpi	r26, 0x48	; 72
/home/jenkins-mingw32/workspace/avr-gcc-staging/label/Ubuntu14.04x64-mingw32/gcc-build/avr/avr5/libgcc/../../../../gcc/libgcc/config/avr/lib1funcs.S:2425
     1e2:	b1 07       	cpc	r27, r17
/home/jenkins-mingw32/workspace/avr-gcc-staging/label/Ubuntu14.04x64-mingw32/gcc-build/avr/avr5/libgcc/../../../../gcc/libgcc/config/avr/lib1funcs.S:2426
     1e4:	d9 f7       	brne	.-10     	; 0x1dc <__do_copy_data+0xc>

000001e6 <__do_clear_bss>:
__do_clear_bss():
/home/jenkins-mingw32/workspace/avr-gcc-staging/label/Ubuntu14.04x64-mingw32/gcc-build/avr/avr5/libgcc/../../../../gcc/libgcc/config/avr/lib1funcs.S:2441
     1e6:	22 e0       	ldi	r18, 0x02	; 2
/home/jenkins-mingw32/workspace/avr-gcc-staging/label/Ubuntu14.04x64-mingw32/gcc-build/avr/avr5/libgcc/../../../../gcc/libgcc/config/avr/lib1funcs.S:2442
     1e8:	a8 e4       	ldi	r26, 0x48	; 72
/home/jenkins-mingw32/workspace/avr-gcc-staging/label/Ubuntu14.04x64-mingw32/gcc-build/avr/avr5/libgcc/../../../../gcc/libgcc/config/avr/lib1funcs.S:2443
     1ea:	b1 e0       	ldi	r27, 0x01	; 1
/home/jenkins-mingw32/workspace/avr-gcc-staging/label/Ubuntu14.04x64-mingw32/gcc-build/avr/avr5/libgcc/../../../../gcc/libgcc/config/avr/lib1funcs.S:2444
     1ec:	01 c0       	rjmp	.+2      	; 0x1f0 <.do_clear_bss_start>

000001ee <.do_clear_bss_loop>:
/home/jenkins-mingw32/workspace/avr-gcc-staging/label/Ubuntu14.04x64-mingw32/gcc-build/avr/avr5/libgcc/../../../../gcc/libgcc/config/avr/lib1funcs.S:2446
     1ee:	1d 92       	st	X+, r1

000001f0 <.do_clear_bss_start>:
/home/jenkins-mingw32/workspace/avr-gcc-staging/label/Ubuntu14.04x64-mingw32/gcc-build/avr/avr5/libgcc/../../../../gcc/libgcc/config/avr/lib1funcs.S:2448
     1f0:	a7 3c       	cpi	r26, 0xC7	; 199
/home/jenkins-mingw32/workspace/avr-gcc-staging/label/Ubuntu14.04x64-mingw32/gcc-build/avr/avr5/libgcc/../../../../gcc/libgcc/config/avr/lib1funcs.S:2449
     1f2:	b2 07       	cpc	r27, r18
/home/jenkins-mingw32/workspace/avr-gcc-staging/label/Ubuntu14.04x64-mingw32/gcc-build/avr/avr5/libgcc/../../../../gcc/libgcc/config/avr/lib1funcs.S:2450
     1f4:	e1 f7       	brne	.-8      	; 0x1ee <.do_clear_bss_loop>

000001f6 <__do_global_ctors>:
__do_global_ctors():
/home/jenkins-mingw32/workspace/avr-gcc-staging/label/Ubuntu14.04x64-mingw32/gcc-build/avr/avr5/libgcc/../../../../gcc/libgcc/config/avr/lib1funcs.S:2466
     1f6:	10 e0       	ldi	r17, 0x00	; 0
/home/jenkins-mingw32/workspace/avr-gcc-staging/label/Ubuntu14.04x64-mingw32/gcc-build/avr/avr5/libgcc/../../../../gcc/libgcc/config/avr/lib1funcs.S:2467
     1f8:	c0 ee       	ldi	r28, 0xE0	; 224
/home/jenkins-mingw32/workspace/avr-gcc-staging/label/Ubuntu14.04x64-mingw32/gcc-build/avr/avr5/libgcc/../../../../gcc/libgcc/config/avr/lib1funcs.S:2468
     1fa:	d0 e0       	ldi	r29, 0x00	; 0
/home/jenkins-mingw32/workspace/avr-gcc-staging/label/Ubuntu14.04x64-mingw32/gcc-build/avr/avr5/libgcc/../../../../gcc/libgcc/config/avr/lib1funcs.S:2472
     1fc:	04 c0       	rjmp	.+8      	; 0x206 <__do_global_ctors+0x10>
/home/jenkins-mingw32/workspace/avr-gcc-staging/label/Ubuntu14.04x64-mingw32/gcc-build/avr/avr5/libgcc/../../../../gcc/libgcc/config/avr/lib1funcs.S:2474
     1fe:	21 97       	sbiw	r28, 0x01	; 1
/home/jenkins-mingw32/workspace/avr-gcc-staging/label/Ubuntu14.04x64-mingw32/gcc-build/avr/avr5/libgcc/../../../../gcc/libgcc/config/avr/lib1funcs.S:2480
     200:	fe 01       	movw	r30, r28
/home/jenkins-mingw32/workspace/avr-gcc-staging/label/Ubuntu14.04x64-mingw32/gcc-build/avr/avr5/libgcc/../../../../gcc/libgcc/config/avr/lib1funcs.S:2481
     202:	0e 94 ea 0c 	call	0x19d4	; 0x19d4 <__tablejump2__>
/home/jenkins-mingw32/workspace/avr-gcc-staging/label/Ubuntu14.04x64-mingw32/gcc-build/avr/avr5/libgcc/../../../../gcc/libgcc/config/avr/lib1funcs.S:2483
     206:	cd 3d       	cpi	r28, 0xDD	; 221
/home/jenkins-mingw32/workspace/avr-gcc-staging/label/Ubuntu14.04x64-mingw32/gcc-build/avr/avr5/libgcc/../../../../gcc/libgcc/config/avr/lib1funcs.S:2484
     208:	d1 07       	cpc	r29, r17
/home/jenkins-mingw32/workspace/avr-gcc-staging/label/Ubuntu14.04x64-mingw32/gcc-build/avr/avr5/libgcc/../../../../gcc/libgcc/config/avr/lib1funcs.S:2489
     20a:	c9 f7       	brne	.-14     	; 0x1fe <__do_global_ctors+0x8>
../../../../crt1/gcrt1.S:314
     20c:	0e 94 35 01 	call	0x26a	; 0x26a <main>
../../../../crt1/gcrt1.S:315
     210:	0c 94 2d 0f 	jmp	0x1e5a	; 0x1e5a <__do_global_dtors>

00000214 <__bad_interrupt>:
__vector_38():
../../../../crt1/gcrt1.S:209
     214:	0c 94 00 00 	jmp	0	; 0x0 <__vectors>

00000218 <_GLOBAL__sub_I_RemoteGotNewCode>:
_GLOBAL__sub_I_RemoteGotNewCode():
C:\Users\mateu\Desktop\cdc_arduino_modified_v2/Remote.cpp:7
#include "bk3266.h"
#include <avr/interrupt.h>
#include <SoftwareSerial.h>

volatile bool RemoteGotNewCode = false;
String RemoteNewCode = "";
     218:	6e e0       	ldi	r22, 0x0E	; 14
     21a:	71 e0       	ldi	r23, 0x01	; 1
     21c:	8e e4       	ldi	r24, 0x4E	; 78
     21e:	91 e0       	ldi	r25, 0x01	; 1
     220:	0e 94 a5 0b 	call	0x174a	; 0x174a <String::String(char const*)>
C:\Users\mateu\Desktop\cdc_arduino_modified_v2/Remote.cpp:8
String PhoneCode = "0xC0\r\n";
     224:	68 e0       	ldi	r22, 0x08	; 8
     226:	71 e0       	ldi	r23, 0x01	; 1
     228:	88 e4       	ldi	r24, 0x48	; 72
     22a:	91 e0       	ldi	r25, 0x01	; 1
     22c:	0c 94 a5 0b 	jmp	0x174a	; 0x174a <String::String(char const*)>

00000230 <_GLOBAL__sub_D_RemoteGotNewCode>:
_GLOBAL__sub_D_RemoteGotNewCode():
     230:	88 e4       	ldi	r24, 0x48	; 72
     232:	91 e0       	ldi	r25, 0x01	; 1
     234:	0e 94 36 0b 	call	0x166c	; 0x166c <String::~String()>
C:\Users\mateu\Desktop\cdc_arduino_modified_v2/Remote.cpp:7
#include "bk3266.h"
#include <avr/interrupt.h>
#include <SoftwareSerial.h>

volatile bool RemoteGotNewCode = false;
String RemoteNewCode = "";
     238:	8e e4       	ldi	r24, 0x4E	; 78
     23a:	91 e0       	ldi	r25, 0x01	; 1
     23c:	0c 94 36 0b 	jmp	0x166c	; 0x166c <String::~String()>

00000240 <_GLOBAL__sub_I_BtSerial>:
_GLOBAL__sub_I_BtSerial():
C:\Users\mateu\Desktop\cdc_arduino_modified_v2/bk3266.cpp:6
#include "bk3266.h"
#include "cdc_function.h"
#include <SoftwareSerial.h>
#include <Arduino.h>

SoftwareSerial BtSerial(3, 4); // RX, TX
     240:	20 e0       	ldi	r18, 0x00	; 0
     242:	44 e0       	ldi	r20, 0x04	; 4
     244:	63 e0       	ldi	r22, 0x03	; 3
     246:	8a e5       	ldi	r24, 0x5A	; 90
     248:	91 e0       	ldi	r25, 0x01	; 1
     24a:	0e 94 0b 09 	call	0x1216	; 0x1216 <SoftwareSerial::SoftwareSerial(signed char, signed char, bool)>
C:\Users\mateu\Desktop\cdc_arduino_modified_v2/bk3266.cpp:8

String bt_serial_data = "";
     24e:	6e e0       	ldi	r22, 0x0E	; 14
     250:	71 e0       	ldi	r23, 0x01	; 1
     252:	84 e5       	ldi	r24, 0x54	; 84
     254:	91 e0       	ldi	r25, 0x01	; 1
     256:	0c 94 a5 0b 	jmp	0x174a	; 0x174a <String::String(char const*)>

0000025a <_GLOBAL__sub_D_BtSerial>:
_GLOBAL__sub_D_BtSerial():
     25a:	84 e5       	ldi	r24, 0x54	; 84
     25c:	91 e0       	ldi	r25, 0x01	; 1
     25e:	0e 94 36 0b 	call	0x166c	; 0x166c <String::~String()>
C:\Users\mateu\Desktop\cdc_arduino_modified_v2/bk3266.cpp:6
#include "bk3266.h"
#include "cdc_function.h"
#include <SoftwareSerial.h>
#include <Arduino.h>

SoftwareSerial BtSerial(3, 4); // RX, TX
     262:	8a e5       	ldi	r24, 0x5A	; 90
     264:	91 e0       	ldi	r25, 0x01	; 1
     266:	0c 94 b0 08 	jmp	0x1160	; 0x1160 <SoftwareSerial::~SoftwareSerial()>

0000026a <main>:
_ZN14HardwareSerial5beginEm():
C:\Users\mateu\AppData\Local\Arduino15\packages\MiniCore\hardware\avr\2.0.9\cores\MCUdude_corefiles/HardwareSerial.h:121
  public:
    inline HardwareSerial(
      volatile uint8_t *ubrrh, volatile uint8_t *ubrrl,
      volatile uint8_t *ucsra, volatile uint8_t *ucsrb,
      volatile uint8_t *ucsrc, volatile uint8_t *udr);
    void begin(unsigned long baud) { begin(baud, SERIAL_8N1); }
     26a:	26 e0       	ldi	r18, 0x06	; 6
     26c:	40 e8       	ldi	r20, 0x80	; 128
     26e:	55 e2       	ldi	r21, 0x25	; 37
     270:	60 e0       	ldi	r22, 0x00	; 0
     272:	70 e0       	ldi	r23, 0x00	; 0
     274:	8d e1       	ldi	r24, 0x1D	; 29
     276:	92 e0       	ldi	r25, 0x02	; 2
     278:	0e 94 fb 09 	call	0x13f6	; 0x13f6 <HardwareSerial::begin(unsigned long, unsigned char)>
main():
C:\Users\mateu\Desktop\cdc_arduino_modified_v2/cdc_arduino_modified_v2.ino:62

int main()
{
  Serial.begin(9600);
  
  Init_VWCDC();
     27c:	0e 94 dc 02 	call	0x5b8	; 0x5b8 <Init_VWCDC()>
C:\Users\mateu\Desktop\cdc_arduino_modified_v2/cdc_arduino_modified_v2.ino:75 (discriminator 1)
    #endif
    #ifdef CHIP_BK3254
       //CheckStateBK3254();
    #endif
    
    CDC_Protocol();
     280:	0e 94 a3 04 	call	0x946	; 0x946 <CDC_Protocol()>
     284:	fd cf       	rjmp	.-6      	; 0x280 <main+0x16>

00000286 <GetCaptureByte()>:
_ZL14GetCaptureBytev():
C:\Users\mateu\Desktop\cdc_arduino_modified_v2/cdc_function.cpp:1253

  uint8_t return_u8 = FALSE;

  // have we already caught up with capturer?

  if (fsr != capptr)
     286:	80 91 d3 01 	lds	r24, 0x01D3	; 0x8001d3 <fsr>
     28a:	90 91 c4 01 	lds	r25, 0x01C4	; 0x8001c4 <capptr>
     28e:	89 17       	cp	r24, r25
     290:	89 f0       	breq	.+34     	; 0x2b4 <GetCaptureByte()+0x2e>
C:\Users\mateu\Desktop\cdc_arduino_modified_v2/cdc_function.cpp:1257

  {

    scanbyte = capbuffer[fsr]; // get a byte from the capture buffer
     292:	e8 2f       	mov	r30, r24
     294:	f0 e0       	ldi	r31, 0x00	; 0
     296:	ed 57       	subi	r30, 0x7D	; 125
     298:	fe 4f       	sbci	r31, 0xFE	; 254
     29a:	90 81       	ld	r25, Z
     29c:	90 93 d2 01 	sts	0x01D2, r25	; 0x8001d2 <scanbyte>
C:\Users\mateu\Desktop\cdc_arduino_modified_v2/cdc_function.cpp:1259

    fsr++;
     2a0:	8f 5f       	subi	r24, 0xFF	; 255
C:\Users\mateu\Desktop\cdc_arduino_modified_v2/cdc_function.cpp:1261

    if (fsr == CAP_BUFFER_END) // have we overflowed the
     2a2:	88 31       	cpi	r24, 0x18	; 24
     2a4:	21 f0       	breq	.+8      	; 0x2ae <GetCaptureByte()+0x28>
C:\Users\mateu\Desktop\cdc_arduino_modified_v2/cdc_function.cpp:1259

  {

    scanbyte = capbuffer[fsr]; // get a byte from the capture buffer

    fsr++;
     2a6:	80 93 d3 01 	sts	0x01D3, r24	; 0x8001d3 <fsr>
C:\Users\mateu\Desktop\cdc_arduino_modified_v2/cdc_function.cpp:1269

      fsr = 0;

    } // yes, roll over to beginning

    return_u8 = TRUE;
     2aa:	81 e0       	ldi	r24, 0x01	; 1
     2ac:	08 95       	ret
C:\Users\mateu\Desktop\cdc_arduino_modified_v2/cdc_function.cpp:1265

    if (fsr == CAP_BUFFER_END) // have we overflowed the

    { // capture buffer?

      fsr = 0;
     2ae:	10 92 d3 01 	sts	0x01D3, r1	; 0x8001d3 <fsr>
     2b2:	fb cf       	rjmp	.-10     	; 0x2aa <GetCaptureByte()+0x24>
C:\Users\mateu\Desktop\cdc_arduino_modified_v2/cdc_function.cpp:1249

static uint8_t GetCaptureByte(void)

{

  uint8_t return_u8 = FALSE;
     2b4:	80 e0       	ldi	r24, 0x00	; 0
C:\Users\mateu\Desktop\cdc_arduino_modified_v2/cdc_function.cpp:1275

  }

  return return_u8;

}
     2b6:	08 95       	ret

000002b8 <SetStateInitPlay()>:
_ZL16SetStateInitPlayv():
C:\Users\mateu\Desktop\cdc_arduino_modified_v2/cdc_function.cpp:1374

static void SetStateInitPlay(void)

{

  playing = TRUE;
     2b8:	81 e0       	ldi	r24, 0x01	; 1
     2ba:	80 93 cd 01 	sts	0x01CD, r24	; 0x8001cd <playing>
C:\Users\mateu\Desktop\cdc_arduino_modified_v2/cdc_function.cpp:1376

  BIDIstate = StateInitPlay;
     2be:	82 e0       	ldi	r24, 0x02	; 2
     2c0:	80 93 c3 01 	sts	0x01C3, r24	; 0x8001c3 <BIDIstate>
C:\Users\mateu\Desktop\cdc_arduino_modified_v2/cdc_function.cpp:1378

  discload = 0xD1; //0xFF - 0x2E
     2c4:	81 ed       	ldi	r24, 0xD1	; 209
     2c6:	80 93 c0 01 	sts	0x01C0, r24	; 0x8001c0 <discload>
C:\Users\mateu\Desktop\cdc_arduino_modified_v2/cdc_function.cpp:1380

  BIDIcount = -24;
     2ca:	88 ee       	ldi	r24, 0xE8	; 232
     2cc:	80 93 c2 01 	sts	0x01C2, r24	; 0x8001c2 <BIDIcount>
C:\Users\mateu\Desktop\cdc_arduino_modified_v2/cdc_function.cpp:1382

}
     2d0:	08 95       	ret

000002d2 <EnqueueString(unsigned char const*)>:
_ZL13EnqueueStringPKh():
C:\Users\mateu\Desktop\cdc_arduino_modified_v2/cdc_function.cpp:1678

{

#ifndef JUST_HEX_TO_SERIAL

  txbuffer[txinptr] = addr;
     2d2:	20 91 bc 01 	lds	r18, 0x01BC	; 0x8001bc <txinptr>
     2d6:	e2 2f       	mov	r30, r18
     2d8:	f0 e0       	ldi	r31, 0x00	; 0
     2da:	ee 0f       	add	r30, r30
     2dc:	ff 1f       	adc	r31, r31
     2de:	e5 56       	subi	r30, 0x65	; 101
     2e0:	fe 4f       	sbci	r31, 0xFE	; 254
     2e2:	91 83       	std	Z+1, r25	; 0x01
     2e4:	80 83       	st	Z, r24
C:\Users\mateu\Desktop\cdc_arduino_modified_v2/cdc_function.cpp:1680

  txinptr++;
     2e6:	2f 5f       	subi	r18, 0xFF	; 255
C:\Users\mateu\Desktop\cdc_arduino_modified_v2/cdc_function.cpp:1682

  if (txinptr == TX_BUFFER_END)
     2e8:	2c 30       	cpi	r18, 0x0C	; 12
     2ea:	19 f0       	breq	.+6      	; 0x2f2 <EnqueueString(unsigned char const*)+0x20>
C:\Users\mateu\Desktop\cdc_arduino_modified_v2/cdc_function.cpp:1680

#ifndef JUST_HEX_TO_SERIAL

  txbuffer[txinptr] = addr;

  txinptr++;
     2ec:	20 93 bc 01 	sts	0x01BC, r18	; 0x8001bc <txinptr>
     2f0:	08 95       	ret
C:\Users\mateu\Desktop\cdc_arduino_modified_v2/cdc_function.cpp:1686

  if (txinptr == TX_BUFFER_END)

  {

    txinptr = 0;
     2f2:	10 92 bc 01 	sts	0x01BC, r1	; 0x8001bc <txinptr>
C:\Users\mateu\Desktop\cdc_arduino_modified_v2/cdc_function.cpp:1692

  }

#endif

}
     2f6:	08 95       	ret

000002f8 <EnqueueHex(unsigned char)>:
_ZL10EnqueueHexh():
C:\Users\mateu\Desktop\cdc_arduino_modified_v2/cdc_function.cpp:1708
*/
//-----------------------------------------------------------------------------

static void EnqueueHex(uint8_t hexbyte_u8)

{
     2f8:	cf 93       	push	r28
     2fa:	c8 2f       	mov	r28, r24
C:\Users\mateu\Desktop\cdc_arduino_modified_v2/cdc_function.cpp:1714

  uint8_t nibble_u8;



  nibble_u8 = hexbyte_u8 >> 4; // send high nibble first
     2fc:	86 95       	lsr	r24
     2fe:	86 95       	lsr	r24
     300:	86 95       	lsr	r24
C:\Users\mateu\Desktop\cdc_arduino_modified_v2/cdc_function.cpp:1716

  nibble_u8 <<= 1; // multiply high nibble by 2
     302:	8e 71       	andi	r24, 0x1E	; 30
C:\Users\mateu\Desktop\cdc_arduino_modified_v2/cdc_function.cpp:1718

  EnqueueString(&sHEX[nibble_u8]);
     304:	90 e0       	ldi	r25, 0x00	; 0
     306:	87 54       	subi	r24, 0x47	; 71
     308:	9f 4f       	sbci	r25, 0xFF	; 255
     30a:	0e 94 69 01 	call	0x2d2	; 0x2d2 <EnqueueString(unsigned char const*)>
C:\Users\mateu\Desktop\cdc_arduino_modified_v2/cdc_function.cpp:1724



  nibble_u8 = hexbyte_u8 & 0x0F; // prepare low nibble

  nibble_u8 <<= 1; // multiply low nibble by 2
     30e:	cc 0f       	add	r28, r28
     310:	ce 71       	andi	r28, 0x1E	; 30
C:\Users\mateu\Desktop\cdc_arduino_modified_v2/cdc_function.cpp:1726

  EnqueueString(&sHEX[nibble_u8]);
     312:	8c 2f       	mov	r24, r28
     314:	90 e0       	ldi	r25, 0x00	; 0
     316:	87 54       	subi	r24, 0x47	; 71
     318:	9f 4f       	sbci	r25, 0xFF	; 255
C:\Users\mateu\Desktop\cdc_arduino_modified_v2/cdc_function.cpp:1728

}
     31a:	cf 91       	pop	r28
C:\Users\mateu\Desktop\cdc_arduino_modified_v2/cdc_function.cpp:1726

  nibble_u8 = hexbyte_u8 & 0x0F; // prepare low nibble

  nibble_u8 <<= 1; // multiply low nibble by 2

  EnqueueString(&sHEX[nibble_u8]);
     31c:	0c 94 69 01 	jmp	0x2d2	; 0x2d2 <EnqueueString(unsigned char const*)>

00000320 <DumpFullCommand()>:
_ZL15DumpFullCommandv():
C:\Users\mateu\Desktop\cdc_arduino_modified_v2/cdc_function.cpp:1192

static void DumpFullCommand(void)

{

  fsr = scanptr; // restart back at the beginning of the packet
     320:	80 91 d4 01 	lds	r24, 0x01D4	; 0x8001d4 <scanptr>
     324:	80 93 d3 01 	sts	0x01D3, r24	; 0x8001d3 <fsr>
C:\Users\mateu\Desktop\cdc_arduino_modified_v2/cdc_function.cpp:1194

  if (GetCaptureByte() == TRUE) // send byte 1
     328:	0e 94 43 01 	call	0x286	; 0x286 <GetCaptureByte()>
     32c:	81 30       	cpi	r24, 0x01	; 1
     32e:	21 f4       	brne	.+8      	; 0x338 <DumpFullCommand()+0x18>
C:\Users\mateu\Desktop\cdc_arduino_modified_v2/cdc_function.cpp:1198

  {

    EnqueueHex(scanbyte);
     330:	80 91 d2 01 	lds	r24, 0x01D2	; 0x8001d2 <scanbyte>
     334:	0e 94 7c 01 	call	0x2f8	; 0x2f8 <EnqueueHex(unsigned char)>
C:\Users\mateu\Desktop\cdc_arduino_modified_v2/cdc_function.cpp:1202

  }

  if (GetCaptureByte() == TRUE) // send byte 2
     338:	0e 94 43 01 	call	0x286	; 0x286 <GetCaptureByte()>
     33c:	81 30       	cpi	r24, 0x01	; 1
     33e:	21 f4       	brne	.+8      	; 0x348 <DumpFullCommand()+0x28>
C:\Users\mateu\Desktop\cdc_arduino_modified_v2/cdc_function.cpp:1206

  {

    EnqueueHex(scanbyte);
     340:	80 91 d2 01 	lds	r24, 0x01D2	; 0x8001d2 <scanbyte>
     344:	0e 94 7c 01 	call	0x2f8	; 0x2f8 <EnqueueHex(unsigned char)>
C:\Users\mateu\Desktop\cdc_arduino_modified_v2/cdc_function.cpp:1210

  }

  if (GetCaptureByte() == TRUE) // send byte 3
     348:	0e 94 43 01 	call	0x286	; 0x286 <GetCaptureByte()>
     34c:	81 30       	cpi	r24, 0x01	; 1
     34e:	21 f4       	brne	.+8      	; 0x358 <DumpFullCommand()+0x38>
C:\Users\mateu\Desktop\cdc_arduino_modified_v2/cdc_function.cpp:1214

  {

    EnqueueHex(scanbyte);
     350:	80 91 d2 01 	lds	r24, 0x01D2	; 0x8001d2 <scanbyte>
     354:	0e 94 7c 01 	call	0x2f8	; 0x2f8 <EnqueueHex(unsigned char)>
C:\Users\mateu\Desktop\cdc_arduino_modified_v2/cdc_function.cpp:1218

  }

  if (GetCaptureByte() == TRUE) // send byte 4
     358:	0e 94 43 01 	call	0x286	; 0x286 <GetCaptureByte()>
     35c:	81 30       	cpi	r24, 0x01	; 1
     35e:	21 f4       	brne	.+8      	; 0x368 <DumpFullCommand()+0x48>
C:\Users\mateu\Desktop\cdc_arduino_modified_v2/cdc_function.cpp:1222

  {

    EnqueueHex(scanbyte);
     360:	80 91 d2 01 	lds	r24, 0x01D2	; 0x8001d2 <scanbyte>
     364:	0e 94 7c 01 	call	0x2f8	; 0x2f8 <EnqueueHex(unsigned char)>
C:\Users\mateu\Desktop\cdc_arduino_modified_v2/cdc_function.cpp:1226

  }

  EnqueueString(sNEWLINE);
     368:	8c eb       	ldi	r24, 0xBC	; 188
     36a:	90 e0       	ldi	r25, 0x00	; 0
     36c:	0e 94 69 01 	call	0x2d2	; 0x2d2 <EnqueueString(unsigned char const*)>
C:\Users\mateu\Desktop\cdc_arduino_modified_v2/cdc_function.cpp:1228

  scanptr = fsr; // save scanptr, won't look at this byte again
     370:	80 91 d3 01 	lds	r24, 0x01D3	; 0x8001d3 <fsr>
     374:	80 93 d4 01 	sts	0x01D4, r24	; 0x8001d4 <scanptr>
C:\Users\mateu\Desktop\cdc_arduino_modified_v2/cdc_function.cpp:1230

}
     378:	08 95       	ret

0000037a <ResetTime()>:
_ZL9ResetTimev():
C:\Users\mateu\Desktop\cdc_arduino_modified_v2/cdc_function.cpp:1746

static void ResetTime(void)

{

  secondcount = SECONDWAIT;
     37a:	8c ee       	ldi	r24, 0xEC	; 236
     37c:	80 93 be 01 	sts	0x01BE, r24	; 0x8001be <secondcount>
C:\Users\mateu\Desktop\cdc_arduino_modified_v2/cdc_function.cpp:1748

  second = 0;
     380:	10 92 d6 01 	sts	0x01D6, r1	; 0x8001d6 <second>
C:\Users\mateu\Desktop\cdc_arduino_modified_v2/cdc_function.cpp:1750

  minute = 0;
     384:	10 92 d7 01 	sts	0x01D7, r1	; 0x8001d7 <minute>
C:\Users\mateu\Desktop\cdc_arduino_modified_v2/cdc_function.cpp:1752

}
     388:	08 95       	ret

0000038a <SendByte(unsigned char)>:
_ZL8SendByteh():
C:\Users\mateu\Desktop\cdc_arduino_modified_v2/cdc_function.cpp:1643

  // 335us didn't work so good on late 2003 wolfsburg double din,

  // so we now wait 700us instead.

  display_byte_buffer_mau8[display_byte_counter_u8] = byte_u8;
     38a:	90 91 7f 01 	lds	r25, 0x017F	; 0x80017f <SendByte(unsigned char)::display_byte_counter_u8>
     38e:	e9 2f       	mov	r30, r25
     390:	f0 e0       	ldi	r31, 0x00	; 0
     392:	ed 54       	subi	r30, 0x4D	; 77
     394:	fe 4f       	sbci	r31, 0xFE	; 254
     396:	80 83       	st	Z, r24
C:\Users\mateu\Desktop\cdc_arduino_modified_v2/cdc_function.cpp:1645

  display_byte_counter_u8++;
     398:	9f 5f       	subi	r25, 0xFF	; 255
C:\Users\mateu\Desktop\cdc_arduino_modified_v2/cdc_function.cpp:1647

  if (display_byte_counter_u8 == 8)
     39a:	98 30       	cpi	r25, 0x08	; 8
     39c:	19 f0       	breq	.+6      	; 0x3a4 <SendByte(unsigned char)+0x1a>
C:\Users\mateu\Desktop\cdc_arduino_modified_v2/cdc_function.cpp:1645

  // so we now wait 700us instead.

  display_byte_buffer_mau8[display_byte_counter_u8] = byte_u8;

  display_byte_counter_u8++;
     39e:	90 93 7f 01 	sts	0x017F, r25	; 0x80017f <SendByte(unsigned char)::display_byte_counter_u8>
     3a2:	08 95       	ret
C:\Users\mateu\Desktop\cdc_arduino_modified_v2/cdc_function.cpp:1651

  if (display_byte_counter_u8 == 8)

  {

    display_byte_counter_u8 = 0;
     3a4:	10 92 7f 01 	sts	0x017F, r1	; 0x80017f <SendByte(unsigned char)::display_byte_counter_u8>
C:\Users\mateu\Desktop\cdc_arduino_modified_v2/cdc_function.cpp:1652
    TCCR2B |= _BV(CS22); // prescaler = 64 -> 1 timer clock tick is 4us long
     3a8:	80 91 b1 00 	lds	r24, 0x00B1	; 0x8000b1 <__TEXT_REGION_LENGTH__+0x7f80b1>
     3ac:	84 60       	ori	r24, 0x04	; 4
     3ae:	80 93 b1 00 	sts	0x00B1, r24	; 0x8000b1 <__TEXT_REGION_LENGTH__+0x7f80b1>
C:\Users\mateu\Desktop\cdc_arduino_modified_v2/cdc_function.cpp:1657
    //TIMSK2 |= _BV(OCIE2A); // enable output compare interrupt on timer2

  }

}
     3b2:	08 95       	ret

000003b4 <SendDisplayBytesInitCD()>:
_ZL22SendDisplayBytesInitCDv():
C:\Users\mateu\Desktop\cdc_arduino_modified_v2/cdc_function.cpp:1567

static void SendDisplayBytesInitCD(void)

{

  SendByte(0x99); // number of tracks total (99)?
     3b4:	89 e9       	ldi	r24, 0x99	; 153
     3b6:	0e 94 c5 01 	call	0x38a	; 0x38a <SendByte(unsigned char)>
C:\Users\mateu\Desktop\cdc_arduino_modified_v2/cdc_function.cpp:1569

  SendByte(0x99); // total minutes?
     3ba:	89 e9       	ldi	r24, 0x99	; 153
     3bc:	0e 94 c5 01 	call	0x38a	; 0x38a <SendByte(unsigned char)>
C:\Users\mateu\Desktop\cdc_arduino_modified_v2/cdc_function.cpp:1571

  SendByte(0x59); // total seconds?
     3c0:	89 e5       	ldi	r24, 0x59	; 89
     3c2:	0e 94 c5 01 	call	0x38a	; 0x38a <SendByte(unsigned char)>
C:\Users\mateu\Desktop\cdc_arduino_modified_v2/cdc_function.cpp:1573

  SendByte(0x49);//0xFF - 0xB7 = 48, 53, 31, 25, and 37 seen from real CDC,
     3c6:	89 e4       	ldi	r24, 0x49	; 73
     3c8:	0c 94 c5 01 	jmp	0x38a	; 0x38a <SendByte(unsigned char)>

000003cc <SendDisplayBytes()>:
_ZL16SendDisplayBytesv():
C:\Users\mateu\Desktop\cdc_arduino_modified_v2/cdc_function.cpp:1486

static void SendDisplayBytes(void)

{

  SendByte(disc); // disc display value
     3cc:	80 91 07 01 	lds	r24, 0x0107	; 0x800107 <disc>
     3d0:	0e 94 c5 01 	call	0x38a	; 0x38a <SendByte(unsigned char)>
SendDisplayBytesNoCD():
C:\Users\mateu\Desktop\cdc_arduino_modified_v2/cdc_function.cpp:1511

  uint8_t send_byte_u8 = 0;



  SendByte(track);
     3d4:	80 91 06 01 	lds	r24, 0x0106	; 0x800106 <track>
     3d8:	0e 94 c5 01 	call	0x38a	; 0x38a <SendByte(unsigned char)>
C:\Users\mateu\Desktop\cdc_arduino_modified_v2/cdc_function.cpp:1513

  SendByte(minute);
     3dc:	80 91 d7 01 	lds	r24, 0x01D7	; 0x8001d7 <minute>
     3e0:	0e 94 c5 01 	call	0x38a	; 0x38a <SendByte(unsigned char)>
C:\Users\mateu\Desktop\cdc_arduino_modified_v2/cdc_function.cpp:1515

  SendByte(second);
     3e4:	80 91 d6 01 	lds	r24, 0x01D6	; 0x8001d6 <second>
     3e8:	0e 94 c5 01 	call	0x38a	; 0x38a <SendByte(unsigned char)>
C:\Users\mateu\Desktop\cdc_arduino_modified_v2/cdc_function.cpp:1529

  // 00 - scan off, mix off



  if (mix == TRUE) // mode (scan/mix)
     3ec:	80 91 cf 01 	lds	r24, 0x01CF	; 0x8001cf <mix>
     3f0:	81 30       	cpi	r24, 0x01	; 1
     3f2:	41 f4       	brne	.+16     	; 0x404 <__EEPROM_REGION_LENGTH__+0x4>
C:\Users\mateu\Desktop\cdc_arduino_modified_v2/cdc_function.cpp:1533

  {

    send_byte_u8 |= 0x20; // turn on mix light
     3f4:	80 e2       	ldi	r24, 0x20	; 32
C:\Users\mateu\Desktop\cdc_arduino_modified_v2/cdc_function.cpp:1537

  }

  if (scan == TRUE)
     3f6:	90 91 ce 01 	lds	r25, 0x01CE	; 0x8001ce <scan>
     3fa:	91 30       	cpi	r25, 0x01	; 1
     3fc:	09 f4       	brne	.+2      	; 0x400 <__EEPROM_REGION_LENGTH__>
C:\Users\mateu\Desktop\cdc_arduino_modified_v2/cdc_function.cpp:1541

  {

    send_byte_u8 |= 0x10; // turn on scan display //this probably cose mute for few microsec.
     3fe:	80 61       	ori	r24, 0x10	; 16
C:\Users\mateu\Desktop\cdc_arduino_modified_v2/cdc_function.cpp:1545

  }

  SendByte(send_byte_u8);
     400:	0c 94 c5 01 	jmp	0x38a	; 0x38a <SendByte(unsigned char)>
C:\Users\mateu\Desktop\cdc_arduino_modified_v2/cdc_function.cpp:1507

static void SendDisplayBytesNoCD(void)

{

  uint8_t send_byte_u8 = 0;
     404:	80 e0       	ldi	r24, 0x00	; 0
     406:	f7 cf       	rjmp	.-18     	; 0x3f6 <SendDisplayBytes()+0x2a>

00000408 <SendFrameByte(unsigned char)>:
_ZL13SendFrameByteh():
C:\Users\mateu\Desktop\cdc_arduino_modified_v2/cdc_function.cpp:1597

static void SendFrameByte(uint8_t byte_u8)

{

  if (ACKcount == 0)
     408:	90 91 c1 01 	lds	r25, 0x01C1	; 0x8001c1 <ACKcount>
     40c:	91 11       	cpse	r25, r1
     40e:	02 c0       	rjmp	.+4      	; 0x414 <SendFrameByte(unsigned char)+0xc>
C:\Users\mateu\Desktop\cdc_arduino_modified_v2/cdc_function.cpp:1613

    byte_u8 |= 0x20; // flag acknowledgement

    ACKcount++;

    SendByte(byte_u8);
     410:	0c 94 c5 01 	jmp	0x38a	; 0x38a <SendByte(unsigned char)>
C:\Users\mateu\Desktop\cdc_arduino_modified_v2/cdc_function.cpp:1611

  {

    byte_u8 |= 0x20; // flag acknowledgement

    ACKcount++;
     414:	9f 5f       	subi	r25, 0xFF	; 255
     416:	90 93 c1 01 	sts	0x01C1, r25	; 0x8001c1 <ACKcount>
C:\Users\mateu\Desktop\cdc_arduino_modified_v2/cdc_function.cpp:1613

    SendByte(byte_u8);
     41a:	80 62       	ori	r24, 0x20	; 32
     41c:	f9 cf       	rjmp	.-14     	; 0x410 <SendFrameByte(unsigned char)+0x8>

0000041e <SendStateInitPlayEnd()>:
_ZL20SendStateInitPlayEndv():
C:\Users\mateu\Desktop\cdc_arduino_modified_v2/cdc_function.cpp:1837

static void SendStateInitPlayEnd(void)

{

  SendFrameByte(0xC3);//FF - 0x3C
     41e:	83 ec       	ldi	r24, 0xC3	; 195
     420:	0e 94 04 02 	call	0x408	; 0x408 <SendFrameByte(unsigned char)>
C:\Users\mateu\Desktop\cdc_arduino_modified_v2/cdc_function.cpp:1839

  BIDIcount++;
     424:	80 91 c2 01 	lds	r24, 0x01C2	; 0x8001c2 <BIDIcount>
     428:	8f 5f       	subi	r24, 0xFF	; 255
     42a:	80 93 c2 01 	sts	0x01C2, r24	; 0x8001c2 <BIDIcount>
C:\Users\mateu\Desktop\cdc_arduino_modified_v2/cdc_function.cpp:1841

  if (BIDIcount == 0)
     42e:	81 11       	cpse	r24, r1
     430:	09 c0       	rjmp	.+18     	; 0x444 <SendStateInitPlayEnd()+0x26>
SetStatePlayLeadIn():
C:\Users\mateu\Desktop\cdc_arduino_modified_v2/cdc_function.cpp:1408

static void SetStatePlayLeadIn(void)

{

  playing = TRUE;
     432:	81 e0       	ldi	r24, 0x01	; 1
     434:	80 93 cd 01 	sts	0x01CD, r24	; 0x8001cd <playing>
C:\Users\mateu\Desktop\cdc_arduino_modified_v2/cdc_function.cpp:1410

  BIDIstate = StatePlayLeadIn;
     438:	85 e0       	ldi	r24, 0x05	; 5
     43a:	80 93 c3 01 	sts	0x01C3, r24	; 0x8001c3 <BIDIstate>
C:\Users\mateu\Desktop\cdc_arduino_modified_v2/cdc_function.cpp:1412

  BIDIcount = -10;
     43e:	86 ef       	ldi	r24, 0xF6	; 246
     440:	80 93 c2 01 	sts	0x01C2, r24	; 0x8001c2 <BIDIcount>
_ZL20SendStateInitPlayEndv():
C:\Users\mateu\Desktop\cdc_arduino_modified_v2/cdc_function.cpp:1849

    SetStatePlayLeadIn();

  }

}
     444:	08 95       	ret

00000446 <SendStateIdle()>:
_ZL13SendStateIdlev():
C:\Users\mateu\Desktop\cdc_arduino_modified_v2/cdc_function.cpp:1770

static void SendStateIdle(void)

{

  secondcount = SECONDWAIT; // stop display from ticking time
     446:	8c ee       	ldi	r24, 0xEC	; 236
     448:	80 93 be 01 	sts	0x01BE, r24	; 0x8001be <secondcount>
C:\Users\mateu\Desktop\cdc_arduino_modified_v2/cdc_function.cpp:1772

  SendFrameByte(0x8B);//FF - 0x74
     44c:	8b e8       	ldi	r24, 0x8B	; 139
     44e:	0e 94 04 02 	call	0x408	; 0x408 <SendFrameByte(unsigned char)>
C:\Users\mateu\Desktop\cdc_arduino_modified_v2/cdc_function.cpp:1774

  SendDisplayBytes();
     452:	0e 94 e6 01 	call	0x3cc	; 0x3cc <SendDisplayBytes()>
C:\Users\mateu\Desktop\cdc_arduino_modified_v2/cdc_function.cpp:1776

  SendByte(0x70);//FF - 0x8F, mutes audio on Monsoon head units
     456:	80 e7       	ldi	r24, 0x70	; 112
     458:	0e 94 c5 01 	call	0x38a	; 0x38a <SendByte(unsigned char)>
C:\Users\mateu\Desktop\cdc_arduino_modified_v2/cdc_function.cpp:1778

  SendFrameByte(0x83);//FF - 0x7C
     45c:	83 e8       	ldi	r24, 0x83	; 131
     45e:	0c 94 04 02 	jmp	0x408	; 0x408 <SendFrameByte(unsigned char)>

00000462 <SendStateInitPlayAnnounceCD()>:
_ZL27SendStateInitPlayAnnounceCDv():
C:\Users\mateu\Desktop\cdc_arduino_modified_v2/cdc_function.cpp:1877

  // 0x86..0x80: Slot Empty (made up)

  // 0xD6..0xD0: AUDIO CD Loaded. (seen on changer)

  SendByte(discload);
     462:	80 91 c0 01 	lds	r24, 0x01C0	; 0x8001c0 <discload>
     466:	0e 94 c5 01 	call	0x38a	; 0x38a <SendByte(unsigned char)>
C:\Users\mateu\Desktop\cdc_arduino_modified_v2/cdc_function.cpp:1879

  if (discload == 0xD6)
     46a:	80 91 c0 01 	lds	r24, 0x01C0	; 0x8001c0 <discload>
     46e:	86 3d       	cpi	r24, 0xD6	; 214
     470:	51 f4       	brne	.+20     	; 0x486 <SendStateInitPlayAnnounceCD()+0x24>
C:\Users\mateu\Desktop\cdc_arduino_modified_v2/cdc_function.cpp:1883

  {

    discload = 0xD1;
     472:	81 ed       	ldi	r24, 0xD1	; 209
C:\Users\mateu\Desktop\cdc_arduino_modified_v2/cdc_function.cpp:1891

  else

  {

    discload++;
     474:	80 93 c0 01 	sts	0x01C0, r24	; 0x8001c0 <discload>
C:\Users\mateu\Desktop\cdc_arduino_modified_v2/cdc_function.cpp:1895

  }

  SendDisplayBytesInitCD();
     478:	0e 94 da 01 	call	0x3b4	; 0x3b4 <SendDisplayBytesInitCD()>
C:\Users\mateu\Desktop\cdc_arduino_modified_v2/cdc_function.cpp:1897

  SendByte(0x00);//0xFF - 0xFF
     47c:	80 e0       	ldi	r24, 0x00	; 0
     47e:	0e 94 c5 01 	call	0x38a	; 0x38a <SendByte(unsigned char)>
C:\Users\mateu\Desktop\cdc_arduino_modified_v2/cdc_function.cpp:1899

  SendStateInitPlayEnd();
     482:	0c 94 0f 02 	jmp	0x41e	; 0x41e <SendStateInitPlayEnd()>
C:\Users\mateu\Desktop\cdc_arduino_modified_v2/cdc_function.cpp:1891

  else

  {

    discload++;
     486:	8f 5f       	subi	r24, 0xFF	; 255
     488:	f5 cf       	rjmp	.-22     	; 0x474 <SendStateInitPlayAnnounceCD()+0x12>

0000048a <SendStatePlayLeadInEnd()>:
_ZL22SendStatePlayLeadInEndv():
C:\Users\mateu\Desktop\cdc_arduino_modified_v2/cdc_function.cpp:1807

static void SendStatePlayLeadInEnd(void)

{

  SendFrameByte(0xC3);//FF - 0x3C
     48a:	83 ec       	ldi	r24, 0xC3	; 195
     48c:	0e 94 04 02 	call	0x408	; 0x408 <SendFrameByte(unsigned char)>
C:\Users\mateu\Desktop\cdc_arduino_modified_v2/cdc_function.cpp:1809

  BIDIcount++;
     490:	80 91 c2 01 	lds	r24, 0x01C2	; 0x8001c2 <BIDIcount>
     494:	8f 5f       	subi	r24, 0xFF	; 255
     496:	80 93 c2 01 	sts	0x01C2, r24	; 0x8001c2 <BIDIcount>
C:\Users\mateu\Desktop\cdc_arduino_modified_v2/cdc_function.cpp:1811

  if (BIDIcount == 0)
     49a:	81 11       	cpse	r24, r1
     49c:	06 c0       	rjmp	.+12     	; 0x4aa <SendStatePlayLeadInEnd()+0x20>
SetStatePlay():
C:\Users\mateu\Desktop\cdc_arduino_modified_v2/cdc_function.cpp:1352

static void SetStatePlay(void)

{

  playing = TRUE;
     49e:	81 e0       	ldi	r24, 0x01	; 1
     4a0:	80 93 cd 01 	sts	0x01CD, r24	; 0x8001cd <playing>
C:\Users\mateu\Desktop\cdc_arduino_modified_v2/cdc_function.cpp:1354

  BIDIstate = StatePlay;
     4a4:	89 e0       	ldi	r24, 0x09	; 9
     4a6:	80 93 c3 01 	sts	0x01C3, r24	; 0x8001c3 <BIDIstate>
_ZL22SendStatePlayLeadInEndv():
C:\Users\mateu\Desktop\cdc_arduino_modified_v2/cdc_function.cpp:1819

    SetStatePlay();

  }

}
     4aa:	08 95       	ret

000004ac <SendStatePlayLeadInAnnounceCD()>:
_ZL29SendStatePlayLeadInAnnounceCDv():
C:\Users\mateu\Desktop\cdc_arduino_modified_v2/cdc_function.cpp:1919

static void SendStatePlayLeadInAnnounceCD(void)

{

  SendByte((disc & 0x0F) | 0xD0);
     4ac:	80 91 07 01 	lds	r24, 0x0107	; 0x800107 <disc>
     4b0:	8f 70       	andi	r24, 0x0F	; 15
     4b2:	80 6d       	ori	r24, 0xD0	; 208
     4b4:	0e 94 c5 01 	call	0x38a	; 0x38a <SendByte(unsigned char)>
C:\Users\mateu\Desktop\cdc_arduino_modified_v2/cdc_function.cpp:1921

  SendDisplayBytesInitCD();
     4b8:	0e 94 da 01 	call	0x3b4	; 0x3b4 <SendDisplayBytesInitCD()>
C:\Users\mateu\Desktop\cdc_arduino_modified_v2/cdc_function.cpp:1923

  SendByte(0x00);//0xFF - 0xFF
     4bc:	80 e0       	ldi	r24, 0x00	; 0
     4be:	0e 94 c5 01 	call	0x38a	; 0x38a <SendByte(unsigned char)>
C:\Users\mateu\Desktop\cdc_arduino_modified_v2/cdc_function.cpp:1925

  SendStatePlayLeadInEnd();
     4c2:	0c 94 45 02 	jmp	0x48a	; 0x48a <SendStatePlayLeadInEnd()>

000004c6 <SendPacket()>:
_ZL10SendPacketv():
C:\Users\mateu\Desktop\cdc_arduino_modified_v2/cdc_function.cpp:1945

static void SendPacket(void)

{

  switch (BIDIstate) {
     4c6:	e0 91 c3 01 	lds	r30, 0x01C3	; 0x8001c3 <BIDIstate>
     4ca:	eb 30       	cpi	r30, 0x0B	; 11
     4cc:	08 f0       	brcs	.+2      	; 0x4d0 <SendPacket()+0xa>
     4ce:	73 c0       	rjmp	.+230    	; 0x5b6 <SendPacket()+0xf0>
     4d0:	f0 e0       	ldi	r31, 0x00	; 0
     4d2:	e3 59       	subi	r30, 0x93	; 147
     4d4:	fd 4f       	sbci	r31, 0xFD	; 253
     4d6:	0c 94 ea 0c 	jmp	0x19d4	; 0x19d4 <__tablejump2__>
     4da:	8f 02       	muls	r24, r31
     4dc:	86 02       	muls	r24, r22
     4de:	91 02       	muls	r25, r17
     4e0:	a1 02       	muls	r26, r17
     4e2:	9a 02       	muls	r25, r26
     4e4:	a3 02       	muls	r26, r19
     4e6:	b3 02       	muls	r27, r19
     4e8:	ac 02       	muls	r26, r28
     4ea:	b5 02       	muls	r27, r21
     4ec:	d1 02       	muls	r29, r17
     4ee:	78 02       	muls	r23, r24
SendStateTP():
C:\Users\mateu\Desktop\cdc_arduino_modified_v2/cdc_function.cpp:1784

}

static void SendStateTP(void)
{ //B4 BE EF FE DB FF DF BC
  secondcount = SECONDWAIT; // stop display from ticking time
     4f0:	8c ee       	ldi	r24, 0xEC	; 236
     4f2:	80 93 be 01 	sts	0x01BE, r24	; 0x8001be <secondcount>
C:\Users\mateu\Desktop\cdc_arduino_modified_v2/cdc_function.cpp:1785
  SendFrameByte(0x4B);//FF - 0x4b
     4f6:	8b e4       	ldi	r24, 0x4B	; 75
     4f8:	0e 94 04 02 	call	0x408	; 0x408 <SendFrameByte(unsigned char)>
C:\Users\mateu\Desktop\cdc_arduino_modified_v2/cdc_function.cpp:1786
  SendDisplayBytes();
     4fc:	0e 94 e6 01 	call	0x3cc	; 0x3cc <SendDisplayBytes()>
C:\Users\mateu\Desktop\cdc_arduino_modified_v2/cdc_function.cpp:1787
  SendByte(0x20);
     500:	80 e2       	ldi	r24, 0x20	; 32
     502:	0e 94 c5 01 	call	0x38a	; 0x38a <SendByte(unsigned char)>
C:\Users\mateu\Desktop\cdc_arduino_modified_v2/cdc_function.cpp:1788
  SendFrameByte(0x43);//FF - 0x7C
     506:	83 e4       	ldi	r24, 0x43	; 67
_ZL10SendPacketv():
C:\Users\mateu\Desktop\cdc_arduino_modified_v2/cdc_function.cpp:2049

    case StatePlay:
      SendFrameByte(0xCB);//0xFF - 0x34
      SendDisplayBytes();
      SendByte(0x30);//0xFF - 0xCF
      SendFrameByte(0xC3);//FF - 0x3C
     508:	0c 94 04 02 	jmp	0x408	; 0x408 <SendFrameByte(unsigned char)>
C:\Users\mateu\Desktop\cdc_arduino_modified_v2/cdc_function.cpp:1955
    case StateIdle:
      SendStateIdle();
      break;

    case StateIdleThenPlay:
      BIDIcount++;
     50c:	80 91 c2 01 	lds	r24, 0x01C2	; 0x8001c2 <BIDIcount>
     510:	8f 5f       	subi	r24, 0xFF	; 255
     512:	80 93 c2 01 	sts	0x01C2, r24	; 0x8001c2 <BIDIcount>
C:\Users\mateu\Desktop\cdc_arduino_modified_v2/cdc_function.cpp:1957

      if (BIDIcount == 0)
     516:	81 11       	cpse	r24, r1
     518:	02 c0       	rjmp	.+4      	; 0x51e <SendPacket()+0x58>
C:\Users\mateu\Desktop\cdc_arduino_modified_v2/cdc_function.cpp:1959
      {
        SetStateInitPlay();
     51a:	0e 94 5c 01 	call	0x2b8	; 0x2b8 <SetStateInitPlay()>
C:\Users\mateu\Desktop\cdc_arduino_modified_v2/cdc_function.cpp:1960
        SendStateIdle();
     51e:	0c 94 23 02 	jmp	0x446	; 0x446 <SendStateIdle()>
C:\Users\mateu\Desktop\cdc_arduino_modified_v2/cdc_function.cpp:1982
    // 34 BE FE FF FF FF EF 3C
    // 34 69 00 FF FF FF FF 3C
    // 34 BE FE FF FF FF EF 3C

    case StateInitPlay:
      secondcount = SECONDWAIT; // stop display from ticking time
     522:	8c ee       	ldi	r24, 0xEC	; 236
     524:	80 93 be 01 	sts	0x01BE, r24	; 0x8001be <secondcount>
C:\Users\mateu\Desktop\cdc_arduino_modified_v2/cdc_function.cpp:1983
      SendFrameByte(0xCB);//0xFF - 0x34
     528:	8b ec       	ldi	r24, 0xCB	; 203
     52a:	0e 94 04 02 	call	0x408	; 0x408 <SendFrameByte(unsigned char)>
C:\Users\mateu\Desktop\cdc_arduino_modified_v2/cdc_function.cpp:1985

      if ((BIDIcount & 0x01) == 0)
     52e:	80 91 c2 01 	lds	r24, 0x01C2	; 0x8001c2 <BIDIcount>
     532:	80 ff       	sbrs	r24, 0
C:\Users\mateu\Desktop\cdc_arduino_modified_v2/cdc_function.cpp:1998
    case StateInitPlayEnd:
      SendStateInitPlayEnd();
      break;

    case StateInitPlayAnnounceCD:
      SendStateInitPlayAnnounceCD();
     534:	0c 94 31 02 	jmp	0x462	; 0x462 <SendStateInitPlayAnnounceCD()>
C:\Users\mateu\Desktop\cdc_arduino_modified_v2/cdc_function.cpp:1990
      if ((BIDIcount & 0x01) == 0)
      {
        SendStateInitPlayAnnounceCD();
        break;
      }
      SendDisplayBytes();
     538:	0e 94 e6 01 	call	0x3cc	; 0x3cc <SendDisplayBytes()>
C:\Users\mateu\Desktop\cdc_arduino_modified_v2/cdc_function.cpp:1991
      SendByte(0x10);//0xFF - 0xEF
     53c:	80 e1       	ldi	r24, 0x10	; 16
     53e:	0e 94 c5 01 	call	0x38a	; 0x38a <SendByte(unsigned char)>
C:\Users\mateu\Desktop\cdc_arduino_modified_v2/cdc_function.cpp:1994

    case StateInitPlayEnd:
      SendStateInitPlayEnd();
     542:	0c 94 0f 02 	jmp	0x41e	; 0x41e <SendStateInitPlayEnd()>
C:\Users\mateu\Desktop\cdc_arduino_modified_v2/cdc_function.cpp:2011
      // 34 BE FE FF FF FF AE 3C
      // 34 2E ED DE AF B7 FF 3C
      // 34 BE FE FF FF FF AE 3C
      // 34 2E ED DE AF B7 FF 3C
      // 34 BE FE FF FF FF AE 3C
      secondcount = SECONDWAIT; // stop display from ticking time
     546:	8c ee       	ldi	r24, 0xEC	; 236
     548:	80 93 be 01 	sts	0x01BE, r24	; 0x8001be <secondcount>
C:\Users\mateu\Desktop\cdc_arduino_modified_v2/cdc_function.cpp:2012
      SendFrameByte(0xCB);//0xFF - 0x34
     54c:	8b ec       	ldi	r24, 0xCB	; 203
     54e:	0e 94 04 02 	call	0x408	; 0x408 <SendFrameByte(unsigned char)>
C:\Users\mateu\Desktop\cdc_arduino_modified_v2/cdc_function.cpp:2014

      if ((BIDIcount & 0x01) == 0)
     552:	80 91 c2 01 	lds	r24, 0x01C2	; 0x8001c2 <BIDIcount>
     556:	80 ff       	sbrs	r24, 0
C:\Users\mateu\Desktop\cdc_arduino_modified_v2/cdc_function.cpp:2028
    case StatePlayLeadInEnd:
      SendStatePlayLeadInEnd();
      break;

    case StatePlayLeadInAnnounceCD:
      SendStatePlayLeadInAnnounceCD();
     558:	0c 94 56 02 	jmp	0x4ac	; 0x4ac <SendStatePlayLeadInAnnounceCD()>
C:\Users\mateu\Desktop\cdc_arduino_modified_v2/cdc_function.cpp:2020
      {
        SendStatePlayLeadInAnnounceCD();
        break;
      }

      SendDisplayBytes();
     55c:	0e 94 e6 01 	call	0x3cc	; 0x3cc <SendDisplayBytes()>
C:\Users\mateu\Desktop\cdc_arduino_modified_v2/cdc_function.cpp:2021
      SendByte(0x51);//0xFF - 0xAE
     560:	81 e5       	ldi	r24, 0x51	; 81
     562:	0e 94 c5 01 	call	0x38a	; 0x38a <SendByte(unsigned char)>
C:\Users\mateu\Desktop\cdc_arduino_modified_v2/cdc_function.cpp:2024

    case StatePlayLeadInEnd:
      SendStatePlayLeadInEnd();
     566:	0c 94 45 02 	jmp	0x48a	; 0x48a <SendStatePlayLeadInEnd()>
C:\Users\mateu\Desktop\cdc_arduino_modified_v2/cdc_function.cpp:2032
    case StatePlayLeadInAnnounceCD:
      SendStatePlayLeadInAnnounceCD();
      break;

    case StateTrackLeadIn:
      secondcount = SECONDWAIT; // stop display from ticking time
     56a:	8c ee       	ldi	r24, 0xEC	; 236
     56c:	80 93 be 01 	sts	0x01BE, r24	; 0x8001be <secondcount>
C:\Users\mateu\Desktop\cdc_arduino_modified_v2/cdc_function.cpp:2033
      SendFrameByte(0xCB);//0xFF - 0x34
     570:	8b ec       	ldi	r24, 0xCB	; 203
     572:	0e 94 04 02 	call	0x408	; 0x408 <SendFrameByte(unsigned char)>
C:\Users\mateu\Desktop\cdc_arduino_modified_v2/cdc_function.cpp:2034
      SendDisplayBytes();
     576:	0e 94 e6 01 	call	0x3cc	; 0x3cc <SendDisplayBytes()>
C:\Users\mateu\Desktop\cdc_arduino_modified_v2/cdc_function.cpp:2035
      SendByte(0x51);//0xFF - 0xAE
     57a:	81 e5       	ldi	r24, 0x51	; 81
     57c:	0e 94 c5 01 	call	0x38a	; 0x38a <SendByte(unsigned char)>
C:\Users\mateu\Desktop\cdc_arduino_modified_v2/cdc_function.cpp:2036
      SendFrameByte(0xC3);//0xFF - 0x3C
     580:	83 ec       	ldi	r24, 0xC3	; 195
     582:	0e 94 04 02 	call	0x408	; 0x408 <SendFrameByte(unsigned char)>
C:\Users\mateu\Desktop\cdc_arduino_modified_v2/cdc_function.cpp:2037
      BIDIcount++;
     586:	80 91 c2 01 	lds	r24, 0x01C2	; 0x8001c2 <BIDIcount>
     58a:	8f 5f       	subi	r24, 0xFF	; 255
     58c:	80 93 c2 01 	sts	0x01C2, r24	; 0x8001c2 <BIDIcount>
C:\Users\mateu\Desktop\cdc_arduino_modified_v2/cdc_function.cpp:2038
      if (BIDIcount == 0)
     590:	88 23       	and	r24, r24
     592:	89 f0       	breq	.+34     	; 0x5b6 <SendPacket()+0xf0>
SetStatePlay():
C:\Users\mateu\Desktop\cdc_arduino_modified_v2/cdc_function.cpp:1352

static void SetStatePlay(void)

{

  playing = TRUE;
     594:	81 e0       	ldi	r24, 0x01	; 1
     596:	80 93 cd 01 	sts	0x01CD, r24	; 0x8001cd <playing>
C:\Users\mateu\Desktop\cdc_arduino_modified_v2/cdc_function.cpp:1354

  BIDIstate = StatePlay;
     59a:	89 e0       	ldi	r24, 0x09	; 9
     59c:	80 93 c3 01 	sts	0x01C3, r24	; 0x8001c3 <BIDIstate>
     5a0:	08 95       	ret
_ZL10SendPacketv():
C:\Users\mateu\Desktop\cdc_arduino_modified_v2/cdc_function.cpp:2046
      }
      SetStatePlay();
      break;

    case StatePlay:
      SendFrameByte(0xCB);//0xFF - 0x34
     5a2:	8b ec       	ldi	r24, 0xCB	; 203
     5a4:	0e 94 04 02 	call	0x408	; 0x408 <SendFrameByte(unsigned char)>
C:\Users\mateu\Desktop\cdc_arduino_modified_v2/cdc_function.cpp:2047
      SendDisplayBytes();
     5a8:	0e 94 e6 01 	call	0x3cc	; 0x3cc <SendDisplayBytes()>
C:\Users\mateu\Desktop\cdc_arduino_modified_v2/cdc_function.cpp:2048
      SendByte(0x30);//0xFF - 0xCF
     5ac:	80 e3       	ldi	r24, 0x30	; 48
     5ae:	0e 94 c5 01 	call	0x38a	; 0x38a <SendByte(unsigned char)>
C:\Users\mateu\Desktop\cdc_arduino_modified_v2/cdc_function.cpp:2049
      SendFrameByte(0xC3);//FF - 0x3C
     5b2:	83 ec       	ldi	r24, 0xC3	; 195
     5b4:	a9 cf       	rjmp	.-174    	; 0x508 <SendPacket()+0x42>
C:\Users\mateu\Desktop\cdc_arduino_modified_v2/cdc_function.cpp:2054
      break;
    default:
      break;
  }
}
     5b6:	08 95       	ret

000005b8 <Init_VWCDC()>:
_Z10Init_VWCDCv():
C:\Users\mateu\Desktop\cdc_arduino_modified_v2/cdc_function.cpp:201
  \return     void
*/
//-----------------------------------------------------------------------------

void Init_VWCDC(void)
{
     5b8:	cf 93       	push	r28
     5ba:	df 93       	push	r29
C:\Users\mateu\Desktop\cdc_arduino_modified_v2/cdc_function.cpp:202
  Serial.println("Initialization");
     5bc:	6f e0       	ldi	r22, 0x0F	; 15
     5be:	71 e0       	ldi	r23, 0x01	; 1
     5c0:	8d e1       	ldi	r24, 0x1D	; 29
     5c2:	92 e0       	ldi	r25, 0x02	; 2
     5c4:	0e 94 1f 0b 	call	0x163e	; 0x163e <Print::println(char const*)>
C:\Users\mateu\Desktop\cdc_arduino_modified_v2/cdc_function.cpp:203
  cli();  
     5c8:	f8 94       	cli
C:\Users\mateu\Desktop\cdc_arduino_modified_v2/cdc_function.cpp:206
  

  TIMSK0 = 0x00; //on arduino timer0 is used for millis(), we change prescaler, but also need to disable overflow interrupt
     5ca:	ce e6       	ldi	r28, 0x6E	; 110
     5cc:	d0 e0       	ldi	r29, 0x00	; 0
     5ce:	18 82       	st	Y, r1
C:\Users\mateu\Desktop\cdc_arduino_modified_v2/cdc_function.cpp:207
  RADIO_CLOCK_DDR |= _BV(RADIO_CLOCK);
     5d0:	25 9a       	sbi	0x04, 5	; 4
C:\Users\mateu\Desktop\cdc_arduino_modified_v2/cdc_function.cpp:208
  RADIO_DATA_DDR  |= _BV(RADIO_DATA);
     5d2:	23 9a       	sbi	0x04, 3	; 4
C:\Users\mateu\Desktop\cdc_arduino_modified_v2/cdc_function.cpp:209
  RADIO_COMMAND_DDR &= ~_BV(RADIO_COMMAND); // input capture as input
     5d4:	20 98       	cbi	0x04, 0	; 4
C:\Users\mateu\Desktop\cdc_arduino_modified_v2/cdc_function.cpp:210
  RADIO_COMMAND_PORT |= _BV(RADIO_COMMAND); // enable pull up
     5d6:	28 9a       	sbi	0x05, 0	; 5
C:\Users\mateu\Desktop\cdc_arduino_modified_v2/cdc_function.cpp:214

  //Timer1 init
  //Used for timing the incoming commands from headunit
  TCCR1A = 0x00; // Normal port operation, OC1A/OC1B/OC1C disconnected
     5d8:	10 92 80 00 	sts	0x0080, r1	; 0x800080 <__TEXT_REGION_LENGTH__+0x7f8080>
C:\Users\mateu\Desktop\cdc_arduino_modified_v2/cdc_function.cpp:215
  TCCR1B = _BV(ICNC1); // noise canceler, int on falling edge
     5dc:	e1 e8       	ldi	r30, 0x81	; 129
     5de:	f0 e0       	ldi	r31, 0x00	; 0
     5e0:	80 e8       	ldi	r24, 0x80	; 128
     5e2:	80 83       	st	Z, r24
C:\Users\mateu\Desktop\cdc_arduino_modified_v2/cdc_function.cpp:216
  TCCR1B |= _BV(CS11); // prescaler = 8 -> 1 timer clock tick is 0.5µs long
     5e4:	80 81       	ld	r24, Z
     5e6:	82 60       	ori	r24, 0x02	; 2
     5e8:	80 83       	st	Z, r24
C:\Users\mateu\Desktop\cdc_arduino_modified_v2/cdc_function.cpp:217
  TIFR1 |= _BV(ICF1); // clear pending interrupt
     5ea:	b5 9a       	sbi	0x16, 5	; 22
C:\Users\mateu\Desktop\cdc_arduino_modified_v2/cdc_function.cpp:218
  TIMSK1 |= _BV(ICIE1); // enable input capture interrupt on timer1
     5ec:	ef e6       	ldi	r30, 0x6F	; 111
     5ee:	f0 e0       	ldi	r31, 0x00	; 0
     5f0:	80 81       	ld	r24, Z
     5f2:	80 62       	ori	r24, 0x20	; 32
     5f4:	80 83       	st	Z, r24
C:\Users\mateu\Desktop\cdc_arduino_modified_v2/cdc_function.cpp:222

  //Timer 2 Init
  //Timer 2 used to time the intervals between package bytes
  OCR2A = 175; // 4µs x 175 = 700µs
     5f6:	8f ea       	ldi	r24, 0xAF	; 175
     5f8:	80 93 b3 00 	sts	0x00B3, r24	; 0x8000b3 <__TEXT_REGION_LENGTH__+0x7f80b3>
C:\Users\mateu\Desktop\cdc_arduino_modified_v2/cdc_function.cpp:223
  TCCR2A = _BV(WGM21); // Timer2 in CTC Mode
     5fc:	82 e0       	ldi	r24, 0x02	; 2
     5fe:	80 93 b0 00 	sts	0x00B0, r24	; 0x8000b0 <__TEXT_REGION_LENGTH__+0x7f80b0>
C:\Users\mateu\Desktop\cdc_arduino_modified_v2/cdc_function.cpp:224
  TCCR2B = _BV(CS22); // prescaler = 64 -> 1 timer clock tick is 4us long
     602:	84 e0       	ldi	r24, 0x04	; 4
     604:	80 93 b1 00 	sts	0x00B1, r24	; 0x8000b1 <__TEXT_REGION_LENGTH__+0x7f80b1>
C:\Users\mateu\Desktop\cdc_arduino_modified_v2/cdc_function.cpp:225
  TIMSK2 |= _BV(OCIE2A);
     608:	e0 e7       	ldi	r30, 0x70	; 112
     60a:	f0 e0       	ldi	r31, 0x00	; 0
     60c:	80 81       	ld	r24, Z
     60e:	82 60       	ori	r24, 0x02	; 2
     610:	80 83       	st	Z, r24
C:\Users\mateu\Desktop\cdc_arduino_modified_v2/cdc_function.cpp:227
  
  capptr = 0; // indirect pointer to capture buffer
     612:	10 92 c4 01 	sts	0x01C4, r1	; 0x8001c4 <capptr>
C:\Users\mateu\Desktop\cdc_arduino_modified_v2/cdc_function.cpp:228
  scanptr = 0;
     616:	10 92 d4 01 	sts	0x01D4, r1	; 0x8001d4 <scanptr>
C:\Users\mateu\Desktop\cdc_arduino_modified_v2/cdc_function.cpp:229
  capbit = -8;
     61a:	88 ef       	ldi	r24, 0xF8	; 248
     61c:	80 93 c6 01 	sts	0x01C6, r24	; 0x8001c6 <capbit>
C:\Users\mateu\Desktop\cdc_arduino_modified_v2/cdc_function.cpp:230
  txinptr = 0; // queue pointers
     620:	10 92 bc 01 	sts	0x01BC, r1	; 0x8001bc <txinptr>
C:\Users\mateu\Desktop\cdc_arduino_modified_v2/cdc_function.cpp:231
  txoutptr = 0;
     624:	10 92 bb 01 	sts	0x01BB, r1	; 0x8001bb <txoutptr>
C:\Users\mateu\Desktop\cdc_arduino_modified_v2/cdc_function.cpp:233

  capbusy = FALSE; // reset flags
     628:	10 92 d0 01 	sts	0x01D0, r1	; 0x8001d0 <capbusy>
C:\Users\mateu\Desktop\cdc_arduino_modified_v2/cdc_function.cpp:234
  mix = FALSE;
     62c:	10 92 cf 01 	sts	0x01CF, r1	; 0x8001cf <mix>
C:\Users\mateu\Desktop\cdc_arduino_modified_v2/cdc_function.cpp:235
  scan = FALSE;
     630:	10 92 ce 01 	sts	0x01CE, r1	; 0x8001ce <scan>
C:\Users\mateu\Desktop\cdc_arduino_modified_v2/cdc_function.cpp:236
  playing = FALSE;
     634:	10 92 cd 01 	sts	0x01CD, r1	; 0x8001cd <playing>
C:\Users\mateu\Desktop\cdc_arduino_modified_v2/cdc_function.cpp:237
  overflow = FALSE;
     638:	10 92 ca 01 	sts	0x01CA, r1	; 0x8001ca <overflow>
C:\Users\mateu\Desktop\cdc_arduino_modified_v2/cdc_function.cpp:238
  dataerr = FALSE;
     63c:	10 92 c9 01 	sts	0x01C9, r1	; 0x8001c9 <dataerr>
C:\Users\mateu\Desktop\cdc_arduino_modified_v2/cdc_function.cpp:243

#ifdef DUMPMODE
  startbit = FALSE;
#endif
  ACKcount = 0;
     640:	10 92 c1 01 	sts	0x01C1, r1	; 0x8001c1 <ACKcount>
C:\Users\mateu\Desktop\cdc_arduino_modified_v2/cdc_function.cpp:247

  // these values can be set depending on the state of mp3
  // it has to be evaluated wether CD number can be grater than 6
  disc = 0x41; // CD 1
     644:	81 e4       	ldi	r24, 0x41	; 65
     646:	80 93 07 01 	sts	0x0107, r24	; 0x800107 <disc>
C:\Users\mateu\Desktop\cdc_arduino_modified_v2/cdc_function.cpp:248
  track = 0x01; // track 1
     64a:	81 e0       	ldi	r24, 0x01	; 1
     64c:	80 93 06 01 	sts	0x0106, r24	; 0x800106 <track>
C:\Users\mateu\Desktop\cdc_arduino_modified_v2/cdc_function.cpp:250

  poweridentcount = POWERIDENTWAIT;
     650:	86 ef       	ldi	r24, 0xF6	; 246
     652:	80 93 bf 01 	sts	0x01BF, r24	; 0x8001bf <poweridentcount>
C:\Users\mateu\Desktop\cdc_arduino_modified_v2/cdc_function.cpp:252

  ResetTime();
     656:	0e 94 bd 01 	call	0x37a	; 0x37a <ResetTime()>
SetStateIdle():
C:\Users\mateu\Desktop\cdc_arduino_modified_v2/cdc_function.cpp:1299

static void SetStateIdle(void)

{

  playing = FALSE;
     65a:	10 92 cd 01 	sts	0x01CD, r1	; 0x8001cd <playing>
C:\Users\mateu\Desktop\cdc_arduino_modified_v2/cdc_function.cpp:1301

  BIDIstate = StateIdle;
     65e:	10 92 c3 01 	sts	0x01C3, r1	; 0x8001c3 <BIDIstate>
_Z10Init_VWCDCv():
C:\Users\mateu\Desktop\cdc_arduino_modified_v2/cdc_function.cpp:255
  poweridentcount = POWERIDENTWAIT;

  ResetTime();
  SetStateIdle(); //start at idle!!! no idle then play!!

  EnqueueString(sIDENTIFY);
     662:	8f eb       	ldi	r24, 0xBF	; 191
     664:	90 e0       	ldi	r25, 0x00	; 0
     666:	0e 94 69 01 	call	0x2d2	; 0x2d2 <EnqueueString(unsigned char const*)>
C:\Users\mateu\Desktop\cdc_arduino_modified_v2/cdc_function.cpp:256
  EnqueueString(sVERSION);
     66a:	84 eb       	ldi	r24, 0xB4	; 180
     66c:	90 e0       	ldi	r25, 0x00	; 0
     66e:	0e 94 69 01 	call	0x2d2	; 0x2d2 <EnqueueString(unsigned char const*)>
C:\Users\mateu\Desktop\cdc_arduino_modified_v2/cdc_function.cpp:257
  EnqueueString(sNEWLINE);
     672:	8c eb       	ldi	r24, 0xBC	; 188
     674:	90 e0       	ldi	r25, 0x00	; 0
     676:	0e 94 69 01 	call	0x2d2	; 0x2d2 <EnqueueString(unsigned char const*)>
C:\Users\mateu\Desktop\cdc_arduino_modified_v2/cdc_function.cpp:258
  EnqueueString(sRING);
     67a:	80 ef       	ldi	r24, 0xF0	; 240
     67c:	90 e0       	ldi	r25, 0x00	; 0
     67e:	0e 94 69 01 	call	0x2d2	; 0x2d2 <EnqueueString(unsigned char const*)>
C:\Users\mateu\Desktop\cdc_arduino_modified_v2/cdc_function.cpp:270
  //timer0 overflow after 256counts, oveflow interup routine is fired every 1024us (4*256)
  //we need 50 overflows to count to 50ms
#define _TIMER0_OVERFLOW_COUNTS 50

#else
  OCR0A = _10MS; // 10ms Intervall
     682:	8c e9       	ldi	r24, 0x9C	; 156
     684:	87 bd       	out	0x27, r24	; 39
C:\Users\mateu\Desktop\cdc_arduino_modified_v2/cdc_function.cpp:271
  TCCR0A = 0x00; // Normal port operation, OC0 disconnected
     686:	14 bc       	out	0x24, r1	; 36
C:\Users\mateu\Desktop\cdc_arduino_modified_v2/cdc_function.cpp:272
  TCCR0A |= _BV(WGM01); // CTC mode
     688:	84 b5       	in	r24, 0x24	; 36
     68a:	82 60       	ori	r24, 0x02	; 2
     68c:	84 bd       	out	0x24, r24	; 36
C:\Users\mateu\Desktop\cdc_arduino_modified_v2/cdc_function.cpp:273
  TCCR0B |= _BV(CS00) | _BV(CS02); // prescaler = 1024 -> 1 timer clock tick is 64us long
     68e:	85 b5       	in	r24, 0x25	; 37
     690:	85 60       	ori	r24, 0x05	; 5
     692:	85 bd       	out	0x25, r24	; 37
C:\Users\mateu\Desktop\cdc_arduino_modified_v2/cdc_function.cpp:274
  TIMSK0 |= _BV(OCIE0A); // enable output compare interrupt on timer0
     694:	88 81       	ld	r24, Y
     696:	82 60       	ori	r24, 0x02	; 2
     698:	88 83       	st	Y, r24
C:\Users\mateu\Desktop\cdc_arduino_modified_v2/cdc_function.cpp:276
#endif
  SendPacket(); // force first display update packet
     69a:	0e 94 63 02 	call	0x4c6	; 0x4c6 <SendPacket()>
C:\Users\mateu\Desktop\cdc_arduino_modified_v2/cdc_function.cpp:277
  sei();
     69e:	78 94       	sei
C:\Users\mateu\Desktop\cdc_arduino_modified_v2/cdc_function.cpp:278
  Serial.println("Ready");
     6a0:	6e e1       	ldi	r22, 0x1E	; 30
     6a2:	71 e0       	ldi	r23, 0x01	; 1
     6a4:	8d e1       	ldi	r24, 0x1D	; 29
     6a6:	92 e0       	ldi	r25, 0x02	; 2
C:\Users\mateu\Desktop\cdc_arduino_modified_v2/cdc_function.cpp:280
  //    SREG |= 0x80;   // enable interrupts
}
     6a8:	df 91       	pop	r29
     6aa:	cf 91       	pop	r28
C:\Users\mateu\Desktop\cdc_arduino_modified_v2/cdc_function.cpp:278
  TCCR0B |= _BV(CS00) | _BV(CS02); // prescaler = 1024 -> 1 timer clock tick is 64us long
  TIMSK0 |= _BV(OCIE0A); // enable output compare interrupt on timer0
#endif
  SendPacket(); // force first display update packet
  sei();
  Serial.println("Ready");
     6ac:	0c 94 1f 0b 	jmp	0x163e	; 0x163e <Print::println(char const*)>

000006b0 <__vector_7>:
__vector_7():
C:\Users\mateu\Desktop\cdc_arduino_modified_v2/cdc_function.cpp:296
  \return     none
*/
//-----------------------------------------------------------------------------

ISR(TIMER2_COMPA_vect)
{
     6b0:	1f 92       	push	r1
     6b2:	0f 92       	push	r0
     6b4:	0f b6       	in	r0, 0x3f	; 63
     6b6:	0f 92       	push	r0
     6b8:	11 24       	eor	r1, r1
     6ba:	2f 93       	push	r18
     6bc:	8f 93       	push	r24
     6be:	9f 93       	push	r25
     6c0:	ef 93       	push	r30
     6c2:	ff 93       	push	r31
C:\Users\mateu\Desktop\cdc_arduino_modified_v2/cdc_function.cpp:302
  
  static uint8_t display_byte_counter_u8 = 0;
  uint8_t byte_u8;
  //TCCR2B &= ~_BV(CS20); //set to 0 already
  //TCCR2B &= ~_BV(CS21); //set to 0 already
  TCCR2B &= ~_BV(CS22); // stop Timer2, CS22 was set, prescaler 64
     6c4:	80 91 b1 00 	lds	r24, 0x00B1	; 0x8000b1 <__TEXT_REGION_LENGTH__+0x7f80b1>
     6c8:	8b 7f       	andi	r24, 0xFB	; 251
     6ca:	80 93 b1 00 	sts	0x00B1, r24	; 0x8000b1 <__TEXT_REGION_LENGTH__+0x7f80b1>
C:\Users\mateu\Desktop\cdc_arduino_modified_v2/cdc_function.cpp:306
  //TCNT2 = 0; // clear Timer2
  //TIFR2 |= _BV(OCF2A); //no need to do this

  if (display_byte_counter_u8 < 8)
     6ce:	e0 91 80 01 	lds	r30, 0x0180	; 0x800180 <__vector_7::display_byte_counter_u8>
     6d2:	e8 30       	cpi	r30, 0x08	; 8
     6d4:	a0 f5       	brcc	.+104    	; 0x73e <__vector_7+0x8e>
C:\Users\mateu\Desktop\cdc_arduino_modified_v2/cdc_function.cpp:308
  {
    byte_u8 = display_byte_buffer_mau8[display_byte_counter_u8];
     6d6:	f0 e0       	ldi	r31, 0x00	; 0
     6d8:	ed 54       	subi	r30, 0x4D	; 77
     6da:	fe 4f       	sbci	r31, 0xFE	; 254
     6dc:	90 81       	ld	r25, Z
C:\Users\mateu\Desktop\cdc_arduino_modified_v2/cdc_function.cpp:316
    Serial.print("|");
    Serial.print(byte_u8, HEX);
    Serial.print("|");
#endif

    for (sendbitcount = -8; sendbitcount != 0; sendbitcount++)
     6de:	88 ef       	ldi	r24, 0xF8	; 248
     6e0:	80 93 d8 01 	sts	0x01D8, r24	; 0x8001d8 <sendbitcount>
_delay_loop_1():
c:\users\mateu\appdata\local\arduino15\packages\arduino\tools\avr-gcc\7.3.0-atmel3.6.1-arduino7\avr\include\util/delay_basic.h:88
	__asm__ volatile (
		"1: dec %0" "\n\t"
		"brne 1b"
		: "=r" (__count)
		: "0" (__count)
	);
     6e4:	25 e0       	ldi	r18, 0x05	; 5
__vector_7():
C:\Users\mateu\Desktop\cdc_arduino_modified_v2/cdc_function.cpp:316 (discriminator 1)
     6e6:	80 91 d8 01 	lds	r24, 0x01D8	; 0x8001d8 <sendbitcount>
     6ea:	88 23       	and	r24, r24
     6ec:	a1 f0       	breq	.+40     	; 0x716 <__vector_7+0x66>
C:\Users\mateu\Desktop\cdc_arduino_modified_v2/cdc_function.cpp:318
    {
      RADIO_CLOCK_PORT |= _BV(RADIO_CLOCK); // SCLK high
     6ee:	2d 9a       	sbi	0x05, 5	; 5
_delay_loop_1():
c:\users\mateu\appdata\local\arduino15\packages\arduino\tools\avr-gcc\7.3.0-atmel3.6.1-arduino7\avr\include\util/delay_basic.h:88
     6f0:	82 2f       	mov	r24, r18
     6f2:	8a 95       	dec	r24
     6f4:	f1 f7       	brne	.-4      	; 0x6f2 <__vector_7+0x42>
__vector_7():
C:\Users\mateu\Desktop\cdc_arduino_modified_v2/cdc_function.cpp:320
      _delay_loop_1(5);
      if ((byte_u8 & 0x80) == 0) // mask highest bit and test if set
     6f6:	97 fd       	sbrc	r25, 7
     6f8:	0c c0       	rjmp	.+24     	; 0x712 <__vector_7+0x62>
C:\Users\mateu\Desktop\cdc_arduino_modified_v2/cdc_function.cpp:322
      {
        RADIO_DATA_PORT |= _BV(RADIO_DATA); // DATA high
     6fa:	2b 9a       	sbi	0x05, 3	; 5
C:\Users\mateu\Desktop\cdc_arduino_modified_v2/cdc_function.cpp:328 (discriminator 2)
      }
      else
      {
        RADIO_DATA_PORT &= ~_BV(RADIO_DATA); // DATA low
      }
      byte_u8 <<= 1; // load the next bit
     6fc:	99 0f       	add	r25, r25
C:\Users\mateu\Desktop\cdc_arduino_modified_v2/cdc_function.cpp:329 (discriminator 2)
      RADIO_CLOCK_PORT &= ~_BV(RADIO_CLOCK); // SCLK low
     6fe:	2d 98       	cbi	0x05, 5	; 5
_delay_loop_1():
c:\users\mateu\appdata\local\arduino15\packages\arduino\tools\avr-gcc\7.3.0-atmel3.6.1-arduino7\avr\include\util/delay_basic.h:88 (discriminator 2)
     700:	82 2f       	mov	r24, r18
     702:	8a 95       	dec	r24
     704:	f1 f7       	brne	.-4      	; 0x702 <__vector_7+0x52>
__vector_7():
C:\Users\mateu\Desktop\cdc_arduino_modified_v2/cdc_function.cpp:316 (discriminator 2)
    Serial.print("|");
    Serial.print(byte_u8, HEX);
    Serial.print("|");
#endif

    for (sendbitcount = -8; sendbitcount != 0; sendbitcount++)
     706:	80 91 d8 01 	lds	r24, 0x01D8	; 0x8001d8 <sendbitcount>
     70a:	8f 5f       	subi	r24, 0xFF	; 255
     70c:	80 93 d8 01 	sts	0x01D8, r24	; 0x8001d8 <sendbitcount>
     710:	ea cf       	rjmp	.-44     	; 0x6e6 <__vector_7+0x36>
C:\Users\mateu\Desktop\cdc_arduino_modified_v2/cdc_function.cpp:326
      {
        RADIO_DATA_PORT |= _BV(RADIO_DATA); // DATA high
      }
      else
      {
        RADIO_DATA_PORT &= ~_BV(RADIO_DATA); // DATA low
     712:	2b 98       	cbi	0x05, 3	; 5
     714:	f3 cf       	rjmp	.-26     	; 0x6fc <__vector_7+0x4c>
C:\Users\mateu\Desktop\cdc_arduino_modified_v2/cdc_function.cpp:333
      byte_u8 <<= 1; // load the next bit
      RADIO_CLOCK_PORT &= ~_BV(RADIO_CLOCK); // SCLK low
      _delay_loop_1(5);
    }

    display_byte_counter_u8++;
     716:	80 91 80 01 	lds	r24, 0x0180	; 0x800180 <__vector_7::display_byte_counter_u8>
     71a:	8f 5f       	subi	r24, 0xFF	; 255
     71c:	80 93 80 01 	sts	0x0180, r24	; 0x800180 <__vector_7::display_byte_counter_u8>
C:\Users\mateu\Desktop\cdc_arduino_modified_v2/cdc_function.cpp:335

    TCCR2B |= _BV(CS22); // prescaler = 64 -> 1 timer clock tick is 4us long
     720:	80 91 b1 00 	lds	r24, 0x00B1	; 0x8000b1 <__TEXT_REGION_LENGTH__+0x7f80b1>
     724:	84 60       	ori	r24, 0x04	; 4
     726:	80 93 b1 00 	sts	0x00B1, r24	; 0x8000b1 <__TEXT_REGION_LENGTH__+0x7f80b1>
C:\Users\mateu\Desktop\cdc_arduino_modified_v2/cdc_function.cpp:346
    Serial.println();
#endif
    display_byte_counter_u8 = 0;
    //TIMSK2 &= ~_BV(OCIE2A); // disable output compare interrupt on timer2
  }
}
     72a:	ff 91       	pop	r31
     72c:	ef 91       	pop	r30
     72e:	9f 91       	pop	r25
     730:	8f 91       	pop	r24
     732:	2f 91       	pop	r18
     734:	0f 90       	pop	r0
     736:	0f be       	out	0x3f, r0	; 63
     738:	0f 90       	pop	r0
     73a:	1f 90       	pop	r1
     73c:	18 95       	reti
C:\Users\mateu\Desktop\cdc_arduino_modified_v2/cdc_function.cpp:343
  else
  { //display_byte_counter_u8 is ==8
#ifdef DUMPMODE2
    Serial.println();
#endif
    display_byte_counter_u8 = 0;
     73e:	10 92 80 01 	sts	0x0180, r1	; 0x800180 <__vector_7::display_byte_counter_u8>
C:\Users\mateu\Desktop\cdc_arduino_modified_v2/cdc_function.cpp:346
    //TIMSK2 &= ~_BV(OCIE2A); // disable output compare interrupt on timer2
  }
}
     742:	f3 cf       	rjmp	.-26     	; 0x72a <__vector_7+0x7a>

00000744 <__vector_14>:
__vector_14():
C:\Users\mateu\Desktop\cdc_arduino_modified_v2/cdc_function.cpp:379
}

#else

ISR(TIMER0_COMPA_vect)
{
     744:	1f 92       	push	r1
     746:	0f 92       	push	r0
     748:	0f b6       	in	r0, 0x3f	; 63
     74a:	0f 92       	push	r0
     74c:	11 24       	eor	r1, r1
     74e:	8f 93       	push	r24
C:\Users\mateu\Desktop\cdc_arduino_modified_v2/cdc_function.cpp:380
  counter_10ms_u8++;
     750:	80 91 82 01 	lds	r24, 0x0182	; 0x800182 <counter_10ms_u8>
     754:	8f 5f       	subi	r24, 0xFF	; 255
C:\Users\mateu\Desktop\cdc_arduino_modified_v2/cdc_function.cpp:382

  if (counter_10ms_u8 == 5)
     756:	85 30       	cpi	r24, 0x05	; 5
     758:	41 f0       	breq	.+16     	; 0x76a <__vector_14+0x26>
C:\Users\mateu\Desktop\cdc_arduino_modified_v2/cdc_function.cpp:380

#else

ISR(TIMER0_COMPA_vect)
{
  counter_10ms_u8++;
     75a:	80 93 82 01 	sts	0x0182, r24	; 0x800182 <counter_10ms_u8>
C:\Users\mateu\Desktop\cdc_arduino_modified_v2/cdc_function.cpp:387
  if (counter_10ms_u8 == 5)
  {
    counter_10ms_u8 = 0;
    flag_50ms = TRUE;
  }
}
     75e:	8f 91       	pop	r24
     760:	0f 90       	pop	r0
     762:	0f be       	out	0x3f, r0	; 63
     764:	0f 90       	pop	r0
     766:	1f 90       	pop	r1
     768:	18 95       	reti
C:\Users\mateu\Desktop\cdc_arduino_modified_v2/cdc_function.cpp:384
{
  counter_10ms_u8++;

  if (counter_10ms_u8 == 5)
  {
    counter_10ms_u8 = 0;
     76a:	10 92 82 01 	sts	0x0182, r1	; 0x800182 <counter_10ms_u8>
C:\Users\mateu\Desktop\cdc_arduino_modified_v2/cdc_function.cpp:385
    flag_50ms = TRUE;
     76e:	81 e0       	ldi	r24, 0x01	; 1
     770:	80 93 81 01 	sts	0x0181, r24	; 0x800181 <flag_50ms>
C:\Users\mateu\Desktop\cdc_arduino_modified_v2/cdc_function.cpp:387
  }
}
     774:	f4 cf       	rjmp	.-24     	; 0x75e <__vector_14+0x1a>

00000776 <__vector_13>:
__vector_13():
C:\Users\mateu\Desktop\cdc_arduino_modified_v2/cdc_function.cpp:403
  \return     void
*/
//-----------------------------------------------------------------------------

ISR(TIMER1_OVF_vect)
{
     776:	1f 92       	push	r1
     778:	0f 92       	push	r0
     77a:	0f b6       	in	r0, 0x3f	; 63
     77c:	0f 92       	push	r0
     77e:	11 24       	eor	r1, r1
     780:	2f 93       	push	r18
     782:	8f 93       	push	r24
     784:	9f 93       	push	r25
     786:	ef 93       	push	r30
     788:	ff 93       	push	r31
C:\Users\mateu\Desktop\cdc_arduino_modified_v2/cdc_function.cpp:404
  TIMSK1 &= ~_BV(TOIE1); // disable further timer 1 interrupts
     78a:	80 91 6f 00 	lds	r24, 0x006F	; 0x80006f <__TEXT_REGION_LENGTH__+0x7f806f>
     78e:	8e 7f       	andi	r24, 0xFE	; 254
     790:	80 93 6f 00 	sts	0x006F, r24	; 0x80006f <__TEXT_REGION_LENGTH__+0x7f806f>
C:\Users\mateu\Desktop\cdc_arduino_modified_v2/cdc_function.cpp:405
  capbusy = FALSE; // set flag signifying packet capture done
     794:	10 92 d0 01 	sts	0x01D0, r1	; 0x8001d0 <capbusy>
C:\Users\mateu\Desktop\cdc_arduino_modified_v2/cdc_function.cpp:407

  if (capbit > -8) // are we already capturing on a blank byte?
     798:	90 91 c6 01 	lds	r25, 0x01C6	; 0x8001c6 <capbit>
     79c:	99 3f       	cpi	r25, 0xF9	; 249
     79e:	0c f1       	brlt	.+66     	; 0x7e2 <__vector_13+0x6c>
C:\Users\mateu\Desktop\cdc_arduino_modified_v2/cdc_function.cpp:409
  {
    dataerr = TRUE;
     7a0:	81 e0       	ldi	r24, 0x01	; 1
     7a2:	80 93 c9 01 	sts	0x01C9, r24	; 0x8001c9 <dataerr>
C:\Users\mateu\Desktop\cdc_arduino_modified_v2/cdc_function.cpp:418
    // if the capture bits were not a complete 8 bits, we need to finish
    // rotating the bits upward so that the data is nicely formatted

    while (capbit != 0) // have we finished rotating all bits up?
    {
      capbuffer[capptr] <<= 1; // rotate in 0 bit
     7a6:	80 91 c4 01 	lds	r24, 0x01C4	; 0x8001c4 <capptr>
     7aa:	e8 2f       	mov	r30, r24
     7ac:	f0 e0       	ldi	r31, 0x00	; 0
     7ae:	ed 57       	subi	r30, 0x7D	; 125
     7b0:	fe 4f       	sbci	r31, 0xFE	; 254
C:\Users\mateu\Desktop\cdc_arduino_modified_v2/cdc_function.cpp:416
    //        command strings with error free data.
    //
    // if the capture bits were not a complete 8 bits, we need to finish
    // rotating the bits upward so that the data is nicely formatted

    while (capbit != 0) // have we finished rotating all bits up?
     7b2:	99 23       	and	r25, r25
     7b4:	29 f0       	breq	.+10     	; 0x7c0 <__vector_13+0x4a>
C:\Users\mateu\Desktop\cdc_arduino_modified_v2/cdc_function.cpp:418
    {
      capbuffer[capptr] <<= 1; // rotate in 0 bit
     7b6:	20 81       	ld	r18, Z
     7b8:	22 0f       	add	r18, r18
     7ba:	20 83       	st	Z, r18
     7bc:	9f 5f       	subi	r25, 0xFF	; 255
C:\Users\mateu\Desktop\cdc_arduino_modified_v2/cdc_function.cpp:416
    //        command strings with error free data.
    //
    // if the capture bits were not a complete 8 bits, we need to finish
    // rotating the bits upward so that the data is nicely formatted

    while (capbit != 0) // have we finished rotating all bits up?
     7be:	f9 cf       	rjmp	.-14     	; 0x7b2 <__vector_13+0x3c>
C:\Users\mateu\Desktop\cdc_arduino_modified_v2/cdc_function.cpp:422
    {
      capbuffer[capptr] <<= 1; // rotate in 0 bit
      capbit++;
    }

    capbit = -8;
     7c0:	98 ef       	ldi	r25, 0xF8	; 248
     7c2:	90 93 c6 01 	sts	0x01C6, r25	; 0x8001c6 <capbit>
C:\Users\mateu\Desktop\cdc_arduino_modified_v2/cdc_function.cpp:423
    capptr++; // move to new capture byte
     7c6:	8f 5f       	subi	r24, 0xFF	; 255
C:\Users\mateu\Desktop\cdc_arduino_modified_v2/cdc_function.cpp:425

    if (capptr == CAP_BUFFER_END) // have we gone past the end of the
     7c8:	88 31       	cpi	r24, 0x18	; 24
     7ca:	a9 f0       	breq	.+42     	; 0x7f6 <__vector_13+0x80>
C:\Users\mateu\Desktop\cdc_arduino_modified_v2/cdc_function.cpp:423
      capbuffer[capptr] <<= 1; // rotate in 0 bit
      capbit++;
    }

    capbit = -8;
    capptr++; // move to new capture byte
     7cc:	80 93 c4 01 	sts	0x01C4, r24	; 0x8001c4 <capptr>
C:\Users\mateu\Desktop\cdc_arduino_modified_v2/cdc_function.cpp:430
    if (capptr == CAP_BUFFER_END) // have we gone past the end of the
    { // capture buffer?
      capptr = 0; // yes, roll over to beginning
    }

    if (capptr == scanptr) // have we overflowed the capture queue?
     7d0:	90 91 c4 01 	lds	r25, 0x01C4	; 0x8001c4 <capptr>
     7d4:	80 91 d4 01 	lds	r24, 0x01D4	; 0x8001d4 <scanptr>
     7d8:	98 13       	cpse	r25, r24
     7da:	03 c0       	rjmp	.+6      	; 0x7e2 <__vector_13+0x6c>
C:\Users\mateu\Desktop\cdc_arduino_modified_v2/cdc_function.cpp:432
    {
      overflow = TRUE; // yes, set error flag
     7dc:	81 e0       	ldi	r24, 0x01	; 1
     7de:	80 93 ca 01 	sts	0x01CA, r24	; 0x8001ca <overflow>
C:\Users\mateu\Desktop\cdc_arduino_modified_v2/cdc_function.cpp:435
    }
  }
}
     7e2:	ff 91       	pop	r31
     7e4:	ef 91       	pop	r30
     7e6:	9f 91       	pop	r25
     7e8:	8f 91       	pop	r24
     7ea:	2f 91       	pop	r18
     7ec:	0f 90       	pop	r0
     7ee:	0f be       	out	0x3f, r0	; 63
     7f0:	0f 90       	pop	r0
     7f2:	1f 90       	pop	r1
     7f4:	18 95       	reti
C:\Users\mateu\Desktop\cdc_arduino_modified_v2/cdc_function.cpp:427
    capbit = -8;
    capptr++; // move to new capture byte

    if (capptr == CAP_BUFFER_END) // have we gone past the end of the
    { // capture buffer?
      capptr = 0; // yes, roll over to beginning
     7f6:	10 92 c4 01 	sts	0x01C4, r1	; 0x8001c4 <capptr>
     7fa:	ea cf       	rjmp	.-44     	; 0x7d0 <__vector_13+0x5a>

000007fc <__vector_10>:
__vector_10():
C:\Users\mateu\Desktop\cdc_arduino_modified_v2/cdc_function.cpp:452
  \return     void
*/
//-----------------------------------------------------------------------------

ISR(TIMER1_CAPT_vect)
{
     7fc:	1f 92       	push	r1
     7fe:	0f 92       	push	r0
     800:	0f b6       	in	r0, 0x3f	; 63
     802:	0f 92       	push	r0
     804:	11 24       	eor	r1, r1
     806:	2f 93       	push	r18
     808:	3f 93       	push	r19
     80a:	4f 93       	push	r20
     80c:	8f 93       	push	r24
     80e:	9f 93       	push	r25
     810:	ef 93       	push	r30
     812:	ff 93       	push	r31
C:\Users\mateu\Desktop\cdc_arduino_modified_v2/cdc_function.cpp:453
  captime = ICR1; // save a copy of current TMR1 count
     814:	80 91 86 00 	lds	r24, 0x0086	; 0x800086 <__TEXT_REGION_LENGTH__+0x7f8086>
     818:	90 91 87 00 	lds	r25, 0x0087	; 0x800087 <__TEXT_REGION_LENGTH__+0x7f8087>
     81c:	90 93 c8 01 	sts	0x01C8, r25	; 0x8001c8 <captime+0x1>
     820:	80 93 c7 01 	sts	0x01C7, r24	; 0x8001c7 <captime>
C:\Users\mateu\Desktop\cdc_arduino_modified_v2/cdc_function.cpp:455
  // in case PWTXCaptureBit needs it
  TCNT1 = 0; // clear timer1
     824:	10 92 85 00 	sts	0x0085, r1	; 0x800085 <__TEXT_REGION_LENGTH__+0x7f8085>
     828:	10 92 84 00 	sts	0x0084, r1	; 0x800084 <__TEXT_REGION_LENGTH__+0x7f8084>
C:\Users\mateu\Desktop\cdc_arduino_modified_v2/cdc_function.cpp:457

  if ((RADIO_COMMAND_PIN & _BV(RADIO_COMMAND)) == 0)
     82c:	18 99       	sbic	0x03, 0	; 3
     82e:	18 c0       	rjmp	.+48     	; 0x860 <__DATA_REGION_LENGTH__+0x60>
C:\Users\mateu\Desktop\cdc_arduino_modified_v2/cdc_function.cpp:461
  {
    // We have interrupted at beginning of low pulse (falling edge)
    // Low pulse length must be timed to determine bit value
    TIFR1 |= _BV(TOV1); // clear timer1 overflow flag
     830:	b0 9a       	sbi	0x16, 0	; 22
C:\Users\mateu\Desktop\cdc_arduino_modified_v2/cdc_function.cpp:462
    TIMSK1 |= _BV(TOIE1); // enable timer1 interrupt on overflow
     832:	80 91 6f 00 	lds	r24, 0x006F	; 0x80006f <__TEXT_REGION_LENGTH__+0x7f806f>
     836:	81 60       	ori	r24, 0x01	; 1
     838:	80 93 6f 00 	sts	0x006F, r24	; 0x80006f <__TEXT_REGION_LENGTH__+0x7f806f>
C:\Users\mateu\Desktop\cdc_arduino_modified_v2/cdc_function.cpp:463
    TCCR1B |= _BV(ICES1); // change input capture to rising edge
     83c:	80 91 81 00 	lds	r24, 0x0081	; 0x800081 <__TEXT_REGION_LENGTH__+0x7f8081>
     840:	80 64       	ori	r24, 0x40	; 64
     842:	80 93 81 00 	sts	0x0081, r24	; 0x800081 <__TEXT_REGION_LENGTH__+0x7f8081>
C:\Users\mateu\Desktop\cdc_arduino_modified_v2/cdc_function.cpp:464
    TIFR1 |= _BV(ICF1); // clear input capture interrupt request flag
     846:	b5 9a       	sbi	0x16, 5	; 22
C:\Users\mateu\Desktop\cdc_arduino_modified_v2/cdc_function.cpp:558
          }
        }
      }
    }
  }
}
     848:	ff 91       	pop	r31
     84a:	ef 91       	pop	r30
     84c:	9f 91       	pop	r25
     84e:	8f 91       	pop	r24
     850:	4f 91       	pop	r20
     852:	3f 91       	pop	r19
     854:	2f 91       	pop	r18
     856:	0f 90       	pop	r0
     858:	0f be       	out	0x3f, r0	; 63
     85a:	0f 90       	pop	r0
     85c:	1f 90       	pop	r1
     85e:	18 95       	reti
C:\Users\mateu\Desktop\cdc_arduino_modified_v2/cdc_function.cpp:472
  {
    // We have interrupted at beginning of high pulse (rising edge)
    // High pulse length doesn't matter. We need to check out
    // captured low pulse width if we are capturing data at the moment

    capbusy = TRUE;
     860:	81 e0       	ldi	r24, 0x01	; 1
     862:	80 93 d0 01 	sts	0x01D0, r24	; 0x8001d0 <capbusy>
C:\Users\mateu\Desktop\cdc_arduino_modified_v2/cdc_function.cpp:473
    TCCR1B &= ~_BV(ICES1); // change input capture to falling edge
     866:	90 91 81 00 	lds	r25, 0x0081	; 0x800081 <__TEXT_REGION_LENGTH__+0x7f8081>
     86a:	9f 7b       	andi	r25, 0xBF	; 191
     86c:	90 93 81 00 	sts	0x0081, r25	; 0x800081 <__TEXT_REGION_LENGTH__+0x7f8081>
C:\Users\mateu\Desktop\cdc_arduino_modified_v2/cdc_function.cpp:474
    TIFR1 |= _BV(ICF1); // clear input capture interrupt request flag
     870:	b5 9a       	sbi	0x16, 5	; 22
C:\Users\mateu\Desktop\cdc_arduino_modified_v2/cdc_function.cpp:476

    if (TIMSK1 & _BV(TOIE1)) // are we trying to capture data?
     872:	90 91 6f 00 	lds	r25, 0x006F	; 0x80006f <__TEXT_REGION_LENGTH__+0x7f806f>
     876:	90 ff       	sbrs	r25, 0
     878:	e7 cf       	rjmp	.-50     	; 0x848 <__DATA_REGION_LENGTH__+0x48>
C:\Users\mateu\Desktop\cdc_arduino_modified_v2/cdc_function.cpp:478
    {
      capbusy = TRUE;
     87a:	80 93 d0 01 	sts	0x01D0, r24	; 0x8001d0 <capbusy>
C:\Users\mateu\Desktop\cdc_arduino_modified_v2/cdc_function.cpp:479
      TIMSK1 &= ~_BV(TOIE1); // turn off capturing time for high pulse
     87e:	90 91 6f 00 	lds	r25, 0x006F	; 0x80006f <__TEXT_REGION_LENGTH__+0x7f806f>
     882:	9e 7f       	andi	r25, 0xFE	; 254
     884:	90 93 6f 00 	sts	0x006F, r25	; 0x80006f <__TEXT_REGION_LENGTH__+0x7f806f>
C:\Users\mateu\Desktop\cdc_arduino_modified_v2/cdc_function.cpp:481

      if (captime > STARTTHRESHOLD)
     888:	20 91 c7 01 	lds	r18, 0x01C7	; 0x8001c7 <captime>
     88c:	30 91 c8 01 	lds	r19, 0x01C8	; 0x8001c8 <captime+0x1>
     890:	21 30       	cpi	r18, 0x01	; 1
     892:	49 e1       	ldi	r20, 0x19	; 25
     894:	34 07       	cpc	r19, r20
     896:	58 f1       	brcs	.+86     	; 0x8ee <__DATA_REGION_LENGTH__+0xee>
C:\Users\mateu\Desktop\cdc_arduino_modified_v2/cdc_function.cpp:486
      { // yes, start bit
#ifdef DUMPMODE
        startbit = TRUE;
#endif
        capbitpacket = PKTSIZE;
     898:	90 ee       	ldi	r25, 0xE0	; 224
     89a:	90 93 c5 01 	sts	0x01C5, r25	; 0x8001c5 <capbitpacket>
C:\Users\mateu\Desktop\cdc_arduino_modified_v2/cdc_function.cpp:489

        // don't store start bits, just frame around them
        if (capbit > -8) // are we already capturing on a blank byte?
     89e:	90 91 c6 01 	lds	r25, 0x01C6	; 0x8001c6 <capbit>
     8a2:	99 3f       	cpi	r25, 0xF9	; 249
     8a4:	8c f2       	brlt	.-94     	; 0x848 <__DATA_REGION_LENGTH__+0x48>
C:\Users\mateu\Desktop\cdc_arduino_modified_v2/cdc_function.cpp:491
        {
          dataerr = TRUE;
     8a6:	80 93 c9 01 	sts	0x01C9, r24	; 0x8001c9 <dataerr>
C:\Users\mateu\Desktop\cdc_arduino_modified_v2/cdc_function.cpp:500
          // if the capture bits were not a complete 8 bits, we need to finish
          // rotating the bits upward so that the data is nicely formatted

          while (capbit != 0) // have we finished rotating all bits up?
          {
            capbuffer[capptr] <<= 1; // rotate in 0 bit
     8aa:	80 91 c4 01 	lds	r24, 0x01C4	; 0x8001c4 <capptr>
     8ae:	e8 2f       	mov	r30, r24
     8b0:	f0 e0       	ldi	r31, 0x00	; 0
     8b2:	ed 57       	subi	r30, 0x7D	; 125
     8b4:	fe 4f       	sbci	r31, 0xFE	; 254
C:\Users\mateu\Desktop\cdc_arduino_modified_v2/cdc_function.cpp:498
          //       command strings with error free data.
          //
          // if the capture bits were not a complete 8 bits, we need to finish
          // rotating the bits upward so that the data is nicely formatted

          while (capbit != 0) // have we finished rotating all bits up?
     8b6:	99 23       	and	r25, r25
     8b8:	29 f0       	breq	.+10     	; 0x8c4 <__DATA_REGION_LENGTH__+0xc4>
C:\Users\mateu\Desktop\cdc_arduino_modified_v2/cdc_function.cpp:500
          {
            capbuffer[capptr] <<= 1; // rotate in 0 bit
     8ba:	20 81       	ld	r18, Z
     8bc:	22 0f       	add	r18, r18
     8be:	20 83       	st	Z, r18
     8c0:	9f 5f       	subi	r25, 0xFF	; 255
C:\Users\mateu\Desktop\cdc_arduino_modified_v2/cdc_function.cpp:498
          //       command strings with error free data.
          //
          // if the capture bits were not a complete 8 bits, we need to finish
          // rotating the bits upward so that the data is nicely formatted

          while (capbit != 0) // have we finished rotating all bits up?
     8c2:	f9 cf       	rjmp	.-14     	; 0x8b6 <__DATA_REGION_LENGTH__+0xb6>
C:\Users\mateu\Desktop\cdc_arduino_modified_v2/cdc_function.cpp:503
          {
            capbuffer[capptr] <<= 1; // rotate in 0 bit
            capbit++;
          }
          capbit = -8;
     8c4:	98 ef       	ldi	r25, 0xF8	; 248
     8c6:	90 93 c6 01 	sts	0x01C6, r25	; 0x8001c6 <capbit>
C:\Users\mateu\Desktop\cdc_arduino_modified_v2/cdc_function.cpp:504
          capptr++; // move to new capture byte
     8ca:	8f 5f       	subi	r24, 0xFF	; 255
C:\Users\mateu\Desktop\cdc_arduino_modified_v2/cdc_function.cpp:506

          if (capptr == CAP_BUFFER_END) // have we gone past the end of the
     8cc:	88 31       	cpi	r24, 0x18	; 24
     8ce:	61 f0       	breq	.+24     	; 0x8e8 <__DATA_REGION_LENGTH__+0xe8>
C:\Users\mateu\Desktop\cdc_arduino_modified_v2/cdc_function.cpp:504
          {
            capbuffer[capptr] <<= 1; // rotate in 0 bit
            capbit++;
          }
          capbit = -8;
          capptr++; // move to new capture byte
     8d0:	80 93 c4 01 	sts	0x01C4, r24	; 0x8001c4 <capptr>
C:\Users\mateu\Desktop\cdc_arduino_modified_v2/cdc_function.cpp:511
          if (capptr == CAP_BUFFER_END) // have we gone past the end of the
          { // capture buffer?
            capptr = 0; // yes, roll over to beginning
          }

          if (capptr == scanptr) // have we overflowed the capture queue?
     8d4:	90 91 c4 01 	lds	r25, 0x01C4	; 0x8001c4 <capptr>
     8d8:	80 91 d4 01 	lds	r24, 0x01D4	; 0x8001d4 <scanptr>
     8dc:	98 13       	cpse	r25, r24
     8de:	b4 cf       	rjmp	.-152    	; 0x848 <__DATA_REGION_LENGTH__+0x48>
C:\Users\mateu\Desktop\cdc_arduino_modified_v2/cdc_function.cpp:513
          {
            overflow = TRUE; // yes, set error flag
     8e0:	81 e0       	ldi	r24, 0x01	; 1
     8e2:	80 93 ca 01 	sts	0x01CA, r24	; 0x8001ca <overflow>
     8e6:	b0 cf       	rjmp	.-160    	; 0x848 <__DATA_REGION_LENGTH__+0x48>
C:\Users\mateu\Desktop\cdc_arduino_modified_v2/cdc_function.cpp:508
          capbit = -8;
          capptr++; // move to new capture byte

          if (capptr == CAP_BUFFER_END) // have we gone past the end of the
          { // capture buffer?
            capptr = 0; // yes, roll over to beginning
     8e8:	10 92 c4 01 	sts	0x01C4, r1	; 0x8001c4 <capptr>
     8ec:	f3 cf       	rjmp	.-26     	; 0x8d4 <__DATA_REGION_LENGTH__+0xd4>
C:\Users\mateu\Desktop\cdc_arduino_modified_v2/cdc_function.cpp:519
          }
        }
      }
      else
      { // no, just a regular data bit
        if (captime > LOWTHRESHOLD)
     8ee:	21 30       	cpi	r18, 0x01	; 1
     8f0:	82 e0       	ldi	r24, 0x02	; 2
     8f2:	38 07       	cpc	r19, r24
     8f4:	08 f4       	brcc	.+2      	; 0x8f8 <__DATA_REGION_LENGTH__+0xf8>
     8f6:	a8 cf       	rjmp	.-176    	; 0x848 <__DATA_REGION_LENGTH__+0x48>
C:\Users\mateu\Desktop\cdc_arduino_modified_v2/cdc_function.cpp:521
        { // yes, go ahead and store this data
          capbuffer[capptr] <<= 1; // nope
     8f8:	90 91 c4 01 	lds	r25, 0x01C4	; 0x8001c4 <capptr>
     8fc:	e9 2f       	mov	r30, r25
     8fe:	f0 e0       	ldi	r31, 0x00	; 0
     900:	ed 57       	subi	r30, 0x7D	; 125
     902:	fe 4f       	sbci	r31, 0xFE	; 254
     904:	80 81       	ld	r24, Z
     906:	88 0f       	add	r24, r24
C:\Users\mateu\Desktop\cdc_arduino_modified_v2/cdc_function.cpp:523

          if (captime > HIGHTHRESHOLD)
     908:	21 3c       	cpi	r18, 0xC1	; 193
     90a:	39 40       	sbci	r19, 0x09	; 9
     90c:	88 f4       	brcc	.+34     	; 0x930 <__stack+0x31>
C:\Users\mateu\Desktop\cdc_arduino_modified_v2/cdc_function.cpp:525
          {
            capbuffer[capptr] |= 1;
     90e:	80 83       	st	Z, r24
C:\Users\mateu\Desktop\cdc_arduino_modified_v2/cdc_function.cpp:528
          }

          capbitpacket++;
     910:	80 91 c5 01 	lds	r24, 0x01C5	; 0x8001c5 <capbitpacket>
     914:	8f 5f       	subi	r24, 0xFF	; 255
     916:	80 93 c5 01 	sts	0x01C5, r24	; 0x8001c5 <capbitpacket>
C:\Users\mateu\Desktop\cdc_arduino_modified_v2/cdc_function.cpp:530

          if (capbitpacket == 0)
     91a:	81 11       	cpse	r24, r1
     91c:	02 c0       	rjmp	.+4      	; 0x922 <__stack+0x23>
C:\Users\mateu\Desktop\cdc_arduino_modified_v2/cdc_function.cpp:534
          {
            // we've received PKTSIZE number of bits, so let's assume that we're done
            // capturing bits for now.
            capbusy = FALSE; // clear capture busy flag
     91e:	10 92 d0 01 	sts	0x01D0, r1	; 0x8001d0 <capbusy>
C:\Users\mateu\Desktop\cdc_arduino_modified_v2/cdc_function.cpp:537
          }

          capbit++;
     922:	80 91 c6 01 	lds	r24, 0x01C6	; 0x8001c6 <capbit>
     926:	8f 5f       	subi	r24, 0xFF	; 255
C:\Users\mateu\Desktop\cdc_arduino_modified_v2/cdc_function.cpp:539

          if (capbit == 0) // have we collected all 8 bits?
     928:	29 f0       	breq	.+10     	; 0x934 <__stack+0x35>
C:\Users\mateu\Desktop\cdc_arduino_modified_v2/cdc_function.cpp:537
            // we've received PKTSIZE number of bits, so let's assume that we're done
            // capturing bits for now.
            capbusy = FALSE; // clear capture busy flag
          }

          capbit++;
     92a:	80 93 c6 01 	sts	0x01C6, r24	; 0x8001c6 <capbit>
     92e:	8c cf       	rjmp	.-232    	; 0x848 <__DATA_REGION_LENGTH__+0x48>
C:\Users\mateu\Desktop\cdc_arduino_modified_v2/cdc_function.cpp:525
        { // yes, go ahead and store this data
          capbuffer[capptr] <<= 1; // nope

          if (captime > HIGHTHRESHOLD)
          {
            capbuffer[capptr] |= 1;
     930:	81 60       	ori	r24, 0x01	; 1
     932:	ed cf       	rjmp	.-38     	; 0x90e <__stack+0xf>
C:\Users\mateu\Desktop\cdc_arduino_modified_v2/cdc_function.cpp:541

          capbit++;

          if (capbit == 0) // have we collected all 8 bits?
          { // yep, get ready to capture next 8 bits
            capbit = -8;
     934:	88 ef       	ldi	r24, 0xF8	; 248
     936:	80 93 c6 01 	sts	0x01C6, r24	; 0x8001c6 <capbit>
C:\Users\mateu\Desktop\cdc_arduino_modified_v2/cdc_function.cpp:542
            capptr++; // move to new capture byte
     93a:	9f 5f       	subi	r25, 0xFF	; 255
C:\Users\mateu\Desktop\cdc_arduino_modified_v2/cdc_function.cpp:544

            if (capptr == CAP_BUFFER_END) // have we gone past the end of the
     93c:	98 31       	cpi	r25, 0x18	; 24
     93e:	a1 f2       	breq	.-88     	; 0x8e8 <__DATA_REGION_LENGTH__+0xe8>
C:\Users\mateu\Desktop\cdc_arduino_modified_v2/cdc_function.cpp:542
          capbit++;

          if (capbit == 0) // have we collected all 8 bits?
          { // yep, get ready to capture next 8 bits
            capbit = -8;
            capptr++; // move to new capture byte
     940:	90 93 c4 01 	sts	0x01C4, r25	; 0x8001c4 <capptr>
     944:	c7 cf       	rjmp	.-114    	; 0x8d4 <__DATA_REGION_LENGTH__+0xd4>

00000946 <CDC_Protocol()>:
_Z12CDC_Protocolv():
C:\Users\mateu\Desktop\cdc_arduino_modified_v2/cdc_function.cpp:573
  \return     void
*/
//-----------------------------------------------------------------------------

void CDC_Protocol(void)
{
     946:	0f 93       	push	r16
     948:	1f 93       	push	r17
     94a:	cf 93       	push	r28
C:\Users\mateu\Desktop\cdc_arduino_modified_v2/cdc_function.cpp:576
  uint8_t decimal_adjust_u8;

  if (flag_50ms == TRUE)
     94c:	80 91 81 01 	lds	r24, 0x0181	; 0x800181 <flag_50ms>
     950:	81 30       	cpi	r24, 0x01	; 1
     952:	81 f4       	brne	.+32     	; 0x974 <CDC_Protocol()+0x2e>
C:\Users\mateu\Desktop\cdc_arduino_modified_v2/cdc_function.cpp:578
  {
    flag_50ms = FALSE;
     954:	10 92 81 01 	sts	0x0181, r1	; 0x800181 <flag_50ms>
C:\Users\mateu\Desktop\cdc_arduino_modified_v2/cdc_function.cpp:579
    SendPacket();
     958:	0e 94 63 02 	call	0x4c6	; 0x4c6 <SendPacket()>
C:\Users\mateu\Desktop\cdc_arduino_modified_v2/cdc_function.cpp:580
    scancount++;
     95c:	80 91 bd 01 	lds	r24, 0x01BD	; 0x8001bd <scancount>
     960:	8f 5f       	subi	r24, 0xFF	; 255
C:\Users\mateu\Desktop\cdc_arduino_modified_v2/cdc_function.cpp:581
    if (scancount == 0)
     962:	89 f1       	breq	.+98     	; 0x9c6 <CDC_Protocol()+0x80>
C:\Users\mateu\Desktop\cdc_arduino_modified_v2/cdc_function.cpp:580

  if (flag_50ms == TRUE)
  {
    flag_50ms = FALSE;
    SendPacket();
    scancount++;
     964:	80 93 bd 01 	sts	0x01BD, r24	; 0x8001bd <scancount>
C:\Users\mateu\Desktop\cdc_arduino_modified_v2/cdc_function.cpp:587
    {
      scancount = SCANWAIT;
      scan = FALSE; // turn off scan display
      leds &= 0xEF;
    }
    secondcount++;
     968:	80 91 be 01 	lds	r24, 0x01BE	; 0x8001be <secondcount>
     96c:	8f 5f       	subi	r24, 0xFF	; 255
C:\Users\mateu\Desktop\cdc_arduino_modified_v2/cdc_function.cpp:588
    if (secondcount == 0)
     96e:	b1 f1       	breq	.+108    	; 0x9dc <CDC_Protocol()+0x96>
C:\Users\mateu\Desktop\cdc_arduino_modified_v2/cdc_function.cpp:587
    {
      scancount = SCANWAIT;
      scan = FALSE; // turn off scan display
      leds &= 0xEF;
    }
    secondcount++;
     970:	80 93 be 01 	sts	0x01BE, r24	; 0x8001be <secondcount>
C:\Users\mateu\Desktop\cdc_arduino_modified_v2/cdc_function.cpp:626
        }
      }
    }
  }

  if (overflow == TRUE) // has the command receive code detected
     974:	80 91 ca 01 	lds	r24, 0x01CA	; 0x8001ca <overflow>
     978:	81 30       	cpi	r24, 0x01	; 1
     97a:	31 f4       	brne	.+12     	; 0x988 <CDC_Protocol()+0x42>
C:\Users\mateu\Desktop\cdc_arduino_modified_v2/cdc_function.cpp:628
  { // an overflow error?
    overflow = FALSE; // clear error flag
     97c:	10 92 ca 01 	sts	0x01CA, r1	; 0x8001ca <overflow>
C:\Users\mateu\Desktop\cdc_arduino_modified_v2/cdc_function.cpp:629
    EnqueueString(sOVERFLOW);
     980:	82 e4       	ldi	r24, 0x42	; 66
     982:	91 e0       	ldi	r25, 0x01	; 1
     984:	0e 94 69 01 	call	0x2d2	; 0x2d2 <EnqueueString(unsigned char const*)>
C:\Users\mateu\Desktop\cdc_arduino_modified_v2/cdc_function.cpp:632
  }

  if (dataerr == TRUE) // has the command receive code detected
     988:	80 91 c9 01 	lds	r24, 0x01C9	; 0x8001c9 <dataerr>
     98c:	81 30       	cpi	r24, 0x01	; 1
     98e:	31 f4       	brne	.+12     	; 0x99c <CDC_Protocol()+0x56>
C:\Users\mateu\Desktop\cdc_arduino_modified_v2/cdc_function.cpp:634
  { // a framing type data error?
    dataerr = FALSE; // clear error flag
     990:	10 92 c9 01 	sts	0x01C9, r1	; 0x8001c9 <dataerr>
C:\Users\mateu\Desktop\cdc_arduino_modified_v2/cdc_function.cpp:635
    EnqueueString(sDATAERR);
     994:	83 e4       	ldi	r24, 0x43	; 67
     996:	91 e0       	ldi	r25, 0x01	; 1
     998:	0e 94 69 01 	call	0x2d2	; 0x2d2 <EnqueueString(unsigned char const*)>
ScanCommandBytes():
C:\Users\mateu\Desktop\cdc_arduino_modified_v2/cdc_function.cpp:1014

{



  fsr = scanptr;
     99c:	80 91 d4 01 	lds	r24, 0x01D4	; 0x8001d4 <scanptr>
     9a0:	80 93 d3 01 	sts	0x01D3, r24	; 0x8001d3 <fsr>
C:\Users\mateu\Desktop\cdc_arduino_modified_v2/cdc_function.cpp:1022

FirstByteLoop:

  //printstr_p(PSTR("1"),DEBUG);

  if (GetCaptureByte() == FALSE)
     9a4:	0e 94 43 01 	call	0x286	; 0x286 <GetCaptureByte()>
     9a8:	88 23       	and	r24, r24
     9aa:	09 f4       	brne	.+2      	; 0x9ae <CDC_Protocol()+0x68>
     9ac:	8b c1       	rjmp	.+790    	; 0xcc4 <CDC_Protocol()+0x37e>
C:\Users\mateu\Desktop\cdc_arduino_modified_v2/cdc_function.cpp:1036

FirstByteTest:

  //printstr_p(PSTR("2"),DEBUG);

  if (scanbyte == 0x53)
     9ae:	80 91 d2 01 	lds	r24, 0x01D2	; 0x8001d2 <scanbyte>
     9b2:	83 35       	cpi	r24, 0x53	; 83
     9b4:	09 f4       	brne	.+2      	; 0x9b8 <CDC_Protocol()+0x72>
     9b6:	56 c0       	rjmp	.+172    	; 0xa64 <CDC_Protocol()+0x11e>
C:\Users\mateu\Desktop\cdc_arduino_modified_v2/cdc_function.cpp:1046

  }

  // this byte doesn't match the beginning of a normal command packet,

  EnqueueHex(scanbyte);
     9b8:	0e 94 7c 01 	call	0x2f8	; 0x2f8 <EnqueueHex(unsigned char)>
C:\Users\mateu\Desktop\cdc_arduino_modified_v2/cdc_function.cpp:1048

  scanptr = fsr; // save scanptr, won't look at this byte again
     9bc:	80 91 d3 01 	lds	r24, 0x01D3	; 0x8001d3 <fsr>
     9c0:	80 93 d4 01 	sts	0x01D4, r24	; 0x8001d4 <scanptr>
     9c4:	ef cf       	rjmp	.-34     	; 0x9a4 <CDC_Protocol()+0x5e>
_Z12CDC_Protocolv():
C:\Users\mateu\Desktop\cdc_arduino_modified_v2/cdc_function.cpp:583
    flag_50ms = FALSE;
    SendPacket();
    scancount++;
    if (scancount == 0)
    {
      scancount = SCANWAIT;
     9c6:	8c e9       	ldi	r24, 0x9C	; 156
     9c8:	80 93 bd 01 	sts	0x01BD, r24	; 0x8001bd <scancount>
C:\Users\mateu\Desktop\cdc_arduino_modified_v2/cdc_function.cpp:584
      scan = FALSE; // turn off scan display
     9cc:	10 92 ce 01 	sts	0x01CE, r1	; 0x8001ce <scan>
C:\Users\mateu\Desktop\cdc_arduino_modified_v2/cdc_function.cpp:585
      leds &= 0xEF;
     9d0:	80 91 d5 01 	lds	r24, 0x01D5	; 0x8001d5 <leds>
     9d4:	8f 7e       	andi	r24, 0xEF	; 239
     9d6:	80 93 d5 01 	sts	0x01D5, r24	; 0x8001d5 <leds>
     9da:	c6 cf       	rjmp	.-116    	; 0x968 <CDC_Protocol()+0x22>
C:\Users\mateu\Desktop\cdc_arduino_modified_v2/cdc_function.cpp:590
    }
    secondcount++;
    if (secondcount == 0)
    {
      secondcount = SECONDWAIT;
     9dc:	8c ee       	ldi	r24, 0xEC	; 236
     9de:	80 93 be 01 	sts	0x01BE, r24	; 0x8001be <secondcount>
C:\Users\mateu\Desktop\cdc_arduino_modified_v2/cdc_function.cpp:591
      poweridentcount++;
     9e2:	80 91 bf 01 	lds	r24, 0x01BF	; 0x8001bf <poweridentcount>
     9e6:	8f 5f       	subi	r24, 0xFF	; 255
C:\Users\mateu\Desktop\cdc_arduino_modified_v2/cdc_function.cpp:593

      if (poweridentcount == 0)
     9e8:	29 f1       	breq	.+74     	; 0xa34 <CDC_Protocol()+0xee>
C:\Users\mateu\Desktop\cdc_arduino_modified_v2/cdc_function.cpp:591
    }
    secondcount++;
    if (secondcount == 0)
    {
      secondcount = SECONDWAIT;
      poweridentcount++;
     9ea:	80 93 bf 01 	sts	0x01BF, r24	; 0x8001bf <poweridentcount>
C:\Users\mateu\Desktop\cdc_arduino_modified_v2/cdc_function.cpp:601
        EnqueueString(sIDENTIFY);
        EnqueueString(sVERSION);
        EnqueueString(sNEWLINE);
      }

      second++; // increment the time display
     9ee:	80 91 d6 01 	lds	r24, 0x01D6	; 0x8001d6 <second>
     9f2:	91 e0       	ldi	r25, 0x01	; 1
     9f4:	98 0f       	add	r25, r24
C:\Users\mateu\Desktop\cdc_arduino_modified_v2/cdc_function.cpp:602
      decimal_adjust_u8 = second & 0x0F; // skip past hexidecimal codes
     9f6:	29 2f       	mov	r18, r25
     9f8:	2f 70       	andi	r18, 0x0F	; 15
C:\Users\mateu\Desktop\cdc_arduino_modified_v2/cdc_function.cpp:603
      if (decimal_adjust_u8 == 0x0A) // are with at xA?
     9fa:	2a 30       	cpi	r18, 0x0A	; 10
     9fc:	59 f1       	breq	.+86     	; 0xa54 <CDC_Protocol()+0x10e>
C:\Users\mateu\Desktop\cdc_arduino_modified_v2/cdc_function.cpp:601
        EnqueueString(sIDENTIFY);
        EnqueueString(sVERSION);
        EnqueueString(sNEWLINE);
      }

      second++; // increment the time display
     9fe:	90 93 d6 01 	sts	0x01D6, r25	; 0x8001d6 <second>
C:\Users\mateu\Desktop\cdc_arduino_modified_v2/cdc_function.cpp:608
      if (decimal_adjust_u8 == 0x0A) // are with at xA?
      {
        second += 6; // yes, add 6 and we'll be at x0 instead
      }

      if (second == 0x60)
     a02:	80 91 d6 01 	lds	r24, 0x01D6	; 0x8001d6 <second>
     a06:	80 36       	cpi	r24, 0x60	; 96
     a08:	09 f0       	breq	.+2      	; 0xa0c <CDC_Protocol()+0xc6>
     a0a:	b4 cf       	rjmp	.-152    	; 0x974 <CDC_Protocol()+0x2e>
C:\Users\mateu\Desktop\cdc_arduino_modified_v2/cdc_function.cpp:610
      {
        second = 0;
     a0c:	10 92 d6 01 	sts	0x01D6, r1	; 0x8001d6 <second>
C:\Users\mateu\Desktop\cdc_arduino_modified_v2/cdc_function.cpp:611
        minute++;
     a10:	80 91 d7 01 	lds	r24, 0x01D7	; 0x8001d7 <minute>
     a14:	91 e0       	ldi	r25, 0x01	; 1
     a16:	98 0f       	add	r25, r24
C:\Users\mateu\Desktop\cdc_arduino_modified_v2/cdc_function.cpp:612
        decimal_adjust_u8 = minute & 0x0F; // skip past hexidecimal codes
     a18:	29 2f       	mov	r18, r25
     a1a:	2f 70       	andi	r18, 0x0F	; 15
C:\Users\mateu\Desktop\cdc_arduino_modified_v2/cdc_function.cpp:613
        if (decimal_adjust_u8 == 0x0A) // are with at xA?
     a1c:	2a 30       	cpi	r18, 0x0A	; 10
     a1e:	f1 f0       	breq	.+60     	; 0xa5c <CDC_Protocol()+0x116>
C:\Users\mateu\Desktop\cdc_arduino_modified_v2/cdc_function.cpp:611
      }

      if (second == 0x60)
      {
        second = 0;
        minute++;
     a20:	90 93 d7 01 	sts	0x01D7, r25	; 0x8001d7 <minute>
C:\Users\mateu\Desktop\cdc_arduino_modified_v2/cdc_function.cpp:618
        if (decimal_adjust_u8 == 0x0A) // are with at xA?
        {
          minute += 6; // yes, add 6 and we'll be at x0 instead
        }

        if (minute == 0xA0) // have we gone beyond 99 minutes?
     a24:	80 91 d7 01 	lds	r24, 0x01D7	; 0x8001d7 <minute>
     a28:	80 3a       	cpi	r24, 0xA0	; 160
     a2a:	09 f0       	breq	.+2      	; 0xa2e <CDC_Protocol()+0xe8>
     a2c:	a3 cf       	rjmp	.-186    	; 0x974 <CDC_Protocol()+0x2e>
C:\Users\mateu\Desktop\cdc_arduino_modified_v2/cdc_function.cpp:620
        {
          minute = 0;
     a2e:	10 92 d7 01 	sts	0x01D7, r1	; 0x8001d7 <minute>
     a32:	a0 cf       	rjmp	.-192    	; 0x974 <CDC_Protocol()+0x2e>
C:\Users\mateu\Desktop\cdc_arduino_modified_v2/cdc_function.cpp:595
      secondcount = SECONDWAIT;
      poweridentcount++;

      if (poweridentcount == 0)
      {
        poweridentcount = POWERIDENTWAIT;
     a34:	86 ef       	ldi	r24, 0xF6	; 246
     a36:	80 93 bf 01 	sts	0x01BF, r24	; 0x8001bf <poweridentcount>
C:\Users\mateu\Desktop\cdc_arduino_modified_v2/cdc_function.cpp:596
        EnqueueString(sIDENTIFY);
     a3a:	8f eb       	ldi	r24, 0xBF	; 191
     a3c:	90 e0       	ldi	r25, 0x00	; 0
     a3e:	0e 94 69 01 	call	0x2d2	; 0x2d2 <EnqueueString(unsigned char const*)>
C:\Users\mateu\Desktop\cdc_arduino_modified_v2/cdc_function.cpp:597
        EnqueueString(sVERSION);
     a42:	84 eb       	ldi	r24, 0xB4	; 180
     a44:	90 e0       	ldi	r25, 0x00	; 0
     a46:	0e 94 69 01 	call	0x2d2	; 0x2d2 <EnqueueString(unsigned char const*)>
C:\Users\mateu\Desktop\cdc_arduino_modified_v2/cdc_function.cpp:598
        EnqueueString(sNEWLINE);
     a4a:	8c eb       	ldi	r24, 0xBC	; 188
     a4c:	90 e0       	ldi	r25, 0x00	; 0
     a4e:	0e 94 69 01 	call	0x2d2	; 0x2d2 <EnqueueString(unsigned char const*)>
     a52:	cd cf       	rjmp	.-102    	; 0x9ee <CDC_Protocol()+0xa8>
C:\Users\mateu\Desktop\cdc_arduino_modified_v2/cdc_function.cpp:605

      second++; // increment the time display
      decimal_adjust_u8 = second & 0x0F; // skip past hexidecimal codes
      if (decimal_adjust_u8 == 0x0A) // are with at xA?
      {
        second += 6; // yes, add 6 and we'll be at x0 instead
     a54:	89 5f       	subi	r24, 0xF9	; 249
     a56:	80 93 d6 01 	sts	0x01D6, r24	; 0x8001d6 <second>
     a5a:	d3 cf       	rjmp	.-90     	; 0xa02 <CDC_Protocol()+0xbc>
C:\Users\mateu\Desktop\cdc_arduino_modified_v2/cdc_function.cpp:615
        second = 0;
        minute++;
        decimal_adjust_u8 = minute & 0x0F; // skip past hexidecimal codes
        if (decimal_adjust_u8 == 0x0A) // are with at xA?
        {
          minute += 6; // yes, add 6 and we'll be at x0 instead
     a5c:	89 5f       	subi	r24, 0xF9	; 249
     a5e:	80 93 d7 01 	sts	0x01D7, r24	; 0x8001d7 <minute>
     a62:	e0 cf       	rjmp	.-64     	; 0xa24 <CDC_Protocol()+0xde>
ScanCommandBytes():
C:\Users\mateu\Desktop\cdc_arduino_modified_v2/cdc_function.cpp:1058

SecondByte:

  //printstr_p(PSTR("3"),DEBUG);

  if (GetCaptureByte() == FALSE)
     a64:	0e 94 43 01 	call	0x286	; 0x286 <GetCaptureByte()>
     a68:	88 23       	and	r24, r24
     a6a:	09 f4       	brne	.+2      	; 0xa6e <CDC_Protocol()+0x128>
     a6c:	2b c1       	rjmp	.+598    	; 0xcc4 <CDC_Protocol()+0x37e>
C:\Users\mateu\Desktop\cdc_arduino_modified_v2/cdc_function.cpp:1066

    return;

  }

  if (scanbyte == 0x2C) // verify that byte 2 is 0x2C)
     a6e:	80 91 d2 01 	lds	r24, 0x01D2	; 0x8001d2 <scanbyte>
     a72:	8c 32       	cpi	r24, 0x2C	; 44
     a74:	21 f0       	breq	.+8      	; 0xa7e <CDC_Protocol()+0x138>
C:\Users\mateu\Desktop\cdc_arduino_modified_v2/cdc_function.cpp:1078

  // the first byte was a match, but the second byte failed.

  // dump first byte and then see if this one is the real first byte.

  EnqueueHex(0x53);
     a76:	83 e5       	ldi	r24, 0x53	; 83
     a78:	0e 94 7c 01 	call	0x2f8	; 0x2f8 <EnqueueHex(unsigned char)>
     a7c:	98 cf       	rjmp	.-208    	; 0x9ae <CDC_Protocol()+0x68>
C:\Users\mateu\Desktop\cdc_arduino_modified_v2/cdc_function.cpp:1088

ThirdByte:

  //printstr_p(PSTR("4"),DEBUG);

  if (GetCaptureByte() == FALSE)
     a7e:	0e 94 43 01 	call	0x286	; 0x286 <GetCaptureByte()>
     a82:	88 23       	and	r24, r24
     a84:	09 f4       	brne	.+2      	; 0xa88 <CDC_Protocol()+0x142>
     a86:	1e c1       	rjmp	.+572    	; 0xcc4 <CDC_Protocol()+0x37e>
C:\Users\mateu\Desktop\cdc_arduino_modified_v2/cdc_function.cpp:1096

    return;

  }

  cmdcode = scanbyte; // save command code for later use.
     a88:	80 91 d2 01 	lds	r24, 0x01D2	; 0x8001d2 <scanbyte>
     a8c:	80 93 d1 01 	sts	0x01D1, r24	; 0x8001d1 <cmdcode>
C:\Users\mateu\Desktop\cdc_arduino_modified_v2/cdc_function.cpp:1104

FourthByte:

  //printstr_p(PSTR("5"),DEBUG);

  if (GetCaptureByte() == FALSE)
     a90:	0e 94 43 01 	call	0x286	; 0x286 <GetCaptureByte()>
     a94:	88 23       	and	r24, r24
     a96:	09 f4       	brne	.+2      	; 0xa9a <CDC_Protocol()+0x154>
     a98:	15 c1       	rjmp	.+554    	; 0xcc4 <CDC_Protocol()+0x37e>
C:\Users\mateu\Desktop\cdc_arduino_modified_v2/cdc_function.cpp:1120



  // verify that (Byte 3 + Byte 4) = 0xFF

  if ((cmdcode + scanbyte) == 0xFF)
     a9a:	80 91 d1 01 	lds	r24, 0x01D1	; 0x8001d1 <cmdcode>
     a9e:	20 91 d2 01 	lds	r18, 0x01D2	; 0x8001d2 <scanbyte>
     aa2:	28 0f       	add	r18, r24
     aa4:	33 27       	eor	r19, r19
     aa6:	33 1f       	adc	r19, r19
     aa8:	2f 3f       	cpi	r18, 0xFF	; 255
     aaa:	31 05       	cpc	r19, r1
     aac:	09 f0       	breq	.+2      	; 0xab0 <CDC_Protocol()+0x16a>
     aae:	07 c2       	rjmp	.+1038   	; 0xebe <CDC_Protocol()+0x578>
C:\Users\mateu\Desktop\cdc_arduino_modified_v2/cdc_function.cpp:1128

    //printstr_p(PSTR("6"),DEBUG);



    if ((cmdcode & 0x03) == 0) // verify that Byte 3 is a multiple of 4
     ab0:	98 2f       	mov	r25, r24
     ab2:	93 70       	andi	r25, 0x03	; 3
     ab4:	09 f0       	breq	.+2      	; 0xab8 <CDC_Protocol()+0x172>
     ab6:	03 c2       	rjmp	.+1030   	; 0xebe <CDC_Protocol()+0x578>
C:\Users\mateu\Desktop\cdc_arduino_modified_v2/cdc_function.cpp:1136

      //printstr_p(PSTR("7"),DEBUG);



      ACKcount = -4; // acknowledge command
     ab8:	9c ef       	ldi	r25, 0xFC	; 252
     aba:	90 93 c1 01 	sts	0x01C1, r25	; 0x8001c1 <ACKcount>
C:\Users\mateu\Desktop\cdc_arduino_modified_v2/cdc_function.cpp:1138

      scanptr = fsr; // save scanptr, won't look at this byte again
     abe:	90 91 d3 01 	lds	r25, 0x01D3	; 0x8001d3 <fsr>
     ac2:	90 93 d4 01 	sts	0x01D4, r25	; 0x8001d4 <scanptr>
DecodeCommand():
C:\Users\mateu\Desktop\cdc_arduino_modified_v2/cdc_function.cpp:724

#ifdef JUST_HEX_TO_SERIAL
  Serial.write(cmdcode);
#endif

  switch (cmdcode) {
     ac6:	88 35       	cpi	r24, 0x58	; 88
     ac8:	09 f4       	brne	.+2      	; 0xacc <CDC_Protocol()+0x186>
     aca:	36 c1       	rjmp	.+620    	; 0xd38 <CDC_Protocol()+0x3f2>
     acc:	08 f0       	brcs	.+2      	; 0xad0 <CDC_Protocol()+0x18a>
     ace:	76 c0       	rjmp	.+236    	; 0xbbc <CDC_Protocol()+0x276>
     ad0:	84 31       	cpi	r24, 0x14	; 20
     ad2:	09 f4       	brne	.+2      	; 0xad6 <CDC_Protocol()+0x190>
     ad4:	f5 c0       	rjmp	.+490    	; 0xcc0 <CDC_Protocol()+0x37a>
     ad6:	08 f5       	brcc	.+66     	; 0xb1a <CDC_Protocol()+0x1d4>
     ad8:	88 30       	cpi	r24, 0x08	; 8
     ada:	09 f4       	brne	.+2      	; 0xade <CDC_Protocol()+0x198>
     adc:	11 c1       	rjmp	.+546    	; 0xd00 <CDC_Protocol()+0x3ba>
     ade:	88 f4       	brcc	.+34     	; 0xb02 <CDC_Protocol()+0x1bc>
     ae0:	81 30       	cpi	r24, 0x01	; 1
     ae2:	09 f4       	brne	.+2      	; 0xae6 <CDC_Protocol()+0x1a0>
     ae4:	1e c1       	rjmp	.+572    	; 0xd22 <CDC_Protocol()+0x3dc>
     ae6:	83 30       	cpi	r24, 0x03	; 3
     ae8:	09 f4       	brne	.+2      	; 0xaec <CDC_Protocol()+0x1a6>
     aea:	52 c1       	rjmp	.+676    	; 0xd90 <CDC_Protocol()+0x44a>
C:\Users\mateu\Desktop\cdc_arduino_modified_v2/cdc_function.cpp:979
         one that we understand.

         Dump the unknown command code for the user to view.
      */

      EnqueueString(sDASH);
     aec:	8a eb       	ldi	r24, 0xBA	; 186
     aee:	90 e0       	ldi	r25, 0x00	; 0
     af0:	0e 94 69 01 	call	0x2d2	; 0x2d2 <EnqueueString(unsigned char const*)>
C:\Users\mateu\Desktop\cdc_arduino_modified_v2/cdc_function.cpp:980
      EnqueueHex(cmdcode);
     af4:	80 91 d1 01 	lds	r24, 0x01D1	; 0x8001d1 <cmdcode>
     af8:	0e 94 7c 01 	call	0x2f8	; 0x2f8 <EnqueueHex(unsigned char)>
C:\Users\mateu\Desktop\cdc_arduino_modified_v2/cdc_function.cpp:981
      EnqueueString(sNEWLINE);
     afc:	8c eb       	ldi	r24, 0xBC	; 188
     afe:	90 e0       	ldi	r25, 0x00	; 0
     b00:	0d c1       	rjmp	.+538    	; 0xd1c <CDC_Protocol()+0x3d6>
C:\Users\mateu\Desktop\cdc_arduino_modified_v2/cdc_function.cpp:724

#ifdef JUST_HEX_TO_SERIAL
  Serial.write(cmdcode);
#endif

  switch (cmdcode) {
     b02:	8c 30       	cpi	r24, 0x0C	; 12
     b04:	09 f4       	brne	.+2      	; 0xb08 <CDC_Protocol()+0x1c2>
     b06:	6b c1       	rjmp	.+726    	; 0xdde <CDC_Protocol()+0x498>
     b08:	80 31       	cpi	r24, 0x10	; 16
     b0a:	81 f7       	brne	.-32     	; 0xaec <CDC_Protocol()+0x1a6>
SetStateIdle():
C:\Users\mateu\Desktop\cdc_arduino_modified_v2/cdc_function.cpp:1299

static void SetStateIdle(void)

{

  playing = FALSE;
     b0c:	10 92 cd 01 	sts	0x01CD, r1	; 0x8001cd <playing>
C:\Users\mateu\Desktop\cdc_arduino_modified_v2/cdc_function.cpp:1301

  BIDIstate = StateIdle;
     b10:	10 92 c3 01 	sts	0x01C3, r1	; 0x8001c3 <BIDIstate>
DecodeCommand():
C:\Users\mateu\Desktop\cdc_arduino_modified_v2/cdc_function.cpp:762
    case Do_DISABLE:
      SetStateIdle(); // skip this if we're already in idle mode
#ifndef DISC_TRACK_NUMBER_FROM_MPD
      //      disc = 0x41; // set back to CD 1
#endif
      EnqueueString(sMDISABLE);
     b14:	81 e4       	ldi	r24, 0x41	; 65
     b16:	91 e0       	ldi	r25, 0x01	; 1
     b18:	01 c1       	rjmp	.+514    	; 0xd1c <CDC_Protocol()+0x3d6>
C:\Users\mateu\Desktop\cdc_arduino_modified_v2/cdc_function.cpp:724

#ifdef JUST_HEX_TO_SERIAL
  Serial.write(cmdcode);
#endif

  switch (cmdcode) {
     b1a:	80 33       	cpi	r24, 0x30	; 48
     b1c:	09 f4       	brne	.+2      	; 0xb20 <CDC_Protocol()+0x1da>
     b1e:	c2 c1       	rjmp	.+900    	; 0xea4 <CDC_Protocol()+0x55e>
     b20:	30 f5       	brcc	.+76     	; 0xb6e <CDC_Protocol()+0x228>
     b22:	88 31       	cpi	r24, 0x18	; 24
     b24:	09 f4       	brne	.+2      	; 0xb28 <CDC_Protocol()+0x1e2>
     b26:	08 c1       	rjmp	.+528    	; 0xd38 <CDC_Protocol()+0x3f2>
     b28:	8c 32       	cpi	r24, 0x2C	; 44
     b2a:	01 f7       	brne	.-64     	; 0xaec <CDC_Protocol()+0x1a6>
C:\Users\mateu\Desktop\cdc_arduino_modified_v2/cdc_function.cpp:946
      if (cdButtonPushed(4))
          EnqueueString(sLIST4);
      break;

    case Do_CD5:
      cd_button = TRUE; // mk store cd button pressed
     b2c:	81 e0       	ldi	r24, 0x01	; 1
     b2e:	80 93 cc 01 	sts	0x01CC, r24	; 0x8001cc <cd_button>
C:\Users\mateu\Desktop\cdc_arduino_modified_v2/cdc_function.cpp:948
#ifndef DISC_TRACK_NUMBER_FROM_MPD
      disc = 0x45; // set CD 5
     b32:	85 e4       	ldi	r24, 0x45	; 69
     b34:	80 93 07 01 	sts	0x0107, r24	; 0x800107 <disc>
cdButtonPushed():
C:\Users\mateu\Desktop\cdc_arduino_modified_v2/cdc_function.cpp:2083
        if (++cd4pushed == 6)
          cd4pushed = 0;
        return cd4pushed;

      case 5:
        cd1pushed = cd2pushed = cd3pushed = cd4pushed = cd6pushed;
     b38:	80 91 79 01 	lds	r24, 0x0179	; 0x800179 <cdButtonPushed(unsigned char)::cd6pushed>
     b3c:	80 93 7b 01 	sts	0x017B, r24	; 0x80017b <cdButtonPushed(unsigned char)::cd4pushed>
     b40:	80 93 7c 01 	sts	0x017C, r24	; 0x80017c <cdButtonPushed(unsigned char)::cd3pushed>
     b44:	80 93 7d 01 	sts	0x017D, r24	; 0x80017d <cdButtonPushed(unsigned char)::cd2pushed>
     b48:	80 93 7e 01 	sts	0x017E, r24	; 0x80017e <cdButtonPushed(unsigned char)::cd1pushed>
C:\Users\mateu\Desktop\cdc_arduino_modified_v2/cdc_function.cpp:2084
        if (++cd5pushed == 6)
     b4c:	80 91 7a 01 	lds	r24, 0x017A	; 0x80017a <cdButtonPushed(unsigned char)::cd5pushed>
     b50:	8f 5f       	subi	r24, 0xFF	; 255
     b52:	80 93 7a 01 	sts	0x017A, r24	; 0x80017a <cdButtonPushed(unsigned char)::cd5pushed>
     b56:	86 30       	cpi	r24, 0x06	; 6
     b58:	11 f4       	brne	.+4      	; 0xb5e <CDC_Protocol()+0x218>
C:\Users\mateu\Desktop\cdc_arduino_modified_v2/cdc_function.cpp:2085
          cd5pushed = 0;
     b5a:	10 92 7a 01 	sts	0x017A, r1	; 0x80017a <cdButtonPushed(unsigned char)::cd5pushed>
DecodeCommand():
C:\Users\mateu\Desktop\cdc_arduino_modified_v2/cdc_function.cpp:950
    case Do_CD5:
      cd_button = TRUE; // mk store cd button pressed
#ifndef DISC_TRACK_NUMBER_FROM_MPD
      disc = 0x45; // set CD 5
#endif
      if (cdButtonPushed(5))
     b5e:	80 91 7a 01 	lds	r24, 0x017A	; 0x80017a <cdButtonPushed(unsigned char)::cd5pushed>
     b62:	88 23       	and	r24, r24
     b64:	09 f4       	brne	.+2      	; 0xb68 <CDC_Protocol()+0x222>
     b66:	ae c0       	rjmp	.+348    	; 0xcc4 <CDC_Protocol()+0x37e>
C:\Users\mateu\Desktop\cdc_arduino_modified_v2/cdc_function.cpp:951
          EnqueueString(sLIST5);
     b68:	8d e1       	ldi	r24, 0x1D	; 29
     b6a:	91 e0       	ldi	r25, 0x01	; 1
     b6c:	d7 c0       	rjmp	.+430    	; 0xd1c <CDC_Protocol()+0x3d6>
C:\Users\mateu\Desktop\cdc_arduino_modified_v2/cdc_function.cpp:724

#ifdef JUST_HEX_TO_SERIAL
  Serial.write(cmdcode);
#endif

  switch (cmdcode) {
     b6e:	88 33       	cpi	r24, 0x38	; 56
     b70:	09 f4       	brne	.+2      	; 0xb74 <CDC_Protocol()+0x22e>
     b72:	f4 c0       	rjmp	.+488    	; 0xd5c <CDC_Protocol()+0x416>
     b74:	8c 34       	cpi	r24, 0x4C	; 76
     b76:	09 f0       	breq	.+2      	; 0xb7a <CDC_Protocol()+0x234>
     b78:	b9 cf       	rjmp	.-142    	; 0xaec <CDC_Protocol()+0x1a6>
C:\Users\mateu\Desktop\cdc_arduino_modified_v2/cdc_function.cpp:925
        //SendBK3266("COM+MUD\r\n");
      #endif
      break;

    case Do_CD3:
      cd_button = TRUE; // mk store cd button pressed
     b7a:	81 e0       	ldi	r24, 0x01	; 1
     b7c:	80 93 cc 01 	sts	0x01CC, r24	; 0x8001cc <cd_button>
C:\Users\mateu\Desktop\cdc_arduino_modified_v2/cdc_function.cpp:927
#ifndef DISC_TRACK_NUMBER_FROM_MPD
      disc = 0x43; // set CD 3
     b80:	83 e4       	ldi	r24, 0x43	; 67
     b82:	80 93 07 01 	sts	0x0107, r24	; 0x800107 <disc>
cdButtonPushed():
C:\Users\mateu\Desktop\cdc_arduino_modified_v2/cdc_function.cpp:2071
      if (++cd2pushed == 6)
        cd2pushed = 0;
        return cd2pushed;

      case 3:
        cd1pushed = cd2pushed = cd4pushed = cd5pushed = cd6pushed;
     b86:	80 91 79 01 	lds	r24, 0x0179	; 0x800179 <cdButtonPushed(unsigned char)::cd6pushed>
     b8a:	80 93 7a 01 	sts	0x017A, r24	; 0x80017a <cdButtonPushed(unsigned char)::cd5pushed>
     b8e:	80 93 7b 01 	sts	0x017B, r24	; 0x80017b <cdButtonPushed(unsigned char)::cd4pushed>
     b92:	80 93 7d 01 	sts	0x017D, r24	; 0x80017d <cdButtonPushed(unsigned char)::cd2pushed>
     b96:	80 93 7e 01 	sts	0x017E, r24	; 0x80017e <cdButtonPushed(unsigned char)::cd1pushed>
C:\Users\mateu\Desktop\cdc_arduino_modified_v2/cdc_function.cpp:2072
        if (++cd3pushed == 6)
     b9a:	80 91 7c 01 	lds	r24, 0x017C	; 0x80017c <cdButtonPushed(unsigned char)::cd3pushed>
     b9e:	8f 5f       	subi	r24, 0xFF	; 255
     ba0:	80 93 7c 01 	sts	0x017C, r24	; 0x80017c <cdButtonPushed(unsigned char)::cd3pushed>
     ba4:	86 30       	cpi	r24, 0x06	; 6
     ba6:	11 f4       	brne	.+4      	; 0xbac <CDC_Protocol()+0x266>
C:\Users\mateu\Desktop\cdc_arduino_modified_v2/cdc_function.cpp:2073
          cd3pushed = 0;
     ba8:	10 92 7c 01 	sts	0x017C, r1	; 0x80017c <cdButtonPushed(unsigned char)::cd3pushed>
DecodeCommand():
C:\Users\mateu\Desktop\cdc_arduino_modified_v2/cdc_function.cpp:929
    case Do_CD3:
      cd_button = TRUE; // mk store cd button pressed
#ifndef DISC_TRACK_NUMBER_FROM_MPD
      disc = 0x43; // set CD 3
#endif
      if (cdButtonPushed(3))
     bac:	80 91 7c 01 	lds	r24, 0x017C	; 0x80017c <cdButtonPushed(unsigned char)::cd3pushed>
     bb0:	88 23       	and	r24, r24
     bb2:	09 f4       	brne	.+2      	; 0xbb6 <CDC_Protocol()+0x270>
     bb4:	87 c0       	rjmp	.+270    	; 0xcc4 <CDC_Protocol()+0x37e>
C:\Users\mateu\Desktop\cdc_arduino_modified_v2/cdc_function.cpp:930
          EnqueueString(sLIST3);
     bb6:	8f e1       	ldi	r24, 0x1F	; 31
     bb8:	91 e0       	ldi	r25, 0x01	; 1
     bba:	b0 c0       	rjmp	.+352    	; 0xd1c <CDC_Protocol()+0x3d6>
C:\Users\mateu\Desktop\cdc_arduino_modified_v2/cdc_function.cpp:724

#ifdef JUST_HEX_TO_SERIAL
  Serial.write(cmdcode);
#endif

  switch (cmdcode) {
     bbc:	88 3a       	cpi	r24, 0xA8	; 168
     bbe:	09 f4       	brne	.+2      	; 0xbc2 <CDC_Protocol()+0x27c>
     bc0:	ed c0       	rjmp	.+474    	; 0xd9c <CDC_Protocol()+0x456>
     bc2:	08 f0       	brcs	.+2      	; 0xbc6 <CDC_Protocol()+0x280>
     bc4:	3f c0       	rjmp	.+126    	; 0xc44 <CDC_Protocol()+0x2fe>
     bc6:	88 37       	cpi	r24, 0x78	; 120
     bc8:	09 f4       	brne	.+2      	; 0xbcc <CDC_Protocol()+0x286>
     bca:	e8 c0       	rjmp	.+464    	; 0xd9c <CDC_Protocol()+0x456>
     bcc:	40 f5       	brcc	.+80     	; 0xc1e <CDC_Protocol()+0x2d8>
     bce:	80 36       	cpi	r24, 0x60	; 96
     bd0:	09 f4       	brne	.+2      	; 0xbd4 <CDC_Protocol()+0x28e>
     bd2:	6a c0       	rjmp	.+212    	; 0xca8 <CDC_Protocol()+0x362>
     bd4:	88 36       	cpi	r24, 0x68	; 104
     bd6:	09 f0       	breq	.+2      	; 0xbda <CDC_Protocol()+0x294>
     bd8:	89 cf       	rjmp	.-238    	; 0xaec <CDC_Protocol()+0x1a6>
C:\Users\mateu\Desktop\cdc_arduino_modified_v2/cdc_function.cpp:852
#endif
      break;

    case Do_UP:
    case Do_UP_MK3:
      if (playing == TRUE) // skip track lead-in if not in play mode
     bda:	80 91 cd 01 	lds	r24, 0x01CD	; 0x8001cd <playing>
     bde:	81 30       	cpi	r24, 0x01	; 1
     be0:	31 f4       	brne	.+12     	; 0xbee <CDC_Protocol()+0x2a8>
SetStateTrackLeadIn():
C:\Users\mateu\Desktop\cdc_arduino_modified_v2/cdc_function.cpp:1454

{

  playing = TRUE;

  BIDIstate = StateTrackLeadIn;
     be2:	88 e0       	ldi	r24, 0x08	; 8
     be4:	80 93 c3 01 	sts	0x01C3, r24	; 0x8001c3 <BIDIstate>
C:\Users\mateu\Desktop\cdc_arduino_modified_v2/cdc_function.cpp:1456

  BIDIcount = -12;
     be8:	84 ef       	ldi	r24, 0xF4	; 244
     bea:	80 93 c2 01 	sts	0x01C2, r24	; 0x8001c2 <BIDIcount>
DecodeCommand():
C:\Users\mateu\Desktop\cdc_arduino_modified_v2/cdc_function.cpp:856
    case Do_UP_MK3:
      if (playing == TRUE) // skip track lead-in if not in play mode
      {
        SetStateTrackLeadIn();
      }
      ResetTime();
     bee:	0e 94 bd 01 	call	0x37a	; 0x37a <ResetTime()>
C:\Users\mateu\Desktop\cdc_arduino_modified_v2/cdc_function.cpp:858
#ifndef DISC_TRACK_NUMBER_FROM_MPD
      track++;
     bf2:	80 91 06 01 	lds	r24, 0x0106	; 0x800106 <track>
     bf6:	91 e0       	ldi	r25, 0x01	; 1
     bf8:	98 0f       	add	r25, r24
     bfa:	90 93 06 01 	sts	0x0106, r25	; 0x800106 <track>
C:\Users\mateu\Desktop\cdc_arduino_modified_v2/cdc_function.cpp:859
      decimal_adjust_u8 = track & 0x0F; // skip past hexidecimal codes
     bfe:	9f 70       	andi	r25, 0x0F	; 15
C:\Users\mateu\Desktop\cdc_arduino_modified_v2/cdc_function.cpp:860
      if (decimal_adjust_u8 == 0x0A) // are with at xA?
     c00:	9a 30       	cpi	r25, 0x0A	; 10
     c02:	19 f4       	brne	.+6      	; 0xc0a <CDC_Protocol()+0x2c4>
C:\Users\mateu\Desktop\cdc_arduino_modified_v2/cdc_function.cpp:862
      {
        track += 6; // yes, add 6 and we'll be at x0 instead
     c04:	89 5f       	subi	r24, 0xF9	; 249
     c06:	80 93 06 01 	sts	0x0106, r24	; 0x800106 <track>
C:\Users\mateu\Desktop\cdc_arduino_modified_v2/cdc_function.cpp:864
      }
      if (track == 0xA0) // have we gone beyond Track 99?
     c0a:	80 91 06 01 	lds	r24, 0x0106	; 0x800106 <track>
     c0e:	80 3a       	cpi	r24, 0xA0	; 160
     c10:	19 f4       	brne	.+6      	; 0xc18 <CDC_Protocol()+0x2d2>
C:\Users\mateu\Desktop\cdc_arduino_modified_v2/cdc_function.cpp:866
      { // yes, rollover to Track 01 so that jog wheels
        track = 1; // can continue rolling (Audi Concert II)
     c12:	81 e0       	ldi	r24, 0x01	; 1
     c14:	80 93 06 01 	sts	0x0106, r24	; 0x800106 <track>
C:\Users\mateu\Desktop\cdc_arduino_modified_v2/cdc_function.cpp:869
      }
#endif
      EnqueueString(sNEXT);
     c18:	80 e0       	ldi	r24, 0x00	; 0
     c1a:	91 e0       	ldi	r25, 0x01	; 1
     c1c:	7f c0       	rjmp	.+254    	; 0xd1c <CDC_Protocol()+0x3d6>
C:\Users\mateu\Desktop\cdc_arduino_modified_v2/cdc_function.cpp:724

#ifdef JUST_HEX_TO_SERIAL
  Serial.write(cmdcode);
#endif

  switch (cmdcode) {
     c1e:	8c 38       	cpi	r24, 0x8C	; 140
     c20:	09 f4       	brne	.+2      	; 0xc24 <CDC_Protocol()+0x2de>
     c22:	fe c0       	rjmp	.+508    	; 0xe20 <CDC_Protocol()+0x4da>
     c24:	80 3a       	cpi	r24, 0xA0	; 160
     c26:	09 f0       	breq	.+2      	; 0xc2a <CDC_Protocol()+0x2e4>
     c28:	61 cf       	rjmp	.-318    	; 0xaec <CDC_Protocol()+0x1a6>
C:\Users\mateu\Desktop\cdc_arduino_modified_v2/cdc_function.cpp:830
      EnqueueString(sPLAY); // this will make the PJRC play/pause
      break;

    case Do_SCAN:

      scancount = SCANWAIT;
     c2a:	8c e9       	ldi	r24, 0x9C	; 156
     c2c:	80 93 bd 01 	sts	0x01BD, r24	; 0x8001bd <scancount>
C:\Users\mateu\Desktop\cdc_arduino_modified_v2/cdc_function.cpp:832
#ifndef DISC_TRACK_NUMBER_FROM_MPD
      if (scan == FALSE)
     c30:	80 91 ce 01 	lds	r24, 0x01CE	; 0x8001ce <scan>
     c34:	81 11       	cpse	r24, r1
     c36:	af c0       	rjmp	.+350    	; 0xd96 <CDC_Protocol()+0x450>
C:\Users\mateu\Desktop\cdc_arduino_modified_v2/cdc_function.cpp:834
      {
        scan = TRUE;
     c38:	81 e0       	ldi	r24, 0x01	; 1
     c3a:	80 93 ce 01 	sts	0x01CE, r24	; 0x8001ce <scan>
C:\Users\mateu\Desktop\cdc_arduino_modified_v2/cdc_function.cpp:846
#endif

#ifdef PJRC
      EnqueueString(sPLAY); // this will make the PJRC play/pause
#else
      EnqueueString(sSCAN);
     c3e:	89 e0       	ldi	r24, 0x09	; 9
     c40:	91 e0       	ldi	r25, 0x01	; 1
     c42:	6c c0       	rjmp	.+216    	; 0xd1c <CDC_Protocol()+0x3d6>
C:\Users\mateu\Desktop\cdc_arduino_modified_v2/cdc_function.cpp:724

#ifdef JUST_HEX_TO_SERIAL
  Serial.write(cmdcode);
#endif

  switch (cmdcode) {
     c44:	88 3d       	cpi	r24, 0xD8	; 216
     c46:	09 f4       	brne	.+2      	; 0xc4a <CDC_Protocol()+0x304>
     c48:	89 c0       	rjmp	.+274    	; 0xd5c <CDC_Protocol()+0x416>
     c4a:	30 f5       	brcc	.+76     	; 0xc98 <CDC_Protocol()+0x352>
     c4c:	8c 3a       	cpi	r24, 0xAC	; 172
     c4e:	09 f4       	brne	.+2      	; 0xc52 <CDC_Protocol()+0x30c>
     c50:	08 c1       	rjmp	.+528    	; 0xe62 <CDC_Protocol()+0x51c>
     c52:	8c 3c       	cpi	r24, 0xCC	; 204
     c54:	09 f0       	breq	.+2      	; 0xc58 <CDC_Protocol()+0x312>
     c56:	4a cf       	rjmp	.-364    	; 0xaec <CDC_Protocol()+0x1a6>
C:\Users\mateu\Desktop\cdc_arduino_modified_v2/cdc_function.cpp:937
        //SendBK3266("COM+MAX\r\n");
      #endif
      break;

    case Do_CD4:
      cd_button = TRUE; // mk store cd button pressed
     c58:	81 e0       	ldi	r24, 0x01	; 1
     c5a:	80 93 cc 01 	sts	0x01CC, r24	; 0x8001cc <cd_button>
C:\Users\mateu\Desktop\cdc_arduino_modified_v2/cdc_function.cpp:939
#ifndef DISC_TRACK_NUMBER_FROM_MPD
      disc = 0x44; // set CD 4
     c5e:	84 e4       	ldi	r24, 0x44	; 68
     c60:	80 93 07 01 	sts	0x0107, r24	; 0x800107 <disc>
cdButtonPushed():
C:\Users\mateu\Desktop\cdc_arduino_modified_v2/cdc_function.cpp:2077
        if (++cd3pushed == 6)
          cd3pushed = 0;
        return cd3pushed;

      case 4:
        cd1pushed = cd2pushed = cd3pushed = cd5pushed = cd6pushed;
     c64:	80 91 79 01 	lds	r24, 0x0179	; 0x800179 <cdButtonPushed(unsigned char)::cd6pushed>
     c68:	80 93 7a 01 	sts	0x017A, r24	; 0x80017a <cdButtonPushed(unsigned char)::cd5pushed>
     c6c:	80 93 7c 01 	sts	0x017C, r24	; 0x80017c <cdButtonPushed(unsigned char)::cd3pushed>
     c70:	80 93 7d 01 	sts	0x017D, r24	; 0x80017d <cdButtonPushed(unsigned char)::cd2pushed>
     c74:	80 93 7e 01 	sts	0x017E, r24	; 0x80017e <cdButtonPushed(unsigned char)::cd1pushed>
C:\Users\mateu\Desktop\cdc_arduino_modified_v2/cdc_function.cpp:2078
        if (++cd4pushed == 6)
     c78:	80 91 7b 01 	lds	r24, 0x017B	; 0x80017b <cdButtonPushed(unsigned char)::cd4pushed>
     c7c:	8f 5f       	subi	r24, 0xFF	; 255
     c7e:	80 93 7b 01 	sts	0x017B, r24	; 0x80017b <cdButtonPushed(unsigned char)::cd4pushed>
     c82:	86 30       	cpi	r24, 0x06	; 6
     c84:	11 f4       	brne	.+4      	; 0xc8a <CDC_Protocol()+0x344>
C:\Users\mateu\Desktop\cdc_arduino_modified_v2/cdc_function.cpp:2079
          cd4pushed = 0;
     c86:	10 92 7b 01 	sts	0x017B, r1	; 0x80017b <cdButtonPushed(unsigned char)::cd4pushed>
DecodeCommand():
C:\Users\mateu\Desktop\cdc_arduino_modified_v2/cdc_function.cpp:941
    case Do_CD4:
      cd_button = TRUE; // mk store cd button pressed
#ifndef DISC_TRACK_NUMBER_FROM_MPD
      disc = 0x44; // set CD 4
#endif
      if (cdButtonPushed(4))
     c8a:	80 91 7b 01 	lds	r24, 0x017B	; 0x80017b <cdButtonPushed(unsigned char)::cd4pushed>
     c8e:	88 23       	and	r24, r24
     c90:	c9 f0       	breq	.+50     	; 0xcc4 <CDC_Protocol()+0x37e>
C:\Users\mateu\Desktop\cdc_arduino_modified_v2/cdc_function.cpp:942
          EnqueueString(sLIST4);
     c92:	8e e1       	ldi	r24, 0x1E	; 30
     c94:	91 e0       	ldi	r25, 0x01	; 1
     c96:	42 c0       	rjmp	.+132    	; 0xd1c <CDC_Protocol()+0x3d6>
C:\Users\mateu\Desktop\cdc_arduino_modified_v2/cdc_function.cpp:724

#ifdef JUST_HEX_TO_SERIAL
  Serial.write(cmdcode);
#endif

  switch (cmdcode) {
     c98:	84 3e       	cpi	r24, 0xE4	; 228
     c9a:	91 f1       	breq	.+100    	; 0xd00 <CDC_Protocol()+0x3ba>
     c9c:	88 3f       	cpi	r24, 0xF8	; 248
     c9e:	09 f4       	brne	.+2      	; 0xca2 <CDC_Protocol()+0x35c>
     ca0:	9c cf       	rjmp	.-200    	; 0xbda <CDC_Protocol()+0x294>
     ca2:	80 3e       	cpi	r24, 0xE0	; 224
     ca4:	09 f0       	breq	.+2      	; 0xca8 <CDC_Protocol()+0x362>
     ca6:	22 cf       	rjmp	.-444    	; 0xaec <CDC_Protocol()+0x1a6>
C:\Users\mateu\Desktop\cdc_arduino_modified_v2/cdc_function.cpp:810
      }
      break;

    case Do_MIX:
    case Do_MIX_CD:
      mix_button = 1;
     ca8:	81 e0       	ldi	r24, 0x01	; 1
     caa:	80 93 cb 01 	sts	0x01CB, r24	; 0x8001cb <mix_button>
C:\Users\mateu\Desktop\cdc_arduino_modified_v2/cdc_function.cpp:812
#ifndef DISC_TRACK_NUMBER_FROM_MPD
      if (mix == FALSE)
     cae:	90 91 cf 01 	lds	r25, 0x01CF	; 0x8001cf <mix>
     cb2:	91 11       	cpse	r25, r1
     cb4:	6a c0       	rjmp	.+212    	; 0xd8a <CDC_Protocol()+0x444>
C:\Users\mateu\Desktop\cdc_arduino_modified_v2/cdc_function.cpp:814
      {
        mix = TRUE;
     cb6:	80 93 cf 01 	sts	0x01CF, r24	; 0x8001cf <mix>
C:\Users\mateu\Desktop\cdc_arduino_modified_v2/cdc_function.cpp:821
      else
      {
        mix = FALSE;
      }
#endif
      EnqueueString(sRANDOM);
     cba:	83 e1       	ldi	r24, 0x13	; 19
     cbc:	91 e0       	ldi	r25, 0x01	; 1
     cbe:	2e c0       	rjmp	.+92     	; 0xd1c <CDC_Protocol()+0x3d6>
C:\Users\mateu\Desktop\cdc_arduino_modified_v2/cdc_function.cpp:728

  switch (cmdcode) {
    case Do_CHANGECD:
      // Head unit seems to send this after each CDx number change
      // but the CD Changer seems to completely ignore (doesn't even ACK it).
      ACKcount = 0; // do not ack this command
     cc0:	10 92 c1 01 	sts	0x01C1, r1	; 0x8001c1 <ACKcount>
_Z12CDC_Protocolv():
C:\Users\mateu\Desktop\cdc_arduino_modified_v2/cdc_function.cpp:658
    EnqueueHex(scanbyte);
  }

#endif

  while (txoutptr != txinptr)
     cc4:	e0 91 bb 01 	lds	r30, 0x01BB	; 0x8001bb <txoutptr>
     cc8:	80 91 bc 01 	lds	r24, 0x01BC	; 0x8001bc <txinptr>
     ccc:	e8 17       	cp	r30, r24
     cce:	09 f4       	brne	.+2      	; 0xcd2 <CDC_Protocol()+0x38c>
     cd0:	04 c1       	rjmp	.+520    	; 0xeda <CDC_Protocol()+0x594>
C:\Users\mateu\Desktop\cdc_arduino_modified_v2/cdc_function.cpp:660
  {
    printstr_p((char*) txbuffer[txoutptr]);
     cd2:	f0 e0       	ldi	r31, 0x00	; 0
     cd4:	ee 0f       	add	r30, r30
     cd6:	ff 1f       	adc	r31, r31
     cd8:	e5 56       	subi	r30, 0x65	; 101
     cda:	fe 4f       	sbci	r31, 0xFE	; 254
     cdc:	00 81       	ld	r16, Z
     cde:	11 81       	ldd	r17, Z+1	; 0x01
printstr_p():
C:\Users\mateu\Desktop\cdc_arduino_modified_v2/cdc_function.cpp:987
      break;
  }
}
static void printstr_p(const char *s) {
  char c;
  for (c = pgm_read_byte(s); c; ++s, c = pgm_read_byte(s))
     ce0:	f8 01       	movw	r30, r16
     ce2:	c4 91       	lpm	r28, Z
     ce4:	cc 23       	and	r28, r28
     ce6:	09 f4       	brne	.+2      	; 0xcea <CDC_Protocol()+0x3a4>
     ce8:	ed c0       	rjmp	.+474    	; 0xec4 <CDC_Protocol()+0x57e>
C:\Users\mateu\Desktop\cdc_arduino_modified_v2/cdc_function.cpp:989
  {
    Serial.print(c);
     cea:	6c 2f       	mov	r22, r28
     cec:	8d e1       	ldi	r24, 0x1D	; 29
     cee:	92 e0       	ldi	r25, 0x02	; 2
     cf0:	0e 94 14 0b 	call	0x1628	; 0x1628 <Print::print(char)>
C:\Users\mateu\Desktop\cdc_arduino_modified_v2/cdc_function.cpp:990
    if (c == '\n')
     cf4:	ca 30       	cpi	r28, 0x0A	; 10
     cf6:	09 f4       	brne	.+2      	; 0xcfa <CDC_Protocol()+0x3b4>
     cf8:	e5 c0       	rjmp	.+458    	; 0xec4 <CDC_Protocol()+0x57e>
C:\Users\mateu\Desktop\cdc_arduino_modified_v2/cdc_function.cpp:987
      break;
  }
}
static void printstr_p(const char *s) {
  char c;
  for (c = pgm_read_byte(s); c; ++s, c = pgm_read_byte(s))
     cfa:	0f 5f       	subi	r16, 0xFF	; 255
     cfc:	1f 4f       	sbci	r17, 0xFF	; 255
     cfe:	f0 cf       	rjmp	.-32     	; 0xce0 <CDC_Protocol()+0x39a>
DecodeCommand():
C:\Users\mateu\Desktop\cdc_arduino_modified_v2/cdc_function.cpp:736
#endif
      break;

    case Do_ENABLE:
    case Do_ENABLE_MK:
      mix = FALSE;
     d00:	10 92 cf 01 	sts	0x01CF, r1	; 0x8001cf <mix>
C:\Users\mateu\Desktop\cdc_arduino_modified_v2/cdc_function.cpp:737
      if (playing == FALSE)
     d04:	80 91 cd 01 	lds	r24, 0x01CD	; 0x8001cd <playing>
     d08:	81 11       	cpse	r24, r1
     d0a:	02 c0       	rjmp	.+4      	; 0xd10 <CDC_Protocol()+0x3ca>
C:\Users\mateu\Desktop\cdc_arduino_modified_v2/cdc_function.cpp:739
      {
        SetStateInitPlay(); // skip this if already playing
     d0c:	0e 94 5c 01 	call	0x2b8	; 0x2b8 <SetStateInitPlay()>
C:\Users\mateu\Desktop\cdc_arduino_modified_v2/cdc_function.cpp:741
      }
      if (!mix_button)
     d10:	80 91 cb 01 	lds	r24, 0x01CB	; 0x8001cb <mix_button>
     d14:	81 11       	cpse	r24, r1
     d16:	d6 cf       	rjmp	.-84     	; 0xcc4 <CDC_Protocol()+0x37e>
C:\Users\mateu\Desktop\cdc_arduino_modified_v2/cdc_function.cpp:742
        EnqueueString(sMENABLE);
     d18:	80 e4       	ldi	r24, 0x40	; 64
     d1a:	91 e0       	ldi	r25, 0x01	; 1
C:\Users\mateu\Desktop\cdc_arduino_modified_v2/cdc_function.cpp:981
         Dump the unknown command code for the user to view.
      */

      EnqueueString(sDASH);
      EnqueueHex(cmdcode);
      EnqueueString(sNEWLINE);
     d1c:	0e 94 69 01 	call	0x2d2	; 0x2d2 <EnqueueString(unsigned char const*)>
     d20:	d1 cf       	rjmp	.-94     	; 0xcc4 <CDC_Protocol()+0x37e>
C:\Users\mateu\Desktop\cdc_arduino_modified_v2/cdc_function.cpp:749
        //SendBK3266("COM+PA\r\n");
      #endif
      break;

    case Do_LOADCD:
      if (playing == TRUE)
     d22:	80 91 cd 01 	lds	r24, 0x01CD	; 0x8001cd <playing>
     d26:	81 30       	cpi	r24, 0x01	; 1
     d28:	11 f4       	brne	.+4      	; 0xd2e <CDC_Protocol()+0x3e8>
C:\Users\mateu\Desktop\cdc_arduino_modified_v2/cdc_function.cpp:751
      {
        SetStateInitPlay(); // skip this if we're in idle mode
     d2a:	0e 94 5c 01 	call	0x2b8	; 0x2b8 <SetStateInitPlay()>
C:\Users\mateu\Desktop\cdc_arduino_modified_v2/cdc_function.cpp:753
      }
      ResetTime();
     d2e:	0e 94 bd 01 	call	0x37a	; 0x37a <ResetTime()>
C:\Users\mateu\Desktop\cdc_arduino_modified_v2/cdc_function.cpp:754
      EnqueueString(sMINQUIRY);
     d32:	8f e3       	ldi	r24, 0x3F	; 63
     d34:	91 e0       	ldi	r25, 0x01	; 1
     d36:	f2 cf       	rjmp	.-28     	; 0xd1c <CDC_Protocol()+0x3d6>
C:\Users\mateu\Desktop\cdc_arduino_modified_v2/cdc_function.cpp:770
      #endif
      break;

    case Do_SEEKBACK:
    case Do_PREVCD:
      ResetTime();
     d38:	0e 94 bd 01 	call	0x37a	; 0x37a <ResetTime()>
C:\Users\mateu\Desktop\cdc_arduino_modified_v2/cdc_function.cpp:771
      EnqueueString(sPRV_LIST);
     d3c:	8e e3       	ldi	r24, 0x3E	; 62
     d3e:	91 e0       	ldi	r25, 0x01	; 1
     d40:	0e 94 69 01 	call	0x2d2	; 0x2d2 <EnqueueString(unsigned char const*)>
C:\Users\mateu\Desktop\cdc_arduino_modified_v2/cdc_function.cpp:773
#ifndef DISC_TRACK_NUMBER_FROM_MPD
      disc--;
     d44:	80 91 07 01 	lds	r24, 0x0107	; 0x800107 <disc>
     d48:	81 50       	subi	r24, 0x01	; 1
     d4a:	80 93 07 01 	sts	0x0107, r24	; 0x800107 <disc>
C:\Users\mateu\Desktop\cdc_arduino_modified_v2/cdc_function.cpp:774
      if ((disc & 0x0F) == 0)
     d4e:	8f 70       	andi	r24, 0x0F	; 15
     d50:	09 f0       	breq	.+2      	; 0xd54 <CDC_Protocol()+0x40e>
     d52:	b8 cf       	rjmp	.-144    	; 0xcc4 <CDC_Protocol()+0x37e>
C:\Users\mateu\Desktop\cdc_arduino_modified_v2/cdc_function.cpp:776
      {
        disc = 0x46; // set back to CD 1
     d54:	86 e4       	ldi	r24, 0x46	; 70
C:\Users\mateu\Desktop\cdc_arduino_modified_v2/cdc_function.cpp:791
        EnqueueString(sNXT_LIST);
#ifndef DISC_TRACK_NUMBER_FROM_MPD
        disc++;
        if (disc > 0x46)
        {
          disc = 0x41;
     d56:	80 93 07 01 	sts	0x0107, r24	; 0x800107 <disc>
     d5a:	b4 cf       	rjmp	.-152    	; 0xcc4 <CDC_Protocol()+0x37e>
C:\Users\mateu\Desktop\cdc_arduino_modified_v2/cdc_function.cpp:783
#endif
      break;

    case Do_SEEKFORWARD:
    case Do_SEEKFORWARD_MK:
      ResetTime();
     d5c:	0e 94 bd 01 	call	0x37a	; 0x37a <ResetTime()>
C:\Users\mateu\Desktop\cdc_arduino_modified_v2/cdc_function.cpp:784
      if (cd_button == FALSE) // mk don't increment when previous command was a cd button
     d60:	80 91 cc 01 	lds	r24, 0x01CC	; 0x8001cc <cd_button>
     d64:	81 11       	cpse	r24, r1
     d66:	0e c0       	rjmp	.+28     	; 0xd84 <CDC_Protocol()+0x43e>
C:\Users\mateu\Desktop\cdc_arduino_modified_v2/cdc_function.cpp:786
      {
        EnqueueString(sNXT_LIST);
     d68:	8d e3       	ldi	r24, 0x3D	; 61
     d6a:	91 e0       	ldi	r25, 0x01	; 1
     d6c:	0e 94 69 01 	call	0x2d2	; 0x2d2 <EnqueueString(unsigned char const*)>
C:\Users\mateu\Desktop\cdc_arduino_modified_v2/cdc_function.cpp:788
#ifndef DISC_TRACK_NUMBER_FROM_MPD
        disc++;
     d70:	80 91 07 01 	lds	r24, 0x0107	; 0x800107 <disc>
     d74:	8f 5f       	subi	r24, 0xFF	; 255
     d76:	80 93 07 01 	sts	0x0107, r24	; 0x800107 <disc>
C:\Users\mateu\Desktop\cdc_arduino_modified_v2/cdc_function.cpp:789
        if (disc > 0x46)
     d7a:	87 34       	cpi	r24, 0x47	; 71
     d7c:	08 f4       	brcc	.+2      	; 0xd80 <CDC_Protocol()+0x43a>
     d7e:	a2 cf       	rjmp	.-188    	; 0xcc4 <CDC_Protocol()+0x37e>
C:\Users\mateu\Desktop\cdc_arduino_modified_v2/cdc_function.cpp:791
        {
          disc = 0x41;
     d80:	81 e4       	ldi	r24, 0x41	; 65
     d82:	e9 cf       	rjmp	.-46     	; 0xd56 <CDC_Protocol()+0x410>
C:\Users\mateu\Desktop\cdc_arduino_modified_v2/cdc_function.cpp:804
        // However, going beyond CD6 mutes audio on monsoon head unit, so we
        // definitely don't want to do that.
      }
      else
      {
        cd_button = FALSE; // mk clear cd button flag
     d84:	10 92 cc 01 	sts	0x01CC, r1	; 0x8001cc <cd_button>
     d88:	9d cf       	rjmp	.-198    	; 0xcc4 <CDC_Protocol()+0x37e>
C:\Users\mateu\Desktop\cdc_arduino_modified_v2/cdc_function.cpp:818
      {
        mix = TRUE;
      }
      else
      {
        mix = FALSE;
     d8a:	10 92 cf 01 	sts	0x01CF, r1	; 0x8001cf <mix>
     d8e:	95 cf       	rjmp	.-214    	; 0xcba <CDC_Protocol()+0x374>
C:\Users\mateu\Desktop\cdc_arduino_modified_v2/cdc_function.cpp:825
#endif
      EnqueueString(sRANDOM);
      break;

    case Do_PLAY:
      EnqueueString(sPLAY); // this will make the PJRC play/pause
     d90:	8a e0       	ldi	r24, 0x0A	; 10
     d92:	91 e0       	ldi	r25, 0x01	; 1
     d94:	c3 cf       	rjmp	.-122    	; 0xd1c <CDC_Protocol()+0x3d6>
C:\Users\mateu\Desktop\cdc_arduino_modified_v2/cdc_function.cpp:838
      {
        scan = TRUE;
      }
      else
      {
        scan = FALSE;
     d96:	10 92 ce 01 	sts	0x01CE, r1	; 0x8001ce <scan>
     d9a:	51 cf       	rjmp	.-350    	; 0xc3e <CDC_Protocol()+0x2f8>
C:\Users\mateu\Desktop\cdc_arduino_modified_v2/cdc_function.cpp:877
      #endif
      break;

    case Do_DOWN:
    case Do_DOWN_MK3:
      if (playing == TRUE) // skip track lead-in if not in play mode
     d9c:	80 91 cd 01 	lds	r24, 0x01CD	; 0x8001cd <playing>
     da0:	81 30       	cpi	r24, 0x01	; 1
     da2:	31 f4       	brne	.+12     	; 0xdb0 <CDC_Protocol()+0x46a>
SetStateTrackLeadIn():
C:\Users\mateu\Desktop\cdc_arduino_modified_v2/cdc_function.cpp:1454

{

  playing = TRUE;

  BIDIstate = StateTrackLeadIn;
     da4:	88 e0       	ldi	r24, 0x08	; 8
     da6:	80 93 c3 01 	sts	0x01C3, r24	; 0x8001c3 <BIDIstate>
C:\Users\mateu\Desktop\cdc_arduino_modified_v2/cdc_function.cpp:1456

  BIDIcount = -12;
     daa:	84 ef       	ldi	r24, 0xF4	; 244
     dac:	80 93 c2 01 	sts	0x01C2, r24	; 0x8001c2 <BIDIcount>
DecodeCommand():
C:\Users\mateu\Desktop\cdc_arduino_modified_v2/cdc_function.cpp:881
    case Do_DOWN_MK3:
      if (playing == TRUE) // skip track lead-in if not in play mode
      {
        SetStateTrackLeadIn();
      }
      ResetTime();
     db0:	0e 94 bd 01 	call	0x37a	; 0x37a <ResetTime()>
C:\Users\mateu\Desktop\cdc_arduino_modified_v2/cdc_function.cpp:883
#ifndef DISC_TRACK_NUMBER_FROM_MPD
      decimal_adjust_u8 = track & 0x0F; // skip past hexidecimal codes
     db4:	80 91 06 01 	lds	r24, 0x0106	; 0x800106 <track>
     db8:	98 2f       	mov	r25, r24
     dba:	9f 70       	andi	r25, 0x0F	; 15
C:\Users\mateu\Desktop\cdc_arduino_modified_v2/cdc_function.cpp:884
      if (decimal_adjust_u8 == 0) // are we at x0?
     dbc:	19 f4       	brne	.+6      	; 0xdc4 <CDC_Protocol()+0x47e>
C:\Users\mateu\Desktop\cdc_arduino_modified_v2/cdc_function.cpp:886
      {
        track -= 6; // yes, subtract 6 and we'll be at x9 instead
     dbe:	86 50       	subi	r24, 0x06	; 6
     dc0:	80 93 06 01 	sts	0x0106, r24	; 0x800106 <track>
C:\Users\mateu\Desktop\cdc_arduino_modified_v2/cdc_function.cpp:888
      }
      track--;
     dc4:	80 91 06 01 	lds	r24, 0x0106	; 0x800106 <track>
     dc8:	81 50       	subi	r24, 0x01	; 1
     dca:	80 93 06 01 	sts	0x0106, r24	; 0x800106 <track>
C:\Users\mateu\Desktop\cdc_arduino_modified_v2/cdc_function.cpp:889
      if (track == 0) // have we gone below Track 1?
     dce:	81 11       	cpse	r24, r1
     dd0:	03 c0       	rjmp	.+6      	; 0xdd8 <CDC_Protocol()+0x492>
C:\Users\mateu\Desktop\cdc_arduino_modified_v2/cdc_function.cpp:891
      { // yes, rollover to Track 99 so that jog wheels
        track = 0x99; // can continue rolling (Audi Concert II)
     dd2:	89 e9       	ldi	r24, 0x99	; 153
     dd4:	80 93 06 01 	sts	0x0106, r24	; 0x800106 <track>
C:\Users\mateu\Desktop\cdc_arduino_modified_v2/cdc_function.cpp:894
      }
#endif
      EnqueueString(sPREVIOUS);
     dd8:	87 ef       	ldi	r24, 0xF7	; 247
     dda:	90 e0       	ldi	r25, 0x00	; 0
     ddc:	9f cf       	rjmp	.-194    	; 0xd1c <CDC_Protocol()+0x3d6>
C:\Users\mateu\Desktop\cdc_arduino_modified_v2/cdc_function.cpp:901
        //SendBK3266("COM+PV\r\n");
      #endif
      break;

    case Do_CD1:
      cd_button = TRUE; // mk store cd button pressed
     dde:	81 e0       	ldi	r24, 0x01	; 1
     de0:	80 93 cc 01 	sts	0x01CC, r24	; 0x8001cc <cd_button>
C:\Users\mateu\Desktop\cdc_arduino_modified_v2/cdc_function.cpp:903
#ifndef DISC_TRACK_NUMBER_FROM_MPD
      disc = 0x41; // set CD 1
     de4:	81 e4       	ldi	r24, 0x41	; 65
     de6:	80 93 07 01 	sts	0x0107, r24	; 0x800107 <disc>
cdButtonPushed():
C:\Users\mateu\Desktop\cdc_arduino_modified_v2/cdc_function.cpp:2060

static uint8_t cdButtonPushed(uint8_t cdnumber) {
  static uint8_t cd1pushed, cd2pushed, cd3pushed, cd4pushed, cd5pushed, cd6pushed = 0; //variable to cound how many times we pressed button for spectial actions
  switch (cdnumber) {
    case 1:
      cd2pushed = cd3pushed = cd4pushed = cd5pushed = cd6pushed;
     dea:	80 91 79 01 	lds	r24, 0x0179	; 0x800179 <cdButtonPushed(unsigned char)::cd6pushed>
     dee:	80 93 7a 01 	sts	0x017A, r24	; 0x80017a <cdButtonPushed(unsigned char)::cd5pushed>
     df2:	80 93 7b 01 	sts	0x017B, r24	; 0x80017b <cdButtonPushed(unsigned char)::cd4pushed>
     df6:	80 93 7c 01 	sts	0x017C, r24	; 0x80017c <cdButtonPushed(unsigned char)::cd3pushed>
     dfa:	80 93 7d 01 	sts	0x017D, r24	; 0x80017d <cdButtonPushed(unsigned char)::cd2pushed>
C:\Users\mateu\Desktop\cdc_arduino_modified_v2/cdc_function.cpp:2061
      if (++cd1pushed == 6)
     dfe:	80 91 7e 01 	lds	r24, 0x017E	; 0x80017e <cdButtonPushed(unsigned char)::cd1pushed>
     e02:	8f 5f       	subi	r24, 0xFF	; 255
     e04:	80 93 7e 01 	sts	0x017E, r24	; 0x80017e <cdButtonPushed(unsigned char)::cd1pushed>
     e08:	86 30       	cpi	r24, 0x06	; 6
     e0a:	11 f4       	brne	.+4      	; 0xe10 <CDC_Protocol()+0x4ca>
C:\Users\mateu\Desktop\cdc_arduino_modified_v2/cdc_function.cpp:2062
        cd1pushed = 0;
     e0c:	10 92 7e 01 	sts	0x017E, r1	; 0x80017e <cdButtonPushed(unsigned char)::cd1pushed>
DecodeCommand():
C:\Users\mateu\Desktop\cdc_arduino_modified_v2/cdc_function.cpp:905
    case Do_CD1:
      cd_button = TRUE; // mk store cd button pressed
#ifndef DISC_TRACK_NUMBER_FROM_MPD
      disc = 0x41; // set CD 1
#endif
      if (cdButtonPushed(1))
     e10:	80 91 7e 01 	lds	r24, 0x017E	; 0x80017e <cdButtonPushed(unsigned char)::cd1pushed>
     e14:	88 23       	and	r24, r24
     e16:	09 f4       	brne	.+2      	; 0xe1a <CDC_Protocol()+0x4d4>
     e18:	55 cf       	rjmp	.-342    	; 0xcc4 <CDC_Protocol()+0x37e>
C:\Users\mateu\Desktop\cdc_arduino_modified_v2/cdc_function.cpp:906
          EnqueueString(sLIST1);
     e1a:	83 e3       	ldi	r24, 0x33	; 51
     e1c:	91 e0       	ldi	r25, 0x01	; 1
     e1e:	7e cf       	rjmp	.-260    	; 0xd1c <CDC_Protocol()+0x3d6>
C:\Users\mateu\Desktop\cdc_arduino_modified_v2/cdc_function.cpp:913
        //SendBK3266("COM+MBT\r\n");
      #endif
      break;

    case Do_CD2:
      cd_button = TRUE; // mk store cd button pressed
     e20:	81 e0       	ldi	r24, 0x01	; 1
     e22:	80 93 cc 01 	sts	0x01CC, r24	; 0x8001cc <cd_button>
C:\Users\mateu\Desktop\cdc_arduino_modified_v2/cdc_function.cpp:915
#ifndef DISC_TRACK_NUMBER_FROM_MPD
      disc = 0x42; // set CD 2
     e26:	82 e4       	ldi	r24, 0x42	; 66
     e28:	80 93 07 01 	sts	0x0107, r24	; 0x800107 <disc>
cdButtonPushed():
C:\Users\mateu\Desktop\cdc_arduino_modified_v2/cdc_function.cpp:2060

static uint8_t cdButtonPushed(uint8_t cdnumber) {
  static uint8_t cd1pushed, cd2pushed, cd3pushed, cd4pushed, cd5pushed, cd6pushed = 0; //variable to cound how many times we pressed button for spectial actions
  switch (cdnumber) {
    case 1:
      cd2pushed = cd3pushed = cd4pushed = cd5pushed = cd6pushed;
     e2c:	80 91 79 01 	lds	r24, 0x0179	; 0x800179 <cdButtonPushed(unsigned char)::cd6pushed>
     e30:	80 93 7a 01 	sts	0x017A, r24	; 0x80017a <cdButtonPushed(unsigned char)::cd5pushed>
     e34:	80 93 7b 01 	sts	0x017B, r24	; 0x80017b <cdButtonPushed(unsigned char)::cd4pushed>
     e38:	80 93 7c 01 	sts	0x017C, r24	; 0x80017c <cdButtonPushed(unsigned char)::cd3pushed>
     e3c:	80 93 7d 01 	sts	0x017D, r24	; 0x80017d <cdButtonPushed(unsigned char)::cd2pushed>
C:\Users\mateu\Desktop\cdc_arduino_modified_v2/cdc_function.cpp:2061
      if (++cd1pushed == 6)
     e40:	80 91 7e 01 	lds	r24, 0x017E	; 0x80017e <cdButtonPushed(unsigned char)::cd1pushed>
     e44:	8f 5f       	subi	r24, 0xFF	; 255
     e46:	80 93 7e 01 	sts	0x017E, r24	; 0x80017e <cdButtonPushed(unsigned char)::cd1pushed>
     e4a:	86 30       	cpi	r24, 0x06	; 6
     e4c:	11 f4       	brne	.+4      	; 0xe52 <CDC_Protocol()+0x50c>
C:\Users\mateu\Desktop\cdc_arduino_modified_v2/cdc_function.cpp:2062
        cd1pushed = 0;
     e4e:	10 92 7e 01 	sts	0x017E, r1	; 0x80017e <cdButtonPushed(unsigned char)::cd1pushed>
DecodeCommand():
C:\Users\mateu\Desktop\cdc_arduino_modified_v2/cdc_function.cpp:917
    case Do_CD2:
      cd_button = TRUE; // mk store cd button pressed
#ifndef DISC_TRACK_NUMBER_FROM_MPD
      disc = 0x42; // set CD 2
#endif
      if (cdButtonPushed(1))
     e52:	80 91 7e 01 	lds	r24, 0x017E	; 0x80017e <cdButtonPushed(unsigned char)::cd1pushed>
     e56:	88 23       	and	r24, r24
     e58:	09 f4       	brne	.+2      	; 0xe5c <CDC_Protocol()+0x516>
     e5a:	34 cf       	rjmp	.-408    	; 0xcc4 <CDC_Protocol()+0x37e>
C:\Users\mateu\Desktop\cdc_arduino_modified_v2/cdc_function.cpp:918
      EnqueueString(sLIST2);
     e5c:	89 e2       	ldi	r24, 0x29	; 41
     e5e:	91 e0       	ldi	r25, 0x01	; 1
     e60:	5d cf       	rjmp	.-326    	; 0xd1c <CDC_Protocol()+0x3d6>
C:\Users\mateu\Desktop\cdc_arduino_modified_v2/cdc_function.cpp:955
      if (cdButtonPushed(5))
          EnqueueString(sLIST5);
      break;

    case Do_CD6:
      cd_button = TRUE; // mk store cd button pressed
     e62:	81 e0       	ldi	r24, 0x01	; 1
     e64:	80 93 cc 01 	sts	0x01CC, r24	; 0x8001cc <cd_button>
C:\Users\mateu\Desktop\cdc_arduino_modified_v2/cdc_function.cpp:957
#ifndef DISC_TRACK_NUMBER_FROM_MPD
      disc = 0x46; // set CD 6
     e68:	86 e4       	ldi	r24, 0x46	; 70
     e6a:	80 93 07 01 	sts	0x0107, r24	; 0x800107 <disc>
cdButtonPushed():
C:\Users\mateu\Desktop\cdc_arduino_modified_v2/cdc_function.cpp:2089
        if (++cd5pushed == 6)
          cd5pushed = 0;
        return cd5pushed;

      case 6:
        cd1pushed = cd2pushed = cd3pushed = cd4pushed = cd5pushed;
     e6e:	80 91 7a 01 	lds	r24, 0x017A	; 0x80017a <cdButtonPushed(unsigned char)::cd5pushed>
     e72:	80 93 7b 01 	sts	0x017B, r24	; 0x80017b <cdButtonPushed(unsigned char)::cd4pushed>
     e76:	80 93 7c 01 	sts	0x017C, r24	; 0x80017c <cdButtonPushed(unsigned char)::cd3pushed>
     e7a:	80 93 7d 01 	sts	0x017D, r24	; 0x80017d <cdButtonPushed(unsigned char)::cd2pushed>
     e7e:	80 93 7e 01 	sts	0x017E, r24	; 0x80017e <cdButtonPushed(unsigned char)::cd1pushed>
C:\Users\mateu\Desktop\cdc_arduino_modified_v2/cdc_function.cpp:2090
        if (++cd6pushed == 6)
     e82:	80 91 79 01 	lds	r24, 0x0179	; 0x800179 <cdButtonPushed(unsigned char)::cd6pushed>
     e86:	8f 5f       	subi	r24, 0xFF	; 255
     e88:	80 93 79 01 	sts	0x0179, r24	; 0x800179 <cdButtonPushed(unsigned char)::cd6pushed>
     e8c:	86 30       	cpi	r24, 0x06	; 6
     e8e:	11 f4       	brne	.+4      	; 0xe94 <CDC_Protocol()+0x54e>
C:\Users\mateu\Desktop\cdc_arduino_modified_v2/cdc_function.cpp:2091
          cd5pushed = 0;
     e90:	10 92 7a 01 	sts	0x017A, r1	; 0x80017a <cdButtonPushed(unsigned char)::cd5pushed>
DecodeCommand():
C:\Users\mateu\Desktop\cdc_arduino_modified_v2/cdc_function.cpp:959
    case Do_CD6:
      cd_button = TRUE; // mk store cd button pressed
#ifndef DISC_TRACK_NUMBER_FROM_MPD
      disc = 0x46; // set CD 6
#endif
      if (cdButtonPushed(6))
     e94:	80 91 7a 01 	lds	r24, 0x017A	; 0x80017a <cdButtonPushed(unsigned char)::cd5pushed>
     e98:	88 23       	and	r24, r24
     e9a:	09 f4       	brne	.+2      	; 0xe9e <CDC_Protocol()+0x558>
     e9c:	13 cf       	rjmp	.-474    	; 0xcc4 <CDC_Protocol()+0x37e>
C:\Users\mateu\Desktop\cdc_arduino_modified_v2/cdc_function.cpp:960
          EnqueueString(sLIST6);
     e9e:	8c e1       	ldi	r24, 0x1C	; 28
     ea0:	91 e0       	ldi	r25, 0x01	; 1
     ea2:	3c cf       	rjmp	.-392    	; 0xd1c <CDC_Protocol()+0x3d6>
C:\Users\mateu\Desktop\cdc_arduino_modified_v2/cdc_function.cpp:964
      break;

    case Do_TP:
      if (playing == TRUE) {
     ea4:	80 91 cd 01 	lds	r24, 0x01CD	; 0x8001cd <playing>
     ea8:	81 30       	cpi	r24, 0x01	; 1
     eaa:	31 f4       	brne	.+12     	; 0xeb8 <CDC_Protocol()+0x572>
SetStateTP():
C:\Users\mateu\Desktop\cdc_arduino_modified_v2/cdc_function.cpp:1306
  BIDIstate = StateIdle;

}
static void SetStateTP(void)
{
  playing = FALSE;
     eac:	10 92 cd 01 	sts	0x01CD, r1	; 0x8001cd <playing>
C:\Users\mateu\Desktop\cdc_arduino_modified_v2/cdc_function.cpp:1307
  BIDIstate = StateTP;
     eb0:	8a e0       	ldi	r24, 0x0A	; 10
     eb2:	80 93 c3 01 	sts	0x01C3, r24	; 0x8001c3 <BIDIstate>
     eb6:	06 cf       	rjmp	.-500    	; 0xcc4 <CDC_Protocol()+0x37e>
DecodeCommand():
C:\Users\mateu\Desktop\cdc_arduino_modified_v2/cdc_function.cpp:967

    case Do_TP:
      if (playing == TRUE) {
        SetStateTP();
      } else {
        SetStateInitPlay();
     eb8:	0e 94 5c 01 	call	0x2b8	; 0x2b8 <SetStateInitPlay()>
     ebc:	03 cf       	rjmp	.-506    	; 0xcc4 <CDC_Protocol()+0x37e>
ScanCommandBytes():
C:\Users\mateu\Desktop\cdc_arduino_modified_v2/cdc_function.cpp:1160

    else

    {

      DumpFullCommand(); // ABORT: dump invalid packet for display
     ebe:	0e 94 90 01 	call	0x320	; 0x320 <DumpFullCommand()>
     ec2:	00 cf       	rjmp	.-512    	; 0xcc4 <CDC_Protocol()+0x37e>
_Z12CDC_Protocolv():
C:\Users\mateu\Desktop\cdc_arduino_modified_v2/cdc_function.cpp:661
#endif

  while (txoutptr != txinptr)
  {
    printstr_p((char*) txbuffer[txoutptr]);
    txoutptr++;
     ec4:	80 91 bb 01 	lds	r24, 0x01BB	; 0x8001bb <txoutptr>
     ec8:	8f 5f       	subi	r24, 0xFF	; 255
     eca:	80 93 bb 01 	sts	0x01BB, r24	; 0x8001bb <txoutptr>
C:\Users\mateu\Desktop\cdc_arduino_modified_v2/cdc_function.cpp:662
    if (txoutptr == TX_BUFFER_END)
     ece:	8c 30       	cpi	r24, 0x0C	; 12
     ed0:	09 f0       	breq	.+2      	; 0xed4 <CDC_Protocol()+0x58e>
     ed2:	f8 ce       	rjmp	.-528    	; 0xcc4 <CDC_Protocol()+0x37e>
C:\Users\mateu\Desktop\cdc_arduino_modified_v2/cdc_function.cpp:664
    {
      txoutptr = 0;
     ed4:	10 92 bb 01 	sts	0x01BB, r1	; 0x8001bb <txoutptr>
     ed8:	f5 ce       	rjmp	.-534    	; 0xcc4 <CDC_Protocol()+0x37e>
C:\Users\mateu\Desktop\cdc_arduino_modified_v2/cdc_function.cpp:667
    }
  }
}
     eda:	cf 91       	pop	r28
     edc:	1f 91       	pop	r17
     ede:	0f 91       	pop	r16
     ee0:	08 95       	ret

00000ee2 <Print::availableForWrite()>:
_ZN5Print17availableForWriteEv():
C:\Users\mateu\AppData\Local\Arduino15\packages\MiniCore\hardware\avr\2.0.9\libraries\SoftwareSerial\src/SoftwareSerial.cpp:214
}

uint8_t SoftwareSerial::rx_pin_read()
{
  return *_receivePortRegister & _receiveBitMask;
}
     ee2:	90 e0       	ldi	r25, 0x00	; 0
     ee4:	80 e0       	ldi	r24, 0x00	; 0
     ee6:	08 95       	ret

00000ee8 <SoftwareSerial::read()>:
_ZN14SoftwareSerial4readEv():
     ee8:	20 91 1b 02 	lds	r18, 0x021B	; 0x80021b <SoftwareSerial::active_object>
     eec:	30 91 1c 02 	lds	r19, 0x021C	; 0x80021c <SoftwareSerial::active_object+0x1>
     ef0:	28 17       	cp	r18, r24
     ef2:	39 07       	cpc	r19, r25
     ef4:	b9 f4       	brne	.+46     	; 0xf24 <SoftwareSerial::read()+0x3c>
     ef6:	90 91 d9 01 	lds	r25, 0x01D9	; 0x8001d9 <SoftwareSerial::_receive_buffer_head>
     efa:	80 91 da 01 	lds	r24, 0x01DA	; 0x8001da <SoftwareSerial::_receive_buffer_tail>
     efe:	98 17       	cp	r25, r24
     f00:	89 f0       	breq	.+34     	; 0xf24 <SoftwareSerial::read()+0x3c>
     f02:	e0 91 d9 01 	lds	r30, 0x01D9	; 0x8001d9 <SoftwareSerial::_receive_buffer_head>
     f06:	f0 e0       	ldi	r31, 0x00	; 0
     f08:	e5 52       	subi	r30, 0x25	; 37
     f0a:	fe 4f       	sbci	r31, 0xFE	; 254
     f0c:	80 81       	ld	r24, Z
     f0e:	20 91 d9 01 	lds	r18, 0x01D9	; 0x8001d9 <SoftwareSerial::_receive_buffer_head>
     f12:	30 e0       	ldi	r19, 0x00	; 0
     f14:	2f 5f       	subi	r18, 0xFF	; 255
     f16:	3f 4f       	sbci	r19, 0xFF	; 255
     f18:	2f 73       	andi	r18, 0x3F	; 63
     f1a:	33 27       	eor	r19, r19
     f1c:	20 93 d9 01 	sts	0x01D9, r18	; 0x8001d9 <SoftwareSerial::_receive_buffer_head>
     f20:	90 e0       	ldi	r25, 0x00	; 0
     f22:	08 95       	ret
     f24:	8f ef       	ldi	r24, 0xFF	; 255
     f26:	9f ef       	ldi	r25, 0xFF	; 255
     f28:	08 95       	ret

00000f2a <SoftwareSerial::write(unsigned char)>:
_ZN14SoftwareSerial5writeEh():
     f2a:	ef 92       	push	r14
     f2c:	ff 92       	push	r15
     f2e:	0f 93       	push	r16
     f30:	1f 93       	push	r17
     f32:	cf 93       	push	r28
     f34:	df 93       	push	r29
     f36:	dc 01       	movw	r26, r24
     f38:	5c 96       	adiw	r26, 0x1c	; 28
     f3a:	ed 90       	ld	r14, X+
     f3c:	fc 90       	ld	r15, X
     f3e:	5d 97       	sbiw	r26, 0x1d	; 29
     f40:	e1 14       	cp	r14, r1
     f42:	f1 04       	cpc	r15, r1
     f44:	79 f4       	brne	.+30     	; 0xf64 <SoftwareSerial::write(unsigned char)+0x3a>
_ZN5Print13setWriteErrorEi():
     f46:	81 e0       	ldi	r24, 0x01	; 1
     f48:	90 e0       	ldi	r25, 0x00	; 0
     f4a:	13 96       	adiw	r26, 0x03	; 3
     f4c:	9c 93       	st	X, r25
     f4e:	8e 93       	st	-X, r24
     f50:	12 97       	sbiw	r26, 0x02	; 2
_ZN14SoftwareSerial5writeEh():
     f52:	90 e0       	ldi	r25, 0x00	; 0
     f54:	80 e0       	ldi	r24, 0x00	; 0
     f56:	df 91       	pop	r29
     f58:	cf 91       	pop	r28
     f5a:	1f 91       	pop	r17
     f5c:	0f 91       	pop	r16
     f5e:	ff 90       	pop	r15
     f60:	ef 90       	pop	r14
     f62:	08 95       	ret
     f64:	51 96       	adiw	r26, 0x11	; 17
     f66:	ed 91       	ld	r30, X+
     f68:	fc 91       	ld	r31, X
     f6a:	52 97       	sbiw	r26, 0x12	; 18
     f6c:	50 96       	adiw	r26, 0x10	; 16
     f6e:	8c 91       	ld	r24, X
     f70:	50 97       	sbiw	r26, 0x10	; 16
     f72:	98 2f       	mov	r25, r24
     f74:	90 95       	com	r25
     f76:	0f b7       	in	r16, 0x3f	; 63
     f78:	5e 96       	adiw	r26, 0x1e	; 30
     f7a:	2c 91       	ld	r18, X
     f7c:	5e 97       	sbiw	r26, 0x1e	; 30
     f7e:	12 2f       	mov	r17, r18
     f80:	12 70       	andi	r17, 0x02	; 2
     f82:	21 fd       	sbrc	r18, 1
     f84:	60 95       	com	r22
     f86:	f8 94       	cli
     f88:	20 81       	ld	r18, Z
     f8a:	11 23       	and	r17, r17
     f8c:	19 f1       	breq	.+70     	; 0xfd4 <SoftwareSerial::write(unsigned char)+0xaa>
     f8e:	28 2b       	or	r18, r24
     f90:	20 83       	st	Z, r18
_delay_loop_2():
     f92:	e7 01       	movw	r28, r14
     f94:	21 97       	sbiw	r28, 0x01	; 1
     f96:	f1 f7       	brne	.-4      	; 0xf94 <SoftwareSerial::write(unsigned char)+0x6a>
     f98:	28 e0       	ldi	r18, 0x08	; 8
_ZN14SoftwareSerial5writeEh():
     f9a:	46 2f       	mov	r20, r22
     f9c:	50 e0       	ldi	r21, 0x00	; 0
     f9e:	30 81       	ld	r19, Z
     fa0:	60 ff       	sbrs	r22, 0
     fa2:	1a c0       	rjmp	.+52     	; 0xfd8 <SoftwareSerial::write(unsigned char)+0xae>
     fa4:	38 2b       	or	r19, r24
     fa6:	30 83       	st	Z, r19
_delay_loop_2():
     fa8:	e7 01       	movw	r28, r14
     faa:	21 97       	sbiw	r28, 0x01	; 1
     fac:	f1 f7       	brne	.-4      	; 0xfaa <SoftwareSerial::write(unsigned char)+0x80>
_ZN14SoftwareSerial5writeEh():
     fae:	ba 01       	movw	r22, r20
     fb0:	75 95       	asr	r23
     fb2:	67 95       	ror	r22
     fb4:	21 50       	subi	r18, 0x01	; 1
     fb6:	89 f7       	brne	.-30     	; 0xf9a <SoftwareSerial::write(unsigned char)+0x70>
     fb8:	11 23       	and	r17, r17
     fba:	81 f0       	breq	.+32     	; 0xfdc <SoftwareSerial::write(unsigned char)+0xb2>
     fbc:	80 81       	ld	r24, Z
     fbe:	89 23       	and	r24, r25
     fc0:	80 83       	st	Z, r24
     fc2:	0f bf       	out	0x3f, r16	; 63
_delay_loop_2():
     fc4:	5c 96       	adiw	r26, 0x1c	; 28
     fc6:	8d 91       	ld	r24, X+
     fc8:	9c 91       	ld	r25, X
     fca:	01 97       	sbiw	r24, 0x01	; 1
     fcc:	f1 f7       	brne	.-4      	; 0xfca <SoftwareSerial::write(unsigned char)+0xa0>
_ZN14SoftwareSerial5writeEh():
     fce:	81 e0       	ldi	r24, 0x01	; 1
     fd0:	90 e0       	ldi	r25, 0x00	; 0
     fd2:	c1 cf       	rjmp	.-126    	; 0xf56 <SoftwareSerial::write(unsigned char)+0x2c>
     fd4:	29 23       	and	r18, r25
     fd6:	dc cf       	rjmp	.-72     	; 0xf90 <SoftwareSerial::write(unsigned char)+0x66>
     fd8:	39 23       	and	r19, r25
     fda:	e5 cf       	rjmp	.-54     	; 0xfa6 <SoftwareSerial::write(unsigned char)+0x7c>
     fdc:	90 81       	ld	r25, Z
     fde:	89 2b       	or	r24, r25
     fe0:	ef cf       	rjmp	.-34     	; 0xfc0 <SoftwareSerial::write(unsigned char)+0x96>

00000fe2 <SoftwareSerial::flush()>:
_ZN14SoftwareSerial5flushEv():
     fe2:	08 95       	ret

00000fe4 <SoftwareSerial::peek()>:
_ZN14SoftwareSerial4peekEv():
     fe4:	20 91 1b 02 	lds	r18, 0x021B	; 0x80021b <SoftwareSerial::active_object>
     fe8:	30 91 1c 02 	lds	r19, 0x021C	; 0x80021c <SoftwareSerial::active_object+0x1>
     fec:	28 17       	cp	r18, r24
     fee:	39 07       	cpc	r19, r25
     ff0:	71 f4       	brne	.+28     	; 0x100e <SoftwareSerial::peek()+0x2a>
     ff2:	90 91 d9 01 	lds	r25, 0x01D9	; 0x8001d9 <SoftwareSerial::_receive_buffer_head>
     ff6:	80 91 da 01 	lds	r24, 0x01DA	; 0x8001da <SoftwareSerial::_receive_buffer_tail>
     ffa:	98 17       	cp	r25, r24
     ffc:	41 f0       	breq	.+16     	; 0x100e <SoftwareSerial::peek()+0x2a>
     ffe:	e0 91 d9 01 	lds	r30, 0x01D9	; 0x8001d9 <SoftwareSerial::_receive_buffer_head>
    1002:	f0 e0       	ldi	r31, 0x00	; 0
    1004:	e5 52       	subi	r30, 0x25	; 37
    1006:	fe 4f       	sbci	r31, 0xFE	; 254
    1008:	80 81       	ld	r24, Z
    100a:	90 e0       	ldi	r25, 0x00	; 0
    100c:	08 95       	ret
    100e:	8f ef       	ldi	r24, 0xFF	; 255
    1010:	9f ef       	ldi	r25, 0xFF	; 255
    1012:	08 95       	ret

00001014 <SoftwareSerial::available()>:
_ZN14SoftwareSerial9availableEv():
    1014:	20 91 1b 02 	lds	r18, 0x021B	; 0x80021b <SoftwareSerial::active_object>
    1018:	30 91 1c 02 	lds	r19, 0x021C	; 0x80021c <SoftwareSerial::active_object+0x1>
    101c:	28 17       	cp	r18, r24
    101e:	39 07       	cpc	r19, r25
    1020:	71 f4       	brne	.+28     	; 0x103e <SoftwareSerial::available()+0x2a>
    1022:	80 91 da 01 	lds	r24, 0x01DA	; 0x8001da <SoftwareSerial::_receive_buffer_tail>
    1026:	20 91 d9 01 	lds	r18, 0x01D9	; 0x8001d9 <SoftwareSerial::_receive_buffer_head>
    102a:	90 e0       	ldi	r25, 0x00	; 0
    102c:	80 5c       	subi	r24, 0xC0	; 192
    102e:	9f 4f       	sbci	r25, 0xFF	; 255
    1030:	82 1b       	sub	r24, r18
    1032:	91 09       	sbc	r25, r1
    1034:	60 e4       	ldi	r22, 0x40	; 64
    1036:	70 e0       	ldi	r23, 0x00	; 0
    1038:	0e 94 b4 0c 	call	0x1968	; 0x1968 <__divmodhi4>
    103c:	08 95       	ret
    103e:	90 e0       	ldi	r25, 0x00	; 0
    1040:	80 e0       	ldi	r24, 0x00	; 0
    1042:	08 95       	ret

00001044 <SoftwareSerial::stopListening()>:
_ZN14SoftwareSerial13stopListeningEv():
    1044:	e0 91 1b 02 	lds	r30, 0x021B	; 0x80021b <SoftwareSerial::active_object>
    1048:	f0 91 1c 02 	lds	r31, 0x021C	; 0x80021c <SoftwareSerial::active_object+0x1>
    104c:	e8 17       	cp	r30, r24
    104e:	f9 07       	cpc	r31, r25
    1050:	69 f4       	brne	.+26     	; 0x106c <SoftwareSerial::stopListening()+0x28>
_ZN14SoftwareSerial11setRxIntMskEb():
    1052:	a3 89       	ldd	r26, Z+19	; 0x13
    1054:	b4 89       	ldd	r27, Z+20	; 0x14
    1056:	9c 91       	ld	r25, X
    1058:	85 89       	ldd	r24, Z+21	; 0x15
    105a:	80 95       	com	r24
    105c:	89 23       	and	r24, r25
    105e:	8c 93       	st	X, r24
_ZN14SoftwareSerial13stopListeningEv():
    1060:	10 92 1c 02 	sts	0x021C, r1	; 0x80021c <SoftwareSerial::active_object+0x1>
    1064:	10 92 1b 02 	sts	0x021B, r1	; 0x80021b <SoftwareSerial::active_object>
    1068:	81 e0       	ldi	r24, 0x01	; 1
    106a:	08 95       	ret
    106c:	80 e0       	ldi	r24, 0x00	; 0
    106e:	08 95       	ret

00001070 <__vector_27>:
__vector_3():
C:\Users\mateu\AppData\Local\Arduino15\packages\MiniCore\hardware\avr\2.0.9\libraries\SoftwareSerial\src/SoftwareSerial.cpp:239
  }
}

#if defined(PCINT0_vect)
ISR(PCINT0_vect)
{
    1070:	1f 92       	push	r1
    1072:	0f 92       	push	r0
    1074:	0f b6       	in	r0, 0x3f	; 63
    1076:	0f 92       	push	r0
    1078:	11 24       	eor	r1, r1
    107a:	2f 93       	push	r18
    107c:	3f 93       	push	r19
    107e:	4f 93       	push	r20
    1080:	5f 93       	push	r21
    1082:	6f 93       	push	r22
    1084:	7f 93       	push	r23
    1086:	8f 93       	push	r24
    1088:	9f 93       	push	r25
    108a:	af 93       	push	r26
    108c:	bf 93       	push	r27
    108e:	ef 93       	push	r30
    1090:	ff 93       	push	r31
_ZN14SoftwareSerial16handle_interruptEv():
C:\Users\mateu\AppData\Local\Arduino15\packages\MiniCore\hardware\avr\2.0.9\libraries\SoftwareSerial\src/SoftwareSerial.cpp:231
#endif

/* static */
inline void SoftwareSerial::handle_interrupt()
{
  if (active_object)
    1092:	e0 91 1b 02 	lds	r30, 0x021B	; 0x80021b <SoftwareSerial::active_object>
    1096:	f0 91 1c 02 	lds	r31, 0x021C	; 0x80021c <SoftwareSerial::active_object+0x1>
    109a:	30 97       	sbiw	r30, 0x00	; 0
    109c:	49 f0       	breq	.+18     	; 0x10b0 <__vector_27+0x40>
    109e:	a6 85       	ldd	r26, Z+14	; 0x0e
    10a0:	b7 85       	ldd	r27, Z+15	; 0x0f
    10a2:	85 85       	ldd	r24, Z+13	; 0x0d
_ZN14SoftwareSerial4recvEv():
C:\Users\mateu\AppData\Local\Arduino15\packages\MiniCore\hardware\avr\2.0.9\libraries\SoftwareSerial\src/SoftwareSerial.cpp:148

  uint8_t d = 0;

  // If RX line is high, then we don't see any start bit
  // so interrupt is probably not for us
  if (_inverse_logic ? rx_pin_read() : !rx_pin_read())
    10a4:	96 8d       	ldd	r25, Z+30	; 0x1e
    10a6:	91 ff       	sbrs	r25, 1
    10a8:	14 c0       	rjmp	.+40     	; 0x10d2 <__vector_27+0x62>
_ZN14SoftwareSerial11rx_pin_readEv():
C:\Users\mateu\AppData\Local\Arduino15\packages\MiniCore\hardware\avr\2.0.9\libraries\SoftwareSerial\src/SoftwareSerial.cpp:213
#endif
}

uint8_t SoftwareSerial::rx_pin_read()
{
  return *_receivePortRegister & _receiveBitMask;
    10aa:	9c 91       	ld	r25, X
    10ac:	89 23       	and	r24, r25
_ZN14SoftwareSerial4recvEv():
C:\Users\mateu\AppData\Local\Arduino15\packages\MiniCore\hardware\avr\2.0.9\libraries\SoftwareSerial\src/SoftwareSerial.cpp:148

  uint8_t d = 0;

  // If RX line is high, then we don't see any start bit
  // so interrupt is probably not for us
  if (_inverse_logic ? rx_pin_read() : !rx_pin_read())
    10ae:	a1 f4       	brne	.+40     	; 0x10d8 <__vector_27+0x68>
__vector_3():
C:\Users\mateu\AppData\Local\Arduino15\packages\MiniCore\hardware\avr\2.0.9\libraries\SoftwareSerial\src/SoftwareSerial.cpp:241

#if defined(PCINT0_vect)
ISR(PCINT0_vect)
{
  SoftwareSerial::handle_interrupt();
}
    10b0:	ff 91       	pop	r31
    10b2:	ef 91       	pop	r30
    10b4:	bf 91       	pop	r27
    10b6:	af 91       	pop	r26
    10b8:	9f 91       	pop	r25
    10ba:	8f 91       	pop	r24
    10bc:	7f 91       	pop	r23
    10be:	6f 91       	pop	r22
    10c0:	5f 91       	pop	r21
    10c2:	4f 91       	pop	r20
    10c4:	3f 91       	pop	r19
    10c6:	2f 91       	pop	r18
    10c8:	0f 90       	pop	r0
    10ca:	0f be       	out	0x3f, r0	; 63
    10cc:	0f 90       	pop	r0
    10ce:	1f 90       	pop	r1
    10d0:	18 95       	reti
_ZN14SoftwareSerial11rx_pin_readEv():
C:\Users\mateu\AppData\Local\Arduino15\packages\MiniCore\hardware\avr\2.0.9\libraries\SoftwareSerial\src/SoftwareSerial.cpp:213
#endif
}

uint8_t SoftwareSerial::rx_pin_read()
{
  return *_receivePortRegister & _receiveBitMask;
    10d2:	9c 91       	ld	r25, X
    10d4:	89 23       	and	r24, r25
_ZN14SoftwareSerial4recvEv():
C:\Users\mateu\AppData\Local\Arduino15\packages\MiniCore\hardware\avr\2.0.9\libraries\SoftwareSerial\src/SoftwareSerial.cpp:148

  uint8_t d = 0;

  // If RX line is high, then we don't see any start bit
  // so interrupt is probably not for us
  if (_inverse_logic ? rx_pin_read() : !rx_pin_read())
    10d6:	61 f7       	brne	.-40     	; 0x10b0 <__vector_27+0x40>
_ZN14SoftwareSerial11setRxIntMskEb():
C:\Users\mateu\AppData\Local\Arduino15\packages\MiniCore\hardware\avr\2.0.9\libraries\SoftwareSerial\src/SoftwareSerial.cpp:442
void SoftwareSerial::setRxIntMsk(bool enable)
{
    if (enable)
      *_pcint_maskreg |= _pcint_maskvalue;
    else
      *_pcint_maskreg &= ~_pcint_maskvalue;
    10d8:	a3 89       	ldd	r26, Z+19	; 0x13
    10da:	b4 89       	ldd	r27, Z+20	; 0x14
    10dc:	9c 91       	ld	r25, X
    10de:	85 89       	ldd	r24, Z+21	; 0x15
    10e0:	80 95       	com	r24
    10e2:	89 23       	and	r24, r25
    10e4:	8c 93       	st	X, r24
_delay_loop_2():
c:\users\mateu\appdata\local\arduino15\packages\arduino\tools\avr-gcc\7.3.0-atmel3.6.1-arduino7\avr\include\util/delay_basic.h:110
	__asm__ volatile (
		"1: sbiw %0,1" "\n\t"
		"brne 1b"
		: "=w" (__count)
		: "0" (__count)
	);
    10e6:	86 89       	ldd	r24, Z+22	; 0x16
    10e8:	97 89       	ldd	r25, Z+23	; 0x17
    10ea:	01 97       	sbiw	r24, 0x01	; 1
    10ec:	f1 f7       	brne	.-4      	; 0x10ea <__vector_27+0x7a>
_ZN14SoftwareSerial4recvEv():
C:\Users\mateu\AppData\Local\Arduino15\packages\MiniCore\hardware\avr\2.0.9\libraries\SoftwareSerial\src/SoftwareSerial.cpp:162
    DebugPulse(_DEBUG_PIN2, 1);

    // Read each of the 8 bits
    for (uint8_t i=8; i > 0; --i)
    {
      tunedDelay(_rx_delay_intrabit);
    10ee:	60 8d       	ldd	r22, Z+24	; 0x18
    10f0:	71 8d       	ldd	r23, Z+25	; 0x19
_ZN14SoftwareSerial11rx_pin_readEv():
C:\Users\mateu\AppData\Local\Arduino15\packages\MiniCore\hardware\avr\2.0.9\libraries\SoftwareSerial\src/SoftwareSerial.cpp:213
#endif
}

uint8_t SoftwareSerial::rx_pin_read()
{
  return *_receivePortRegister & _receiveBitMask;
    10f2:	a6 85       	ldd	r26, Z+14	; 0x0e
    10f4:	b7 85       	ldd	r27, Z+15	; 0x0f
    10f6:	55 85       	ldd	r21, Z+13	; 0x0d
    10f8:	38 e0       	ldi	r19, 0x08	; 8
_ZN14SoftwareSerial4recvEv():
C:\Users\mateu\AppData\Local\Arduino15\packages\MiniCore\hardware\avr\2.0.9\libraries\SoftwareSerial\src/SoftwareSerial.cpp:144
    "push r26 \n\t"
    "push r27 \n\t"
    ::);
#endif  

  uint8_t d = 0;
    10fa:	20 e0       	ldi	r18, 0x00	; 0
_delay_loop_2():
c:\users\mateu\appdata\local\arduino15\packages\arduino\tools\avr-gcc\7.3.0-atmel3.6.1-arduino7\avr\include\util/delay_basic.h:110
    10fc:	cb 01       	movw	r24, r22
    10fe:	01 97       	sbiw	r24, 0x01	; 1
    1100:	f1 f7       	brne	.-4      	; 0x10fe <__vector_27+0x8e>
_ZN14SoftwareSerial4recvEv():
C:\Users\mateu\AppData\Local\Arduino15\packages\MiniCore\hardware\avr\2.0.9\libraries\SoftwareSerial\src/SoftwareSerial.cpp:163

    // Read each of the 8 bits
    for (uint8_t i=8; i > 0; --i)
    {
      tunedDelay(_rx_delay_intrabit);
      d >>= 1;
    1102:	82 2f       	mov	r24, r18
    1104:	90 e0       	ldi	r25, 0x00	; 0
    1106:	95 95       	asr	r25
    1108:	87 95       	ror	r24
    110a:	28 2f       	mov	r18, r24
_ZN14SoftwareSerial11rx_pin_readEv():
C:\Users\mateu\AppData\Local\Arduino15\packages\MiniCore\hardware\avr\2.0.9\libraries\SoftwareSerial\src/SoftwareSerial.cpp:213
#endif
}

uint8_t SoftwareSerial::rx_pin_read()
{
  return *_receivePortRegister & _receiveBitMask;
    110c:	4c 91       	ld	r20, X
    110e:	45 23       	and	r20, r21
_ZN14SoftwareSerial4recvEv():
C:\Users\mateu\AppData\Local\Arduino15\packages\MiniCore\hardware\avr\2.0.9\libraries\SoftwareSerial\src/SoftwareSerial.cpp:165
    for (uint8_t i=8; i > 0; --i)
    {
      tunedDelay(_rx_delay_intrabit);
      d >>= 1;
      DebugPulse(_DEBUG_PIN2, 1);
      if (rx_pin_read())
    1110:	09 f0       	breq	.+2      	; 0x1114 <__vector_27+0xa4>
C:\Users\mateu\AppData\Local\Arduino15\packages\MiniCore\hardware\avr\2.0.9\libraries\SoftwareSerial\src/SoftwareSerial.cpp:166
        d |= 0x80;
    1112:	20 68       	ori	r18, 0x80	; 128
    1114:	31 50       	subi	r19, 0x01	; 1
C:\Users\mateu\AppData\Local\Arduino15\packages\MiniCore\hardware\avr\2.0.9\libraries\SoftwareSerial\src/SoftwareSerial.cpp:160
    // Wait approximately 1/2 of a bit width to "center" the sample
    tunedDelay(_rx_delay_centering);
    DebugPulse(_DEBUG_PIN2, 1);

    // Read each of the 8 bits
    for (uint8_t i=8; i > 0; --i)
    1116:	91 f7       	brne	.-28     	; 0x10fc <__vector_27+0x8c>
C:\Users\mateu\AppData\Local\Arduino15\packages\MiniCore\hardware\avr\2.0.9\libraries\SoftwareSerial\src/SoftwareSerial.cpp:169
      DebugPulse(_DEBUG_PIN2, 1);
      if (rx_pin_read())
        d |= 0x80;
    }

    if (_inverse_logic)
    1118:	86 8d       	ldd	r24, Z+30	; 0x1e
    111a:	81 fd       	sbrc	r24, 1
C:\Users\mateu\AppData\Local\Arduino15\packages\MiniCore\hardware\avr\2.0.9\libraries\SoftwareSerial\src/SoftwareSerial.cpp:170
      d = ~d;
    111c:	20 95       	com	r18
C:\Users\mateu\AppData\Local\Arduino15\packages\MiniCore\hardware\avr\2.0.9\libraries\SoftwareSerial\src/SoftwareSerial.cpp:173

    // if buffer full, set the overflow flag and return
    uint8_t next = (_receive_buffer_tail + 1) % _SS_MAX_RX_BUFF;
    111e:	80 91 da 01 	lds	r24, 0x01DA	; 0x8001da <SoftwareSerial::_receive_buffer_tail>
    1122:	90 e0       	ldi	r25, 0x00	; 0
    1124:	01 96       	adiw	r24, 0x01	; 1
    1126:	8f 73       	andi	r24, 0x3F	; 63
    1128:	99 27       	eor	r25, r25
C:\Users\mateu\AppData\Local\Arduino15\packages\MiniCore\hardware\avr\2.0.9\libraries\SoftwareSerial\src/SoftwareSerial.cpp:174
    if (next != _receive_buffer_head)
    112a:	30 91 d9 01 	lds	r19, 0x01D9	; 0x8001d9 <SoftwareSerial::_receive_buffer_head>
    112e:	38 17       	cp	r19, r24
    1130:	99 f0       	breq	.+38     	; 0x1158 <__vector_27+0xe8>
C:\Users\mateu\AppData\Local\Arduino15\packages\MiniCore\hardware\avr\2.0.9\libraries\SoftwareSerial\src/SoftwareSerial.cpp:177
    {
      // save new data in buffer: tail points to where byte goes
      _receive_buffer[_receive_buffer_tail] = d; // save new byte
    1132:	a0 91 da 01 	lds	r26, 0x01DA	; 0x8001da <SoftwareSerial::_receive_buffer_tail>
    1136:	b0 e0       	ldi	r27, 0x00	; 0
    1138:	a5 52       	subi	r26, 0x25	; 37
    113a:	be 4f       	sbci	r27, 0xFE	; 254
    113c:	2c 93       	st	X, r18
C:\Users\mateu\AppData\Local\Arduino15\packages\MiniCore\hardware\avr\2.0.9\libraries\SoftwareSerial\src/SoftwareSerial.cpp:178
      _receive_buffer_tail = next;
    113e:	80 93 da 01 	sts	0x01DA, r24	; 0x8001da <SoftwareSerial::_receive_buffer_tail>
_delay_loop_2():
c:\users\mateu\appdata\local\arduino15\packages\arduino\tools\avr-gcc\7.3.0-atmel3.6.1-arduino7\avr\include\util/delay_basic.h:110
    1142:	82 8d       	ldd	r24, Z+26	; 0x1a
    1144:	93 8d       	ldd	r25, Z+27	; 0x1b
    1146:	01 97       	sbiw	r24, 0x01	; 1
    1148:	f1 f7       	brne	.-4      	; 0x1146 <__vector_27+0xd6>
_ZN14SoftwareSerial11setRxIntMskEb():
C:\Users\mateu\AppData\Local\Arduino15\packages\MiniCore\hardware\avr\2.0.9\libraries\SoftwareSerial\src/SoftwareSerial.cpp:440
}

void SoftwareSerial::setRxIntMsk(bool enable)
{
    if (enable)
      *_pcint_maskreg |= _pcint_maskvalue;
    114a:	a3 89       	ldd	r26, Z+19	; 0x13
    114c:	b4 89       	ldd	r27, Z+20	; 0x14
    114e:	8c 91       	ld	r24, X
    1150:	95 89       	ldd	r25, Z+21	; 0x15
    1152:	89 2b       	or	r24, r25
    1154:	8c 93       	st	X, r24
__vector_3():
C:\Users\mateu\AppData\Local\Arduino15\packages\MiniCore\hardware\avr\2.0.9\libraries\SoftwareSerial\src/SoftwareSerial.cpp:241

#if defined(PCINT0_vect)
ISR(PCINT0_vect)
{
  SoftwareSerial::handle_interrupt();
}
    1156:	ac cf       	rjmp	.-168    	; 0x10b0 <__vector_27+0x40>
_ZN14SoftwareSerial4recvEv():
C:\Users\mateu\AppData\Local\Arduino15\packages\MiniCore\hardware\avr\2.0.9\libraries\SoftwareSerial\src/SoftwareSerial.cpp:183
      _receive_buffer_tail = next;
    } 
    else 
    {
      DebugPulse(_DEBUG_PIN1, 1);
      _buffer_overflow = true;
    1158:	86 8d       	ldd	r24, Z+30	; 0x1e
    115a:	81 60       	ori	r24, 0x01	; 1
    115c:	86 8f       	std	Z+30, r24	; 0x1e
    115e:	f1 cf       	rjmp	.-30     	; 0x1142 <__vector_27+0xd2>

00001160 <SoftwareSerial::~SoftwareSerial()>:
_ZN14SoftwareSerialD2Ev():
C:\Users\mateu\AppData\Local\Arduino15\packages\MiniCore\hardware\avr\2.0.9\libraries\SoftwareSerial\src/SoftwareSerial.cpp:274
}

//
// Destructor
//
SoftwareSerial::~SoftwareSerial()
    1160:	28 e2       	ldi	r18, 0x28	; 40
    1162:	31 e0       	ldi	r19, 0x01	; 1
    1164:	fc 01       	movw	r30, r24
    1166:	31 83       	std	Z+1, r19	; 0x01
    1168:	20 83       	st	Z, r18
_ZN14SoftwareSerial3endEv():
C:\Users\mateu\AppData\Local\Arduino15\packages\MiniCore\hardware\avr\2.0.9\libraries\SoftwareSerial\src/SoftwareSerial.cpp:447
      *_pcint_maskreg &= ~_pcint_maskvalue;
}

void SoftwareSerial::end()
{
  stopListening();
    116a:	0c 94 22 08 	jmp	0x1044	; 0x1044 <SoftwareSerial::stopListening()>

0000116e <SoftwareSerial::setTX(signed char)>:
_ZN14SoftwareSerial5setTXEa():
C:\Users\mateu\AppData\Local\Arduino15\packages\MiniCore\hardware\avr\2.0.9\libraries\SoftwareSerial\src/SoftwareSerial.cpp:280
{
  end();
}

void SoftwareSerial::setTX(int8_t tx)
{
    116e:	1f 93       	push	r17
    1170:	cf 93       	push	r28
    1172:	df 93       	push	r29
    1174:	ec 01       	movw	r28, r24
    1176:	16 2f       	mov	r17, r22
C:\Users\mateu\AppData\Local\Arduino15\packages\MiniCore\hardware\avr\2.0.9\libraries\SoftwareSerial\src/SoftwareSerial.cpp:285
  // First write, then set output. If we do this the other way around,
  // the pin would be output low for a short while before switching to
  // output high. Now, it is input with pullup for a short while, which
  // is fine. With inverse logic, either order is fine.
  digitalWrite(tx, _inverse_logic ? LOW : HIGH);
    1178:	6e 8d       	ldd	r22, Y+30	; 0x1e
    117a:	66 95       	lsr	r22
    117c:	61 70       	andi	r22, 0x01	; 1
    117e:	81 e0       	ldi	r24, 0x01	; 1
    1180:	68 27       	eor	r22, r24
    1182:	81 2f       	mov	r24, r17
    1184:	0e 94 86 0c 	call	0x190c	; 0x190c <digitalWrite>
C:\Users\mateu\AppData\Local\Arduino15\packages\MiniCore\hardware\avr\2.0.9\libraries\SoftwareSerial\src/SoftwareSerial.cpp:286
  pinMode(tx, OUTPUT);
    1188:	61 e0       	ldi	r22, 0x01	; 1
    118a:	81 2f       	mov	r24, r17
    118c:	0e 94 4a 0c 	call	0x1894	; 0x1894 <pinMode>
C:\Users\mateu\AppData\Local\Arduino15\packages\MiniCore\hardware\avr\2.0.9\libraries\SoftwareSerial\src/SoftwareSerial.cpp:287
  _transmitBitMask = digitalPinToBitMask(tx);
    1190:	81 2f       	mov	r24, r17
    1192:	11 0f       	add	r17, r17
    1194:	99 0b       	sbc	r25, r25
    1196:	fc 01       	movw	r30, r24
    1198:	e1 5a       	subi	r30, 0xA1	; 161
    119a:	fe 4f       	sbci	r31, 0xFE	; 254
    119c:	e4 91       	lpm	r30, Z
    119e:	e8 8b       	std	Y+16, r30	; 0x10
C:\Users\mateu\AppData\Local\Arduino15\packages\MiniCore\hardware\avr\2.0.9\libraries\SoftwareSerial\src/SoftwareSerial.cpp:288
  uint8_t port = digitalPinToPort(tx);
    11a0:	fc 01       	movw	r30, r24
    11a2:	e6 58       	subi	r30, 0x86	; 134
    11a4:	fe 4f       	sbci	r31, 0xFE	; 254
    11a6:	e4 91       	lpm	r30, Z
C:\Users\mateu\AppData\Local\Arduino15\packages\MiniCore\hardware\avr\2.0.9\libraries\SoftwareSerial\src/SoftwareSerial.cpp:289
  _transmitPortRegister = portOutputRegister(port);
    11a8:	f0 e0       	ldi	r31, 0x00	; 0
    11aa:	ee 0f       	add	r30, r30
    11ac:	ff 1f       	adc	r31, r31
    11ae:	ef 55       	subi	r30, 0x5F	; 95
    11b0:	fe 4f       	sbci	r31, 0xFE	; 254
    11b2:	85 91       	lpm	r24, Z+
    11b4:	94 91       	lpm	r25, Z
    11b6:	9a 8b       	std	Y+18, r25	; 0x12
    11b8:	89 8b       	std	Y+17, r24	; 0x11
C:\Users\mateu\AppData\Local\Arduino15\packages\MiniCore\hardware\avr\2.0.9\libraries\SoftwareSerial\src/SoftwareSerial.cpp:290
}
    11ba:	df 91       	pop	r29
    11bc:	cf 91       	pop	r28
    11be:	1f 91       	pop	r17
    11c0:	08 95       	ret

000011c2 <SoftwareSerial::setRX(signed char)>:
_ZN14SoftwareSerial5setRXEa():
C:\Users\mateu\AppData\Local\Arduino15\packages\MiniCore\hardware\avr\2.0.9\libraries\SoftwareSerial\src/SoftwareSerial.cpp:293

void SoftwareSerial::setRX(int8_t rx)
{
    11c2:	1f 93       	push	r17
    11c4:	cf 93       	push	r28
    11c6:	df 93       	push	r29
    11c8:	ec 01       	movw	r28, r24
    11ca:	16 2f       	mov	r17, r22
C:\Users\mateu\AppData\Local\Arduino15\packages\MiniCore\hardware\avr\2.0.9\libraries\SoftwareSerial\src/SoftwareSerial.cpp:294
  pinMode(rx, INPUT);
    11cc:	60 e0       	ldi	r22, 0x00	; 0
    11ce:	81 2f       	mov	r24, r17
    11d0:	0e 94 4a 0c 	call	0x1894	; 0x1894 <pinMode>
C:\Users\mateu\AppData\Local\Arduino15\packages\MiniCore\hardware\avr\2.0.9\libraries\SoftwareSerial\src/SoftwareSerial.cpp:295
  if (!_inverse_logic)
    11d4:	8e 8d       	ldd	r24, Y+30	; 0x1e
    11d6:	81 fd       	sbrc	r24, 1
    11d8:	04 c0       	rjmp	.+8      	; 0x11e2 <SoftwareSerial::setRX(signed char)+0x20>
C:\Users\mateu\AppData\Local\Arduino15\packages\MiniCore\hardware\avr\2.0.9\libraries\SoftwareSerial\src/SoftwareSerial.cpp:296
    digitalWrite(rx, HIGH);  // pullup for normal logic!
    11da:	61 e0       	ldi	r22, 0x01	; 1
    11dc:	81 2f       	mov	r24, r17
    11de:	0e 94 86 0c 	call	0x190c	; 0x190c <digitalWrite>
C:\Users\mateu\AppData\Local\Arduino15\packages\MiniCore\hardware\avr\2.0.9\libraries\SoftwareSerial\src/SoftwareSerial.cpp:297
  _receivePin = rx;
    11e2:	1c 87       	std	Y+12, r17	; 0x0c
C:\Users\mateu\AppData\Local\Arduino15\packages\MiniCore\hardware\avr\2.0.9\libraries\SoftwareSerial\src/SoftwareSerial.cpp:298
  _receiveBitMask = digitalPinToBitMask(rx);
    11e4:	81 2f       	mov	r24, r17
    11e6:	11 0f       	add	r17, r17
    11e8:	99 0b       	sbc	r25, r25
    11ea:	fc 01       	movw	r30, r24
    11ec:	e1 5a       	subi	r30, 0xA1	; 161
    11ee:	fe 4f       	sbci	r31, 0xFE	; 254
    11f0:	e4 91       	lpm	r30, Z
    11f2:	ed 87       	std	Y+13, r30	; 0x0d
C:\Users\mateu\AppData\Local\Arduino15\packages\MiniCore\hardware\avr\2.0.9\libraries\SoftwareSerial\src/SoftwareSerial.cpp:299
  uint8_t port = digitalPinToPort(rx);
    11f4:	fc 01       	movw	r30, r24
    11f6:	e6 58       	subi	r30, 0x86	; 134
    11f8:	fe 4f       	sbci	r31, 0xFE	; 254
    11fa:	e4 91       	lpm	r30, Z
C:\Users\mateu\AppData\Local\Arduino15\packages\MiniCore\hardware\avr\2.0.9\libraries\SoftwareSerial\src/SoftwareSerial.cpp:300
  _receivePortRegister = portInputRegister(port);
    11fc:	f0 e0       	ldi	r31, 0x00	; 0
    11fe:	ee 0f       	add	r30, r30
    1200:	ff 1f       	adc	r31, r31
    1202:	eb 56       	subi	r30, 0x6B	; 107
    1204:	fe 4f       	sbci	r31, 0xFE	; 254
    1206:	85 91       	lpm	r24, Z+
    1208:	94 91       	lpm	r25, Z
    120a:	9f 87       	std	Y+15, r25	; 0x0f
    120c:	8e 87       	std	Y+14, r24	; 0x0e
C:\Users\mateu\AppData\Local\Arduino15\packages\MiniCore\hardware\avr\2.0.9\libraries\SoftwareSerial\src/SoftwareSerial.cpp:301
}
    120e:	df 91       	pop	r29
    1210:	cf 91       	pop	r28
    1212:	1f 91       	pop	r17
    1214:	08 95       	ret

00001216 <SoftwareSerial::SoftwareSerial(signed char, signed char, bool)>:
_ZN14SoftwareSerialC2Eaab():
C:\Users\mateu\AppData\Local\Arduino15\packages\MiniCore\hardware\avr\2.0.9\libraries\SoftwareSerial\src/SoftwareSerial.cpp:259
#endif

//
// Constructor
//
SoftwareSerial::SoftwareSerial(int8_t receivePin, int8_t transmitPin, bool inverse_logic /* = false */) : 
    1216:	1f 93       	push	r17
    1218:	cf 93       	push	r28
    121a:	df 93       	push	r29
    121c:	ec 01       	movw	r28, r24
    121e:	16 2f       	mov	r17, r22
_ZN5PrintC4Ev():
C:\Users\mateu\AppData\Local\Arduino15\packages\MiniCore\hardware\avr\2.0.9\cores\MCUdude_corefiles/Print.h:46
    size_t printNumber(unsigned long, uint8_t);
    size_t printFloat(double, uint8_t);
  protected:
    void setWriteError(int err = 1) { write_error = err; }
  public:
    Print() : write_error(0) {}
    1220:	1b 82       	std	Y+3, r1	; 0x03
    1222:	1a 82       	std	Y+2, r1	; 0x02
_ZN6StreamC4Ev():
C:\Users\mateu\AppData\Local\Arduino15\packages\MiniCore\hardware\avr\2.0.9\cores\MCUdude_corefiles/Stream.h:63
  public:
    virtual int available() = 0;
    virtual int read() = 0;
    virtual int peek() = 0;

    Stream() {_timeout=1000;}
    1224:	88 ee       	ldi	r24, 0xE8	; 232
    1226:	93 e0       	ldi	r25, 0x03	; 3
    1228:	a0 e0       	ldi	r26, 0x00	; 0
    122a:	b0 e0       	ldi	r27, 0x00	; 0
    122c:	8c 83       	std	Y+4, r24	; 0x04
    122e:	9d 83       	std	Y+5, r25	; 0x05
    1230:	ae 83       	std	Y+6, r26	; 0x06
    1232:	bf 83       	std	Y+7, r27	; 0x07
_ZN14SoftwareSerialC2Eaab():
C:\Users\mateu\AppData\Local\Arduino15\packages\MiniCore\hardware\avr\2.0.9\libraries\SoftwareSerial\src/SoftwareSerial.cpp:265
  _rx_delay_centering(0),
  _rx_delay_intrabit(0),
  _rx_delay_stopbit(0),
  _tx_delay(0),
  _buffer_overflow(false),
  _inverse_logic(inverse_logic)
    1234:	88 e2       	ldi	r24, 0x28	; 40
    1236:	91 e0       	ldi	r25, 0x01	; 1
    1238:	99 83       	std	Y+1, r25	; 0x01
    123a:	88 83       	st	Y, r24
    123c:	1f 8a       	std	Y+23, r1	; 0x17
    123e:	1e 8a       	std	Y+22, r1	; 0x16
    1240:	19 8e       	std	Y+25, r1	; 0x19
    1242:	18 8e       	std	Y+24, r1	; 0x18
    1244:	1b 8e       	std	Y+27, r1	; 0x1b
    1246:	1a 8e       	std	Y+26, r1	; 0x1a
    1248:	1d 8e       	std	Y+29, r1	; 0x1d
    124a:	1c 8e       	std	Y+28, r1	; 0x1c
    124c:	8e 8d       	ldd	r24, Y+30	; 0x1e
    124e:	8e 7f       	andi	r24, 0xFE	; 254
    1250:	20 fb       	bst	r18, 0
    1252:	81 f9       	bld	r24, 1
    1254:	8e 8f       	std	Y+30, r24	; 0x1e
C:\Users\mateu\AppData\Local\Arduino15\packages\MiniCore\hardware\avr\2.0.9\libraries\SoftwareSerial\src/SoftwareSerial.cpp:267
{
  setTX(transmitPin);
    1256:	64 2f       	mov	r22, r20
    1258:	ce 01       	movw	r24, r28
    125a:	0e 94 b7 08 	call	0x116e	; 0x116e <SoftwareSerial::setTX(signed char)>
C:\Users\mateu\AppData\Local\Arduino15\packages\MiniCore\hardware\avr\2.0.9\libraries\SoftwareSerial\src/SoftwareSerial.cpp:268
  setRX(receivePin);
    125e:	61 2f       	mov	r22, r17
    1260:	ce 01       	movw	r24, r28
C:\Users\mateu\AppData\Local\Arduino15\packages\MiniCore\hardware\avr\2.0.9\libraries\SoftwareSerial\src/SoftwareSerial.cpp:269
}
    1262:	df 91       	pop	r29
    1264:	cf 91       	pop	r28
    1266:	1f 91       	pop	r17
C:\Users\mateu\AppData\Local\Arduino15\packages\MiniCore\hardware\avr\2.0.9\libraries\SoftwareSerial\src/SoftwareSerial.cpp:268
  _tx_delay(0),
  _buffer_overflow(false),
  _inverse_logic(inverse_logic)
{
  setTX(transmitPin);
  setRX(receivePin);
    1268:	0c 94 e1 08 	jmp	0x11c2	; 0x11c2 <SoftwareSerial::setRX(signed char)>

0000126c <HardwareSerial::available()>:
_ZN14HardwareSerial9availableEv():
C:\Users\mateu\AppData\Local\Arduino15\packages\MiniCore\hardware\avr\2.0.9\cores\MCUdude_corefiles/HardwareSerial.cpp:77
  if (Serial2_available && serialEvent2 && Serial2_available()) serialEvent2();
#endif
#if defined(HAVE_HWSERIAL3)
  if (Serial3_available && serialEvent3 && Serial3_available()) serialEvent3();
#endif
}
    126c:	fc 01       	movw	r30, r24
    126e:	91 8d       	ldd	r25, Z+25	; 0x19
    1270:	22 8d       	ldd	r18, Z+26	; 0x1a
    1272:	89 2f       	mov	r24, r25
    1274:	90 e0       	ldi	r25, 0x00	; 0
    1276:	80 5c       	subi	r24, 0xC0	; 192
    1278:	9f 4f       	sbci	r25, 0xFF	; 255
    127a:	82 1b       	sub	r24, r18
    127c:	91 09       	sbc	r25, r1
    127e:	8f 73       	andi	r24, 0x3F	; 63
    1280:	99 27       	eor	r25, r25
    1282:	08 95       	ret

00001284 <HardwareSerial::peek()>:
_ZN14HardwareSerial4peekEv():
    1284:	fc 01       	movw	r30, r24
    1286:	91 8d       	ldd	r25, Z+25	; 0x19
    1288:	82 8d       	ldd	r24, Z+26	; 0x1a
    128a:	98 17       	cp	r25, r24
    128c:	31 f0       	breq	.+12     	; 0x129a <HardwareSerial::peek()+0x16>
    128e:	82 8d       	ldd	r24, Z+26	; 0x1a
    1290:	e8 0f       	add	r30, r24
    1292:	f1 1d       	adc	r31, r1
    1294:	85 8d       	ldd	r24, Z+29	; 0x1d
    1296:	90 e0       	ldi	r25, 0x00	; 0
    1298:	08 95       	ret
    129a:	8f ef       	ldi	r24, 0xFF	; 255
    129c:	9f ef       	ldi	r25, 0xFF	; 255
    129e:	08 95       	ret

000012a0 <HardwareSerial::read()>:
_ZN14HardwareSerial4readEv():
    12a0:	fc 01       	movw	r30, r24
    12a2:	91 8d       	ldd	r25, Z+25	; 0x19
    12a4:	82 8d       	ldd	r24, Z+26	; 0x1a
    12a6:	98 17       	cp	r25, r24
    12a8:	61 f0       	breq	.+24     	; 0x12c2 <HardwareSerial::read()+0x22>
    12aa:	a2 8d       	ldd	r26, Z+26	; 0x1a
    12ac:	ae 0f       	add	r26, r30
    12ae:	bf 2f       	mov	r27, r31
    12b0:	b1 1d       	adc	r27, r1
    12b2:	5d 96       	adiw	r26, 0x1d	; 29
    12b4:	8c 91       	ld	r24, X
    12b6:	92 8d       	ldd	r25, Z+26	; 0x1a
    12b8:	9f 5f       	subi	r25, 0xFF	; 255
    12ba:	9f 73       	andi	r25, 0x3F	; 63
    12bc:	92 8f       	std	Z+26, r25	; 0x1a
    12be:	90 e0       	ldi	r25, 0x00	; 0
    12c0:	08 95       	ret
    12c2:	8f ef       	ldi	r24, 0xFF	; 255
    12c4:	9f ef       	ldi	r25, 0xFF	; 255
    12c6:	08 95       	ret

000012c8 <HardwareSerial::availableForWrite()>:
_ZN14HardwareSerial17availableForWriteEv():
    12c8:	fc 01       	movw	r30, r24
    12ca:	53 8d       	ldd	r21, Z+27	; 0x1b
    12cc:	44 8d       	ldd	r20, Z+28	; 0x1c
    12ce:	25 2f       	mov	r18, r21
    12d0:	30 e0       	ldi	r19, 0x00	; 0
    12d2:	84 2f       	mov	r24, r20
    12d4:	90 e0       	ldi	r25, 0x00	; 0
    12d6:	82 1b       	sub	r24, r18
    12d8:	93 0b       	sbc	r25, r19
    12da:	54 17       	cp	r21, r20
    12dc:	10 f0       	brcs	.+4      	; 0x12e2 <HardwareSerial::availableForWrite()+0x1a>
    12de:	cf 96       	adiw	r24, 0x3f	; 63
    12e0:	08 95       	ret
    12e2:	01 97       	sbiw	r24, 0x01	; 1
    12e4:	08 95       	ret

000012e6 <HardwareSerial::_tx_udr_empty_irq()>:
_ZN14HardwareSerial17_tx_udr_empty_irqEv():
C:\Users\mateu\AppData\Local\Arduino15\packages\MiniCore\hardware\avr\2.0.9\cores\MCUdude_corefiles/HardwareSerial.cpp:82

// Actual interrupt handlers //////////////////////////////////////////////////////////////

void HardwareSerial::_tx_udr_empty_irq(void)
{
    12e6:	fc 01       	movw	r30, r24
C:\Users\mateu\AppData\Local\Arduino15\packages\MiniCore\hardware\avr\2.0.9\cores\MCUdude_corefiles/HardwareSerial.cpp:85
  // If interrupts are enabled, there must be more data in the output
  // buffer. Send the next byte
  unsigned char c = _tx_buffer[_tx_buffer_tail];
    12e8:	a4 8d       	ldd	r26, Z+28	; 0x1c
    12ea:	a8 0f       	add	r26, r24
    12ec:	b9 2f       	mov	r27, r25
    12ee:	b1 1d       	adc	r27, r1
    12f0:	a3 5a       	subi	r26, 0xA3	; 163
    12f2:	bf 4f       	sbci	r27, 0xFF	; 255
    12f4:	2c 91       	ld	r18, X
C:\Users\mateu\AppData\Local\Arduino15\packages\MiniCore\hardware\avr\2.0.9\cores\MCUdude_corefiles/HardwareSerial.cpp:86
  _tx_buffer_tail = (_tx_buffer_tail + 1) % SERIAL_TX_BUFFER_SIZE;
    12f6:	84 8d       	ldd	r24, Z+28	; 0x1c
    12f8:	90 e0       	ldi	r25, 0x00	; 0
    12fa:	01 96       	adiw	r24, 0x01	; 1
    12fc:	8f 73       	andi	r24, 0x3F	; 63
    12fe:	99 27       	eor	r25, r25
    1300:	84 8f       	std	Z+28, r24	; 0x1c
C:\Users\mateu\AppData\Local\Arduino15\packages\MiniCore\hardware\avr\2.0.9\cores\MCUdude_corefiles/HardwareSerial.cpp:88

  *_udr = c;
    1302:	a6 89       	ldd	r26, Z+22	; 0x16
    1304:	b7 89       	ldd	r27, Z+23	; 0x17
    1306:	2c 93       	st	X, r18
C:\Users\mateu\AppData\Local\Arduino15\packages\MiniCore\hardware\avr\2.0.9\cores\MCUdude_corefiles/HardwareSerial.cpp:93

  // clear the TXC bit -- "can be cleared by writing a one to its bit
  // location". This makes sure flush() won't return until the bytes
  // actually got written
  *_ucsra |= _BV(TXC0);
    1308:	a0 89       	ldd	r26, Z+16	; 0x10
    130a:	b1 89       	ldd	r27, Z+17	; 0x11
    130c:	8c 91       	ld	r24, X
    130e:	80 64       	ori	r24, 0x40	; 64
    1310:	8c 93       	st	X, r24
C:\Users\mateu\AppData\Local\Arduino15\packages\MiniCore\hardware\avr\2.0.9\cores\MCUdude_corefiles/HardwareSerial.cpp:95

  if (_tx_buffer_head == _tx_buffer_tail) {
    1312:	93 8d       	ldd	r25, Z+27	; 0x1b
    1314:	84 8d       	ldd	r24, Z+28	; 0x1c
    1316:	98 13       	cpse	r25, r24
    1318:	06 c0       	rjmp	.+12     	; 0x1326 <HardwareSerial::_tx_udr_empty_irq()+0x40>
C:\Users\mateu\AppData\Local\Arduino15\packages\MiniCore\hardware\avr\2.0.9\cores\MCUdude_corefiles/HardwareSerial.cpp:97
    // Buffer empty, so disable interrupts
    *_ucsrb &= ~_BV(UDRIE0);
    131a:	02 88       	ldd	r0, Z+18	; 0x12
    131c:	f3 89       	ldd	r31, Z+19	; 0x13
    131e:	e0 2d       	mov	r30, r0
    1320:	80 81       	ld	r24, Z
    1322:	8f 7d       	andi	r24, 0xDF	; 223
    1324:	80 83       	st	Z, r24
C:\Users\mateu\AppData\Local\Arduino15\packages\MiniCore\hardware\avr\2.0.9\cores\MCUdude_corefiles/HardwareSerial.cpp:99
  }
}
    1326:	08 95       	ret

00001328 <HardwareSerial::flush()>:
_ZN14HardwareSerial5flushEv():
C:\Users\mateu\AppData\Local\Arduino15\packages\MiniCore\hardware\avr\2.0.9\cores\MCUdude_corefiles/HardwareSerial.cpp:191
  if (head >= tail) return SERIAL_TX_BUFFER_SIZE - 1 - head + tail;
  return tail - head - 1;
}

void HardwareSerial::flush()
{
    1328:	cf 93       	push	r28
    132a:	df 93       	push	r29
    132c:	ec 01       	movw	r28, r24
C:\Users\mateu\AppData\Local\Arduino15\packages\MiniCore\hardware\avr\2.0.9\cores\MCUdude_corefiles/HardwareSerial.cpp:195
  // If we have never written a byte, no need to flush. This special
  // case is needed since there is no way to force the TXC (transmit
  // complete) bit to 1 during initialization
  if (!_written)
    132e:	88 8d       	ldd	r24, Y+24	; 0x18
    1330:	88 23       	and	r24, r24
    1332:	b9 f0       	breq	.+46     	; 0x1362 <HardwareSerial::flush()+0x3a>
C:\Users\mateu\AppData\Local\Arduino15\packages\MiniCore\hardware\avr\2.0.9\cores\MCUdude_corefiles/HardwareSerial.cpp:198
    return;

  while (bit_is_set(*_ucsrb, UDRIE0) || bit_is_clear(*_ucsra, TXC0)) {
    1334:	aa 89       	ldd	r26, Y+18	; 0x12
    1336:	bb 89       	ldd	r27, Y+19	; 0x13
    1338:	e8 89       	ldd	r30, Y+16	; 0x10
    133a:	f9 89       	ldd	r31, Y+17	; 0x11
    133c:	8c 91       	ld	r24, X
    133e:	85 fd       	sbrc	r24, 5
    1340:	03 c0       	rjmp	.+6      	; 0x1348 <HardwareSerial::flush()+0x20>
    1342:	80 81       	ld	r24, Z
    1344:	86 fd       	sbrc	r24, 6
    1346:	0d c0       	rjmp	.+26     	; 0x1362 <HardwareSerial::flush()+0x3a>
C:\Users\mateu\AppData\Local\Arduino15\packages\MiniCore\hardware\avr\2.0.9\cores\MCUdude_corefiles/HardwareSerial.cpp:199
    if (bit_is_clear(SREG, SREG_I) && bit_is_set(*_ucsrb, UDRIE0))
    1348:	0f b6       	in	r0, 0x3f	; 63
    134a:	07 fc       	sbrc	r0, 7
    134c:	f7 cf       	rjmp	.-18     	; 0x133c <HardwareSerial::flush()+0x14>
    134e:	8c 91       	ld	r24, X
    1350:	85 ff       	sbrs	r24, 5
    1352:	f2 cf       	rjmp	.-28     	; 0x1338 <HardwareSerial::flush()+0x10>
C:\Users\mateu\AppData\Local\Arduino15\packages\MiniCore\hardware\avr\2.0.9\cores\MCUdude_corefiles/HardwareSerial.cpp:203
      // Interrupts are globally disabled, but the DR empty
      // interrupt should be enabled, so poll the DR empty flag to
      // prevent deadlock
      if (bit_is_set(*_ucsra, UDRE0))
    1354:	80 81       	ld	r24, Z
    1356:	85 ff       	sbrs	r24, 5
    1358:	ed cf       	rjmp	.-38     	; 0x1334 <HardwareSerial::flush()+0xc>
C:\Users\mateu\AppData\Local\Arduino15\packages\MiniCore\hardware\avr\2.0.9\cores\MCUdude_corefiles/HardwareSerial.cpp:204
        _tx_udr_empty_irq();
    135a:	ce 01       	movw	r24, r28
    135c:	0e 94 73 09 	call	0x12e6	; 0x12e6 <HardwareSerial::_tx_udr_empty_irq()>
    1360:	e9 cf       	rjmp	.-46     	; 0x1334 <HardwareSerial::flush()+0xc>
C:\Users\mateu\AppData\Local\Arduino15\packages\MiniCore\hardware\avr\2.0.9\cores\MCUdude_corefiles/HardwareSerial.cpp:208
  }
  // If we get here, nothing is queued anymore (DRIE is disabled) and
  // the hardware finished tranmission (TXC is set).
}
    1362:	df 91       	pop	r29
    1364:	cf 91       	pop	r28
    1366:	08 95       	ret

00001368 <HardwareSerial::write(unsigned char)>:
_ZN14HardwareSerial5writeEh():
C:\Users\mateu\AppData\Local\Arduino15\packages\MiniCore\hardware\avr\2.0.9\cores\MCUdude_corefiles/HardwareSerial.cpp:211

size_t HardwareSerial::write(uint8_t c)
{
    1368:	ef 92       	push	r14
    136a:	ff 92       	push	r15
    136c:	0f 93       	push	r16
    136e:	1f 93       	push	r17
    1370:	cf 93       	push	r28
    1372:	df 93       	push	r29
    1374:	ec 01       	movw	r28, r24
C:\Users\mateu\AppData\Local\Arduino15\packages\MiniCore\hardware\avr\2.0.9\cores\MCUdude_corefiles/HardwareSerial.cpp:212
  _written = true;
    1376:	81 e0       	ldi	r24, 0x01	; 1
    1378:	88 8f       	std	Y+24, r24	; 0x18
C:\Users\mateu\AppData\Local\Arduino15\packages\MiniCore\hardware\avr\2.0.9\cores\MCUdude_corefiles/HardwareSerial.cpp:217
  // If the buffer and the data register is empty, just write the byte
  // to the data register and be done. This shortcut helps
  // significantly improve the effective datarate at high (>
  // 500kbit/s) bitrates, where interrupt overhead becomes a slowdown.
  if (_tx_buffer_head == _tx_buffer_tail && bit_is_set(*_ucsra, UDRE0)) {
    137a:	9b 8d       	ldd	r25, Y+27	; 0x1b
    137c:	8c 8d       	ldd	r24, Y+28	; 0x1c
    137e:	98 13       	cpse	r25, r24
    1380:	16 c0       	rjmp	.+44     	; 0x13ae <HardwareSerial::write(unsigned char)+0x46>
C:\Users\mateu\AppData\Local\Arduino15\packages\MiniCore\hardware\avr\2.0.9\cores\MCUdude_corefiles/HardwareSerial.cpp:217 (discriminator 1)
    1382:	e8 89       	ldd	r30, Y+16	; 0x10
    1384:	f9 89       	ldd	r31, Y+17	; 0x11
    1386:	80 81       	ld	r24, Z
    1388:	85 ff       	sbrs	r24, 5
    138a:	11 c0       	rjmp	.+34     	; 0x13ae <HardwareSerial::write(unsigned char)+0x46>
C:\Users\mateu\AppData\Local\Arduino15\packages\MiniCore\hardware\avr\2.0.9\cores\MCUdude_corefiles/HardwareSerial.cpp:218
    *_udr = c;
    138c:	ee 89       	ldd	r30, Y+22	; 0x16
    138e:	ff 89       	ldd	r31, Y+23	; 0x17
    1390:	60 83       	st	Z, r22
C:\Users\mateu\AppData\Local\Arduino15\packages\MiniCore\hardware\avr\2.0.9\cores\MCUdude_corefiles/HardwareSerial.cpp:219
    *_ucsra |= _BV(TXC0);
    1392:	e8 89       	ldd	r30, Y+16	; 0x10
    1394:	f9 89       	ldd	r31, Y+17	; 0x11
    1396:	80 81       	ld	r24, Z
    1398:	80 64       	ori	r24, 0x40	; 64
C:\Users\mateu\AppData\Local\Arduino15\packages\MiniCore\hardware\avr\2.0.9\cores\MCUdude_corefiles/HardwareSerial.cpp:242
  }

  _tx_buffer[_tx_buffer_head] = c;
  _tx_buffer_head = i;

  *_ucsrb |= _BV(UDRIE0);
    139a:	80 83       	st	Z, r24
C:\Users\mateu\AppData\Local\Arduino15\packages\MiniCore\hardware\avr\2.0.9\cores\MCUdude_corefiles/HardwareSerial.cpp:245
  
  return 1;
}
    139c:	81 e0       	ldi	r24, 0x01	; 1
    139e:	90 e0       	ldi	r25, 0x00	; 0
    13a0:	df 91       	pop	r29
    13a2:	cf 91       	pop	r28
    13a4:	1f 91       	pop	r17
    13a6:	0f 91       	pop	r16
    13a8:	ff 90       	pop	r15
    13aa:	ef 90       	pop	r14
    13ac:	08 95       	ret
    13ae:	f6 2e       	mov	r15, r22
C:\Users\mateu\AppData\Local\Arduino15\packages\MiniCore\hardware\avr\2.0.9\cores\MCUdude_corefiles/HardwareSerial.cpp:222
  if (_tx_buffer_head == _tx_buffer_tail && bit_is_set(*_ucsra, UDRE0)) {
    *_udr = c;
    *_ucsra |= _BV(TXC0);
    return 1;
  }
  tx_buffer_index_t i = (_tx_buffer_head + 1) % SERIAL_TX_BUFFER_SIZE;
    13b0:	0b 8d       	ldd	r16, Y+27	; 0x1b
    13b2:	10 e0       	ldi	r17, 0x00	; 0
    13b4:	0f 5f       	subi	r16, 0xFF	; 255
    13b6:	1f 4f       	sbci	r17, 0xFF	; 255
    13b8:	0f 73       	andi	r16, 0x3F	; 63
    13ba:	11 27       	eor	r17, r17
    13bc:	e0 2e       	mov	r14, r16
C:\Users\mateu\AppData\Local\Arduino15\packages\MiniCore\hardware\avr\2.0.9\cores\MCUdude_corefiles/HardwareSerial.cpp:226

  // If the output buffer is full, there's nothing for it other than to 
  // wait for the interrupt handler to empty it a bit
  while (i == _tx_buffer_tail) {
    13be:	8c 8d       	ldd	r24, Y+28	; 0x1c
    13c0:	8e 11       	cpse	r24, r14
    13c2:	0c c0       	rjmp	.+24     	; 0x13dc <HardwareSerial::write(unsigned char)+0x74>
C:\Users\mateu\AppData\Local\Arduino15\packages\MiniCore\hardware\avr\2.0.9\cores\MCUdude_corefiles/HardwareSerial.cpp:227
    if (bit_is_clear(SREG, SREG_I)) {
    13c4:	0f b6       	in	r0, 0x3f	; 63
    13c6:	07 fc       	sbrc	r0, 7
    13c8:	fa cf       	rjmp	.-12     	; 0x13be <HardwareSerial::write(unsigned char)+0x56>
C:\Users\mateu\AppData\Local\Arduino15\packages\MiniCore\hardware\avr\2.0.9\cores\MCUdude_corefiles/HardwareSerial.cpp:232
      // Interrupts are disabled, so we'll have to poll the data
      // register empty flag ourselves. If it is set, pretend an
      // interrupt has happened and call the handler to free up
      // space for us.
      if(bit_is_set(*_ucsra, UDRE0))
    13ca:	e8 89       	ldd	r30, Y+16	; 0x10
    13cc:	f9 89       	ldd	r31, Y+17	; 0x11
    13ce:	80 81       	ld	r24, Z
    13d0:	85 ff       	sbrs	r24, 5
    13d2:	f5 cf       	rjmp	.-22     	; 0x13be <HardwareSerial::write(unsigned char)+0x56>
C:\Users\mateu\AppData\Local\Arduino15\packages\MiniCore\hardware\avr\2.0.9\cores\MCUdude_corefiles/HardwareSerial.cpp:233
        _tx_udr_empty_irq();
    13d4:	ce 01       	movw	r24, r28
    13d6:	0e 94 73 09 	call	0x12e6	; 0x12e6 <HardwareSerial::_tx_udr_empty_irq()>
    13da:	f1 cf       	rjmp	.-30     	; 0x13be <HardwareSerial::write(unsigned char)+0x56>
C:\Users\mateu\AppData\Local\Arduino15\packages\MiniCore\hardware\avr\2.0.9\cores\MCUdude_corefiles/HardwareSerial.cpp:239
    } else {
      // nop, the interrupt handler will free up space for us
    }
  }

  _tx_buffer[_tx_buffer_head] = c;
    13dc:	eb 8d       	ldd	r30, Y+27	; 0x1b
    13de:	ec 0f       	add	r30, r28
    13e0:	fd 2f       	mov	r31, r29
    13e2:	f1 1d       	adc	r31, r1
    13e4:	e3 5a       	subi	r30, 0xA3	; 163
    13e6:	ff 4f       	sbci	r31, 0xFF	; 255
    13e8:	f0 82       	st	Z, r15
C:\Users\mateu\AppData\Local\Arduino15\packages\MiniCore\hardware\avr\2.0.9\cores\MCUdude_corefiles/HardwareSerial.cpp:240
  _tx_buffer_head = i;
    13ea:	0b 8f       	std	Y+27, r16	; 0x1b
C:\Users\mateu\AppData\Local\Arduino15\packages\MiniCore\hardware\avr\2.0.9\cores\MCUdude_corefiles/HardwareSerial.cpp:242

  *_ucsrb |= _BV(UDRIE0);
    13ec:	ea 89       	ldd	r30, Y+18	; 0x12
    13ee:	fb 89       	ldd	r31, Y+19	; 0x13
    13f0:	80 81       	ld	r24, Z
    13f2:	80 62       	ori	r24, 0x20	; 32
    13f4:	d2 cf       	rjmp	.-92     	; 0x139a <HardwareSerial::write(unsigned char)+0x32>

000013f6 <HardwareSerial::begin(unsigned long, unsigned char)>:
_ZN14HardwareSerial5beginEmh():
C:\Users\mateu\AppData\Local\Arduino15\packages\MiniCore\hardware\avr\2.0.9\cores\MCUdude_corefiles/HardwareSerial.cpp:104
}

// Public Methods //////////////////////////////////////////////////////////////

void HardwareSerial::begin(unsigned long baud, byte config)
{
    13f6:	cf 92       	push	r12
    13f8:	df 92       	push	r13
    13fa:	ef 92       	push	r14
    13fc:	ff 92       	push	r15
    13fe:	1f 93       	push	r17
    1400:	cf 93       	push	r28
    1402:	df 93       	push	r29
    1404:	ec 01       	movw	r28, r24
    1406:	6a 01       	movw	r12, r20
    1408:	7b 01       	movw	r14, r22
    140a:	12 2f       	mov	r17, r18
C:\Users\mateu\AppData\Local\Arduino15\packages\MiniCore\hardware\avr\2.0.9\cores\MCUdude_corefiles/HardwareSerial.cpp:107
  // Try u2x mode first
  uint16_t baud_setting = (F_CPU / 4 / baud - 1) / 2;
  *_ucsra = 1 << U2X0;
    140c:	e8 89       	ldd	r30, Y+16	; 0x10
    140e:	f9 89       	ldd	r31, Y+17	; 0x11
    1410:	82 e0       	ldi	r24, 0x02	; 2
    1412:	80 83       	st	Z, r24
C:\Users\mateu\AppData\Local\Arduino15\packages\MiniCore\hardware\avr\2.0.9\cores\MCUdude_corefiles/HardwareSerial.cpp:114
  // hardcoded exception for 57600 for compatibility with the bootloader
  // shipped with the Duemilanove and previous boards and the firmware
  // on the 8U2 on the Uno and Mega 2560. Also, The baud_setting cannot
  // be > 4095, so switch back to non-u2x mode if the baud rate is too
  // low.
  if (((F_CPU == 16000000UL) && (baud == 57600)) || (baud_setting >4095))
    1414:	c1 14       	cp	r12, r1
    1416:	81 ee       	ldi	r24, 0xE1	; 225
    1418:	d8 06       	cpc	r13, r24
    141a:	e1 04       	cpc	r14, r1
    141c:	f1 04       	cpc	r15, r1
    141e:	a1 f0       	breq	.+40     	; 0x1448 <HardwareSerial::begin(unsigned long, unsigned char)+0x52>
C:\Users\mateu\AppData\Local\Arduino15\packages\MiniCore\hardware\avr\2.0.9\cores\MCUdude_corefiles/HardwareSerial.cpp:106 (discriminator 1)
// Public Methods //////////////////////////////////////////////////////////////

void HardwareSerial::begin(unsigned long baud, byte config)
{
  // Try u2x mode first
  uint16_t baud_setting = (F_CPU / 4 / baud - 1) / 2;
    1420:	60 e0       	ldi	r22, 0x00	; 0
    1422:	79 e0       	ldi	r23, 0x09	; 9
    1424:	8d e3       	ldi	r24, 0x3D	; 61
    1426:	90 e0       	ldi	r25, 0x00	; 0
    1428:	a7 01       	movw	r20, r14
    142a:	96 01       	movw	r18, r12
    142c:	0e 94 c8 0c 	call	0x1990	; 0x1990 <__udivmodsi4>
    1430:	21 50       	subi	r18, 0x01	; 1
    1432:	31 09       	sbc	r19, r1
    1434:	41 09       	sbc	r20, r1
    1436:	51 09       	sbc	r21, r1
    1438:	56 95       	lsr	r21
    143a:	47 95       	ror	r20
    143c:	37 95       	ror	r19
    143e:	27 95       	ror	r18
C:\Users\mateu\AppData\Local\Arduino15\packages\MiniCore\hardware\avr\2.0.9\cores\MCUdude_corefiles/HardwareSerial.cpp:114 (discriminator 1)
  // hardcoded exception for 57600 for compatibility with the bootloader
  // shipped with the Duemilanove and previous boards and the firmware
  // on the 8U2 on the Uno and Mega 2560. Also, The baud_setting cannot
  // be > 4095, so switch back to non-u2x mode if the baud rate is too
  // low.
  if (((F_CPU == 16000000UL) && (baud == 57600)) || (baud_setting >4095))
    1440:	21 15       	cp	r18, r1
    1442:	80 e1       	ldi	r24, 0x10	; 16
    1444:	38 07       	cpc	r19, r24
    1446:	98 f0       	brcs	.+38     	; 0x146e <HardwareSerial::begin(unsigned long, unsigned char)+0x78>
C:\Users\mateu\AppData\Local\Arduino15\packages\MiniCore\hardware\avr\2.0.9\cores\MCUdude_corefiles/HardwareSerial.cpp:116
  {
    *_ucsra = 0;
    1448:	e8 89       	ldd	r30, Y+16	; 0x10
    144a:	f9 89       	ldd	r31, Y+17	; 0x11
    144c:	10 82       	st	Z, r1
C:\Users\mateu\AppData\Local\Arduino15\packages\MiniCore\hardware\avr\2.0.9\cores\MCUdude_corefiles/HardwareSerial.cpp:117
    baud_setting = (F_CPU / 8 / baud - 1) / 2;
    144e:	60 e8       	ldi	r22, 0x80	; 128
    1450:	74 e8       	ldi	r23, 0x84	; 132
    1452:	8e e1       	ldi	r24, 0x1E	; 30
    1454:	90 e0       	ldi	r25, 0x00	; 0
    1456:	a7 01       	movw	r20, r14
    1458:	96 01       	movw	r18, r12
    145a:	0e 94 c8 0c 	call	0x1990	; 0x1990 <__udivmodsi4>
    145e:	21 50       	subi	r18, 0x01	; 1
    1460:	31 09       	sbc	r19, r1
    1462:	41 09       	sbc	r20, r1
    1464:	51 09       	sbc	r21, r1
    1466:	56 95       	lsr	r21
    1468:	47 95       	ror	r20
    146a:	37 95       	ror	r19
    146c:	27 95       	ror	r18
C:\Users\mateu\AppData\Local\Arduino15\packages\MiniCore\hardware\avr\2.0.9\cores\MCUdude_corefiles/HardwareSerial.cpp:121
  }

  // assign the baud_setting, a.k.a. ubrr (USART Baud Rate Register)
  *_ubrrh = baud_setting >> 8;
    146e:	ec 85       	ldd	r30, Y+12	; 0x0c
    1470:	fd 85       	ldd	r31, Y+13	; 0x0d
    1472:	30 83       	st	Z, r19
C:\Users\mateu\AppData\Local\Arduino15\packages\MiniCore\hardware\avr\2.0.9\cores\MCUdude_corefiles/HardwareSerial.cpp:122
  *_ubrrl = baud_setting;
    1474:	ee 85       	ldd	r30, Y+14	; 0x0e
    1476:	ff 85       	ldd	r31, Y+15	; 0x0f
    1478:	20 83       	st	Z, r18
C:\Users\mateu\AppData\Local\Arduino15\packages\MiniCore\hardware\avr\2.0.9\cores\MCUdude_corefiles/HardwareSerial.cpp:124

  _written = false;
    147a:	18 8e       	std	Y+24, r1	; 0x18
C:\Users\mateu\AppData\Local\Arduino15\packages\MiniCore\hardware\avr\2.0.9\cores\MCUdude_corefiles/HardwareSerial.cpp:132
#if defined(__AVR_ATmega8__) || defined(__AVR_ATmega8515__) || defined(__AVR_ATmega162__) \
|| defined(__AVR_ATmega8535__) || defined(__AVR_ATmega16__)|| defined(__AVR_ATmega32__)   \
|| defined(__AVR_ATmega162__)
  config |= 0x80; // select UCSRC register (shared with UBRRH)
#endif
  *_ucsrc = config;
    147c:	ec 89       	ldd	r30, Y+20	; 0x14
    147e:	fd 89       	ldd	r31, Y+21	; 0x15
    1480:	10 83       	st	Z, r17
C:\Users\mateu\AppData\Local\Arduino15\packages\MiniCore\hardware\avr\2.0.9\cores\MCUdude_corefiles/HardwareSerial.cpp:134
  
  *_ucsrb |= _BV(RXEN0) | _BV(TXEN0) | _BV(RXCIE0);
    1482:	ea 89       	ldd	r30, Y+18	; 0x12
    1484:	fb 89       	ldd	r31, Y+19	; 0x13
    1486:	80 81       	ld	r24, Z
    1488:	88 69       	ori	r24, 0x98	; 152
    148a:	80 83       	st	Z, r24
C:\Users\mateu\AppData\Local\Arduino15\packages\MiniCore\hardware\avr\2.0.9\cores\MCUdude_corefiles/HardwareSerial.cpp:135
  *_ucsrb &= ~_BV(UDRIE0);
    148c:	ea 89       	ldd	r30, Y+18	; 0x12
    148e:	fb 89       	ldd	r31, Y+19	; 0x13
    1490:	80 81       	ld	r24, Z
    1492:	8f 7d       	andi	r24, 0xDF	; 223
    1494:	80 83       	st	Z, r24
C:\Users\mateu\AppData\Local\Arduino15\packages\MiniCore\hardware\avr\2.0.9\cores\MCUdude_corefiles/HardwareSerial.cpp:136
}
    1496:	df 91       	pop	r29
    1498:	cf 91       	pop	r28
    149a:	1f 91       	pop	r17
    149c:	ff 90       	pop	r15
    149e:	ef 90       	pop	r14
    14a0:	df 90       	pop	r13
    14a2:	cf 90       	pop	r12
    14a4:	08 95       	ret

000014a6 <__vector_18>:
__vector_18():
C:\Users\mateu\AppData\Local\Arduino15\packages\MiniCore\hardware\avr\2.0.9\cores\MCUdude_corefiles/HardwareSerial0.cpp:77

// Function that can be weakly referenced by serialEventRun to prevent
// pulling in this file if it's not otherwise used.
bool Serial0_available() {
  return Serial.available();
}
    14a6:	1f 92       	push	r1
    14a8:	0f 92       	push	r0
    14aa:	0f b6       	in	r0, 0x3f	; 63
    14ac:	0f 92       	push	r0
    14ae:	11 24       	eor	r1, r1
    14b0:	2f 93       	push	r18
    14b2:	8f 93       	push	r24
    14b4:	9f 93       	push	r25
    14b6:	ef 93       	push	r30
    14b8:	ff 93       	push	r31
_ZN14HardwareSerial16_rx_complete_irqEv():
    14ba:	e0 91 2d 02 	lds	r30, 0x022D	; 0x80022d <Serial+0x10>
    14be:	f0 91 2e 02 	lds	r31, 0x022E	; 0x80022e <Serial+0x11>
    14c2:	80 81       	ld	r24, Z
    14c4:	e0 91 33 02 	lds	r30, 0x0233	; 0x800233 <Serial+0x16>
    14c8:	f0 91 34 02 	lds	r31, 0x0234	; 0x800234 <Serial+0x17>
    14cc:	82 fd       	sbrc	r24, 2
    14ce:	1b c0       	rjmp	.+54     	; 0x1506 <__vector_18+0x60>
    14d0:	90 81       	ld	r25, Z
    14d2:	80 91 36 02 	lds	r24, 0x0236	; 0x800236 <Serial+0x19>
    14d6:	8f 5f       	subi	r24, 0xFF	; 255
    14d8:	8f 73       	andi	r24, 0x3F	; 63
    14da:	20 91 37 02 	lds	r18, 0x0237	; 0x800237 <Serial+0x1a>
    14de:	82 17       	cp	r24, r18
    14e0:	41 f0       	breq	.+16     	; 0x14f2 <__vector_18+0x4c>
    14e2:	e0 91 36 02 	lds	r30, 0x0236	; 0x800236 <Serial+0x19>
    14e6:	f0 e0       	ldi	r31, 0x00	; 0
    14e8:	e3 5e       	subi	r30, 0xE3	; 227
    14ea:	fd 4f       	sbci	r31, 0xFD	; 253
    14ec:	95 8f       	std	Z+29, r25	; 0x1d
    14ee:	80 93 36 02 	sts	0x0236, r24	; 0x800236 <Serial+0x19>
__vector_18():
    14f2:	ff 91       	pop	r31
    14f4:	ef 91       	pop	r30
    14f6:	9f 91       	pop	r25
    14f8:	8f 91       	pop	r24
    14fa:	2f 91       	pop	r18
    14fc:	0f 90       	pop	r0
    14fe:	0f be       	out	0x3f, r0	; 63
    1500:	0f 90       	pop	r0
    1502:	1f 90       	pop	r1
    1504:	18 95       	reti
_ZN14HardwareSerial16_rx_complete_irqEv():
    1506:	80 81       	ld	r24, Z
__vector_18():
    1508:	f4 cf       	rjmp	.-24     	; 0x14f2 <__vector_18+0x4c>

0000150a <__vector_19>:
__vector_19():
    150a:	1f 92       	push	r1
    150c:	0f 92       	push	r0
    150e:	0f b6       	in	r0, 0x3f	; 63
    1510:	0f 92       	push	r0
    1512:	11 24       	eor	r1, r1
    1514:	2f 93       	push	r18
    1516:	3f 93       	push	r19
    1518:	4f 93       	push	r20
    151a:	5f 93       	push	r21
    151c:	6f 93       	push	r22
    151e:	7f 93       	push	r23
    1520:	8f 93       	push	r24
    1522:	9f 93       	push	r25
    1524:	af 93       	push	r26
    1526:	bf 93       	push	r27
    1528:	ef 93       	push	r30
    152a:	ff 93       	push	r31
    152c:	8d e1       	ldi	r24, 0x1D	; 29
    152e:	92 e0       	ldi	r25, 0x02	; 2
    1530:	0e 94 73 09 	call	0x12e6	; 0x12e6 <HardwareSerial::_tx_udr_empty_irq()>
    1534:	ff 91       	pop	r31
    1536:	ef 91       	pop	r30
    1538:	bf 91       	pop	r27
    153a:	af 91       	pop	r26
    153c:	9f 91       	pop	r25
    153e:	8f 91       	pop	r24
    1540:	7f 91       	pop	r23
    1542:	6f 91       	pop	r22
    1544:	5f 91       	pop	r21
    1546:	4f 91       	pop	r20
    1548:	3f 91       	pop	r19
    154a:	2f 91       	pop	r18
    154c:	0f 90       	pop	r0
    154e:	0f be       	out	0x3f, r0	; 63
    1550:	0f 90       	pop	r0
    1552:	1f 90       	pop	r1
    1554:	18 95       	reti

00001556 <_GLOBAL__sub_I___vector_18>:
_ZN5PrintC4Ev():
C:\Users\mateu\AppData\Local\Arduino15\packages\MiniCore\hardware\avr\2.0.9\cores\MCUdude_corefiles/Print.h:46
    1556:	ed e1       	ldi	r30, 0x1D	; 29
    1558:	f2 e0       	ldi	r31, 0x02	; 2
    155a:	13 82       	std	Z+3, r1	; 0x03
    155c:	12 82       	std	Z+2, r1	; 0x02
_ZN6StreamC4Ev():
C:\Users\mateu\AppData\Local\Arduino15\packages\MiniCore\hardware\avr\2.0.9\cores\MCUdude_corefiles/Stream.h:63
    155e:	88 ee       	ldi	r24, 0xE8	; 232
    1560:	93 e0       	ldi	r25, 0x03	; 3
    1562:	a0 e0       	ldi	r26, 0x00	; 0
    1564:	b0 e0       	ldi	r27, 0x00	; 0
    1566:	84 83       	std	Z+4, r24	; 0x04
    1568:	95 83       	std	Z+5, r25	; 0x05
    156a:	a6 83       	std	Z+6, r26	; 0x06
    156c:	b7 83       	std	Z+7, r27	; 0x07
_ZN14HardwareSerialC4EPVhS1_S1_S1_S1_S1_():
C:\Users\mateu\AppData\Local\Arduino15\packages\MiniCore\hardware\avr\2.0.9\cores\MCUdude_corefiles/HardwareSerial_private.h:95
  volatile uint8_t *ucsrc, volatile uint8_t *udr) :
    _ubrrh(ubrrh), _ubrrl(ubrrl),
    _ucsra(ucsra), _ucsrb(ucsrb), _ucsrc(ucsrc),
    _udr(udr),
    _rx_buffer_head(0), _rx_buffer_tail(0),
    _tx_buffer_head(0), _tx_buffer_tail(0)
    156e:	8a e3       	ldi	r24, 0x3A	; 58
    1570:	91 e0       	ldi	r25, 0x01	; 1
    1572:	91 83       	std	Z+1, r25	; 0x01
    1574:	80 83       	st	Z, r24
    1576:	85 ec       	ldi	r24, 0xC5	; 197
    1578:	90 e0       	ldi	r25, 0x00	; 0
    157a:	95 87       	std	Z+13, r25	; 0x0d
    157c:	84 87       	std	Z+12, r24	; 0x0c
    157e:	84 ec       	ldi	r24, 0xC4	; 196
    1580:	90 e0       	ldi	r25, 0x00	; 0
    1582:	97 87       	std	Z+15, r25	; 0x0f
    1584:	86 87       	std	Z+14, r24	; 0x0e
    1586:	80 ec       	ldi	r24, 0xC0	; 192
    1588:	90 e0       	ldi	r25, 0x00	; 0
    158a:	91 8b       	std	Z+17, r25	; 0x11
    158c:	80 8b       	std	Z+16, r24	; 0x10
    158e:	81 ec       	ldi	r24, 0xC1	; 193
    1590:	90 e0       	ldi	r25, 0x00	; 0
    1592:	93 8b       	std	Z+19, r25	; 0x13
    1594:	82 8b       	std	Z+18, r24	; 0x12
    1596:	82 ec       	ldi	r24, 0xC2	; 194
    1598:	90 e0       	ldi	r25, 0x00	; 0
    159a:	95 8b       	std	Z+21, r25	; 0x15
    159c:	84 8b       	std	Z+20, r24	; 0x14
    159e:	86 ec       	ldi	r24, 0xC6	; 198
    15a0:	90 e0       	ldi	r25, 0x00	; 0
    15a2:	97 8b       	std	Z+23, r25	; 0x17
    15a4:	86 8b       	std	Z+22, r24	; 0x16
    15a6:	11 8e       	std	Z+25, r1	; 0x19
    15a8:	12 8e       	std	Z+26, r1	; 0x1a
    15aa:	13 8e       	std	Z+27, r1	; 0x1b
    15ac:	14 8e       	std	Z+28, r1	; 0x1c
_GLOBAL__sub_I___vector_18():
C:\Users\mateu\AppData\Local\Arduino15\packages\MiniCore\hardware\avr\2.0.9\cores\MCUdude_corefiles/HardwareSerial0.cpp:77
    15ae:	08 95       	ret

000015b0 <Print::write(unsigned char const*, unsigned int)>:
_ZN5Print5writeEPKhj():
C:\Users\mateu\AppData\Local\Arduino15\packages\MiniCore\hardware\avr\2.0.9\cores\MCUdude_corefiles/Print.cpp:136
size_t Print::println(const String &s)
{
  size_t n = print(s);
  n += println();
  return n;
}
    15b0:	af 92       	push	r10
    15b2:	bf 92       	push	r11
    15b4:	cf 92       	push	r12
    15b6:	df 92       	push	r13
    15b8:	ef 92       	push	r14
    15ba:	ff 92       	push	r15
    15bc:	0f 93       	push	r16
    15be:	1f 93       	push	r17
    15c0:	cf 93       	push	r28
    15c2:	df 93       	push	r29
    15c4:	6c 01       	movw	r12, r24
    15c6:	7b 01       	movw	r14, r22
    15c8:	8b 01       	movw	r16, r22
    15ca:	04 0f       	add	r16, r20
    15cc:	15 1f       	adc	r17, r21
    15ce:	eb 01       	movw	r28, r22
    15d0:	5e 01       	movw	r10, r28
    15d2:	ae 18       	sub	r10, r14
    15d4:	bf 08       	sbc	r11, r15
    15d6:	c0 17       	cp	r28, r16
    15d8:	d1 07       	cpc	r29, r17
    15da:	59 f0       	breq	.+22     	; 0x15f2 <Print::write(unsigned char const*, unsigned int)+0x42>
    15dc:	69 91       	ld	r22, Y+
    15de:	d6 01       	movw	r26, r12
    15e0:	ed 91       	ld	r30, X+
    15e2:	fc 91       	ld	r31, X
    15e4:	01 90       	ld	r0, Z+
    15e6:	f0 81       	ld	r31, Z
    15e8:	e0 2d       	mov	r30, r0
    15ea:	c6 01       	movw	r24, r12
    15ec:	09 95       	icall
    15ee:	89 2b       	or	r24, r25
    15f0:	79 f7       	brne	.-34     	; 0x15d0 <Print::write(unsigned char const*, unsigned int)+0x20>
    15f2:	c5 01       	movw	r24, r10
    15f4:	df 91       	pop	r29
    15f6:	cf 91       	pop	r28
    15f8:	1f 91       	pop	r17
    15fa:	0f 91       	pop	r16
    15fc:	ff 90       	pop	r15
    15fe:	ef 90       	pop	r14
    1600:	df 90       	pop	r13
    1602:	cf 90       	pop	r12
    1604:	bf 90       	pop	r11
    1606:	af 90       	pop	r10
    1608:	08 95       	ret

0000160a <Print::write(char const*) [clone .part.2]>:
_ZN5Print5writeEPKc():
    160a:	fb 01       	movw	r30, r22
    160c:	01 90       	ld	r0, Z+
    160e:	00 20       	and	r0, r0
    1610:	e9 f7       	brne	.-6      	; 0x160c <Print::write(char const*) [clone .part.2]+0x2>
    1612:	31 97       	sbiw	r30, 0x01	; 1
    1614:	af 01       	movw	r20, r30
    1616:	46 1b       	sub	r20, r22
    1618:	57 0b       	sbc	r21, r23
    161a:	dc 01       	movw	r26, r24
    161c:	ed 91       	ld	r30, X+
    161e:	fc 91       	ld	r31, X
    1620:	02 80       	ldd	r0, Z+2	; 0x02
    1622:	f3 81       	ldd	r31, Z+3	; 0x03
    1624:	e0 2d       	mov	r30, r0
    1626:	09 94       	ijmp

00001628 <Print::print(char)>:
_ZN5Print5printEc():
    1628:	dc 01       	movw	r26, r24
    162a:	ed 91       	ld	r30, X+
    162c:	fc 91       	ld	r31, X
    162e:	01 90       	ld	r0, Z+
    1630:	f0 81       	ld	r31, Z
    1632:	e0 2d       	mov	r30, r0
    1634:	09 94       	ijmp

00001636 <Print::println()>:
_ZN5Print5writeEPKc():
    1636:	6c e0       	ldi	r22, 0x0C	; 12
    1638:	71 e0       	ldi	r23, 0x01	; 1
    163a:	0c 94 05 0b 	jmp	0x160a	; 0x160a <Print::write(char const*) [clone .part.2]>

0000163e <Print::println(char const*)>:
_ZN5Print7printlnEPKc():
C:\Users\mateu\AppData\Local\Arduino15\packages\MiniCore\hardware\avr\2.0.9\cores\MCUdude_corefiles/Print.cpp:139

size_t Print::println(const char c[])
{
    163e:	0f 93       	push	r16
    1640:	1f 93       	push	r17
    1642:	cf 93       	push	r28
    1644:	df 93       	push	r29
    1646:	8c 01       	movw	r16, r24
_ZN5Print5writeEPKc():
C:\Users\mateu\AppData\Local\Arduino15\packages\MiniCore\hardware\avr\2.0.9\cores\MCUdude_corefiles/Print.h:53
    int getWriteError() { return write_error; }
    void clearWriteError() { setWriteError(0); }
  
    virtual size_t write(uint8_t) = 0;
    size_t write(const char *str) {
      if (str == NULL) return 0;
    1648:	d0 e0       	ldi	r29, 0x00	; 0
    164a:	c0 e0       	ldi	r28, 0x00	; 0
    164c:	61 15       	cp	r22, r1
    164e:	71 05       	cpc	r23, r1
    1650:	19 f0       	breq	.+6      	; 0x1658 <Print::println(char const*)+0x1a>
    1652:	0e 94 05 0b 	call	0x160a	; 0x160a <Print::write(char const*) [clone .part.2]>
    1656:	ec 01       	movw	r28, r24
_ZN5Print7printlnEPKc():
C:\Users\mateu\AppData\Local\Arduino15\packages\MiniCore\hardware\avr\2.0.9\cores\MCUdude_corefiles/Print.cpp:141
  size_t n = print(c);
  n += println();
    1658:	c8 01       	movw	r24, r16
    165a:	0e 94 1b 0b 	call	0x1636	; 0x1636 <Print::println()>
C:\Users\mateu\AppData\Local\Arduino15\packages\MiniCore\hardware\avr\2.0.9\cores\MCUdude_corefiles/Print.cpp:143
  return n;
}
    165e:	8c 0f       	add	r24, r28
    1660:	9d 1f       	adc	r25, r29
    1662:	df 91       	pop	r29
    1664:	cf 91       	pop	r28
    1666:	1f 91       	pop	r17
    1668:	0f 91       	pop	r16
    166a:	08 95       	ret

0000166c <String::~String()>:
_ZN6StringD2Ev():
C:\Users\mateu\AppData\Local\Arduino15\packages\MiniCore\hardware\avr\2.0.9\cores\MCUdude_corefiles/WString.cpp:124
  *this = dtostrf(value, (decimalPlaces + 2), decimalPlaces, buf);
}

String::~String()
{
  free(buffer);
    166c:	fc 01       	movw	r30, r24
    166e:	80 81       	ld	r24, Z
    1670:	91 81       	ldd	r25, Z+1	; 0x01
    1672:	0c 94 a0 0d 	jmp	0x1b40	; 0x1b40 <free>

00001676 <String::invalidate()>:
_ZN6String10invalidateEv():
C:\Users\mateu\AppData\Local\Arduino15\packages\MiniCore\hardware\avr\2.0.9\cores\MCUdude_corefiles/WString.cpp:139
  capacity = 0;
  len = 0;
}

void String::invalidate(void)
{
    1676:	cf 93       	push	r28
    1678:	df 93       	push	r29
    167a:	ec 01       	movw	r28, r24
C:\Users\mateu\AppData\Local\Arduino15\packages\MiniCore\hardware\avr\2.0.9\cores\MCUdude_corefiles/WString.cpp:140
  if (buffer) free(buffer);
    167c:	88 81       	ld	r24, Y
    167e:	99 81       	ldd	r25, Y+1	; 0x01
    1680:	00 97       	sbiw	r24, 0x00	; 0
    1682:	11 f0       	breq	.+4      	; 0x1688 <String::invalidate()+0x12>
C:\Users\mateu\AppData\Local\Arduino15\packages\MiniCore\hardware\avr\2.0.9\cores\MCUdude_corefiles/WString.cpp:140 (discriminator 1)
    1684:	0e 94 a0 0d 	call	0x1b40	; 0x1b40 <free>
C:\Users\mateu\AppData\Local\Arduino15\packages\MiniCore\hardware\avr\2.0.9\cores\MCUdude_corefiles/WString.cpp:141
  buffer = NULL;
    1688:	19 82       	std	Y+1, r1	; 0x01
    168a:	18 82       	st	Y, r1
C:\Users\mateu\AppData\Local\Arduino15\packages\MiniCore\hardware\avr\2.0.9\cores\MCUdude_corefiles/WString.cpp:142
  capacity = len = 0;
    168c:	1d 82       	std	Y+5, r1	; 0x05
    168e:	1c 82       	std	Y+4, r1	; 0x04
    1690:	1b 82       	std	Y+3, r1	; 0x03
    1692:	1a 82       	std	Y+2, r1	; 0x02
C:\Users\mateu\AppData\Local\Arduino15\packages\MiniCore\hardware\avr\2.0.9\cores\MCUdude_corefiles/WString.cpp:143
}
    1694:	df 91       	pop	r29
    1696:	cf 91       	pop	r28
    1698:	08 95       	ret

0000169a <String::changeBuffer(unsigned int)>:
_ZN6String12changeBufferEj():
C:\Users\mateu\AppData\Local\Arduino15\packages\MiniCore\hardware\avr\2.0.9\cores\MCUdude_corefiles/WString.cpp:156
  }
  return 0;
}

unsigned char String::changeBuffer(unsigned int maxStrLen)
{
    169a:	0f 93       	push	r16
    169c:	1f 93       	push	r17
    169e:	cf 93       	push	r28
    16a0:	df 93       	push	r29
    16a2:	ec 01       	movw	r28, r24
    16a4:	8b 01       	movw	r16, r22
C:\Users\mateu\AppData\Local\Arduino15\packages\MiniCore\hardware\avr\2.0.9\cores\MCUdude_corefiles/WString.cpp:157
  char *newbuffer = (char *)realloc(buffer, maxStrLen + 1);
    16a6:	6f 5f       	subi	r22, 0xFF	; 255
    16a8:	7f 4f       	sbci	r23, 0xFF	; 255
    16aa:	88 81       	ld	r24, Y
    16ac:	99 81       	ldd	r25, Y+1	; 0x01
    16ae:	0e 94 29 0e 	call	0x1c52	; 0x1c52 <realloc>
C:\Users\mateu\AppData\Local\Arduino15\packages\MiniCore\hardware\avr\2.0.9\cores\MCUdude_corefiles/WString.cpp:158
  if (newbuffer) {
    16b2:	00 97       	sbiw	r24, 0x00	; 0
    16b4:	51 f0       	breq	.+20     	; 0x16ca <String::changeBuffer(unsigned int)+0x30>
C:\Users\mateu\AppData\Local\Arduino15\packages\MiniCore\hardware\avr\2.0.9\cores\MCUdude_corefiles/WString.cpp:159
    buffer = newbuffer;
    16b6:	99 83       	std	Y+1, r25	; 0x01
    16b8:	88 83       	st	Y, r24
C:\Users\mateu\AppData\Local\Arduino15\packages\MiniCore\hardware\avr\2.0.9\cores\MCUdude_corefiles/WString.cpp:160
    capacity = maxStrLen;
    16ba:	1b 83       	std	Y+3, r17	; 0x03
    16bc:	0a 83       	std	Y+2, r16	; 0x02
C:\Users\mateu\AppData\Local\Arduino15\packages\MiniCore\hardware\avr\2.0.9\cores\MCUdude_corefiles/WString.cpp:161
    return 1;
    16be:	81 e0       	ldi	r24, 0x01	; 1
C:\Users\mateu\AppData\Local\Arduino15\packages\MiniCore\hardware\avr\2.0.9\cores\MCUdude_corefiles/WString.cpp:164
  }
  return 0;
}
    16c0:	df 91       	pop	r29
    16c2:	cf 91       	pop	r28
    16c4:	1f 91       	pop	r17
    16c6:	0f 91       	pop	r16
    16c8:	08 95       	ret
C:\Users\mateu\AppData\Local\Arduino15\packages\MiniCore\hardware\avr\2.0.9\cores\MCUdude_corefiles/WString.cpp:163
  if (newbuffer) {
    buffer = newbuffer;
    capacity = maxStrLen;
    return 1;
  }
  return 0;
    16ca:	80 e0       	ldi	r24, 0x00	; 0
    16cc:	f9 cf       	rjmp	.-14     	; 0x16c0 <String::changeBuffer(unsigned int)+0x26>

000016ce <String::reserve(unsigned int)>:
_ZN6String7reserveEj():
C:\Users\mateu\AppData\Local\Arduino15\packages\MiniCore\hardware\avr\2.0.9\cores\MCUdude_corefiles/WString.cpp:146
  buffer = NULL;
  capacity = len = 0;
}

unsigned char String::reserve(unsigned int size)
{
    16ce:	cf 93       	push	r28
    16d0:	df 93       	push	r29
    16d2:	ec 01       	movw	r28, r24
C:\Users\mateu\AppData\Local\Arduino15\packages\MiniCore\hardware\avr\2.0.9\cores\MCUdude_corefiles/WString.cpp:147
  if (buffer && capacity >= size) return 1;
    16d4:	88 81       	ld	r24, Y
    16d6:	99 81       	ldd	r25, Y+1	; 0x01
    16d8:	89 2b       	or	r24, r25
    16da:	49 f0       	breq	.+18     	; 0x16ee <String::reserve(unsigned int)+0x20>
C:\Users\mateu\AppData\Local\Arduino15\packages\MiniCore\hardware\avr\2.0.9\cores\MCUdude_corefiles/WString.cpp:147 (discriminator 1)
    16dc:	8a 81       	ldd	r24, Y+2	; 0x02
    16de:	9b 81       	ldd	r25, Y+3	; 0x03
    16e0:	86 17       	cp	r24, r22
    16e2:	97 07       	cpc	r25, r23
    16e4:	20 f0       	brcs	.+8      	; 0x16ee <String::reserve(unsigned int)+0x20>
C:\Users\mateu\AppData\Local\Arduino15\packages\MiniCore\hardware\avr\2.0.9\cores\MCUdude_corefiles/WString.cpp:149
  if (changeBuffer(size)) {
    if (len == 0) buffer[0] = 0;
    16e6:	81 e0       	ldi	r24, 0x01	; 1
C:\Users\mateu\AppData\Local\Arduino15\packages\MiniCore\hardware\avr\2.0.9\cores\MCUdude_corefiles/WString.cpp:153
    return 1;
  }
  return 0;
}
    16e8:	df 91       	pop	r29
    16ea:	cf 91       	pop	r28
    16ec:	08 95       	ret
C:\Users\mateu\AppData\Local\Arduino15\packages\MiniCore\hardware\avr\2.0.9\cores\MCUdude_corefiles/WString.cpp:148
}

unsigned char String::reserve(unsigned int size)
{
  if (buffer && capacity >= size) return 1;
  if (changeBuffer(size)) {
    16ee:	ce 01       	movw	r24, r28
    16f0:	0e 94 4d 0b 	call	0x169a	; 0x169a <String::changeBuffer(unsigned int)>
    16f4:	88 23       	and	r24, r24
    16f6:	c1 f3       	breq	.-16     	; 0x16e8 <String::reserve(unsigned int)+0x1a>
C:\Users\mateu\AppData\Local\Arduino15\packages\MiniCore\hardware\avr\2.0.9\cores\MCUdude_corefiles/WString.cpp:149
    if (len == 0) buffer[0] = 0;
    16f8:	8c 81       	ldd	r24, Y+4	; 0x04
    16fa:	9d 81       	ldd	r25, Y+5	; 0x05
    16fc:	89 2b       	or	r24, r25
    16fe:	99 f7       	brne	.-26     	; 0x16e6 <String::reserve(unsigned int)+0x18>
    1700:	e8 81       	ld	r30, Y
    1702:	f9 81       	ldd	r31, Y+1	; 0x01
    1704:	10 82       	st	Z, r1
    1706:	ef cf       	rjmp	.-34     	; 0x16e6 <String::reserve(unsigned int)+0x18>

00001708 <String::copy(char const*, unsigned int)>:
_ZN6String4copyEPKcj():
C:\Users\mateu\AppData\Local\Arduino15\packages\MiniCore\hardware\avr\2.0.9\cores\MCUdude_corefiles/WString.cpp:171
/*********************************************/
/*  Copy and Move                            */
/*********************************************/

String & String::copy(const char *cstr, unsigned int length)
{
    1708:	ef 92       	push	r14
    170a:	ff 92       	push	r15
    170c:	0f 93       	push	r16
    170e:	1f 93       	push	r17
    1710:	cf 93       	push	r28
    1712:	df 93       	push	r29
    1714:	ec 01       	movw	r28, r24
    1716:	7b 01       	movw	r14, r22
    1718:	8a 01       	movw	r16, r20
C:\Users\mateu\AppData\Local\Arduino15\packages\MiniCore\hardware\avr\2.0.9\cores\MCUdude_corefiles/WString.cpp:172
  if (!reserve(length)) {
    171a:	ba 01       	movw	r22, r20
    171c:	0e 94 67 0b 	call	0x16ce	; 0x16ce <String::reserve(unsigned int)>
    1720:	81 11       	cpse	r24, r1
    1722:	0b c0       	rjmp	.+22     	; 0x173a <String::copy(char const*, unsigned int)+0x32>
C:\Users\mateu\AppData\Local\Arduino15\packages\MiniCore\hardware\avr\2.0.9\cores\MCUdude_corefiles/WString.cpp:173
    invalidate();
    1724:	ce 01       	movw	r24, r28
    1726:	0e 94 3b 0b 	call	0x1676	; 0x1676 <String::invalidate()>
C:\Users\mateu\AppData\Local\Arduino15\packages\MiniCore\hardware\avr\2.0.9\cores\MCUdude_corefiles/WString.cpp:179
    return *this;
  }
  len = length;
  strcpy(buffer, cstr);
  return *this;
}
    172a:	ce 01       	movw	r24, r28
    172c:	df 91       	pop	r29
    172e:	cf 91       	pop	r28
    1730:	1f 91       	pop	r17
    1732:	0f 91       	pop	r16
    1734:	ff 90       	pop	r15
    1736:	ef 90       	pop	r14
    1738:	08 95       	ret
C:\Users\mateu\AppData\Local\Arduino15\packages\MiniCore\hardware\avr\2.0.9\cores\MCUdude_corefiles/WString.cpp:176
{
  if (!reserve(length)) {
    invalidate();
    return *this;
  }
  len = length;
    173a:	1d 83       	std	Y+5, r17	; 0x05
    173c:	0c 83       	std	Y+4, r16	; 0x04
C:\Users\mateu\AppData\Local\Arduino15\packages\MiniCore\hardware\avr\2.0.9\cores\MCUdude_corefiles/WString.cpp:177
  strcpy(buffer, cstr);
    173e:	b7 01       	movw	r22, r14
    1740:	88 81       	ld	r24, Y
    1742:	99 81       	ldd	r25, Y+1	; 0x01
    1744:	0e 94 ef 0e 	call	0x1dde	; 0x1dde <strcpy>
C:\Users\mateu\AppData\Local\Arduino15\packages\MiniCore\hardware\avr\2.0.9\cores\MCUdude_corefiles/WString.cpp:178
  return *this;
    1748:	f0 cf       	rjmp	.-32     	; 0x172a <String::copy(char const*, unsigned int)+0x22>

0000174a <String::String(char const*)>:
_ZN6String4initEv():
C:\Users\mateu\AppData\Local\Arduino15\packages\MiniCore\hardware\avr\2.0.9\cores\MCUdude_corefiles/WString.cpp:133
/*  Memory Management                        */
/*********************************************/

inline void String::init(void)
{
  buffer = NULL;
    174a:	fc 01       	movw	r30, r24
    174c:	11 82       	std	Z+1, r1	; 0x01
    174e:	10 82       	st	Z, r1
C:\Users\mateu\AppData\Local\Arduino15\packages\MiniCore\hardware\avr\2.0.9\cores\MCUdude_corefiles/WString.cpp:134
  capacity = 0;
    1750:	13 82       	std	Z+3, r1	; 0x03
    1752:	12 82       	std	Z+2, r1	; 0x02
C:\Users\mateu\AppData\Local\Arduino15\packages\MiniCore\hardware\avr\2.0.9\cores\MCUdude_corefiles/WString.cpp:135
  len = 0;
    1754:	15 82       	std	Z+5, r1	; 0x05
    1756:	14 82       	std	Z+4, r1	; 0x04
_ZN6StringC2EPKc():
C:\Users\mateu\AppData\Local\Arduino15\packages\MiniCore\hardware\avr\2.0.9\cores\MCUdude_corefiles/WString.cpp:31
/*********************************************/

String::String(const char *cstr)
{
  init();
  if (cstr) copy(cstr, strlen(cstr));
    1758:	61 15       	cp	r22, r1
    175a:	71 05       	cpc	r23, r1
    175c:	51 f0       	breq	.+20     	; 0x1772 <String::String(char const*)+0x28>
    175e:	fb 01       	movw	r30, r22
    1760:	01 90       	ld	r0, Z+
    1762:	00 20       	and	r0, r0
    1764:	e9 f7       	brne	.-6      	; 0x1760 <String::String(char const*)+0x16>
    1766:	31 97       	sbiw	r30, 0x01	; 1
    1768:	af 01       	movw	r20, r30
    176a:	46 1b       	sub	r20, r22
    176c:	57 0b       	sbc	r21, r23
    176e:	0c 94 84 0b 	jmp	0x1708	; 0x1708 <String::copy(char const*, unsigned int)>
C:\Users\mateu\AppData\Local\Arduino15\packages\MiniCore\hardware\avr\2.0.9\cores\MCUdude_corefiles/WString.cpp:32
}
    1772:	08 95       	ret

00001774 <__vector_16>:
__vector_16():
C:\Users\mateu\AppData\Local\Arduino15\packages\MiniCore\hardware\avr\2.0.9\cores\MCUdude_corefiles/wiring.c:57
#if defined(__AVR_ATtiny24__) || defined(__AVR_ATtiny44__) || defined(__AVR_ATtiny84__)
ISR(TIM0_OVF_vect)
#else
ISR(TIMER0_OVF_vect)
#endif
{
    1774:	1f 92       	push	r1
    1776:	0f 92       	push	r0
    1778:	0f b6       	in	r0, 0x3f	; 63
    177a:	0f 92       	push	r0
    177c:	11 24       	eor	r1, r1
    177e:	2f 93       	push	r18
    1780:	3f 93       	push	r19
    1782:	8f 93       	push	r24
    1784:	9f 93       	push	r25
    1786:	af 93       	push	r26
    1788:	bf 93       	push	r27
C:\Users\mateu\AppData\Local\Arduino15\packages\MiniCore\hardware\avr\2.0.9\cores\MCUdude_corefiles/wiring.c:60
  // copy these to local variables so they can be stored in registers
  // (volatile variables must be read from memory on every access, so this saves time)
  unsigned long m = timer0_millis;
    178a:	80 91 bb 02 	lds	r24, 0x02BB	; 0x8002bb <timer0_millis>
    178e:	90 91 bc 02 	lds	r25, 0x02BC	; 0x8002bc <timer0_millis+0x1>
    1792:	a0 91 bd 02 	lds	r26, 0x02BD	; 0x8002bd <timer0_millis+0x2>
    1796:	b0 91 be 02 	lds	r27, 0x02BE	; 0x8002be <timer0_millis+0x3>
C:\Users\mateu\AppData\Local\Arduino15\packages\MiniCore\hardware\avr\2.0.9\cores\MCUdude_corefiles/wiring.c:61
  unsigned char f = timer0_fract;
    179a:	30 91 ba 02 	lds	r19, 0x02BA	; 0x8002ba <timer0_fract>
C:\Users\mateu\AppData\Local\Arduino15\packages\MiniCore\hardware\avr\2.0.9\cores\MCUdude_corefiles/wiring.c:64

  m += MILLIS_INC;
  f += FRACT_INC;
    179e:	23 e0       	ldi	r18, 0x03	; 3
    17a0:	23 0f       	add	r18, r19
C:\Users\mateu\AppData\Local\Arduino15\packages\MiniCore\hardware\avr\2.0.9\cores\MCUdude_corefiles/wiring.c:65
  if (f >= FRACT_MAX) {
    17a2:	2d 37       	cpi	r18, 0x7D	; 125
    17a4:	58 f5       	brcc	.+86     	; 0x17fc <__vector_16+0x88>
C:\Users\mateu\AppData\Local\Arduino15\packages\MiniCore\hardware\avr\2.0.9\cores\MCUdude_corefiles/wiring.c:63
  // copy these to local variables so they can be stored in registers
  // (volatile variables must be read from memory on every access, so this saves time)
  unsigned long m = timer0_millis;
  unsigned char f = timer0_fract;

  m += MILLIS_INC;
    17a6:	01 96       	adiw	r24, 0x01	; 1
    17a8:	a1 1d       	adc	r26, r1
    17aa:	b1 1d       	adc	r27, r1
C:\Users\mateu\AppData\Local\Arduino15\packages\MiniCore\hardware\avr\2.0.9\cores\MCUdude_corefiles/wiring.c:70
  if (f >= FRACT_MAX) {
    f -= FRACT_MAX;
    m += 1;
  }

  timer0_fract = f;
    17ac:	20 93 ba 02 	sts	0x02BA, r18	; 0x8002ba <timer0_fract>
C:\Users\mateu\AppData\Local\Arduino15\packages\MiniCore\hardware\avr\2.0.9\cores\MCUdude_corefiles/wiring.c:71
  timer0_millis = m;
    17b0:	80 93 bb 02 	sts	0x02BB, r24	; 0x8002bb <timer0_millis>
    17b4:	90 93 bc 02 	sts	0x02BC, r25	; 0x8002bc <timer0_millis+0x1>
    17b8:	a0 93 bd 02 	sts	0x02BD, r26	; 0x8002bd <timer0_millis+0x2>
    17bc:	b0 93 be 02 	sts	0x02BE, r27	; 0x8002be <timer0_millis+0x3>
C:\Users\mateu\AppData\Local\Arduino15\packages\MiniCore\hardware\avr\2.0.9\cores\MCUdude_corefiles/wiring.c:72
  timer0_overflow_count++;
    17c0:	80 91 bf 02 	lds	r24, 0x02BF	; 0x8002bf <timer0_overflow_count>
    17c4:	90 91 c0 02 	lds	r25, 0x02C0	; 0x8002c0 <timer0_overflow_count+0x1>
    17c8:	a0 91 c1 02 	lds	r26, 0x02C1	; 0x8002c1 <timer0_overflow_count+0x2>
    17cc:	b0 91 c2 02 	lds	r27, 0x02C2	; 0x8002c2 <timer0_overflow_count+0x3>
    17d0:	01 96       	adiw	r24, 0x01	; 1
    17d2:	a1 1d       	adc	r26, r1
    17d4:	b1 1d       	adc	r27, r1
    17d6:	80 93 bf 02 	sts	0x02BF, r24	; 0x8002bf <timer0_overflow_count>
    17da:	90 93 c0 02 	sts	0x02C0, r25	; 0x8002c0 <timer0_overflow_count+0x1>
    17de:	a0 93 c1 02 	sts	0x02C1, r26	; 0x8002c1 <timer0_overflow_count+0x2>
    17e2:	b0 93 c2 02 	sts	0x02C2, r27	; 0x8002c2 <timer0_overflow_count+0x3>
C:\Users\mateu\AppData\Local\Arduino15\packages\MiniCore\hardware\avr\2.0.9\cores\MCUdude_corefiles/wiring.c:73
}
    17e6:	bf 91       	pop	r27
    17e8:	af 91       	pop	r26
    17ea:	9f 91       	pop	r25
    17ec:	8f 91       	pop	r24
    17ee:	3f 91       	pop	r19
    17f0:	2f 91       	pop	r18
    17f2:	0f 90       	pop	r0
    17f4:	0f be       	out	0x3f, r0	; 63
    17f6:	0f 90       	pop	r0
    17f8:	1f 90       	pop	r1
    17fa:	18 95       	reti
C:\Users\mateu\AppData\Local\Arduino15\packages\MiniCore\hardware\avr\2.0.9\cores\MCUdude_corefiles/wiring.c:66
  unsigned char f = timer0_fract;

  m += MILLIS_INC;
  f += FRACT_INC;
  if (f >= FRACT_MAX) {
    f -= FRACT_MAX;
    17fc:	26 e8       	ldi	r18, 0x86	; 134
    17fe:	23 0f       	add	r18, r19
C:\Users\mateu\AppData\Local\Arduino15\packages\MiniCore\hardware\avr\2.0.9\cores\MCUdude_corefiles/wiring.c:67
    m += 1;
    1800:	02 96       	adiw	r24, 0x02	; 2
    1802:	a1 1d       	adc	r26, r1
    1804:	b1 1d       	adc	r27, r1
    1806:	d2 cf       	rjmp	.-92     	; 0x17ac <__vector_16+0x38>

00001808 <turnOffPWM>:
turnOffPWM():
C:\Users\mateu\AppData\Local\Arduino15\packages\MiniCore\hardware\avr\2.0.9\cores\MCUdude_corefiles/wiring_digital.c:77
//
//static inline void turnOffPWM(uint8_t timer) __attribute__ ((always_inline));
//static inline void turnOffPWM(uint8_t timer)
static void turnOffPWM(uint8_t timer)
{
  switch (timer)
    1808:	82 50       	subi	r24, 0x02	; 2
    180a:	8d 30       	cpi	r24, 0x0D	; 13
    180c:	08 f0       	brcs	.+2      	; 0x1810 <turnOffPWM+0x8>
    180e:	3e c0       	rjmp	.+124    	; 0x188c <turnOffPWM+0x84>
    1810:	e8 2f       	mov	r30, r24
    1812:	f0 e0       	ldi	r31, 0x00	; 0
    1814:	e2 5f       	subi	r30, 0xF2	; 242
    1816:	f3 4f       	sbci	r31, 0xF3	; 243
    1818:	0c 94 ea 0c 	jmp	0x19d4	; 0x19d4 <__tablejump2__>
    181c:	43 0c       	add	r4, r3
    181e:	47 0c       	add	r4, r7
    1820:	1b 0c       	add	r1, r11
    1822:	21 0c       	add	r2, r1
    1824:	46 0c       	add	r4, r6
    1826:	46 0c       	add	r4, r6
    1828:	25 0c       	add	r2, r5
    182a:	2b 0c       	add	r2, r11
    182c:	2f 0c       	add	r2, r15
    182e:	35 0c       	add	r3, r5
    1830:	46 0c       	add	r4, r6
    1832:	39 0c       	add	r3, r9
    1834:	3f 0c       	add	r3, r15
C:\Users\mateu\AppData\Local\Arduino15\packages\MiniCore\hardware\avr\2.0.9\cores\MCUdude_corefiles/wiring_digital.c:82
  {
    // Timer1
    #if defined(TCCR1A) && defined(COM1A1)
      case TIMER1A:
        TCCR1A &= ~_BV(COM1A1);
    1836:	80 91 80 00 	lds	r24, 0x0080	; 0x800080 <__TEXT_REGION_LENGTH__+0x7f8080>
    183a:	8f 77       	andi	r24, 0x7F	; 127
C:\Users\mateu\AppData\Local\Arduino15\packages\MiniCore\hardware\avr\2.0.9\cores\MCUdude_corefiles/wiring_digital.c:87
        break;
    #endif
    #if defined(TCCR1A) && defined(COM1B1)
      case TIMER1B:
        TCCR1A &= ~_BV(COM1B1);
    183c:	80 93 80 00 	sts	0x0080, r24	; 0x800080 <__TEXT_REGION_LENGTH__+0x7f8080>
C:\Users\mateu\AppData\Local\Arduino15\packages\MiniCore\hardware\avr\2.0.9\cores\MCUdude_corefiles/wiring_digital.c:88
        break;
    1840:	08 95       	ret
C:\Users\mateu\AppData\Local\Arduino15\packages\MiniCore\hardware\avr\2.0.9\cores\MCUdude_corefiles/wiring_digital.c:87
        TCCR1A &= ~_BV(COM1A1);
        break;
    #endif
    #if defined(TCCR1A) && defined(COM1B1)
      case TIMER1B:
        TCCR1A &= ~_BV(COM1B1);
    1842:	80 91 80 00 	lds	r24, 0x0080	; 0x800080 <__TEXT_REGION_LENGTH__+0x7f8080>
    1846:	8f 7d       	andi	r24, 0xDF	; 223
    1848:	f9 cf       	rjmp	.-14     	; 0x183c <turnOffPWM+0x34>
C:\Users\mateu\AppData\Local\Arduino15\packages\MiniCore\hardware\avr\2.0.9\cores\MCUdude_corefiles/wiring_digital.c:104
        TCCR2 &= ~_BV(COM21);
        break;
    #endif
    #if defined(TCCR2A) && defined(COM2A1)
      case TIMER2A:
        TCCR2A &= ~_BV(COM2A1);
    184a:	80 91 b0 00 	lds	r24, 0x00B0	; 0x8000b0 <__TEXT_REGION_LENGTH__+0x7f80b0>
    184e:	8f 77       	andi	r24, 0x7F	; 127
C:\Users\mateu\AppData\Local\Arduino15\packages\MiniCore\hardware\avr\2.0.9\cores\MCUdude_corefiles/wiring_digital.c:109
        break;
    #endif
    #if defined(TCCR2A) && defined(COM2B1)
      case TIMER2B:
        TCCR2A &= ~_BV(COM2B1);
    1850:	80 93 b0 00 	sts	0x00B0, r24	; 0x8000b0 <__TEXT_REGION_LENGTH__+0x7f80b0>
C:\Users\mateu\AppData\Local\Arduino15\packages\MiniCore\hardware\avr\2.0.9\cores\MCUdude_corefiles/wiring_digital.c:110
        break;
    1854:	08 95       	ret
C:\Users\mateu\AppData\Local\Arduino15\packages\MiniCore\hardware\avr\2.0.9\cores\MCUdude_corefiles/wiring_digital.c:109
        TCCR2A &= ~_BV(COM2A1);
        break;
    #endif
    #if defined(TCCR2A) && defined(COM2B1)
      case TIMER2B:
        TCCR2A &= ~_BV(COM2B1);
    1856:	80 91 b0 00 	lds	r24, 0x00B0	; 0x8000b0 <__TEXT_REGION_LENGTH__+0x7f80b0>
    185a:	8f 7d       	andi	r24, 0xDF	; 223
    185c:	f9 cf       	rjmp	.-14     	; 0x1850 <turnOffPWM+0x48>
C:\Users\mateu\AppData\Local\Arduino15\packages\MiniCore\hardware\avr\2.0.9\cores\MCUdude_corefiles/wiring_digital.c:116
    #endif

    // Timer3
    #if defined(TCCR3A) && defined(COM3A1)
      case TIMER3A:
        TCCR3A &= ~_BV(COM3A1);
    185e:	80 91 90 00 	lds	r24, 0x0090	; 0x800090 <__TEXT_REGION_LENGTH__+0x7f8090>
    1862:	8f 77       	andi	r24, 0x7F	; 127
C:\Users\mateu\AppData\Local\Arduino15\packages\MiniCore\hardware\avr\2.0.9\cores\MCUdude_corefiles/wiring_digital.c:121
        break;
    #endif
    #if defined(TCCR3A) && defined(COM3B1)
      case TIMER3B:
        TCCR3A &= ~_BV(COM3B1);
    1864:	80 93 90 00 	sts	0x0090, r24	; 0x800090 <__TEXT_REGION_LENGTH__+0x7f8090>
C:\Users\mateu\AppData\Local\Arduino15\packages\MiniCore\hardware\avr\2.0.9\cores\MCUdude_corefiles/wiring_digital.c:122
        break;
    1868:	08 95       	ret
C:\Users\mateu\AppData\Local\Arduino15\packages\MiniCore\hardware\avr\2.0.9\cores\MCUdude_corefiles/wiring_digital.c:121
        TCCR3A &= ~_BV(COM3A1);
        break;
    #endif
    #if defined(TCCR3A) && defined(COM3B1)
      case TIMER3B:
        TCCR3A &= ~_BV(COM3B1);
    186a:	80 91 90 00 	lds	r24, 0x0090	; 0x800090 <__TEXT_REGION_LENGTH__+0x7f8090>
    186e:	8f 7d       	andi	r24, 0xDF	; 223
    1870:	f9 cf       	rjmp	.-14     	; 0x1864 <turnOffPWM+0x5c>
C:\Users\mateu\AppData\Local\Arduino15\packages\MiniCore\hardware\avr\2.0.9\cores\MCUdude_corefiles/wiring_digital.c:133
    #endif

    // Timer4
    #if defined(TCCR4A) && defined(COM4A1)
      case TIMER4A:
        TCCR4A &= ~_BV(COM4A1);
    1872:	80 91 a0 00 	lds	r24, 0x00A0	; 0x8000a0 <__TEXT_REGION_LENGTH__+0x7f80a0>
    1876:	8f 77       	andi	r24, 0x7F	; 127
C:\Users\mateu\AppData\Local\Arduino15\packages\MiniCore\hardware\avr\2.0.9\cores\MCUdude_corefiles/wiring_digital.c:138
        break;
    #endif
    #if defined(TCCR4A) && defined(COM4B1)
      case  TIMER4B:
        TCCR4A &= ~_BV(COM4B1);
    1878:	80 93 a0 00 	sts	0x00A0, r24	; 0x8000a0 <__TEXT_REGION_LENGTH__+0x7f80a0>
C:\Users\mateu\AppData\Local\Arduino15\packages\MiniCore\hardware\avr\2.0.9\cores\MCUdude_corefiles/wiring_digital.c:139
        break;
    187c:	08 95       	ret
C:\Users\mateu\AppData\Local\Arduino15\packages\MiniCore\hardware\avr\2.0.9\cores\MCUdude_corefiles/wiring_digital.c:138
        TCCR4A &= ~_BV(COM4A1);
        break;
    #endif
    #if defined(TCCR4A) && defined(COM4B1)
      case  TIMER4B:
        TCCR4A &= ~_BV(COM4B1);
    187e:	80 91 a0 00 	lds	r24, 0x00A0	; 0x8000a0 <__TEXT_REGION_LENGTH__+0x7f80a0>
    1882:	8f 7d       	andi	r24, 0xDF	; 223
    1884:	f9 cf       	rjmp	.-14     	; 0x1878 <turnOffPWM+0x70>
C:\Users\mateu\AppData\Local\Arduino15\packages\MiniCore\hardware\avr\2.0.9\cores\MCUdude_corefiles/wiring_digital.c:176
        TCCR0 &= ~_BV(COM01);
        break;
    #endif
    #if defined(TCCR0A) && defined(COM0A1)
      case TIMER0A:
        TCCR0A &= ~_BV(COM0A1);
    1886:	84 b5       	in	r24, 0x24	; 36
    1888:	8f 77       	andi	r24, 0x7F	; 127
C:\Users\mateu\AppData\Local\Arduino15\packages\MiniCore\hardware\avr\2.0.9\cores\MCUdude_corefiles/wiring_digital.c:181
        break;
    #endif
    #if defined(TCCR0A) && defined(COM0B1)
      case TIMER0B:
        TCCR0A &= ~_BV(COM0B1);
    188a:	84 bd       	out	0x24, r24	; 36
C:\Users\mateu\AppData\Local\Arduino15\packages\MiniCore\hardware\avr\2.0.9\cores\MCUdude_corefiles/wiring_digital.c:185
        break;
    #endif
  }
}
    188c:	08 95       	ret
C:\Users\mateu\AppData\Local\Arduino15\packages\MiniCore\hardware\avr\2.0.9\cores\MCUdude_corefiles/wiring_digital.c:181
        TCCR0A &= ~_BV(COM0A1);
        break;
    #endif
    #if defined(TCCR0A) && defined(COM0B1)
      case TIMER0B:
        TCCR0A &= ~_BV(COM0B1);
    188e:	84 b5       	in	r24, 0x24	; 36
    1890:	8f 7d       	andi	r24, 0xDF	; 223
    1892:	fb cf       	rjmp	.-10     	; 0x188a <turnOffPWM+0x82>

00001894 <pinMode>:
pinMode():
C:\Users\mateu\AppData\Local\Arduino15\packages\MiniCore\hardware\avr\2.0.9\cores\MCUdude_corefiles/wiring_digital.c:30
#define ARDUINO_MAIN
#include "wiring_private.h"
#include "pins_arduino.h"

void pinMode(uint8_t pin, uint8_t mode)
{
    1894:	cf 93       	push	r28
    1896:	df 93       	push	r29
C:\Users\mateu\AppData\Local\Arduino15\packages\MiniCore\hardware\avr\2.0.9\cores\MCUdude_corefiles/wiring_digital.c:31
  uint8_t bit = digitalPinToBitMask(pin);
    1898:	90 e0       	ldi	r25, 0x00	; 0
    189a:	fc 01       	movw	r30, r24
    189c:	e1 5a       	subi	r30, 0xA1	; 161
    189e:	fe 4f       	sbci	r31, 0xFE	; 254
    18a0:	24 91       	lpm	r18, Z
C:\Users\mateu\AppData\Local\Arduino15\packages\MiniCore\hardware\avr\2.0.9\cores\MCUdude_corefiles/wiring_digital.c:32
  uint8_t port = digitalPinToPort(pin);
    18a2:	86 58       	subi	r24, 0x86	; 134
    18a4:	9e 4f       	sbci	r25, 0xFE	; 254
    18a6:	fc 01       	movw	r30, r24
    18a8:	84 91       	lpm	r24, Z
C:\Users\mateu\AppData\Local\Arduino15\packages\MiniCore\hardware\avr\2.0.9\cores\MCUdude_corefiles/wiring_digital.c:35
  volatile uint8_t *reg, *out;

  if (port == NOT_A_PIN) return;
    18aa:	88 23       	and	r24, r24
    18ac:	c9 f0       	breq	.+50     	; 0x18e0 <pinMode+0x4c>
C:\Users\mateu\AppData\Local\Arduino15\packages\MiniCore\hardware\avr\2.0.9\cores\MCUdude_corefiles/wiring_digital.c:38

  // JWS: can I let the optimizer do this?
  reg = portModeRegister(port);
    18ae:	90 e0       	ldi	r25, 0x00	; 0
    18b0:	88 0f       	add	r24, r24
    18b2:	99 1f       	adc	r25, r25
    18b4:	fc 01       	movw	r30, r24
    18b6:	e3 55       	subi	r30, 0x53	; 83
    18b8:	fe 4f       	sbci	r31, 0xFE	; 254
    18ba:	a5 91       	lpm	r26, Z+
    18bc:	b4 91       	lpm	r27, Z
C:\Users\mateu\AppData\Local\Arduino15\packages\MiniCore\hardware\avr\2.0.9\cores\MCUdude_corefiles/wiring_digital.c:39
  out = portOutputRegister(port);
    18be:	fc 01       	movw	r30, r24
    18c0:	ef 55       	subi	r30, 0x5F	; 95
    18c2:	fe 4f       	sbci	r31, 0xFE	; 254
    18c4:	c5 91       	lpm	r28, Z+
    18c6:	d4 91       	lpm	r29, Z
C:\Users\mateu\AppData\Local\Arduino15\packages\MiniCore\hardware\avr\2.0.9\cores\MCUdude_corefiles/wiring_digital.c:41

  if (mode == INPUT) { 
    18c8:	61 11       	cpse	r22, r1
    18ca:	0d c0       	rjmp	.+26     	; 0x18e6 <pinMode+0x52>
C:\Users\mateu\AppData\Local\Arduino15\packages\MiniCore\hardware\avr\2.0.9\cores\MCUdude_corefiles/wiring_digital.c:42
    uint8_t oldSREG = SREG;
    18cc:	9f b7       	in	r25, 0x3f	; 63
C:\Users\mateu\AppData\Local\Arduino15\packages\MiniCore\hardware\avr\2.0.9\cores\MCUdude_corefiles/wiring_digital.c:43
    cli();
    18ce:	f8 94       	cli
C:\Users\mateu\AppData\Local\Arduino15\packages\MiniCore\hardware\avr\2.0.9\cores\MCUdude_corefiles/wiring_digital.c:44
    *reg &= ~bit;
    18d0:	8c 91       	ld	r24, X
    18d2:	20 95       	com	r18
    18d4:	82 23       	and	r24, r18
    18d6:	8c 93       	st	X, r24
C:\Users\mateu\AppData\Local\Arduino15\packages\MiniCore\hardware\avr\2.0.9\cores\MCUdude_corefiles/wiring_digital.c:45
    *out &= ~bit;
    18d8:	88 81       	ld	r24, Y
    18da:	28 23       	and	r18, r24
C:\Users\mateu\AppData\Local\Arduino15\packages\MiniCore\hardware\avr\2.0.9\cores\MCUdude_corefiles/wiring_digital.c:51
    SREG = oldSREG;
  } else if (mode == INPUT_PULLUP) {
    uint8_t oldSREG = SREG;
    cli();
    *reg &= ~bit;
    *out |= bit;
    18dc:	28 83       	st	Y, r18
C:\Users\mateu\AppData\Local\Arduino15\packages\MiniCore\hardware\avr\2.0.9\cores\MCUdude_corefiles/wiring_digital.c:52
    SREG = oldSREG;
    18de:	9f bf       	out	0x3f, r25	; 63
C:\Users\mateu\AppData\Local\Arduino15\packages\MiniCore\hardware\avr\2.0.9\cores\MCUdude_corefiles/wiring_digital.c:59
    uint8_t oldSREG = SREG;
    cli();
    *reg |= bit;
    SREG = oldSREG;
  }
}
    18e0:	df 91       	pop	r29
    18e2:	cf 91       	pop	r28
    18e4:	08 95       	ret
C:\Users\mateu\AppData\Local\Arduino15\packages\MiniCore\hardware\avr\2.0.9\cores\MCUdude_corefiles/wiring_digital.c:47
    uint8_t oldSREG = SREG;
    cli();
    *reg &= ~bit;
    *out &= ~bit;
    SREG = oldSREG;
  } else if (mode == INPUT_PULLUP) {
    18e6:	62 30       	cpi	r22, 0x02	; 2
    18e8:	51 f4       	brne	.+20     	; 0x18fe <pinMode+0x6a>
C:\Users\mateu\AppData\Local\Arduino15\packages\MiniCore\hardware\avr\2.0.9\cores\MCUdude_corefiles/wiring_digital.c:48
    uint8_t oldSREG = SREG;
    18ea:	9f b7       	in	r25, 0x3f	; 63
C:\Users\mateu\AppData\Local\Arduino15\packages\MiniCore\hardware\avr\2.0.9\cores\MCUdude_corefiles/wiring_digital.c:49
    cli();
    18ec:	f8 94       	cli
C:\Users\mateu\AppData\Local\Arduino15\packages\MiniCore\hardware\avr\2.0.9\cores\MCUdude_corefiles/wiring_digital.c:50
    *reg &= ~bit;
    18ee:	3c 91       	ld	r19, X
    18f0:	82 2f       	mov	r24, r18
    18f2:	80 95       	com	r24
    18f4:	83 23       	and	r24, r19
    18f6:	8c 93       	st	X, r24
C:\Users\mateu\AppData\Local\Arduino15\packages\MiniCore\hardware\avr\2.0.9\cores\MCUdude_corefiles/wiring_digital.c:51
    *out |= bit;
    18f8:	e8 81       	ld	r30, Y
    18fa:	2e 2b       	or	r18, r30
    18fc:	ef cf       	rjmp	.-34     	; 0x18dc <pinMode+0x48>
C:\Users\mateu\AppData\Local\Arduino15\packages\MiniCore\hardware\avr\2.0.9\cores\MCUdude_corefiles/wiring_digital.c:54
    SREG = oldSREG;
  } else {
    uint8_t oldSREG = SREG;
    18fe:	8f b7       	in	r24, 0x3f	; 63
C:\Users\mateu\AppData\Local\Arduino15\packages\MiniCore\hardware\avr\2.0.9\cores\MCUdude_corefiles/wiring_digital.c:55
    cli();
    1900:	f8 94       	cli
C:\Users\mateu\AppData\Local\Arduino15\packages\MiniCore\hardware\avr\2.0.9\cores\MCUdude_corefiles/wiring_digital.c:56
    *reg |= bit;
    1902:	ec 91       	ld	r30, X
    1904:	2e 2b       	or	r18, r30
    1906:	2c 93       	st	X, r18
C:\Users\mateu\AppData\Local\Arduino15\packages\MiniCore\hardware\avr\2.0.9\cores\MCUdude_corefiles/wiring_digital.c:57
    SREG = oldSREG;
    1908:	8f bf       	out	0x3f, r24	; 63
    190a:	ea cf       	rjmp	.-44     	; 0x18e0 <pinMode+0x4c>

0000190c <digitalWrite>:
digitalWrite():
C:\Users\mateu\AppData\Local\Arduino15\packages\MiniCore\hardware\avr\2.0.9\cores\MCUdude_corefiles/wiring_digital.c:188
    #endif
  }
}

void digitalWrite(uint8_t pin, uint8_t val)
{
    190c:	1f 93       	push	r17
    190e:	cf 93       	push	r28
    1910:	df 93       	push	r29
C:\Users\mateu\AppData\Local\Arduino15\packages\MiniCore\hardware\avr\2.0.9\cores\MCUdude_corefiles/wiring_digital.c:189
  uint8_t timer = digitalPinToTimer(pin);
    1912:	28 2f       	mov	r18, r24
    1914:	30 e0       	ldi	r19, 0x00	; 0
    1916:	f9 01       	movw	r30, r18
    1918:	ec 5b       	subi	r30, 0xBC	; 188
    191a:	fe 4f       	sbci	r31, 0xFE	; 254
    191c:	84 91       	lpm	r24, Z
C:\Users\mateu\AppData\Local\Arduino15\packages\MiniCore\hardware\avr\2.0.9\cores\MCUdude_corefiles/wiring_digital.c:190
  uint8_t bit = digitalPinToBitMask(pin);
    191e:	f9 01       	movw	r30, r18
    1920:	e1 5a       	subi	r30, 0xA1	; 161
    1922:	fe 4f       	sbci	r31, 0xFE	; 254
    1924:	d4 91       	lpm	r29, Z
C:\Users\mateu\AppData\Local\Arduino15\packages\MiniCore\hardware\avr\2.0.9\cores\MCUdude_corefiles/wiring_digital.c:191
  uint8_t port = digitalPinToPort(pin);
    1926:	f9 01       	movw	r30, r18
    1928:	e6 58       	subi	r30, 0x86	; 134
    192a:	fe 4f       	sbci	r31, 0xFE	; 254
    192c:	c4 91       	lpm	r28, Z
C:\Users\mateu\AppData\Local\Arduino15\packages\MiniCore\hardware\avr\2.0.9\cores\MCUdude_corefiles/wiring_digital.c:194
  volatile uint8_t *out;

  if (port == NOT_A_PIN) return;
    192e:	cc 23       	and	r28, r28
    1930:	a9 f0       	breq	.+42     	; 0x195c <digitalWrite+0x50>
    1932:	16 2f       	mov	r17, r22
C:\Users\mateu\AppData\Local\Arduino15\packages\MiniCore\hardware\avr\2.0.9\cores\MCUdude_corefiles/wiring_digital.c:198

  // If the pin that support PWM output, we need to turn it off
  // before doing a digital write.
  if (timer != NOT_ON_TIMER) turnOffPWM(timer);
    1934:	81 11       	cpse	r24, r1
C:\Users\mateu\AppData\Local\Arduino15\packages\MiniCore\hardware\avr\2.0.9\cores\MCUdude_corefiles/wiring_digital.c:198 (discriminator 1)
    1936:	0e 94 04 0c 	call	0x1808	; 0x1808 <turnOffPWM>
C:\Users\mateu\AppData\Local\Arduino15\packages\MiniCore\hardware\avr\2.0.9\cores\MCUdude_corefiles/wiring_digital.c:200

  out = portOutputRegister(port);
    193a:	ec 2f       	mov	r30, r28
    193c:	f0 e0       	ldi	r31, 0x00	; 0
    193e:	ee 0f       	add	r30, r30
    1940:	ff 1f       	adc	r31, r31
    1942:	ef 55       	subi	r30, 0x5F	; 95
    1944:	fe 4f       	sbci	r31, 0xFE	; 254
    1946:	a5 91       	lpm	r26, Z+
    1948:	b4 91       	lpm	r27, Z
C:\Users\mateu\AppData\Local\Arduino15\packages\MiniCore\hardware\avr\2.0.9\cores\MCUdude_corefiles/wiring_digital.c:202

  uint8_t oldSREG = SREG;
    194a:	8f b7       	in	r24, 0x3f	; 63
C:\Users\mateu\AppData\Local\Arduino15\packages\MiniCore\hardware\avr\2.0.9\cores\MCUdude_corefiles/wiring_digital.c:203
  cli();
    194c:	f8 94       	cli
C:\Users\mateu\AppData\Local\Arduino15\packages\MiniCore\hardware\avr\2.0.9\cores\MCUdude_corefiles/wiring_digital.c:206

  if (val == LOW) {
    *out &= ~bit;
    194e:	ec 91       	ld	r30, X
C:\Users\mateu\AppData\Local\Arduino15\packages\MiniCore\hardware\avr\2.0.9\cores\MCUdude_corefiles/wiring_digital.c:205
  out = portOutputRegister(port);

  uint8_t oldSREG = SREG;
  cli();

  if (val == LOW) {
    1950:	11 11       	cpse	r17, r1
    1952:	08 c0       	rjmp	.+16     	; 0x1964 <digitalWrite+0x58>
C:\Users\mateu\AppData\Local\Arduino15\packages\MiniCore\hardware\avr\2.0.9\cores\MCUdude_corefiles/wiring_digital.c:206
    *out &= ~bit;
    1954:	d0 95       	com	r29
    1956:	de 23       	and	r29, r30
C:\Users\mateu\AppData\Local\Arduino15\packages\MiniCore\hardware\avr\2.0.9\cores\MCUdude_corefiles/wiring_digital.c:208
  } else {
    *out |= bit;
    1958:	dc 93       	st	X, r29
C:\Users\mateu\AppData\Local\Arduino15\packages\MiniCore\hardware\avr\2.0.9\cores\MCUdude_corefiles/wiring_digital.c:211
  }

  SREG = oldSREG;
    195a:	8f bf       	out	0x3f, r24	; 63
C:\Users\mateu\AppData\Local\Arduino15\packages\MiniCore\hardware\avr\2.0.9\cores\MCUdude_corefiles/wiring_digital.c:212
}
    195c:	df 91       	pop	r29
    195e:	cf 91       	pop	r28
    1960:	1f 91       	pop	r17
    1962:	08 95       	ret
C:\Users\mateu\AppData\Local\Arduino15\packages\MiniCore\hardware\avr\2.0.9\cores\MCUdude_corefiles/wiring_digital.c:208
  cli();

  if (val == LOW) {
    *out &= ~bit;
  } else {
    *out |= bit;
    1964:	de 2b       	or	r29, r30
    1966:	f8 cf       	rjmp	.-16     	; 0x1958 <digitalWrite+0x4c>

00001968 <__divmodhi4>:
__divmodhi4():
/home/jenkins-mingw32/workspace/avr-gcc-staging/label/Ubuntu14.04x64-mingw32/gcc-build/avr/avr5/libgcc/../../../../gcc/libgcc/config/avr/lib1funcs.S:1440
    1968:	97 fb       	bst	r25, 7
/home/jenkins-mingw32/workspace/avr-gcc-staging/label/Ubuntu14.04x64-mingw32/gcc-build/avr/avr5/libgcc/../../../../gcc/libgcc/config/avr/lib1funcs.S:1441
    196a:	07 2e       	mov	r0, r23
/home/jenkins-mingw32/workspace/avr-gcc-staging/label/Ubuntu14.04x64-mingw32/gcc-build/avr/avr5/libgcc/../../../../gcc/libgcc/config/avr/lib1funcs.S:1442
    196c:	16 f4       	brtc	.+4      	; 0x1972 <__divmodhi4+0xa>
/home/jenkins-mingw32/workspace/avr-gcc-staging/label/Ubuntu14.04x64-mingw32/gcc-build/avr/avr5/libgcc/../../../../gcc/libgcc/config/avr/lib1funcs.S:1443
    196e:	00 94       	com	r0
/home/jenkins-mingw32/workspace/avr-gcc-staging/label/Ubuntu14.04x64-mingw32/gcc-build/avr/avr5/libgcc/../../../../gcc/libgcc/config/avr/lib1funcs.S:1444
    1970:	07 d0       	rcall	.+14     	; 0x1980 <__divmodhi4_neg1>
/home/jenkins-mingw32/workspace/avr-gcc-staging/label/Ubuntu14.04x64-mingw32/gcc-build/avr/avr5/libgcc/../../../../gcc/libgcc/config/avr/lib1funcs.S:1446
    1972:	77 fd       	sbrc	r23, 7
/home/jenkins-mingw32/workspace/avr-gcc-staging/label/Ubuntu14.04x64-mingw32/gcc-build/avr/avr5/libgcc/../../../../gcc/libgcc/config/avr/lib1funcs.S:1447
    1974:	09 d0       	rcall	.+18     	; 0x1988 <__divmodhi4_neg2>
/home/jenkins-mingw32/workspace/avr-gcc-staging/label/Ubuntu14.04x64-mingw32/gcc-build/avr/avr5/libgcc/../../../../gcc/libgcc/config/avr/lib1funcs.S:1448
    1976:	0e 94 f0 0c 	call	0x19e0	; 0x19e0 <__udivmodhi4>
/home/jenkins-mingw32/workspace/avr-gcc-staging/label/Ubuntu14.04x64-mingw32/gcc-build/avr/avr5/libgcc/../../../../gcc/libgcc/config/avr/lib1funcs.S:1449
    197a:	07 fc       	sbrc	r0, 7
/home/jenkins-mingw32/workspace/avr-gcc-staging/label/Ubuntu14.04x64-mingw32/gcc-build/avr/avr5/libgcc/../../../../gcc/libgcc/config/avr/lib1funcs.S:1450
    197c:	05 d0       	rcall	.+10     	; 0x1988 <__divmodhi4_neg2>
/home/jenkins-mingw32/workspace/avr-gcc-staging/label/Ubuntu14.04x64-mingw32/gcc-build/avr/avr5/libgcc/../../../../gcc/libgcc/config/avr/lib1funcs.S:1451
    197e:	3e f4       	brtc	.+14     	; 0x198e <__divmodhi4_exit>

00001980 <__divmodhi4_neg1>:
/home/jenkins-mingw32/workspace/avr-gcc-staging/label/Ubuntu14.04x64-mingw32/gcc-build/avr/avr5/libgcc/../../../../gcc/libgcc/config/avr/lib1funcs.S:1454
    1980:	90 95       	com	r25
/home/jenkins-mingw32/workspace/avr-gcc-staging/label/Ubuntu14.04x64-mingw32/gcc-build/avr/avr5/libgcc/../../../../gcc/libgcc/config/avr/lib1funcs.S:1455
    1982:	81 95       	neg	r24
/home/jenkins-mingw32/workspace/avr-gcc-staging/label/Ubuntu14.04x64-mingw32/gcc-build/avr/avr5/libgcc/../../../../gcc/libgcc/config/avr/lib1funcs.S:1456
    1984:	9f 4f       	sbci	r25, 0xFF	; 255
/home/jenkins-mingw32/workspace/avr-gcc-staging/label/Ubuntu14.04x64-mingw32/gcc-build/avr/avr5/libgcc/../../../../gcc/libgcc/config/avr/lib1funcs.S:1457
    1986:	08 95       	ret

00001988 <__divmodhi4_neg2>:
/home/jenkins-mingw32/workspace/avr-gcc-staging/label/Ubuntu14.04x64-mingw32/gcc-build/avr/avr5/libgcc/../../../../gcc/libgcc/config/avr/lib1funcs.S:1460
    1988:	70 95       	com	r23
/home/jenkins-mingw32/workspace/avr-gcc-staging/label/Ubuntu14.04x64-mingw32/gcc-build/avr/avr5/libgcc/../../../../gcc/libgcc/config/avr/lib1funcs.S:1461
    198a:	61 95       	neg	r22
/home/jenkins-mingw32/workspace/avr-gcc-staging/label/Ubuntu14.04x64-mingw32/gcc-build/avr/avr5/libgcc/../../../../gcc/libgcc/config/avr/lib1funcs.S:1462
    198c:	7f 4f       	sbci	r23, 0xFF	; 255

0000198e <__divmodhi4_exit>:
/home/jenkins-mingw32/workspace/avr-gcc-staging/label/Ubuntu14.04x64-mingw32/gcc-build/avr/avr5/libgcc/../../../../gcc/libgcc/config/avr/lib1funcs.S:1464
    198e:	08 95       	ret

00001990 <__udivmodsi4>:
__udivmodsi4():
/home/jenkins-mingw32/workspace/avr-gcc-staging/label/Ubuntu14.04x64-mingw32/gcc-build/avr/avr5/libgcc/../../../../gcc/libgcc/config/avr/lib1funcs.S:1638
    1990:	a1 e2       	ldi	r26, 0x21	; 33
/home/jenkins-mingw32/workspace/avr-gcc-staging/label/Ubuntu14.04x64-mingw32/gcc-build/avr/avr5/libgcc/../../../../gcc/libgcc/config/avr/lib1funcs.S:1639
    1992:	1a 2e       	mov	r1, r26
/home/jenkins-mingw32/workspace/avr-gcc-staging/label/Ubuntu14.04x64-mingw32/gcc-build/avr/avr5/libgcc/../../../../gcc/libgcc/config/avr/lib1funcs.S:1640
    1994:	aa 1b       	sub	r26, r26
/home/jenkins-mingw32/workspace/avr-gcc-staging/label/Ubuntu14.04x64-mingw32/gcc-build/avr/avr5/libgcc/../../../../gcc/libgcc/config/avr/lib1funcs.S:1641
    1996:	bb 1b       	sub	r27, r27
/home/jenkins-mingw32/workspace/avr-gcc-staging/label/Ubuntu14.04x64-mingw32/gcc-build/avr/avr5/libgcc/../../../../gcc/libgcc/config/avr/lib1funcs.S:1642
    1998:	fd 01       	movw	r30, r26
/home/jenkins-mingw32/workspace/avr-gcc-staging/label/Ubuntu14.04x64-mingw32/gcc-build/avr/avr5/libgcc/../../../../gcc/libgcc/config/avr/lib1funcs.S:1644
    199a:	0d c0       	rjmp	.+26     	; 0x19b6 <__udivmodsi4_ep>

0000199c <__udivmodsi4_loop>:
/home/jenkins-mingw32/workspace/avr-gcc-staging/label/Ubuntu14.04x64-mingw32/gcc-build/avr/avr5/libgcc/../../../../gcc/libgcc/config/avr/lib1funcs.S:1646
    199c:	aa 1f       	adc	r26, r26
/home/jenkins-mingw32/workspace/avr-gcc-staging/label/Ubuntu14.04x64-mingw32/gcc-build/avr/avr5/libgcc/../../../../gcc/libgcc/config/avr/lib1funcs.S:1647
    199e:	bb 1f       	adc	r27, r27
/home/jenkins-mingw32/workspace/avr-gcc-staging/label/Ubuntu14.04x64-mingw32/gcc-build/avr/avr5/libgcc/../../../../gcc/libgcc/config/avr/lib1funcs.S:1648
    19a0:	ee 1f       	adc	r30, r30
/home/jenkins-mingw32/workspace/avr-gcc-staging/label/Ubuntu14.04x64-mingw32/gcc-build/avr/avr5/libgcc/../../../../gcc/libgcc/config/avr/lib1funcs.S:1649
    19a2:	ff 1f       	adc	r31, r31
/home/jenkins-mingw32/workspace/avr-gcc-staging/label/Ubuntu14.04x64-mingw32/gcc-build/avr/avr5/libgcc/../../../../gcc/libgcc/config/avr/lib1funcs.S:1650
    19a4:	a2 17       	cp	r26, r18
/home/jenkins-mingw32/workspace/avr-gcc-staging/label/Ubuntu14.04x64-mingw32/gcc-build/avr/avr5/libgcc/../../../../gcc/libgcc/config/avr/lib1funcs.S:1651
    19a6:	b3 07       	cpc	r27, r19
/home/jenkins-mingw32/workspace/avr-gcc-staging/label/Ubuntu14.04x64-mingw32/gcc-build/avr/avr5/libgcc/../../../../gcc/libgcc/config/avr/lib1funcs.S:1652
    19a8:	e4 07       	cpc	r30, r20
/home/jenkins-mingw32/workspace/avr-gcc-staging/label/Ubuntu14.04x64-mingw32/gcc-build/avr/avr5/libgcc/../../../../gcc/libgcc/config/avr/lib1funcs.S:1653
    19aa:	f5 07       	cpc	r31, r21
/home/jenkins-mingw32/workspace/avr-gcc-staging/label/Ubuntu14.04x64-mingw32/gcc-build/avr/avr5/libgcc/../../../../gcc/libgcc/config/avr/lib1funcs.S:1654
    19ac:	20 f0       	brcs	.+8      	; 0x19b6 <__udivmodsi4_ep>
/home/jenkins-mingw32/workspace/avr-gcc-staging/label/Ubuntu14.04x64-mingw32/gcc-build/avr/avr5/libgcc/../../../../gcc/libgcc/config/avr/lib1funcs.S:1655
    19ae:	a2 1b       	sub	r26, r18
/home/jenkins-mingw32/workspace/avr-gcc-staging/label/Ubuntu14.04x64-mingw32/gcc-build/avr/avr5/libgcc/../../../../gcc/libgcc/config/avr/lib1funcs.S:1656
    19b0:	b3 0b       	sbc	r27, r19
/home/jenkins-mingw32/workspace/avr-gcc-staging/label/Ubuntu14.04x64-mingw32/gcc-build/avr/avr5/libgcc/../../../../gcc/libgcc/config/avr/lib1funcs.S:1657
    19b2:	e4 0b       	sbc	r30, r20
/home/jenkins-mingw32/workspace/avr-gcc-staging/label/Ubuntu14.04x64-mingw32/gcc-build/avr/avr5/libgcc/../../../../gcc/libgcc/config/avr/lib1funcs.S:1658
    19b4:	f5 0b       	sbc	r31, r21

000019b6 <__udivmodsi4_ep>:
/home/jenkins-mingw32/workspace/avr-gcc-staging/label/Ubuntu14.04x64-mingw32/gcc-build/avr/avr5/libgcc/../../../../gcc/libgcc/config/avr/lib1funcs.S:1660
    19b6:	66 1f       	adc	r22, r22
/home/jenkins-mingw32/workspace/avr-gcc-staging/label/Ubuntu14.04x64-mingw32/gcc-build/avr/avr5/libgcc/../../../../gcc/libgcc/config/avr/lib1funcs.S:1661
    19b8:	77 1f       	adc	r23, r23
/home/jenkins-mingw32/workspace/avr-gcc-staging/label/Ubuntu14.04x64-mingw32/gcc-build/avr/avr5/libgcc/../../../../gcc/libgcc/config/avr/lib1funcs.S:1662
    19ba:	88 1f       	adc	r24, r24
/home/jenkins-mingw32/workspace/avr-gcc-staging/label/Ubuntu14.04x64-mingw32/gcc-build/avr/avr5/libgcc/../../../../gcc/libgcc/config/avr/lib1funcs.S:1663
    19bc:	99 1f       	adc	r25, r25
/home/jenkins-mingw32/workspace/avr-gcc-staging/label/Ubuntu14.04x64-mingw32/gcc-build/avr/avr5/libgcc/../../../../gcc/libgcc/config/avr/lib1funcs.S:1664
    19be:	1a 94       	dec	r1
/home/jenkins-mingw32/workspace/avr-gcc-staging/label/Ubuntu14.04x64-mingw32/gcc-build/avr/avr5/libgcc/../../../../gcc/libgcc/config/avr/lib1funcs.S:1665
    19c0:	69 f7       	brne	.-38     	; 0x199c <__udivmodsi4_loop>
/home/jenkins-mingw32/workspace/avr-gcc-staging/label/Ubuntu14.04x64-mingw32/gcc-build/avr/avr5/libgcc/../../../../gcc/libgcc/config/avr/lib1funcs.S:1667
    19c2:	60 95       	com	r22
/home/jenkins-mingw32/workspace/avr-gcc-staging/label/Ubuntu14.04x64-mingw32/gcc-build/avr/avr5/libgcc/../../../../gcc/libgcc/config/avr/lib1funcs.S:1668
    19c4:	70 95       	com	r23
/home/jenkins-mingw32/workspace/avr-gcc-staging/label/Ubuntu14.04x64-mingw32/gcc-build/avr/avr5/libgcc/../../../../gcc/libgcc/config/avr/lib1funcs.S:1669
    19c6:	80 95       	com	r24
/home/jenkins-mingw32/workspace/avr-gcc-staging/label/Ubuntu14.04x64-mingw32/gcc-build/avr/avr5/libgcc/../../../../gcc/libgcc/config/avr/lib1funcs.S:1670
    19c8:	90 95       	com	r25
/home/jenkins-mingw32/workspace/avr-gcc-staging/label/Ubuntu14.04x64-mingw32/gcc-build/avr/avr5/libgcc/../../../../gcc/libgcc/config/avr/lib1funcs.S:1672
    19ca:	9b 01       	movw	r18, r22
/home/jenkins-mingw32/workspace/avr-gcc-staging/label/Ubuntu14.04x64-mingw32/gcc-build/avr/avr5/libgcc/../../../../gcc/libgcc/config/avr/lib1funcs.S:1674
    19cc:	ac 01       	movw	r20, r24
/home/jenkins-mingw32/workspace/avr-gcc-staging/label/Ubuntu14.04x64-mingw32/gcc-build/avr/avr5/libgcc/../../../../gcc/libgcc/config/avr/lib1funcs.S:1676
    19ce:	bd 01       	movw	r22, r26
/home/jenkins-mingw32/workspace/avr-gcc-staging/label/Ubuntu14.04x64-mingw32/gcc-build/avr/avr5/libgcc/../../../../gcc/libgcc/config/avr/lib1funcs.S:1678
    19d0:	cf 01       	movw	r24, r30
/home/jenkins-mingw32/workspace/avr-gcc-staging/label/Ubuntu14.04x64-mingw32/gcc-build/avr/avr5/libgcc/../../../../gcc/libgcc/config/avr/lib1funcs.S:1680
    19d2:	08 95       	ret

000019d4 <__tablejump2__>:
__tablejump2__():
/home/jenkins-mingw32/workspace/avr-gcc-staging/label/Ubuntu14.04x64-mingw32/gcc-build/avr/avr5/libgcc/../../../../gcc/libgcc/config/avr/lib1funcs.S:2296
    19d4:	ee 0f       	add	r30, r30
/home/jenkins-mingw32/workspace/avr-gcc-staging/label/Ubuntu14.04x64-mingw32/gcc-build/avr/avr5/libgcc/../../../../gcc/libgcc/config/avr/lib1funcs.S:2297
    19d6:	ff 1f       	adc	r31, r31
/home/jenkins-mingw32/workspace/avr-gcc-staging/label/Ubuntu14.04x64-mingw32/gcc-build/avr/avr5/libgcc/../../../../gcc/libgcc/config/avr/lib1funcs.S:2328
    19d8:	05 90       	lpm	r0, Z+
/home/jenkins-mingw32/workspace/avr-gcc-staging/label/Ubuntu14.04x64-mingw32/gcc-build/avr/avr5/libgcc/../../../../gcc/libgcc/config/avr/lib1funcs.S:2329
    19da:	f4 91       	lpm	r31, Z
/home/jenkins-mingw32/workspace/avr-gcc-staging/label/Ubuntu14.04x64-mingw32/gcc-build/avr/avr5/libgcc/../../../../gcc/libgcc/config/avr/lib1funcs.S:2330
    19dc:	e0 2d       	mov	r30, r0
/home/jenkins-mingw32/workspace/avr-gcc-staging/label/Ubuntu14.04x64-mingw32/gcc-build/avr/avr5/libgcc/../../../../gcc/libgcc/config/avr/lib1funcs.S:2331
    19de:	09 94       	ijmp

000019e0 <__udivmodhi4>:
__udivmodhi4():
/home/jenkins-mingw32/workspace/avr-gcc-staging/label/Ubuntu14.04x64-mingw32/gcc-build/avr/avr5/libgcc/../../../../gcc/libgcc/config/avr/lib1funcs.S:1408
    19e0:	aa 1b       	sub	r26, r26
/home/jenkins-mingw32/workspace/avr-gcc-staging/label/Ubuntu14.04x64-mingw32/gcc-build/avr/avr5/libgcc/../../../../gcc/libgcc/config/avr/lib1funcs.S:1409
    19e2:	bb 1b       	sub	r27, r27
/home/jenkins-mingw32/workspace/avr-gcc-staging/label/Ubuntu14.04x64-mingw32/gcc-build/avr/avr5/libgcc/../../../../gcc/libgcc/config/avr/lib1funcs.S:1410
    19e4:	51 e1       	ldi	r21, 0x11	; 17
/home/jenkins-mingw32/workspace/avr-gcc-staging/label/Ubuntu14.04x64-mingw32/gcc-build/avr/avr5/libgcc/../../../../gcc/libgcc/config/avr/lib1funcs.S:1411
    19e6:	07 c0       	rjmp	.+14     	; 0x19f6 <__udivmodhi4_ep>

000019e8 <__udivmodhi4_loop>:
/home/jenkins-mingw32/workspace/avr-gcc-staging/label/Ubuntu14.04x64-mingw32/gcc-build/avr/avr5/libgcc/../../../../gcc/libgcc/config/avr/lib1funcs.S:1413
    19e8:	aa 1f       	adc	r26, r26
/home/jenkins-mingw32/workspace/avr-gcc-staging/label/Ubuntu14.04x64-mingw32/gcc-build/avr/avr5/libgcc/../../../../gcc/libgcc/config/avr/lib1funcs.S:1414
    19ea:	bb 1f       	adc	r27, r27
/home/jenkins-mingw32/workspace/avr-gcc-staging/label/Ubuntu14.04x64-mingw32/gcc-build/avr/avr5/libgcc/../../../../gcc/libgcc/config/avr/lib1funcs.S:1415
    19ec:	a6 17       	cp	r26, r22
/home/jenkins-mingw32/workspace/avr-gcc-staging/label/Ubuntu14.04x64-mingw32/gcc-build/avr/avr5/libgcc/../../../../gcc/libgcc/config/avr/lib1funcs.S:1416
    19ee:	b7 07       	cpc	r27, r23
/home/jenkins-mingw32/workspace/avr-gcc-staging/label/Ubuntu14.04x64-mingw32/gcc-build/avr/avr5/libgcc/../../../../gcc/libgcc/config/avr/lib1funcs.S:1417
    19f0:	10 f0       	brcs	.+4      	; 0x19f6 <__udivmodhi4_ep>
/home/jenkins-mingw32/workspace/avr-gcc-staging/label/Ubuntu14.04x64-mingw32/gcc-build/avr/avr5/libgcc/../../../../gcc/libgcc/config/avr/lib1funcs.S:1418
    19f2:	a6 1b       	sub	r26, r22
/home/jenkins-mingw32/workspace/avr-gcc-staging/label/Ubuntu14.04x64-mingw32/gcc-build/avr/avr5/libgcc/../../../../gcc/libgcc/config/avr/lib1funcs.S:1419
    19f4:	b7 0b       	sbc	r27, r23

000019f6 <__udivmodhi4_ep>:
/home/jenkins-mingw32/workspace/avr-gcc-staging/label/Ubuntu14.04x64-mingw32/gcc-build/avr/avr5/libgcc/../../../../gcc/libgcc/config/avr/lib1funcs.S:1421
    19f6:	88 1f       	adc	r24, r24
/home/jenkins-mingw32/workspace/avr-gcc-staging/label/Ubuntu14.04x64-mingw32/gcc-build/avr/avr5/libgcc/../../../../gcc/libgcc/config/avr/lib1funcs.S:1422
    19f8:	99 1f       	adc	r25, r25
/home/jenkins-mingw32/workspace/avr-gcc-staging/label/Ubuntu14.04x64-mingw32/gcc-build/avr/avr5/libgcc/../../../../gcc/libgcc/config/avr/lib1funcs.S:1423
    19fa:	5a 95       	dec	r21
/home/jenkins-mingw32/workspace/avr-gcc-staging/label/Ubuntu14.04x64-mingw32/gcc-build/avr/avr5/libgcc/../../../../gcc/libgcc/config/avr/lib1funcs.S:1424
    19fc:	a9 f7       	brne	.-22     	; 0x19e8 <__udivmodhi4_loop>
/home/jenkins-mingw32/workspace/avr-gcc-staging/label/Ubuntu14.04x64-mingw32/gcc-build/avr/avr5/libgcc/../../../../gcc/libgcc/config/avr/lib1funcs.S:1425
    19fe:	80 95       	com	r24
/home/jenkins-mingw32/workspace/avr-gcc-staging/label/Ubuntu14.04x64-mingw32/gcc-build/avr/avr5/libgcc/../../../../gcc/libgcc/config/avr/lib1funcs.S:1426
    1a00:	90 95       	com	r25
/home/jenkins-mingw32/workspace/avr-gcc-staging/label/Ubuntu14.04x64-mingw32/gcc-build/avr/avr5/libgcc/../../../../gcc/libgcc/config/avr/lib1funcs.S:1428
    1a02:	bc 01       	movw	r22, r24
/home/jenkins-mingw32/workspace/avr-gcc-staging/label/Ubuntu14.04x64-mingw32/gcc-build/avr/avr5/libgcc/../../../../gcc/libgcc/config/avr/lib1funcs.S:1430
    1a04:	cd 01       	movw	r24, r26
/home/jenkins-mingw32/workspace/avr-gcc-staging/label/Ubuntu14.04x64-mingw32/gcc-build/avr/avr5/libgcc/../../../../gcc/libgcc/config/avr/lib1funcs.S:1432
    1a06:	08 95       	ret

00001a08 <malloc>:
malloc():
    1a08:	0f 93       	push	r16
    1a0a:	1f 93       	push	r17
    1a0c:	cf 93       	push	r28
    1a0e:	df 93       	push	r29
    1a10:	82 30       	cpi	r24, 0x02	; 2
    1a12:	91 05       	cpc	r25, r1
    1a14:	10 f4       	brcc	.+4      	; 0x1a1a <malloc+0x12>
    1a16:	82 e0       	ldi	r24, 0x02	; 2
    1a18:	90 e0       	ldi	r25, 0x00	; 0
    1a1a:	e0 91 c5 02 	lds	r30, 0x02C5	; 0x8002c5 <__flp>
    1a1e:	f0 91 c6 02 	lds	r31, 0x02C6	; 0x8002c6 <__flp+0x1>
    1a22:	30 e0       	ldi	r19, 0x00	; 0
    1a24:	20 e0       	ldi	r18, 0x00	; 0
    1a26:	b0 e0       	ldi	r27, 0x00	; 0
    1a28:	a0 e0       	ldi	r26, 0x00	; 0
    1a2a:	30 97       	sbiw	r30, 0x00	; 0
    1a2c:	99 f4       	brne	.+38     	; 0x1a54 <malloc+0x4c>
    1a2e:	21 15       	cp	r18, r1
    1a30:	31 05       	cpc	r19, r1
    1a32:	09 f4       	brne	.+2      	; 0x1a36 <malloc+0x2e>
    1a34:	4a c0       	rjmp	.+148    	; 0x1aca <malloc+0xc2>
    1a36:	28 1b       	sub	r18, r24
    1a38:	39 0b       	sbc	r19, r25
    1a3a:	24 30       	cpi	r18, 0x04	; 4
    1a3c:	31 05       	cpc	r19, r1
    1a3e:	d8 f5       	brcc	.+118    	; 0x1ab6 <malloc+0xae>
    1a40:	8a 81       	ldd	r24, Y+2	; 0x02
    1a42:	9b 81       	ldd	r25, Y+3	; 0x03
    1a44:	61 15       	cp	r22, r1
    1a46:	71 05       	cpc	r23, r1
    1a48:	89 f1       	breq	.+98     	; 0x1aac <malloc+0xa4>
    1a4a:	fb 01       	movw	r30, r22
    1a4c:	93 83       	std	Z+3, r25	; 0x03
    1a4e:	82 83       	std	Z+2, r24	; 0x02
    1a50:	fe 01       	movw	r30, r28
    1a52:	11 c0       	rjmp	.+34     	; 0x1a76 <malloc+0x6e>
    1a54:	40 81       	ld	r20, Z
    1a56:	51 81       	ldd	r21, Z+1	; 0x01
    1a58:	02 81       	ldd	r16, Z+2	; 0x02
    1a5a:	13 81       	ldd	r17, Z+3	; 0x03
    1a5c:	48 17       	cp	r20, r24
    1a5e:	59 07       	cpc	r21, r25
    1a60:	e0 f0       	brcs	.+56     	; 0x1a9a <malloc+0x92>
    1a62:	48 17       	cp	r20, r24
    1a64:	59 07       	cpc	r21, r25
    1a66:	99 f4       	brne	.+38     	; 0x1a8e <malloc+0x86>
    1a68:	10 97       	sbiw	r26, 0x00	; 0
    1a6a:	61 f0       	breq	.+24     	; 0x1a84 <malloc+0x7c>
    1a6c:	12 96       	adiw	r26, 0x02	; 2
    1a6e:	0c 93       	st	X, r16
    1a70:	12 97       	sbiw	r26, 0x02	; 2
    1a72:	13 96       	adiw	r26, 0x03	; 3
    1a74:	1c 93       	st	X, r17
    1a76:	32 96       	adiw	r30, 0x02	; 2
    1a78:	cf 01       	movw	r24, r30
    1a7a:	df 91       	pop	r29
    1a7c:	cf 91       	pop	r28
    1a7e:	1f 91       	pop	r17
    1a80:	0f 91       	pop	r16
    1a82:	08 95       	ret
    1a84:	00 93 c5 02 	sts	0x02C5, r16	; 0x8002c5 <__flp>
    1a88:	10 93 c6 02 	sts	0x02C6, r17	; 0x8002c6 <__flp+0x1>
    1a8c:	f4 cf       	rjmp	.-24     	; 0x1a76 <malloc+0x6e>
    1a8e:	21 15       	cp	r18, r1
    1a90:	31 05       	cpc	r19, r1
    1a92:	51 f0       	breq	.+20     	; 0x1aa8 <malloc+0xa0>
    1a94:	42 17       	cp	r20, r18
    1a96:	53 07       	cpc	r21, r19
    1a98:	38 f0       	brcs	.+14     	; 0x1aa8 <malloc+0xa0>
    1a9a:	a9 01       	movw	r20, r18
    1a9c:	db 01       	movw	r26, r22
    1a9e:	9a 01       	movw	r18, r20
    1aa0:	bd 01       	movw	r22, r26
    1aa2:	df 01       	movw	r26, r30
    1aa4:	f8 01       	movw	r30, r16
    1aa6:	c1 cf       	rjmp	.-126    	; 0x1a2a <malloc+0x22>
    1aa8:	ef 01       	movw	r28, r30
    1aaa:	f9 cf       	rjmp	.-14     	; 0x1a9e <malloc+0x96>
    1aac:	90 93 c6 02 	sts	0x02C6, r25	; 0x8002c6 <__flp+0x1>
    1ab0:	80 93 c5 02 	sts	0x02C5, r24	; 0x8002c5 <__flp>
    1ab4:	cd cf       	rjmp	.-102    	; 0x1a50 <malloc+0x48>
    1ab6:	fe 01       	movw	r30, r28
    1ab8:	e2 0f       	add	r30, r18
    1aba:	f3 1f       	adc	r31, r19
    1abc:	81 93       	st	Z+, r24
    1abe:	91 93       	st	Z+, r25
    1ac0:	22 50       	subi	r18, 0x02	; 2
    1ac2:	31 09       	sbc	r19, r1
    1ac4:	39 83       	std	Y+1, r19	; 0x01
    1ac6:	28 83       	st	Y, r18
    1ac8:	d7 cf       	rjmp	.-82     	; 0x1a78 <malloc+0x70>
    1aca:	20 91 c3 02 	lds	r18, 0x02C3	; 0x8002c3 <__brkval>
    1ace:	30 91 c4 02 	lds	r19, 0x02C4	; 0x8002c4 <__brkval+0x1>
    1ad2:	23 2b       	or	r18, r19
    1ad4:	41 f4       	brne	.+16     	; 0x1ae6 <malloc+0xde>
    1ad6:	20 91 02 01 	lds	r18, 0x0102	; 0x800102 <__malloc_heap_start>
    1ada:	30 91 03 01 	lds	r19, 0x0103	; 0x800103 <__malloc_heap_start+0x1>
    1ade:	30 93 c4 02 	sts	0x02C4, r19	; 0x8002c4 <__brkval+0x1>
    1ae2:	20 93 c3 02 	sts	0x02C3, r18	; 0x8002c3 <__brkval>
    1ae6:	20 91 00 01 	lds	r18, 0x0100	; 0x800100 <__DATA_REGION_ORIGIN__>
    1aea:	30 91 01 01 	lds	r19, 0x0101	; 0x800101 <__DATA_REGION_ORIGIN__+0x1>
    1aee:	21 15       	cp	r18, r1
    1af0:	31 05       	cpc	r19, r1
    1af2:	41 f4       	brne	.+16     	; 0x1b04 <malloc+0xfc>
    1af4:	2d b7       	in	r18, 0x3d	; 61
    1af6:	3e b7       	in	r19, 0x3e	; 62
    1af8:	40 91 04 01 	lds	r20, 0x0104	; 0x800104 <__malloc_margin>
    1afc:	50 91 05 01 	lds	r21, 0x0105	; 0x800105 <__malloc_margin+0x1>
    1b00:	24 1b       	sub	r18, r20
    1b02:	35 0b       	sbc	r19, r21
    1b04:	e0 91 c3 02 	lds	r30, 0x02C3	; 0x8002c3 <__brkval>
    1b08:	f0 91 c4 02 	lds	r31, 0x02C4	; 0x8002c4 <__brkval+0x1>
    1b0c:	e2 17       	cp	r30, r18
    1b0e:	f3 07       	cpc	r31, r19
    1b10:	a0 f4       	brcc	.+40     	; 0x1b3a <malloc+0x132>
    1b12:	2e 1b       	sub	r18, r30
    1b14:	3f 0b       	sbc	r19, r31
    1b16:	28 17       	cp	r18, r24
    1b18:	39 07       	cpc	r19, r25
    1b1a:	78 f0       	brcs	.+30     	; 0x1b3a <malloc+0x132>
    1b1c:	ac 01       	movw	r20, r24
    1b1e:	4e 5f       	subi	r20, 0xFE	; 254
    1b20:	5f 4f       	sbci	r21, 0xFF	; 255
    1b22:	24 17       	cp	r18, r20
    1b24:	35 07       	cpc	r19, r21
    1b26:	48 f0       	brcs	.+18     	; 0x1b3a <malloc+0x132>
    1b28:	4e 0f       	add	r20, r30
    1b2a:	5f 1f       	adc	r21, r31
    1b2c:	50 93 c4 02 	sts	0x02C4, r21	; 0x8002c4 <__brkval+0x1>
    1b30:	40 93 c3 02 	sts	0x02C3, r20	; 0x8002c3 <__brkval>
    1b34:	81 93       	st	Z+, r24
    1b36:	91 93       	st	Z+, r25
    1b38:	9f cf       	rjmp	.-194    	; 0x1a78 <malloc+0x70>
    1b3a:	f0 e0       	ldi	r31, 0x00	; 0
    1b3c:	e0 e0       	ldi	r30, 0x00	; 0
    1b3e:	9c cf       	rjmp	.-200    	; 0x1a78 <malloc+0x70>

00001b40 <free>:
free():
    1b40:	cf 93       	push	r28
    1b42:	df 93       	push	r29
    1b44:	00 97       	sbiw	r24, 0x00	; 0
    1b46:	e9 f0       	breq	.+58     	; 0x1b82 <free+0x42>
    1b48:	fc 01       	movw	r30, r24
    1b4a:	32 97       	sbiw	r30, 0x02	; 2
    1b4c:	13 82       	std	Z+3, r1	; 0x03
    1b4e:	12 82       	std	Z+2, r1	; 0x02
    1b50:	a0 91 c5 02 	lds	r26, 0x02C5	; 0x8002c5 <__flp>
    1b54:	b0 91 c6 02 	lds	r27, 0x02C6	; 0x8002c6 <__flp+0x1>
    1b58:	ed 01       	movw	r28, r26
    1b5a:	30 e0       	ldi	r19, 0x00	; 0
    1b5c:	20 e0       	ldi	r18, 0x00	; 0
    1b5e:	10 97       	sbiw	r26, 0x00	; 0
    1b60:	a1 f4       	brne	.+40     	; 0x1b8a <free+0x4a>
    1b62:	20 81       	ld	r18, Z
    1b64:	31 81       	ldd	r19, Z+1	; 0x01
    1b66:	82 0f       	add	r24, r18
    1b68:	93 1f       	adc	r25, r19
    1b6a:	20 91 c3 02 	lds	r18, 0x02C3	; 0x8002c3 <__brkval>
    1b6e:	30 91 c4 02 	lds	r19, 0x02C4	; 0x8002c4 <__brkval+0x1>
    1b72:	28 17       	cp	r18, r24
    1b74:	39 07       	cpc	r19, r25
    1b76:	09 f0       	breq	.+2      	; 0x1b7a <free+0x3a>
    1b78:	61 c0       	rjmp	.+194    	; 0x1c3c <free+0xfc>
    1b7a:	f0 93 c4 02 	sts	0x02C4, r31	; 0x8002c4 <__brkval+0x1>
    1b7e:	e0 93 c3 02 	sts	0x02C3, r30	; 0x8002c3 <__brkval>
    1b82:	df 91       	pop	r29
    1b84:	cf 91       	pop	r28
    1b86:	08 95       	ret
    1b88:	ea 01       	movw	r28, r20
    1b8a:	ce 17       	cp	r28, r30
    1b8c:	df 07       	cpc	r29, r31
    1b8e:	e8 f5       	brcc	.+122    	; 0x1c0a <free+0xca>
    1b90:	4a 81       	ldd	r20, Y+2	; 0x02
    1b92:	5b 81       	ldd	r21, Y+3	; 0x03
    1b94:	9e 01       	movw	r18, r28
    1b96:	41 15       	cp	r20, r1
    1b98:	51 05       	cpc	r21, r1
    1b9a:	b1 f7       	brne	.-20     	; 0x1b88 <free+0x48>
    1b9c:	e9 01       	movw	r28, r18
    1b9e:	fb 83       	std	Y+3, r31	; 0x03
    1ba0:	ea 83       	std	Y+2, r30	; 0x02
    1ba2:	49 91       	ld	r20, Y+
    1ba4:	59 91       	ld	r21, Y+
    1ba6:	c4 0f       	add	r28, r20
    1ba8:	d5 1f       	adc	r29, r21
    1baa:	ec 17       	cp	r30, r28
    1bac:	fd 07       	cpc	r31, r29
    1bae:	61 f4       	brne	.+24     	; 0x1bc8 <free+0x88>
    1bb0:	80 81       	ld	r24, Z
    1bb2:	91 81       	ldd	r25, Z+1	; 0x01
    1bb4:	02 96       	adiw	r24, 0x02	; 2
    1bb6:	84 0f       	add	r24, r20
    1bb8:	95 1f       	adc	r25, r21
    1bba:	e9 01       	movw	r28, r18
    1bbc:	99 83       	std	Y+1, r25	; 0x01
    1bbe:	88 83       	st	Y, r24
    1bc0:	82 81       	ldd	r24, Z+2	; 0x02
    1bc2:	93 81       	ldd	r25, Z+3	; 0x03
    1bc4:	9b 83       	std	Y+3, r25	; 0x03
    1bc6:	8a 83       	std	Y+2, r24	; 0x02
    1bc8:	f0 e0       	ldi	r31, 0x00	; 0
    1bca:	e0 e0       	ldi	r30, 0x00	; 0
    1bcc:	12 96       	adiw	r26, 0x02	; 2
    1bce:	8d 91       	ld	r24, X+
    1bd0:	9c 91       	ld	r25, X
    1bd2:	13 97       	sbiw	r26, 0x03	; 3
    1bd4:	00 97       	sbiw	r24, 0x00	; 0
    1bd6:	b9 f5       	brne	.+110    	; 0x1c46 <free+0x106>
    1bd8:	2d 91       	ld	r18, X+
    1bda:	3c 91       	ld	r19, X
    1bdc:	11 97       	sbiw	r26, 0x01	; 1
    1bde:	cd 01       	movw	r24, r26
    1be0:	02 96       	adiw	r24, 0x02	; 2
    1be2:	82 0f       	add	r24, r18
    1be4:	93 1f       	adc	r25, r19
    1be6:	20 91 c3 02 	lds	r18, 0x02C3	; 0x8002c3 <__brkval>
    1bea:	30 91 c4 02 	lds	r19, 0x02C4	; 0x8002c4 <__brkval+0x1>
    1bee:	28 17       	cp	r18, r24
    1bf0:	39 07       	cpc	r19, r25
    1bf2:	39 f6       	brne	.-114    	; 0x1b82 <free+0x42>
    1bf4:	30 97       	sbiw	r30, 0x00	; 0
    1bf6:	51 f5       	brne	.+84     	; 0x1c4c <free+0x10c>
    1bf8:	10 92 c6 02 	sts	0x02C6, r1	; 0x8002c6 <__flp+0x1>
    1bfc:	10 92 c5 02 	sts	0x02C5, r1	; 0x8002c5 <__flp>
    1c00:	b0 93 c4 02 	sts	0x02C4, r27	; 0x8002c4 <__brkval+0x1>
    1c04:	a0 93 c3 02 	sts	0x02C3, r26	; 0x8002c3 <__brkval>
    1c08:	bc cf       	rjmp	.-136    	; 0x1b82 <free+0x42>
    1c0a:	d3 83       	std	Z+3, r29	; 0x03
    1c0c:	c2 83       	std	Z+2, r28	; 0x02
    1c0e:	40 81       	ld	r20, Z
    1c10:	51 81       	ldd	r21, Z+1	; 0x01
    1c12:	84 0f       	add	r24, r20
    1c14:	95 1f       	adc	r25, r21
    1c16:	c8 17       	cp	r28, r24
    1c18:	d9 07       	cpc	r29, r25
    1c1a:	61 f4       	brne	.+24     	; 0x1c34 <free+0xf4>
    1c1c:	4e 5f       	subi	r20, 0xFE	; 254
    1c1e:	5f 4f       	sbci	r21, 0xFF	; 255
    1c20:	88 81       	ld	r24, Y
    1c22:	99 81       	ldd	r25, Y+1	; 0x01
    1c24:	48 0f       	add	r20, r24
    1c26:	59 1f       	adc	r21, r25
    1c28:	51 83       	std	Z+1, r21	; 0x01
    1c2a:	40 83       	st	Z, r20
    1c2c:	8a 81       	ldd	r24, Y+2	; 0x02
    1c2e:	9b 81       	ldd	r25, Y+3	; 0x03
    1c30:	93 83       	std	Z+3, r25	; 0x03
    1c32:	82 83       	std	Z+2, r24	; 0x02
    1c34:	21 15       	cp	r18, r1
    1c36:	31 05       	cpc	r19, r1
    1c38:	09 f0       	breq	.+2      	; 0x1c3c <free+0xfc>
    1c3a:	b0 cf       	rjmp	.-160    	; 0x1b9c <free+0x5c>
    1c3c:	f0 93 c6 02 	sts	0x02C6, r31	; 0x8002c6 <__flp+0x1>
    1c40:	e0 93 c5 02 	sts	0x02C5, r30	; 0x8002c5 <__flp>
    1c44:	9e cf       	rjmp	.-196    	; 0x1b82 <free+0x42>
    1c46:	fd 01       	movw	r30, r26
    1c48:	dc 01       	movw	r26, r24
    1c4a:	c0 cf       	rjmp	.-128    	; 0x1bcc <free+0x8c>
    1c4c:	13 82       	std	Z+3, r1	; 0x03
    1c4e:	12 82       	std	Z+2, r1	; 0x02
    1c50:	d7 cf       	rjmp	.-82     	; 0x1c00 <free+0xc0>

00001c52 <realloc>:
realloc():
    1c52:	b0 e0       	ldi	r27, 0x00	; 0
    1c54:	a0 e0       	ldi	r26, 0x00	; 0
    1c56:	ef e2       	ldi	r30, 0x2F	; 47
    1c58:	fe e0       	ldi	r31, 0x0E	; 14
    1c5a:	0c 94 f8 0e 	jmp	0x1df0	; 0x1df0 <__prologue_saves__+0x4>
    1c5e:	8c 01       	movw	r16, r24
    1c60:	00 97       	sbiw	r24, 0x00	; 0
    1c62:	51 f4       	brne	.+20     	; 0x1c78 <realloc+0x26>
    1c64:	cb 01       	movw	r24, r22
    1c66:	0e 94 04 0d 	call	0x1a08	; 0x1a08 <malloc>
    1c6a:	8c 01       	movw	r16, r24
    1c6c:	c8 01       	movw	r24, r16
    1c6e:	cd b7       	in	r28, 0x3d	; 61
    1c70:	de b7       	in	r29, 0x3e	; 62
    1c72:	e0 e1       	ldi	r30, 0x10	; 16
    1c74:	0c 94 14 0f 	jmp	0x1e28	; 0x1e28 <__epilogue_restores__+0x4>
    1c78:	fc 01       	movw	r30, r24
    1c7a:	e6 0f       	add	r30, r22
    1c7c:	f7 1f       	adc	r31, r23
    1c7e:	9c 01       	movw	r18, r24
    1c80:	22 50       	subi	r18, 0x02	; 2
    1c82:	31 09       	sbc	r19, r1
    1c84:	e2 17       	cp	r30, r18
    1c86:	f3 07       	cpc	r31, r19
    1c88:	08 f4       	brcc	.+2      	; 0x1c8c <realloc+0x3a>
    1c8a:	9d c0       	rjmp	.+314    	; 0x1dc6 <realloc+0x174>
    1c8c:	d9 01       	movw	r26, r18
    1c8e:	cd 91       	ld	r28, X+
    1c90:	dc 91       	ld	r29, X
    1c92:	11 97       	sbiw	r26, 0x01	; 1
    1c94:	c6 17       	cp	r28, r22
    1c96:	d7 07       	cpc	r29, r23
    1c98:	98 f0       	brcs	.+38     	; 0x1cc0 <realloc+0x6e>
    1c9a:	c5 30       	cpi	r28, 0x05	; 5
    1c9c:	d1 05       	cpc	r29, r1
    1c9e:	30 f3       	brcs	.-52     	; 0x1c6c <realloc+0x1a>
    1ca0:	ce 01       	movw	r24, r28
    1ca2:	04 97       	sbiw	r24, 0x04	; 4
    1ca4:	86 17       	cp	r24, r22
    1ca6:	97 07       	cpc	r25, r23
    1ca8:	08 f3       	brcs	.-62     	; 0x1c6c <realloc+0x1a>
    1caa:	c6 1b       	sub	r28, r22
    1cac:	d7 0b       	sbc	r29, r23
    1cae:	22 97       	sbiw	r28, 0x02	; 2
    1cb0:	c1 93       	st	Z+, r28
    1cb2:	d1 93       	st	Z+, r29
    1cb4:	6d 93       	st	X+, r22
    1cb6:	7c 93       	st	X, r23
    1cb8:	cf 01       	movw	r24, r30
    1cba:	0e 94 a0 0d 	call	0x1b40	; 0x1b40 <free>
    1cbe:	d6 cf       	rjmp	.-84     	; 0x1c6c <realloc+0x1a>
    1cc0:	5b 01       	movw	r10, r22
    1cc2:	ac 1a       	sub	r10, r28
    1cc4:	bd 0a       	sbc	r11, r29
    1cc6:	4c 01       	movw	r8, r24
    1cc8:	8c 0e       	add	r8, r28
    1cca:	9d 1e       	adc	r9, r29
    1ccc:	a0 91 c5 02 	lds	r26, 0x02C5	; 0x8002c5 <__flp>
    1cd0:	b0 91 c6 02 	lds	r27, 0x02C6	; 0x8002c6 <__flp+0x1>
    1cd4:	51 2c       	mov	r5, r1
    1cd6:	41 2c       	mov	r4, r1
    1cd8:	f1 2c       	mov	r15, r1
    1cda:	e1 2c       	mov	r14, r1
    1cdc:	10 97       	sbiw	r26, 0x00	; 0
    1cde:	31 f5       	brne	.+76     	; 0x1d2c <realloc+0xda>
    1ce0:	80 91 c3 02 	lds	r24, 0x02C3	; 0x8002c3 <__brkval>
    1ce4:	90 91 c4 02 	lds	r25, 0x02C4	; 0x8002c4 <__brkval+0x1>
    1ce8:	88 15       	cp	r24, r8
    1cea:	99 05       	cpc	r25, r9
    1cec:	09 f0       	breq	.+2      	; 0x1cf0 <realloc+0x9e>
    1cee:	5c c0       	rjmp	.+184    	; 0x1da8 <realloc+0x156>
    1cf0:	46 16       	cp	r4, r22
    1cf2:	57 06       	cpc	r5, r23
    1cf4:	08 f0       	brcs	.+2      	; 0x1cf8 <realloc+0xa6>
    1cf6:	58 c0       	rjmp	.+176    	; 0x1da8 <realloc+0x156>
    1cf8:	80 91 00 01 	lds	r24, 0x0100	; 0x800100 <__DATA_REGION_ORIGIN__>
    1cfc:	90 91 01 01 	lds	r25, 0x0101	; 0x800101 <__DATA_REGION_ORIGIN__+0x1>
    1d00:	00 97       	sbiw	r24, 0x00	; 0
    1d02:	41 f4       	brne	.+16     	; 0x1d14 <realloc+0xc2>
    1d04:	8d b7       	in	r24, 0x3d	; 61
    1d06:	9e b7       	in	r25, 0x3e	; 62
    1d08:	40 91 04 01 	lds	r20, 0x0104	; 0x800104 <__malloc_margin>
    1d0c:	50 91 05 01 	lds	r21, 0x0105	; 0x800105 <__malloc_margin+0x1>
    1d10:	84 1b       	sub	r24, r20
    1d12:	95 0b       	sbc	r25, r21
    1d14:	e8 17       	cp	r30, r24
    1d16:	f9 07       	cpc	r31, r25
    1d18:	08 f0       	brcs	.+2      	; 0x1d1c <realloc+0xca>
    1d1a:	55 c0       	rjmp	.+170    	; 0x1dc6 <realloc+0x174>
    1d1c:	f0 93 c4 02 	sts	0x02C4, r31	; 0x8002c4 <__brkval+0x1>
    1d20:	e0 93 c3 02 	sts	0x02C3, r30	; 0x8002c3 <__brkval>
    1d24:	f9 01       	movw	r30, r18
    1d26:	71 83       	std	Z+1, r23	; 0x01
    1d28:	60 83       	st	Z, r22
    1d2a:	a0 cf       	rjmp	.-192    	; 0x1c6c <realloc+0x1a>
    1d2c:	8d 91       	ld	r24, X+
    1d2e:	9c 91       	ld	r25, X
    1d30:	11 97       	sbiw	r26, 0x01	; 1
    1d32:	12 96       	adiw	r26, 0x02	; 2
    1d34:	6c 90       	ld	r6, X
    1d36:	12 97       	sbiw	r26, 0x02	; 2
    1d38:	13 96       	adiw	r26, 0x03	; 3
    1d3a:	7c 90       	ld	r7, X
    1d3c:	13 97       	sbiw	r26, 0x03	; 3
    1d3e:	a8 15       	cp	r26, r8
    1d40:	b9 05       	cpc	r27, r9
    1d42:	59 f5       	brne	.+86     	; 0x1d9a <realloc+0x148>
    1d44:	6c 01       	movw	r12, r24
    1d46:	42 e0       	ldi	r20, 0x02	; 2
    1d48:	c4 0e       	add	r12, r20
    1d4a:	d1 1c       	adc	r13, r1
    1d4c:	ca 14       	cp	r12, r10
    1d4e:	db 04       	cpc	r13, r11
    1d50:	20 f1       	brcs	.+72     	; 0x1d9a <realloc+0x148>
    1d52:	ac 01       	movw	r20, r24
    1d54:	4a 19       	sub	r20, r10
    1d56:	5b 09       	sbc	r21, r11
    1d58:	da 01       	movw	r26, r20
    1d5a:	12 96       	adiw	r26, 0x02	; 2
    1d5c:	15 97       	sbiw	r26, 0x05	; 5
    1d5e:	80 f0       	brcs	.+32     	; 0x1d80 <realloc+0x12e>
    1d60:	62 82       	std	Z+2, r6	; 0x02
    1d62:	73 82       	std	Z+3, r7	; 0x03
    1d64:	51 83       	std	Z+1, r21	; 0x01
    1d66:	40 83       	st	Z, r20
    1d68:	d9 01       	movw	r26, r18
    1d6a:	6d 93       	st	X+, r22
    1d6c:	7c 93       	st	X, r23
    1d6e:	e1 14       	cp	r14, r1
    1d70:	f1 04       	cpc	r15, r1
    1d72:	71 f0       	breq	.+28     	; 0x1d90 <realloc+0x13e>
    1d74:	d7 01       	movw	r26, r14
    1d76:	13 96       	adiw	r26, 0x03	; 3
    1d78:	fc 93       	st	X, r31
    1d7a:	ee 93       	st	-X, r30
    1d7c:	12 97       	sbiw	r26, 0x02	; 2
    1d7e:	76 cf       	rjmp	.-276    	; 0x1c6c <realloc+0x1a>
    1d80:	22 96       	adiw	r28, 0x02	; 2
    1d82:	8c 0f       	add	r24, r28
    1d84:	9d 1f       	adc	r25, r29
    1d86:	f9 01       	movw	r30, r18
    1d88:	91 83       	std	Z+1, r25	; 0x01
    1d8a:	80 83       	st	Z, r24
    1d8c:	f3 01       	movw	r30, r6
    1d8e:	ef cf       	rjmp	.-34     	; 0x1d6e <realloc+0x11c>
    1d90:	f0 93 c6 02 	sts	0x02C6, r31	; 0x8002c6 <__flp+0x1>
    1d94:	e0 93 c5 02 	sts	0x02C5, r30	; 0x8002c5 <__flp>
    1d98:	69 cf       	rjmp	.-302    	; 0x1c6c <realloc+0x1a>
    1d9a:	48 16       	cp	r4, r24
    1d9c:	59 06       	cpc	r5, r25
    1d9e:	08 f4       	brcc	.+2      	; 0x1da2 <realloc+0x150>
    1da0:	2c 01       	movw	r4, r24
    1da2:	7d 01       	movw	r14, r26
    1da4:	d3 01       	movw	r26, r6
    1da6:	9a cf       	rjmp	.-204    	; 0x1cdc <realloc+0x8a>
    1da8:	cb 01       	movw	r24, r22
    1daa:	0e 94 04 0d 	call	0x1a08	; 0x1a08 <malloc>
    1dae:	7c 01       	movw	r14, r24
    1db0:	00 97       	sbiw	r24, 0x00	; 0
    1db2:	49 f0       	breq	.+18     	; 0x1dc6 <realloc+0x174>
    1db4:	ae 01       	movw	r20, r28
    1db6:	b8 01       	movw	r22, r16
    1db8:	0e 94 e6 0e 	call	0x1dcc	; 0x1dcc <memcpy>
    1dbc:	c8 01       	movw	r24, r16
    1dbe:	0e 94 a0 0d 	call	0x1b40	; 0x1b40 <free>
    1dc2:	87 01       	movw	r16, r14
    1dc4:	53 cf       	rjmp	.-346    	; 0x1c6c <realloc+0x1a>
    1dc6:	10 e0       	ldi	r17, 0x00	; 0
    1dc8:	00 e0       	ldi	r16, 0x00	; 0
    1dca:	50 cf       	rjmp	.-352    	; 0x1c6c <realloc+0x1a>

00001dcc <memcpy>:
memcpy():
    1dcc:	fb 01       	movw	r30, r22
    1dce:	dc 01       	movw	r26, r24
    1dd0:	02 c0       	rjmp	.+4      	; 0x1dd6 <memcpy+0xa>
    1dd2:	01 90       	ld	r0, Z+
    1dd4:	0d 92       	st	X+, r0
    1dd6:	41 50       	subi	r20, 0x01	; 1
    1dd8:	50 40       	sbci	r21, 0x00	; 0
    1dda:	d8 f7       	brcc	.-10     	; 0x1dd2 <memcpy+0x6>
    1ddc:	08 95       	ret

00001dde <strcpy>:
strcpy():
    1dde:	fb 01       	movw	r30, r22
    1de0:	dc 01       	movw	r26, r24
    1de2:	01 90       	ld	r0, Z+
    1de4:	0d 92       	st	X+, r0
    1de6:	00 20       	and	r0, r0
    1de8:	e1 f7       	brne	.-8      	; 0x1de2 <strcpy+0x4>
    1dea:	08 95       	ret

00001dec <__prologue_saves__>:
__prologue_saves__():
/home/jenkins-mingw32/workspace/avr-gcc-staging/label/Ubuntu14.04x64-mingw32/gcc-build/avr/avr5/libgcc/../../../../gcc/libgcc/config/avr/lib1funcs.S:2169
    1dec:	2f 92       	push	r2
/home/jenkins-mingw32/workspace/avr-gcc-staging/label/Ubuntu14.04x64-mingw32/gcc-build/avr/avr5/libgcc/../../../../gcc/libgcc/config/avr/lib1funcs.S:2170
    1dee:	3f 92       	push	r3
/home/jenkins-mingw32/workspace/avr-gcc-staging/label/Ubuntu14.04x64-mingw32/gcc-build/avr/avr5/libgcc/../../../../gcc/libgcc/config/avr/lib1funcs.S:2171
    1df0:	4f 92       	push	r4
/home/jenkins-mingw32/workspace/avr-gcc-staging/label/Ubuntu14.04x64-mingw32/gcc-build/avr/avr5/libgcc/../../../../gcc/libgcc/config/avr/lib1funcs.S:2172
    1df2:	5f 92       	push	r5
/home/jenkins-mingw32/workspace/avr-gcc-staging/label/Ubuntu14.04x64-mingw32/gcc-build/avr/avr5/libgcc/../../../../gcc/libgcc/config/avr/lib1funcs.S:2173
    1df4:	6f 92       	push	r6
/home/jenkins-mingw32/workspace/avr-gcc-staging/label/Ubuntu14.04x64-mingw32/gcc-build/avr/avr5/libgcc/../../../../gcc/libgcc/config/avr/lib1funcs.S:2174
    1df6:	7f 92       	push	r7
/home/jenkins-mingw32/workspace/avr-gcc-staging/label/Ubuntu14.04x64-mingw32/gcc-build/avr/avr5/libgcc/../../../../gcc/libgcc/config/avr/lib1funcs.S:2175
    1df8:	8f 92       	push	r8
/home/jenkins-mingw32/workspace/avr-gcc-staging/label/Ubuntu14.04x64-mingw32/gcc-build/avr/avr5/libgcc/../../../../gcc/libgcc/config/avr/lib1funcs.S:2176
    1dfa:	9f 92       	push	r9
/home/jenkins-mingw32/workspace/avr-gcc-staging/label/Ubuntu14.04x64-mingw32/gcc-build/avr/avr5/libgcc/../../../../gcc/libgcc/config/avr/lib1funcs.S:2177
    1dfc:	af 92       	push	r10
/home/jenkins-mingw32/workspace/avr-gcc-staging/label/Ubuntu14.04x64-mingw32/gcc-build/avr/avr5/libgcc/../../../../gcc/libgcc/config/avr/lib1funcs.S:2178
    1dfe:	bf 92       	push	r11
/home/jenkins-mingw32/workspace/avr-gcc-staging/label/Ubuntu14.04x64-mingw32/gcc-build/avr/avr5/libgcc/../../../../gcc/libgcc/config/avr/lib1funcs.S:2179
    1e00:	cf 92       	push	r12
/home/jenkins-mingw32/workspace/avr-gcc-staging/label/Ubuntu14.04x64-mingw32/gcc-build/avr/avr5/libgcc/../../../../gcc/libgcc/config/avr/lib1funcs.S:2180
    1e02:	df 92       	push	r13
/home/jenkins-mingw32/workspace/avr-gcc-staging/label/Ubuntu14.04x64-mingw32/gcc-build/avr/avr5/libgcc/../../../../gcc/libgcc/config/avr/lib1funcs.S:2181
    1e04:	ef 92       	push	r14
/home/jenkins-mingw32/workspace/avr-gcc-staging/label/Ubuntu14.04x64-mingw32/gcc-build/avr/avr5/libgcc/../../../../gcc/libgcc/config/avr/lib1funcs.S:2182
    1e06:	ff 92       	push	r15
/home/jenkins-mingw32/workspace/avr-gcc-staging/label/Ubuntu14.04x64-mingw32/gcc-build/avr/avr5/libgcc/../../../../gcc/libgcc/config/avr/lib1funcs.S:2183
    1e08:	0f 93       	push	r16
/home/jenkins-mingw32/workspace/avr-gcc-staging/label/Ubuntu14.04x64-mingw32/gcc-build/avr/avr5/libgcc/../../../../gcc/libgcc/config/avr/lib1funcs.S:2184
    1e0a:	1f 93       	push	r17
/home/jenkins-mingw32/workspace/avr-gcc-staging/label/Ubuntu14.04x64-mingw32/gcc-build/avr/avr5/libgcc/../../../../gcc/libgcc/config/avr/lib1funcs.S:2185
    1e0c:	cf 93       	push	r28
/home/jenkins-mingw32/workspace/avr-gcc-staging/label/Ubuntu14.04x64-mingw32/gcc-build/avr/avr5/libgcc/../../../../gcc/libgcc/config/avr/lib1funcs.S:2186
    1e0e:	df 93       	push	r29
/home/jenkins-mingw32/workspace/avr-gcc-staging/label/Ubuntu14.04x64-mingw32/gcc-build/avr/avr5/libgcc/../../../../gcc/libgcc/config/avr/lib1funcs.S:2200
    1e10:	cd b7       	in	r28, 0x3d	; 61
/home/jenkins-mingw32/workspace/avr-gcc-staging/label/Ubuntu14.04x64-mingw32/gcc-build/avr/avr5/libgcc/../../../../gcc/libgcc/config/avr/lib1funcs.S:2201
    1e12:	de b7       	in	r29, 0x3e	; 62
/home/jenkins-mingw32/workspace/avr-gcc-staging/label/Ubuntu14.04x64-mingw32/gcc-build/avr/avr5/libgcc/../../../../gcc/libgcc/config/avr/lib1funcs.S:2202
    1e14:	ca 1b       	sub	r28, r26
/home/jenkins-mingw32/workspace/avr-gcc-staging/label/Ubuntu14.04x64-mingw32/gcc-build/avr/avr5/libgcc/../../../../gcc/libgcc/config/avr/lib1funcs.S:2203
    1e16:	db 0b       	sbc	r29, r27
/home/jenkins-mingw32/workspace/avr-gcc-staging/label/Ubuntu14.04x64-mingw32/gcc-build/avr/avr5/libgcc/../../../../gcc/libgcc/config/avr/lib1funcs.S:2204
    1e18:	0f b6       	in	r0, 0x3f	; 63
/home/jenkins-mingw32/workspace/avr-gcc-staging/label/Ubuntu14.04x64-mingw32/gcc-build/avr/avr5/libgcc/../../../../gcc/libgcc/config/avr/lib1funcs.S:2205
    1e1a:	f8 94       	cli
/home/jenkins-mingw32/workspace/avr-gcc-staging/label/Ubuntu14.04x64-mingw32/gcc-build/avr/avr5/libgcc/../../../../gcc/libgcc/config/avr/lib1funcs.S:2206
    1e1c:	de bf       	out	0x3e, r29	; 62
/home/jenkins-mingw32/workspace/avr-gcc-staging/label/Ubuntu14.04x64-mingw32/gcc-build/avr/avr5/libgcc/../../../../gcc/libgcc/config/avr/lib1funcs.S:2207
    1e1e:	0f be       	out	0x3f, r0	; 63
/home/jenkins-mingw32/workspace/avr-gcc-staging/label/Ubuntu14.04x64-mingw32/gcc-build/avr/avr5/libgcc/../../../../gcc/libgcc/config/avr/lib1funcs.S:2208
    1e20:	cd bf       	out	0x3d, r28	; 61
/home/jenkins-mingw32/workspace/avr-gcc-staging/label/Ubuntu14.04x64-mingw32/gcc-build/avr/avr5/libgcc/../../../../gcc/libgcc/config/avr/lib1funcs.S:2211
    1e22:	09 94       	ijmp

00001e24 <__epilogue_restores__>:
__epilogue_restores__():
/home/jenkins-mingw32/workspace/avr-gcc-staging/label/Ubuntu14.04x64-mingw32/gcc-build/avr/avr5/libgcc/../../../../gcc/libgcc/config/avr/lib1funcs.S:2222
    1e24:	2a 88       	ldd	r2, Y+18	; 0x12
/home/jenkins-mingw32/workspace/avr-gcc-staging/label/Ubuntu14.04x64-mingw32/gcc-build/avr/avr5/libgcc/../../../../gcc/libgcc/config/avr/lib1funcs.S:2223
    1e26:	39 88       	ldd	r3, Y+17	; 0x11
/home/jenkins-mingw32/workspace/avr-gcc-staging/label/Ubuntu14.04x64-mingw32/gcc-build/avr/avr5/libgcc/../../../../gcc/libgcc/config/avr/lib1funcs.S:2224
    1e28:	48 88       	ldd	r4, Y+16	; 0x10
/home/jenkins-mingw32/workspace/avr-gcc-staging/label/Ubuntu14.04x64-mingw32/gcc-build/avr/avr5/libgcc/../../../../gcc/libgcc/config/avr/lib1funcs.S:2225
    1e2a:	5f 84       	ldd	r5, Y+15	; 0x0f
/home/jenkins-mingw32/workspace/avr-gcc-staging/label/Ubuntu14.04x64-mingw32/gcc-build/avr/avr5/libgcc/../../../../gcc/libgcc/config/avr/lib1funcs.S:2226
    1e2c:	6e 84       	ldd	r6, Y+14	; 0x0e
/home/jenkins-mingw32/workspace/avr-gcc-staging/label/Ubuntu14.04x64-mingw32/gcc-build/avr/avr5/libgcc/../../../../gcc/libgcc/config/avr/lib1funcs.S:2227
    1e2e:	7d 84       	ldd	r7, Y+13	; 0x0d
/home/jenkins-mingw32/workspace/avr-gcc-staging/label/Ubuntu14.04x64-mingw32/gcc-build/avr/avr5/libgcc/../../../../gcc/libgcc/config/avr/lib1funcs.S:2228
    1e30:	8c 84       	ldd	r8, Y+12	; 0x0c
/home/jenkins-mingw32/workspace/avr-gcc-staging/label/Ubuntu14.04x64-mingw32/gcc-build/avr/avr5/libgcc/../../../../gcc/libgcc/config/avr/lib1funcs.S:2229
    1e32:	9b 84       	ldd	r9, Y+11	; 0x0b
/home/jenkins-mingw32/workspace/avr-gcc-staging/label/Ubuntu14.04x64-mingw32/gcc-build/avr/avr5/libgcc/../../../../gcc/libgcc/config/avr/lib1funcs.S:2230
    1e34:	aa 84       	ldd	r10, Y+10	; 0x0a
/home/jenkins-mingw32/workspace/avr-gcc-staging/label/Ubuntu14.04x64-mingw32/gcc-build/avr/avr5/libgcc/../../../../gcc/libgcc/config/avr/lib1funcs.S:2231
    1e36:	b9 84       	ldd	r11, Y+9	; 0x09
/home/jenkins-mingw32/workspace/avr-gcc-staging/label/Ubuntu14.04x64-mingw32/gcc-build/avr/avr5/libgcc/../../../../gcc/libgcc/config/avr/lib1funcs.S:2232
    1e38:	c8 84       	ldd	r12, Y+8	; 0x08
/home/jenkins-mingw32/workspace/avr-gcc-staging/label/Ubuntu14.04x64-mingw32/gcc-build/avr/avr5/libgcc/../../../../gcc/libgcc/config/avr/lib1funcs.S:2233
    1e3a:	df 80       	ldd	r13, Y+7	; 0x07
/home/jenkins-mingw32/workspace/avr-gcc-staging/label/Ubuntu14.04x64-mingw32/gcc-build/avr/avr5/libgcc/../../../../gcc/libgcc/config/avr/lib1funcs.S:2234
    1e3c:	ee 80       	ldd	r14, Y+6	; 0x06
/home/jenkins-mingw32/workspace/avr-gcc-staging/label/Ubuntu14.04x64-mingw32/gcc-build/avr/avr5/libgcc/../../../../gcc/libgcc/config/avr/lib1funcs.S:2235
    1e3e:	fd 80       	ldd	r15, Y+5	; 0x05
/home/jenkins-mingw32/workspace/avr-gcc-staging/label/Ubuntu14.04x64-mingw32/gcc-build/avr/avr5/libgcc/../../../../gcc/libgcc/config/avr/lib1funcs.S:2236
    1e40:	0c 81       	ldd	r16, Y+4	; 0x04
/home/jenkins-mingw32/workspace/avr-gcc-staging/label/Ubuntu14.04x64-mingw32/gcc-build/avr/avr5/libgcc/../../../../gcc/libgcc/config/avr/lib1funcs.S:2237
    1e42:	1b 81       	ldd	r17, Y+3	; 0x03
/home/jenkins-mingw32/workspace/avr-gcc-staging/label/Ubuntu14.04x64-mingw32/gcc-build/avr/avr5/libgcc/../../../../gcc/libgcc/config/avr/lib1funcs.S:2238
    1e44:	aa 81       	ldd	r26, Y+2	; 0x02
/home/jenkins-mingw32/workspace/avr-gcc-staging/label/Ubuntu14.04x64-mingw32/gcc-build/avr/avr5/libgcc/../../../../gcc/libgcc/config/avr/lib1funcs.S:2252
    1e46:	b9 81       	ldd	r27, Y+1	; 0x01
/home/jenkins-mingw32/workspace/avr-gcc-staging/label/Ubuntu14.04x64-mingw32/gcc-build/avr/avr5/libgcc/../../../../gcc/libgcc/config/avr/lib1funcs.S:2253
    1e48:	ce 0f       	add	r28, r30
/home/jenkins-mingw32/workspace/avr-gcc-staging/label/Ubuntu14.04x64-mingw32/gcc-build/avr/avr5/libgcc/../../../../gcc/libgcc/config/avr/lib1funcs.S:2254
    1e4a:	d1 1d       	adc	r29, r1
/home/jenkins-mingw32/workspace/avr-gcc-staging/label/Ubuntu14.04x64-mingw32/gcc-build/avr/avr5/libgcc/../../../../gcc/libgcc/config/avr/lib1funcs.S:2255
    1e4c:	0f b6       	in	r0, 0x3f	; 63
/home/jenkins-mingw32/workspace/avr-gcc-staging/label/Ubuntu14.04x64-mingw32/gcc-build/avr/avr5/libgcc/../../../../gcc/libgcc/config/avr/lib1funcs.S:2256
    1e4e:	f8 94       	cli
/home/jenkins-mingw32/workspace/avr-gcc-staging/label/Ubuntu14.04x64-mingw32/gcc-build/avr/avr5/libgcc/../../../../gcc/libgcc/config/avr/lib1funcs.S:2257
    1e50:	de bf       	out	0x3e, r29	; 62
/home/jenkins-mingw32/workspace/avr-gcc-staging/label/Ubuntu14.04x64-mingw32/gcc-build/avr/avr5/libgcc/../../../../gcc/libgcc/config/avr/lib1funcs.S:2258
    1e52:	0f be       	out	0x3f, r0	; 63
/home/jenkins-mingw32/workspace/avr-gcc-staging/label/Ubuntu14.04x64-mingw32/gcc-build/avr/avr5/libgcc/../../../../gcc/libgcc/config/avr/lib1funcs.S:2259
    1e54:	cd bf       	out	0x3d, r28	; 61
/home/jenkins-mingw32/workspace/avr-gcc-staging/label/Ubuntu14.04x64-mingw32/gcc-build/avr/avr5/libgcc/../../../../gcc/libgcc/config/avr/lib1funcs.S:2260
    1e56:	ed 01       	movw	r28, r26
/home/jenkins-mingw32/workspace/avr-gcc-staging/label/Ubuntu14.04x64-mingw32/gcc-build/avr/avr5/libgcc/../../../../gcc/libgcc/config/avr/lib1funcs.S:2263
    1e58:	08 95       	ret

00001e5a <__do_global_dtors>:
__do_global_dtors():
/home/jenkins-mingw32/workspace/avr-gcc-staging/label/Ubuntu14.04x64-mingw32/gcc-build/avr/avr5/libgcc/../../../../gcc/libgcc/config/avr/lib1funcs.S:2496
    1e5a:	10 e0       	ldi	r17, 0x00	; 0
/home/jenkins-mingw32/workspace/avr-gcc-staging/label/Ubuntu14.04x64-mingw32/gcc-build/avr/avr5/libgcc/../../../../gcc/libgcc/config/avr/lib1funcs.S:2497
    1e5c:	c0 ee       	ldi	r28, 0xE0	; 224
/home/jenkins-mingw32/workspace/avr-gcc-staging/label/Ubuntu14.04x64-mingw32/gcc-build/avr/avr5/libgcc/../../../../gcc/libgcc/config/avr/lib1funcs.S:2498
    1e5e:	d0 e0       	ldi	r29, 0x00	; 0
/home/jenkins-mingw32/workspace/avr-gcc-staging/label/Ubuntu14.04x64-mingw32/gcc-build/avr/avr5/libgcc/../../../../gcc/libgcc/config/avr/lib1funcs.S:2502
    1e60:	04 c0       	rjmp	.+8      	; 0x1e6a <__do_global_dtors+0x10>
/home/jenkins-mingw32/workspace/avr-gcc-staging/label/Ubuntu14.04x64-mingw32/gcc-build/avr/avr5/libgcc/../../../../gcc/libgcc/config/avr/lib1funcs.S:2508
    1e62:	fe 01       	movw	r30, r28
/home/jenkins-mingw32/workspace/avr-gcc-staging/label/Ubuntu14.04x64-mingw32/gcc-build/avr/avr5/libgcc/../../../../gcc/libgcc/config/avr/lib1funcs.S:2509
    1e64:	0e 94 ea 0c 	call	0x19d4	; 0x19d4 <__tablejump2__>
/home/jenkins-mingw32/workspace/avr-gcc-staging/label/Ubuntu14.04x64-mingw32/gcc-build/avr/avr5/libgcc/../../../../gcc/libgcc/config/avr/lib1funcs.S:2510
    1e68:	21 96       	adiw	r28, 0x01	; 1
/home/jenkins-mingw32/workspace/avr-gcc-staging/label/Ubuntu14.04x64-mingw32/gcc-build/avr/avr5/libgcc/../../../../gcc/libgcc/config/avr/lib1funcs.S:2515
    1e6a:	c2 3e       	cpi	r28, 0xE2	; 226
/home/jenkins-mingw32/workspace/avr-gcc-staging/label/Ubuntu14.04x64-mingw32/gcc-build/avr/avr5/libgcc/../../../../gcc/libgcc/config/avr/lib1funcs.S:2516
    1e6c:	d1 07       	cpc	r29, r17
/home/jenkins-mingw32/workspace/avr-gcc-staging/label/Ubuntu14.04x64-mingw32/gcc-build/avr/avr5/libgcc/../../../../gcc/libgcc/config/avr/lib1funcs.S:2521
    1e6e:	c9 f7       	brne	.-14     	; 0x1e62 <__do_global_dtors+0x8>
/home/jenkins-mingw32/workspace/avr-gcc-staging/label/Ubuntu14.04x64-mingw32/gcc-build/avr/avr5/libgcc/../../../../gcc/libgcc/config/avr/lib1funcs.S:2278
    1e70:	f8 94       	cli

00001e72 <__stop_program>:
__stop_program():
/home/jenkins-mingw32/workspace/avr-gcc-staging/label/Ubuntu14.04x64-mingw32/gcc-build/avr/avr5/libgcc/../../../../gcc/libgcc/config/avr/lib1funcs.S:2280
    1e72:	ff cf       	rjmp	.-2      	; 0x1e72 <__stop_program>
